ARM GAS  /home/pauba/tmp/ccqbUBmw.s 			page 1


   1              		.syntax unified
   2              		.cpu cortex-m4
   3              		.fpu softvfp
   4              		.eabi_attribute 20, 1
   5              		.eabi_attribute 21, 1
   6              		.eabi_attribute 23, 3
   7              		.eabi_attribute 24, 1
   8              		.eabi_attribute 25, 1
   9              		.eabi_attribute 26, 1
  10              		.eabi_attribute 30, 6
  11              		.eabi_attribute 34, 1
  12              		.eabi_attribute 18, 4
  13              		.thumb
  14              		.file	"adc_lld.c"
  15              		.text
  16              	.Ltext0:
  17              		.cfi_sections	.debug_frame
  18              		.global	ADCD1
  19              		.section	.bss.ADCD1,"aw",%nobits
  20              		.align	2
  21              		.type	ADCD1, %object
  22              		.size	ADCD1, 52
  23              	ADCD1:
  24 0000 00000000 		.space	52
  24      00000000 
  24      00000000 
  24      00000000 
  24      00000000 
  25              		.section	.text.adc_lld_serve_rx_interrupt,"ax",%progbits
  26              		.align	2
  27              		.p2align 4,,15
  28              		.thumb
  29              		.thumb_func
  30              		.type	adc_lld_serve_rx_interrupt, %function
  31              	adc_lld_serve_rx_interrupt:
  32              	.LFB63:
  33              		.file 1 "/home/pauba/ChibiOS-RT/os/hal/platforms/STM32L1xx/adc_lld.c"
  34              		.loc 1 57 0
  35              		.cfi_startproc
  36              		@ args = 0, pretend = 0, frame = 24
  37              		@ frame_needed = 0, uses_anonymous_args = 0
  38 0000 00B5     		push	{lr}
  39              		.cfi_def_cfa_offset 4
  40              		.cfi_offset 14, -4
  41 0002 87B0     		sub	sp, sp, #28
  42              		.cfi_def_cfa_offset 32
  43 0004 0190     		str	r0, [sp, #4]
  44 0006 0091     		str	r1, [sp]
  45              		.loc 1 60 0
  46 0008 009B     		ldr	r3, [sp]
  47 000a 03F00803 		and	r3, r3, #8
  48 000e 002B     		cmp	r3, #0
  49 0010 36D0     		beq	.L2
  50              		.loc 1 63 0
  51 0012 0198     		ldr	r0, [sp, #4]
  52 0014 FFF7FEFF 		bl	adc_lld_stop_conversion
  53 0018 019B     		ldr	r3, [sp, #4]
ARM GAS  /home/pauba/tmp/ccqbUBmw.s 			page 2


  54 001a 1B69     		ldr	r3, [r3, #16]
  55 001c 9B68     		ldr	r3, [r3, #8]
  56 001e 002B     		cmp	r3, #0
  57 0020 0FD0     		beq	.L3
  58              		.loc 1 63 0 is_stmt 0 discriminator 1
  59 0022 019B     		ldr	r3, [sp, #4]
  60 0024 0522     		movs	r2, #5
  61 0026 1A70     		strb	r2, [r3]
  62 0028 019B     		ldr	r3, [sp, #4]
  63 002a 1B69     		ldr	r3, [r3, #16]
  64 002c 9B68     		ldr	r3, [r3, #8]
  65 002e 0198     		ldr	r0, [sp, #4]
  66 0030 0021     		movs	r1, #0
  67 0032 9847     		blx	r3
  68 0034 019B     		ldr	r3, [sp, #4]
  69 0036 1B78     		ldrb	r3, [r3]	@ zero_extendqisi2
  70 0038 052B     		cmp	r3, #5
  71 003a 02D1     		bne	.L3
  72 003c 019B     		ldr	r3, [sp, #4]
  73 003e 0222     		movs	r2, #2
  74 0040 1A70     		strb	r2, [r3]
  75              	.L3:
  76              		.loc 1 63 0 discriminator 2
  77 0042 019B     		ldr	r3, [sp, #4]
  78 0044 0022     		movs	r2, #0
  79 0046 1A61     		str	r2, [r3, #16]
  80              	.LBB2:
  81 0048 2023     		movs	r3, #32
  82              	@ 63 "/home/pauba/ChibiOS-RT/os/hal/platforms/STM32L1xx/adc_lld.c" 1
  83 004a 83F31188 		msr     BASEPRI, r3
  84              	@ 0 "" 2
  85              		.thumb
  86              	.LBE2:
  87 004e FFF7FEFF 		bl	dbg_check_lock_from_isr
  88 0052 019B     		ldr	r3, [sp, #4]
  89 0054 5B69     		ldr	r3, [r3, #20]
  90 0056 002B     		cmp	r3, #0
  91 0058 0CD0     		beq	.L4
  92              	.LBB3:
  93              		.loc 1 63 0 discriminator 1
  94 005a 019B     		ldr	r3, [sp, #4]
  95 005c 5B69     		ldr	r3, [r3, #20]
  96 005e 0593     		str	r3, [sp, #20]
  97 0060 019B     		ldr	r3, [sp, #4]
  98 0062 0022     		movs	r2, #0
  99 0064 5A61     		str	r2, [r3, #20]
 100 0066 059B     		ldr	r3, [sp, #20]
 101 0068 4FF0FF32 		mov	r2, #-1
 102 006c 9A62     		str	r2, [r3, #40]
 103 006e 0598     		ldr	r0, [sp, #20]
 104 0070 FFF7FEFF 		bl	chSchReadyI
 105              	.L4:
 106              	.LBE3:
 107              		.loc 1 63 0 discriminator 2
 108 0074 FFF7FEFF 		bl	dbg_check_unlock_from_isr
 109              	.LBB4:
 110 0078 0023     		movs	r3, #0
ARM GAS  /home/pauba/tmp/ccqbUBmw.s 			page 3


 111              	@ 63 "/home/pauba/ChibiOS-RT/os/hal/platforms/STM32L1xx/adc_lld.c" 1
 112 007a 83F31188 		msr     BASEPRI, r3
 113              	@ 0 "" 2
 114              		.thumb
 115              	.LBE4:
 116 007e 8DE0     		b	.L1
 117              	.L2:
 118              		.loc 1 68 0 is_stmt 1
 119 0080 019B     		ldr	r3, [sp, #4]
 120 0082 1B69     		ldr	r3, [r3, #16]
 121 0084 002B     		cmp	r3, #0
 122 0086 00F08980 		beq	.L1
 123              		.loc 1 69 0
 124 008a 009B     		ldr	r3, [sp]
 125 008c 03F00203 		and	r3, r3, #2
 126 0090 002B     		cmp	r3, #0
 127 0092 6FD0     		beq	.L6
 128              		.loc 1 71 0
 129 0094 019B     		ldr	r3, [sp, #4]
 130 0096 1B69     		ldr	r3, [r3, #16]
 131 0098 1B78     		ldrb	r3, [r3]	@ zero_extendqisi2
 132 009a 002B     		cmp	r3, #0
 133 009c 2AD0     		beq	.L7
 134              		.loc 1 71 0 is_stmt 0 discriminator 1
 135 009e 019B     		ldr	r3, [sp, #4]
 136 00a0 1B69     		ldr	r3, [r3, #16]
 137 00a2 5B68     		ldr	r3, [r3, #4]
 138 00a4 002B     		cmp	r3, #0
 139 00a6 79D0     		beq	.L1
 140 00a8 019B     		ldr	r3, [sp, #4]
 141 00aa DB68     		ldr	r3, [r3, #12]
 142 00ac 012B     		cmp	r3, #1
 143 00ae 17D9     		bls	.L9
 144              	.LBB5:
 145 00b0 019B     		ldr	r3, [sp, #4]
 146 00b2 DB68     		ldr	r3, [r3, #12]
 147 00b4 5B08     		lsrs	r3, r3, #1
 148 00b6 0493     		str	r3, [sp, #16]
 149 00b8 019B     		ldr	r3, [sp, #4]
 150 00ba 1B69     		ldr	r3, [r3, #16]
 151 00bc 5B88     		ldrh	r3, [r3, #2]
 152 00be 049A     		ldr	r2, [sp, #16]
 153 00c0 02FB03F3 		mul	r3, r2, r3
 154 00c4 0393     		str	r3, [sp, #12]
 155 00c6 019B     		ldr	r3, [sp, #4]
 156 00c8 1B69     		ldr	r3, [r3, #16]
 157 00ca 5B68     		ldr	r3, [r3, #4]
 158 00cc 019A     		ldr	r2, [sp, #4]
 159 00ce 9168     		ldr	r1, [r2, #8]
 160 00d0 039A     		ldr	r2, [sp, #12]
 161 00d2 5200     		lsls	r2, r2, #1
 162 00d4 0A44     		add	r2, r2, r1
 163 00d6 0198     		ldr	r0, [sp, #4]
 164 00d8 1146     		mov	r1, r2
 165 00da 049A     		ldr	r2, [sp, #16]
 166 00dc 9847     		blx	r3
 167              	.LBE5:
ARM GAS  /home/pauba/tmp/ccqbUBmw.s 			page 4


 168 00de 5DE0     		b	.L1
 169              	.L9:
 170              		.loc 1 71 0 discriminator 2
 171 00e0 019B     		ldr	r3, [sp, #4]
 172 00e2 1B69     		ldr	r3, [r3, #16]
 173 00e4 5B68     		ldr	r3, [r3, #4]
 174 00e6 019A     		ldr	r2, [sp, #4]
 175 00e8 9168     		ldr	r1, [r2, #8]
 176 00ea 019A     		ldr	r2, [sp, #4]
 177 00ec D268     		ldr	r2, [r2, #12]
 178 00ee 0198     		ldr	r0, [sp, #4]
 179 00f0 9847     		blx	r3
 180 00f2 53E0     		b	.L1
 181              	.L7:
 182 00f4 0198     		ldr	r0, [sp, #4]
 183 00f6 FFF7FEFF 		bl	adc_lld_stop_conversion
 184 00fa 019B     		ldr	r3, [sp, #4]
 185 00fc 1B69     		ldr	r3, [r3, #16]
 186 00fe 5B68     		ldr	r3, [r3, #4]
 187 0100 002B     		cmp	r3, #0
 188 0102 16D0     		beq	.L11
 189              		.loc 1 71 0 discriminator 1
 190 0104 019B     		ldr	r3, [sp, #4]
 191 0106 0422     		movs	r2, #4
 192 0108 1A70     		strb	r2, [r3]
 193 010a 019B     		ldr	r3, [sp, #4]
 194 010c 1B69     		ldr	r3, [r3, #16]
 195 010e 5B68     		ldr	r3, [r3, #4]
 196 0110 019A     		ldr	r2, [sp, #4]
 197 0112 9168     		ldr	r1, [r2, #8]
 198 0114 019A     		ldr	r2, [sp, #4]
 199 0116 D268     		ldr	r2, [r2, #12]
 200 0118 0198     		ldr	r0, [sp, #4]
 201 011a 9847     		blx	r3
 202 011c 019B     		ldr	r3, [sp, #4]
 203 011e 1B78     		ldrb	r3, [r3]	@ zero_extendqisi2
 204 0120 042B     		cmp	r3, #4
 205 0122 0CD1     		bne	.L13
 206 0124 019B     		ldr	r3, [sp, #4]
 207 0126 0222     		movs	r2, #2
 208 0128 1A70     		strb	r2, [r3]
 209 012a 019B     		ldr	r3, [sp, #4]
 210 012c 0022     		movs	r2, #0
 211 012e 1A61     		str	r2, [r3, #16]
 212 0130 05E0     		b	.L13
 213              	.L11:
 214              		.loc 1 71 0 discriminator 2
 215 0132 019B     		ldr	r3, [sp, #4]
 216 0134 0222     		movs	r2, #2
 217 0136 1A70     		strb	r2, [r3]
 218 0138 019B     		ldr	r3, [sp, #4]
 219 013a 0022     		movs	r2, #0
 220 013c 1A61     		str	r2, [r3, #16]
 221              	.L13:
 222              	.LBB6:
 223              		.loc 1 71 0 discriminator 1
 224 013e 2023     		movs	r3, #32
ARM GAS  /home/pauba/tmp/ccqbUBmw.s 			page 5


 225              	@ 71 "/home/pauba/ChibiOS-RT/os/hal/platforms/STM32L1xx/adc_lld.c" 1
 226 0140 83F31188 		msr     BASEPRI, r3
 227              	@ 0 "" 2
 228              		.thumb
 229              	.LBE6:
 230 0144 FFF7FEFF 		bl	dbg_check_lock_from_isr
 231 0148 019B     		ldr	r3, [sp, #4]
 232 014a 5B69     		ldr	r3, [r3, #20]
 233 014c 002B     		cmp	r3, #0
 234 014e 0BD0     		beq	.L14
 235              	.LBB7:
 236 0150 019B     		ldr	r3, [sp, #4]
 237 0152 5B69     		ldr	r3, [r3, #20]
 238 0154 0293     		str	r3, [sp, #8]
 239 0156 019B     		ldr	r3, [sp, #4]
 240 0158 0022     		movs	r2, #0
 241 015a 5A61     		str	r2, [r3, #20]
 242 015c 029B     		ldr	r3, [sp, #8]
 243 015e 0022     		movs	r2, #0
 244 0160 9A62     		str	r2, [r3, #40]
 245 0162 0298     		ldr	r0, [sp, #8]
 246 0164 FFF7FEFF 		bl	chSchReadyI
 247              	.L14:
 248              	.LBE7:
 249              		.loc 1 71 0 discriminator 2
 250 0168 FFF7FEFF 		bl	dbg_check_unlock_from_isr
 251              	.LBB8:
 252 016c 0023     		movs	r3, #0
 253              	@ 71 "/home/pauba/ChibiOS-RT/os/hal/platforms/STM32L1xx/adc_lld.c" 1
 254 016e 83F31188 		msr     BASEPRI, r3
 255              	@ 0 "" 2
 256              		.thumb
 257 0172 13E0     		b	.L1
 258              	.L6:
 259              	.LBE8:
 260              		.loc 1 73 0 is_stmt 1
 261 0174 009B     		ldr	r3, [sp]
 262 0176 03F00403 		and	r3, r3, #4
 263 017a 002B     		cmp	r3, #0
 264 017c 0ED0     		beq	.L1
 265              		.loc 1 75 0
 266 017e 019B     		ldr	r3, [sp, #4]
 267 0180 1B69     		ldr	r3, [r3, #16]
 268 0182 5B68     		ldr	r3, [r3, #4]
 269 0184 002B     		cmp	r3, #0
 270 0186 09D0     		beq	.L1
 271              		.loc 1 75 0 is_stmt 0 discriminator 1
 272 0188 019B     		ldr	r3, [sp, #4]
 273 018a 1B69     		ldr	r3, [r3, #16]
 274 018c 5B68     		ldr	r3, [r3, #4]
 275 018e 019A     		ldr	r2, [sp, #4]
 276 0190 9168     		ldr	r1, [r2, #8]
 277 0192 019A     		ldr	r2, [sp, #4]
 278 0194 D268     		ldr	r2, [r2, #12]
 279 0196 5208     		lsrs	r2, r2, #1
 280 0198 0198     		ldr	r0, [sp, #4]
 281 019a 9847     		blx	r3
ARM GAS  /home/pauba/tmp/ccqbUBmw.s 			page 6


 282              	.L1:
 283              		.loc 1 79 0 is_stmt 1
 284 019c 07B0     		add	sp, sp, #28
 285              		@ sp needed
 286 019e 5DF804FB 		ldr	pc, [sp], #4
 287              		.cfi_endproc
 288              	.LFE63:
 289              		.size	adc_lld_serve_rx_interrupt, .-adc_lld_serve_rx_interrupt
 290 01a2 00BFAFF3 		.section	.text.Vector88,"ax",%progbits
 290      0080AFF3 
 290      0080AFF3 
 290      0080
 291              		.align	2
 292              		.p2align 4,,15
 293              		.global	Vector88
 294              		.thumb
 295              		.thumb_func
 296              		.type	Vector88, %function
 297              	Vector88:
 298              	.LFB64:
 299              		.loc 1 91 0
 300              		.cfi_startproc
 301              		@ args = 0, pretend = 0, frame = 8
 302              		@ frame_needed = 0, uses_anonymous_args = 0
 303 0000 00B5     		push	{lr}
 304              		.cfi_def_cfa_offset 4
 305              		.cfi_offset 14, -4
 306 0002 83B0     		sub	sp, sp, #12
 307              		.cfi_def_cfa_offset 16
 308              		.loc 1 94 0
 309 0004 FFF7FEFF 		bl	dbg_check_enter_isr
 310              		.loc 1 96 0
 311 0008 284B     		ldr	r3, .L19
 312 000a 1B68     		ldr	r3, [r3]
 313 000c 0193     		str	r3, [sp, #4]
 314              		.loc 1 97 0
 315 000e 274B     		ldr	r3, .L19
 316 0010 0022     		movs	r2, #0
 317 0012 1A60     		str	r2, [r3]
 318              		.loc 1 100 0
 319 0014 019B     		ldr	r3, [sp, #4]
 320 0016 03F02003 		and	r3, r3, #32
 321 001a 002B     		cmp	r3, #0
 322 001c 3FD0     		beq	.L16
 323              		.loc 1 100 0 is_stmt 0 discriminator 1
 324 001e 244B     		ldr	r3, .L19+4
 325 0020 DB6A     		ldr	r3, [r3, #44]
 326 0022 1B68     		ldr	r3, [r3]
 327 0024 5B68     		ldr	r3, [r3, #4]
 328 0026 002B     		cmp	r3, #0
 329 0028 39D0     		beq	.L16
 330              		.loc 1 103 0 is_stmt 1
 331 002a 214B     		ldr	r3, .L19+4
 332 002c 1B69     		ldr	r3, [r3, #16]
 333 002e 002B     		cmp	r3, #0
 334 0030 35D0     		beq	.L16
 335              		.loc 1 104 0
ARM GAS  /home/pauba/tmp/ccqbUBmw.s 			page 7


 336 0032 1F48     		ldr	r0, .L19+4
 337 0034 FFF7FEFF 		bl	adc_lld_stop_conversion
 338 0038 1D4B     		ldr	r3, .L19+4
 339 003a 1B69     		ldr	r3, [r3, #16]
 340 003c 9B68     		ldr	r3, [r3, #8]
 341 003e 002B     		cmp	r3, #0
 342 0040 0FD0     		beq	.L17
 343              		.loc 1 104 0 is_stmt 0 discriminator 1
 344 0042 1B4B     		ldr	r3, .L19+4
 345 0044 0522     		movs	r2, #5
 346 0046 1A70     		strb	r2, [r3]
 347 0048 194B     		ldr	r3, .L19+4
 348 004a 1B69     		ldr	r3, [r3, #16]
 349 004c 9B68     		ldr	r3, [r3, #8]
 350 004e 1848     		ldr	r0, .L19+4
 351 0050 0121     		movs	r1, #1
 352 0052 9847     		blx	r3
 353 0054 164B     		ldr	r3, .L19+4
 354 0056 1B78     		ldrb	r3, [r3]	@ zero_extendqisi2
 355 0058 052B     		cmp	r3, #5
 356 005a 02D1     		bne	.L17
 357 005c 144B     		ldr	r3, .L19+4
 358 005e 0222     		movs	r2, #2
 359 0060 1A70     		strb	r2, [r3]
 360              	.L17:
 361              		.loc 1 104 0 discriminator 2
 362 0062 134B     		ldr	r3, .L19+4
 363 0064 0022     		movs	r2, #0
 364 0066 1A61     		str	r2, [r3, #16]
 365              	.LBB9:
 366 0068 2023     		movs	r3, #32
 367              	@ 104 "/home/pauba/ChibiOS-RT/os/hal/platforms/STM32L1xx/adc_lld.c" 1
 368 006a 83F31188 		msr     BASEPRI, r3
 369              	@ 0 "" 2
 370              		.thumb
 371              	.LBE9:
 372 006e FFF7FEFF 		bl	dbg_check_lock_from_isr
 373 0072 0F4B     		ldr	r3, .L19+4
 374 0074 5B69     		ldr	r3, [r3, #20]
 375 0076 002B     		cmp	r3, #0
 376 0078 0CD0     		beq	.L18
 377              	.LBB10:
 378              		.loc 1 104 0 discriminator 1
 379 007a 0D4B     		ldr	r3, .L19+4
 380 007c 5B69     		ldr	r3, [r3, #20]
 381 007e 0093     		str	r3, [sp]
 382 0080 0B4B     		ldr	r3, .L19+4
 383 0082 0022     		movs	r2, #0
 384 0084 5A61     		str	r2, [r3, #20]
 385 0086 009B     		ldr	r3, [sp]
 386 0088 4FF0FF32 		mov	r2, #-1
 387 008c 9A62     		str	r2, [r3, #40]
 388 008e 0098     		ldr	r0, [sp]
 389 0090 FFF7FEFF 		bl	chSchReadyI
 390              	.L18:
 391              	.LBE10:
 392              		.loc 1 104 0 discriminator 2
ARM GAS  /home/pauba/tmp/ccqbUBmw.s 			page 8


 393 0094 FFF7FEFF 		bl	dbg_check_unlock_from_isr
 394              	.LBB11:
 395 0098 0023     		movs	r3, #0
 396              	@ 104 "/home/pauba/ChibiOS-RT/os/hal/platforms/STM32L1xx/adc_lld.c" 1
 397 009a 83F31188 		msr     BASEPRI, r3
 398              	@ 0 "" 2
 399              		.thumb
 400              	.L16:
 401              	.LBE11:
 402              		.loc 1 108 0 is_stmt 1
 403 009e FFF7FEFF 		bl	dbg_check_leave_isr
 404 00a2 FFF7FEFF 		bl	_port_irq_epilogue
 405              		.loc 1 109 0
 406 00a6 03B0     		add	sp, sp, #12
 407              		@ sp needed
 408 00a8 5DF804FB 		ldr	pc, [sp], #4
 409              	.L20:
 410              		.align	2
 411              	.L19:
 412 00ac 00240140 		.word	1073816576
 413 00b0 00000000 		.word	ADCD1
 414              		.cfi_endproc
 415              	.LFE64:
 416              		.size	Vector88, .-Vector88
 417 00b4 AFF30080 		.section	.text.adc_lld_init,"ax",%progbits
 417      AFF30080 
 417      AFF30080 
 418              		.align	2
 419              		.p2align 4,,15
 420              		.global	adc_lld_init
 421              		.thumb
 422              		.thumb_func
 423              		.type	adc_lld_init, %function
 424              	adc_lld_init:
 425              	.LFB65:
 426              		.loc 1 121 0
 427              		.cfi_startproc
 428              		@ args = 0, pretend = 0, frame = 0
 429              		@ frame_needed = 0, uses_anonymous_args = 0
 430 0000 08B5     		push	{r3, lr}
 431              		.cfi_def_cfa_offset 8
 432              		.cfi_offset 3, -8
 433              		.cfi_offset 14, -4
 434              		.loc 1 125 0
 435 0002 0948     		ldr	r0, .L22
 436 0004 FFF7FEFF 		bl	adcObjectInit
 437              		.loc 1 126 0
 438 0008 074B     		ldr	r3, .L22
 439 000a 084A     		ldr	r2, .L22+4
 440 000c 9A62     		str	r2, [r3, #40]
 441              		.loc 1 127 0
 442 000e 064B     		ldr	r3, .L22
 443 0010 074A     		ldr	r2, .L22+8
 444 0012 DA62     		str	r2, [r3, #44]
 445              		.loc 1 128 0
 446 0014 044B     		ldr	r3, .L22
 447 0016 42F28A52 		movw	r2, #9610
ARM GAS  /home/pauba/tmp/ccqbUBmw.s 			page 9


 448 001a 1A63     		str	r2, [r3, #48]
 449              		.loc 1 137 0
 450 001c 1220     		movs	r0, #18
 451 001e 6021     		movs	r1, #96
 452 0020 FFF7FEFF 		bl	nvicEnableVector
 453              		.loc 1 138 0
 454 0024 08BD     		pop	{r3, pc}
 455              	.L23:
 456 0026 00BF     		.align	2
 457              	.L22:
 458 0028 00000000 		.word	ADCD1
 459 002c 00240140 		.word	1073816576
 460 0030 00000000 		.word	_stm32_dma_streams
 461              		.cfi_endproc
 462              	.LFE65:
 463              		.size	adc_lld_init, .-adc_lld_init
 464 0034 AFF30080 		.section	.rodata
 464      AFF30080 
 464      AFF30080 
 465              		.align	2
 466              	.LC0:
 467 0000 6164635F 		.ascii	"adc_lld_start(), #1\000"
 467      6C6C645F 
 467      73746172 
 467      7428292C 
 467      20233100 
 468              		.section	.text.adc_lld_start,"ax",%progbits
 469              		.align	2
 470              		.p2align 4,,15
 471              		.global	adc_lld_start
 472              		.thumb
 473              		.thumb_func
 474              		.type	adc_lld_start, %function
 475              	adc_lld_start:
 476              	.LFB66:
 477              		.loc 1 147 0
 478              		.cfi_startproc
 479              		@ args = 0, pretend = 0, frame = 16
 480              		@ frame_needed = 0, uses_anonymous_args = 0
 481 0000 00B5     		push	{lr}
 482              		.cfi_def_cfa_offset 4
 483              		.cfi_offset 14, -4
 484 0002 85B0     		sub	sp, sp, #20
 485              		.cfi_def_cfa_offset 24
 486 0004 0190     		str	r0, [sp, #4]
 487              		.loc 1 150 0
 488 0006 019B     		ldr	r3, [sp, #4]
 489 0008 1B78     		ldrb	r3, [r3]	@ zero_extendqisi2
 490 000a 012B     		cmp	r3, #1
 491 000c 2CD1     		bne	.L24
 492              		.loc 1 152 0
 493 000e 019A     		ldr	r2, [sp, #4]
 494 0010 174B     		ldr	r3, .L28
 495 0012 9A42     		cmp	r2, r3
 496 0014 1CD1     		bne	.L26
 497              	.LBB12:
 498              		.loc 1 154 0
ARM GAS  /home/pauba/tmp/ccqbUBmw.s 			page 10


 499 0016 019B     		ldr	r3, [sp, #4]
 500 0018 DB6A     		ldr	r3, [r3, #44]
 501 001a 1846     		mov	r0, r3
 502 001c 0621     		movs	r1, #6
 503 001e 154A     		ldr	r2, .L28+4
 504 0020 019B     		ldr	r3, [sp, #4]
 505 0022 FFF7FEFF 		bl	dmaStreamAllocate
 506 0026 0346     		mov	r3, r0
 507 0028 8DF80F30 		strb	r3, [sp, #15]
 508              		.loc 1 158 0
 509 002c 9DF80F30 		ldrb	r3, [sp, #15]	@ zero_extendqisi2
 510 0030 002B     		cmp	r3, #0
 511 0032 02D0     		beq	.L27
 512              		.loc 1 158 0 is_stmt 0 discriminator 1
 513 0034 1048     		ldr	r0, .L28+8
 514 0036 FFF7FEFF 		bl	chDbgPanic
 515              	.L27:
 516              		.loc 1 159 0 is_stmt 1
 517 003a 019B     		ldr	r3, [sp, #4]
 518 003c DB6A     		ldr	r3, [r3, #44]
 519 003e 1B68     		ldr	r3, [r3]
 520 0040 0E4A     		ldr	r2, .L28+12
 521 0042 9A60     		str	r2, [r3, #8]
 522              		.loc 1 160 0
 523 0044 0E4B     		ldr	r3, .L28+16
 524 0046 0E4A     		ldr	r2, .L28+16
 525 0048 126A     		ldr	r2, [r2, #32]
 526 004a 42F40072 		orr	r2, r2, #512
 527 004e 1A62     		str	r2, [r3, #32]
 528              	.L26:
 529              	.LBE12:
 530              		.loc 1 166 0
 531 0050 019B     		ldr	r3, [sp, #4]
 532 0052 9B6A     		ldr	r3, [r3, #40]
 533 0054 0022     		movs	r2, #0
 534 0056 5A60     		str	r2, [r3, #4]
 535              		.loc 1 167 0
 536 0058 019B     		ldr	r3, [sp, #4]
 537 005a 9B6A     		ldr	r3, [r3, #40]
 538 005c 0022     		movs	r2, #0
 539 005e 9A60     		str	r2, [r3, #8]
 540              		.loc 1 168 0
 541 0060 019B     		ldr	r3, [sp, #4]
 542 0062 9B6A     		ldr	r3, [r3, #40]
 543 0064 0122     		movs	r2, #1
 544 0066 9A60     		str	r2, [r3, #8]
 545              	.L24:
 546              		.loc 1 170 0
 547 0068 05B0     		add	sp, sp, #20
 548              		@ sp needed
 549 006a 5DF804FB 		ldr	pc, [sp], #4
 550              	.L29:
 551 006e 00BF     		.align	2
 552              	.L28:
 553 0070 00000000 		.word	ADCD1
 554 0074 00000000 		.word	adc_lld_serve_rx_interrupt
 555 0078 00000000 		.word	.LC0
ARM GAS  /home/pauba/tmp/ccqbUBmw.s 			page 11


 556 007c 58240140 		.word	1073816664
 557 0080 00380240 		.word	1073887232
 558              		.cfi_endproc
 559              	.LFE66:
 560              		.size	adc_lld_start, .-adc_lld_start
 561 0084 AFF30080 		.section	.text.adc_lld_stop,"ax",%progbits
 561      AFF30080 
 561      AFF30080 
 562              		.align	2
 563              		.p2align 4,,15
 564              		.global	adc_lld_stop
 565              		.thumb
 566              		.thumb_func
 567              		.type	adc_lld_stop, %function
 568              	adc_lld_stop:
 569              	.LFB67:
 570              		.loc 1 179 0
 571              		.cfi_startproc
 572              		@ args = 0, pretend = 0, frame = 8
 573              		@ frame_needed = 0, uses_anonymous_args = 0
 574 0000 00B5     		push	{lr}
 575              		.cfi_def_cfa_offset 4
 576              		.cfi_offset 14, -4
 577 0002 83B0     		sub	sp, sp, #12
 578              		.cfi_def_cfa_offset 16
 579 0004 0190     		str	r0, [sp, #4]
 580              		.loc 1 182 0
 581 0006 019B     		ldr	r3, [sp, #4]
 582 0008 1B78     		ldrb	r3, [r3]	@ zero_extendqisi2
 583 000a 022B     		cmp	r3, #2
 584 000c 16D1     		bne	.L30
 585              		.loc 1 183 0
 586 000e 019B     		ldr	r3, [sp, #4]
 587 0010 DB6A     		ldr	r3, [r3, #44]
 588 0012 1846     		mov	r0, r3
 589 0014 FFF7FEFF 		bl	dmaStreamRelease
 590              		.loc 1 184 0
 591 0018 019B     		ldr	r3, [sp, #4]
 592 001a 9B6A     		ldr	r3, [r3, #40]
 593 001c 0022     		movs	r2, #0
 594 001e 5A60     		str	r2, [r3, #4]
 595              		.loc 1 185 0
 596 0020 019B     		ldr	r3, [sp, #4]
 597 0022 9B6A     		ldr	r3, [r3, #40]
 598 0024 0022     		movs	r2, #0
 599 0026 9A60     		str	r2, [r3, #8]
 600              		.loc 1 188 0
 601 0028 019A     		ldr	r2, [sp, #4]
 602 002a 064B     		ldr	r3, .L32
 603 002c 9A42     		cmp	r2, r3
 604 002e 05D1     		bne	.L30
 605              		.loc 1 189 0
 606 0030 054B     		ldr	r3, .L32+4
 607 0032 054A     		ldr	r2, .L32+4
 608 0034 126A     		ldr	r2, [r2, #32]
 609 0036 22F40072 		bic	r2, r2, #512
 610 003a 1A62     		str	r2, [r3, #32]
ARM GAS  /home/pauba/tmp/ccqbUBmw.s 			page 12


 611              	.L30:
 612              		.loc 1 192 0
 613 003c 03B0     		add	sp, sp, #12
 614              		@ sp needed
 615 003e 5DF804FB 		ldr	pc, [sp], #4
 616              	.L33:
 617 0042 00BF     		.align	2
 618              	.L32:
 619 0044 00000000 		.word	ADCD1
 620 0048 00380240 		.word	1073887232
 621              		.cfi_endproc
 622              	.LFE67:
 623              		.size	adc_lld_stop, .-adc_lld_stop
 624 004c AFF30080 		.section	.text.adc_lld_start_conversion,"ax",%progbits
 625              		.align	2
 626              		.p2align 4,,15
 627              		.global	adc_lld_start_conversion
 628              		.thumb
 629              		.thumb_func
 630              		.type	adc_lld_start_conversion, %function
 631              	adc_lld_start_conversion:
 632              	.LFB68:
 633              		.loc 1 201 0
 634              		.cfi_startproc
 635              		@ args = 0, pretend = 0, frame = 16
 636              		@ frame_needed = 0, uses_anonymous_args = 0
 637              		@ link register save eliminated.
 638 0000 84B0     		sub	sp, sp, #16
 639              		.cfi_def_cfa_offset 16
 640 0002 0190     		str	r0, [sp, #4]
 641              		.loc 1 203 0
 642 0004 019B     		ldr	r3, [sp, #4]
 643 0006 1B69     		ldr	r3, [r3, #16]
 644 0008 0293     		str	r3, [sp, #8]
 645              		.loc 1 206 0
 646 000a 019B     		ldr	r3, [sp, #4]
 647 000c 1B6B     		ldr	r3, [r3, #48]
 648 000e 0393     		str	r3, [sp, #12]
 649              		.loc 1 207 0
 650 0010 029B     		ldr	r3, [sp, #8]
 651 0012 1B78     		ldrb	r3, [r3]	@ zero_extendqisi2
 652 0014 002B     		cmp	r3, #0
 653 0016 0BD0     		beq	.L35
 654              		.loc 1 208 0
 655 0018 039B     		ldr	r3, [sp, #12]
 656 001a 43F02003 		orr	r3, r3, #32
 657 001e 0393     		str	r3, [sp, #12]
 658              		.loc 1 209 0
 659 0020 019B     		ldr	r3, [sp, #4]
 660 0022 DB68     		ldr	r3, [r3, #12]
 661 0024 012B     		cmp	r3, #1
 662 0026 03D9     		bls	.L35
 663              		.loc 1 212 0
 664 0028 039B     		ldr	r3, [sp, #12]
 665 002a 43F00403 		orr	r3, r3, #4
 666 002e 0393     		str	r3, [sp, #12]
 667              	.L35:
ARM GAS  /home/pauba/tmp/ccqbUBmw.s 			page 13


 668              		.loc 1 215 0
 669 0030 019B     		ldr	r3, [sp, #4]
 670 0032 DB6A     		ldr	r3, [r3, #44]
 671 0034 1B68     		ldr	r3, [r3]
 672 0036 019A     		ldr	r2, [sp, #4]
 673 0038 9268     		ldr	r2, [r2, #8]
 674 003a DA60     		str	r2, [r3, #12]
 675              		.loc 1 216 0
 676 003c 019B     		ldr	r3, [sp, #4]
 677 003e DB6A     		ldr	r3, [r3, #44]
 678 0040 1B68     		ldr	r3, [r3]
 679 0042 029A     		ldr	r2, [sp, #8]
 680 0044 5288     		ldrh	r2, [r2, #2]
 681 0046 0199     		ldr	r1, [sp, #4]
 682 0048 C968     		ldr	r1, [r1, #12]
 683 004a 01FB02F2 		mul	r2, r1, r2
 684 004e 5A60     		str	r2, [r3, #4]
 685              		.loc 1 218 0
 686 0050 019B     		ldr	r3, [sp, #4]
 687 0052 DB6A     		ldr	r3, [r3, #44]
 688 0054 1B68     		ldr	r3, [r3]
 689 0056 039A     		ldr	r2, [sp, #12]
 690 0058 1A60     		str	r2, [r3]
 691              		.loc 1 219 0
 692 005a 019B     		ldr	r3, [sp, #4]
 693 005c DB6A     		ldr	r3, [r3, #44]
 694 005e 1B68     		ldr	r3, [r3]
 695 0060 019A     		ldr	r2, [sp, #4]
 696 0062 D26A     		ldr	r2, [r2, #44]
 697 0064 1268     		ldr	r2, [r2]
 698 0066 1268     		ldr	r2, [r2]
 699 0068 42F00102 		orr	r2, r2, #1
 700 006c 1A60     		str	r2, [r3]
 701              		.loc 1 222 0
 702 006e 019B     		ldr	r3, [sp, #4]
 703 0070 9B6A     		ldr	r3, [r3, #40]
 704 0072 0022     		movs	r2, #0
 705 0074 1A60     		str	r2, [r3]
 706              		.loc 1 223 0
 707 0076 019B     		ldr	r3, [sp, #4]
 708 0078 9B6A     		ldr	r3, [r3, #40]
 709 007a 029A     		ldr	r2, [sp, #8]
 710 007c 5269     		ldr	r2, [r2, #20]
 711 007e DA60     		str	r2, [r3, #12]
 712              		.loc 1 224 0
 713 0080 019B     		ldr	r3, [sp, #4]
 714 0082 9B6A     		ldr	r3, [r3, #40]
 715 0084 029A     		ldr	r2, [sp, #8]
 716 0086 9269     		ldr	r2, [r2, #24]
 717 0088 1A61     		str	r2, [r3, #16]
 718              		.loc 1 225 0
 719 008a 019B     		ldr	r3, [sp, #4]
 720 008c 9B6A     		ldr	r3, [r3, #40]
 721 008e 029A     		ldr	r2, [sp, #8]
 722 0090 D269     		ldr	r2, [r2, #28]
 723 0092 5A61     		str	r2, [r3, #20]
 724              		.loc 1 226 0
ARM GAS  /home/pauba/tmp/ccqbUBmw.s 			page 14


 725 0094 019B     		ldr	r3, [sp, #4]
 726 0096 9B6A     		ldr	r3, [r3, #40]
 727 0098 029A     		ldr	r2, [sp, #8]
 728 009a 126A     		ldr	r2, [r2, #32]
 729 009c 1A63     		str	r2, [r3, #48]
 730              		.loc 1 227 0
 731 009e 019B     		ldr	r3, [sp, #4]
 732 00a0 9B6A     		ldr	r3, [r3, #40]
 733 00a2 029A     		ldr	r2, [sp, #8]
 734 00a4 526A     		ldr	r2, [r2, #36]
 735 00a6 5A63     		str	r2, [r3, #52]
 736              		.loc 1 228 0
 737 00a8 019B     		ldr	r3, [sp, #4]
 738 00aa 9B6A     		ldr	r3, [r3, #40]
 739 00ac 029A     		ldr	r2, [sp, #8]
 740 00ae 926A     		ldr	r2, [r2, #40]
 741 00b0 9A63     		str	r2, [r3, #56]
 742              		.loc 1 229 0
 743 00b2 019B     		ldr	r3, [sp, #4]
 744 00b4 9B6A     		ldr	r3, [r3, #40]
 745 00b6 029A     		ldr	r2, [sp, #8]
 746 00b8 D26A     		ldr	r2, [r2, #44]
 747 00ba DA63     		str	r2, [r3, #60]
 748              		.loc 1 230 0
 749 00bc 019B     		ldr	r3, [sp, #4]
 750 00be 9B6A     		ldr	r3, [r3, #40]
 751 00c0 029A     		ldr	r2, [sp, #8]
 752 00c2 126B     		ldr	r2, [r2, #48]
 753 00c4 1A64     		str	r2, [r3, #64]
 754              		.loc 1 234 0
 755 00c6 019B     		ldr	r3, [sp, #4]
 756 00c8 9A6A     		ldr	r2, [r3, #40]
 757 00ca 029B     		ldr	r3, [sp, #8]
 758 00cc DB68     		ldr	r3, [r3, #12]
 759 00ce 43F08063 		orr	r3, r3, #67108864
 760 00d2 43F48073 		orr	r3, r3, #256
 761 00d6 5360     		str	r3, [r2, #4]
 762              		.loc 1 235 0
 763 00d8 029B     		ldr	r3, [sp, #8]
 764 00da 1B69     		ldr	r3, [r3, #16]
 765 00dc 03F08043 		and	r3, r3, #1073741824
 766 00e0 002B     		cmp	r3, #0
 767 00e2 09D0     		beq	.L36
 768              		.loc 1 236 0
 769 00e4 019B     		ldr	r3, [sp, #4]
 770 00e6 9A6A     		ldr	r2, [r3, #40]
 771 00e8 029B     		ldr	r3, [sp, #8]
 772 00ea 1B69     		ldr	r3, [r3, #16]
 773              		.loc 1 237 0
 774 00ec 43F44073 		orr	r3, r3, #768
 775 00f0 43F00303 		orr	r3, r3, #3
 776              		.loc 1 236 0
 777 00f4 9360     		str	r3, [r2, #8]
 778 00f6 08E0     		b	.L34
 779              	.L36:
 780              		.loc 1 239 0
 781 00f8 019B     		ldr	r3, [sp, #4]
ARM GAS  /home/pauba/tmp/ccqbUBmw.s 			page 15


 782 00fa 9A6A     		ldr	r2, [r3, #40]
 783 00fc 029B     		ldr	r3, [sp, #8]
 784 00fe 1B69     		ldr	r3, [r3, #16]
 785              		.loc 1 240 0
 786 0100 43F44073 		orr	r3, r3, #768
 787 0104 43F00103 		orr	r3, r3, #1
 788              		.loc 1 239 0
 789 0108 9360     		str	r3, [r2, #8]
 790              	.L34:
 791              		.loc 1 241 0
 792 010a 04B0     		add	sp, sp, #16
 793              		@ sp needed
 794 010c 7047     		bx	lr
 795              		.cfi_endproc
 796              	.LFE68:
 797              		.size	adc_lld_start_conversion, .-adc_lld_start_conversion
 798 010e 00BF     		.section	.text.adc_lld_stop_conversion,"ax",%progbits
 799              		.align	2
 800              		.p2align 4,,15
 801              		.global	adc_lld_stop_conversion
 802              		.thumb
 803              		.thumb_func
 804              		.type	adc_lld_stop_conversion, %function
 805              	adc_lld_stop_conversion:
 806              	.LFB69:
 807              		.loc 1 250 0
 808              		.cfi_startproc
 809              		@ args = 0, pretend = 0, frame = 8
 810              		@ frame_needed = 0, uses_anonymous_args = 0
 811              		@ link register save eliminated.
 812 0000 82B0     		sub	sp, sp, #8
 813              		.cfi_def_cfa_offset 8
 814 0002 0190     		str	r0, [sp, #4]
 815              		.loc 1 252 0
 816 0004 019B     		ldr	r3, [sp, #4]
 817 0006 DB6A     		ldr	r3, [r3, #44]
 818 0008 1B68     		ldr	r3, [r3]
 819 000a 019A     		ldr	r2, [sp, #4]
 820 000c D26A     		ldr	r2, [r2, #44]
 821 000e 1268     		ldr	r2, [r2]
 822 0010 1268     		ldr	r2, [r2]
 823 0012 22F00F02 		bic	r2, r2, #15
 824 0016 1A60     		str	r2, [r3]
 825 0018 019B     		ldr	r3, [sp, #4]
 826 001a DB6A     		ldr	r3, [r3, #44]
 827 001c 5B68     		ldr	r3, [r3, #4]
 828 001e 019A     		ldr	r2, [sp, #4]
 829 0020 D26A     		ldr	r2, [r2, #44]
 830 0022 127A     		ldrb	r2, [r2, #8]	@ zero_extendqisi2
 831 0024 0F21     		movs	r1, #15
 832 0026 01FA02F2 		lsl	r2, r1, r2
 833 002a 1A60     		str	r2, [r3]
 834              		.loc 1 253 0
 835 002c 019B     		ldr	r3, [sp, #4]
 836 002e 9B6A     		ldr	r3, [r3, #40]
 837 0030 0022     		movs	r2, #0
 838 0032 5A60     		str	r2, [r3, #4]
ARM GAS  /home/pauba/tmp/ccqbUBmw.s 			page 16


 839              		.loc 1 254 0
 840 0034 019B     		ldr	r3, [sp, #4]
 841 0036 9B6A     		ldr	r3, [r3, #40]
 842 0038 0022     		movs	r2, #0
 843 003a 9A60     		str	r2, [r3, #8]
 844              		.loc 1 255 0
 845 003c 019B     		ldr	r3, [sp, #4]
 846 003e 9B6A     		ldr	r3, [r3, #40]
 847 0040 0122     		movs	r2, #1
 848 0042 9A60     		str	r2, [r3, #8]
 849              		.loc 1 256 0
 850 0044 02B0     		add	sp, sp, #8
 851              		@ sp needed
 852 0046 7047     		bx	lr
 853              		.cfi_endproc
 854              	.LFE69:
 855              		.size	adc_lld_stop_conversion, .-adc_lld_stop_conversion
 856 0048 AFF30080 		.section	.text.adcSTM32EnableTSVREFE,"ax",%progbits
 856      AFF30080 
 857              		.align	2
 858              		.p2align 4,,15
 859              		.global	adcSTM32EnableTSVREFE
 860              		.thumb
 861              		.thumb_func
 862              		.type	adcSTM32EnableTSVREFE, %function
 863              	adcSTM32EnableTSVREFE:
 864              	.LFB70:
 865              		.loc 1 264 0
 866              		.cfi_startproc
 867              		@ args = 0, pretend = 0, frame = 0
 868              		@ frame_needed = 0, uses_anonymous_args = 0
 869              		@ link register save eliminated.
 870              		.loc 1 266 0
 871 0000 034B     		ldr	r3, .L40
 872 0002 034A     		ldr	r2, .L40
 873 0004 5268     		ldr	r2, [r2, #4]
 874 0006 42F40002 		orr	r2, r2, #8388608
 875 000a 5A60     		str	r2, [r3, #4]
 876              		.loc 1 267 0
 877 000c 7047     		bx	lr
 878              	.L41:
 879 000e 00BF     		.align	2
 880              	.L40:
 881 0010 00270140 		.word	1073817344
 882              		.cfi_endproc
 883              	.LFE70:
 884              		.size	adcSTM32EnableTSVREFE, .-adcSTM32EnableTSVREFE
 885 0014 AFF30080 		.section	.text.adcSTM32DisableTSVREFE,"ax",%progbits
 885      AFF30080 
 885      AFF30080 
 886              		.align	2
 887              		.p2align 4,,15
 888              		.global	adcSTM32DisableTSVREFE
 889              		.thumb
 890              		.thumb_func
 891              		.type	adcSTM32DisableTSVREFE, %function
 892              	adcSTM32DisableTSVREFE:
ARM GAS  /home/pauba/tmp/ccqbUBmw.s 			page 17


 893              	.LFB71:
 894              		.loc 1 275 0
 895              		.cfi_startproc
 896              		@ args = 0, pretend = 0, frame = 0
 897              		@ frame_needed = 0, uses_anonymous_args = 0
 898              		@ link register save eliminated.
 899              		.loc 1 277 0
 900 0000 034B     		ldr	r3, .L43
 901 0002 034A     		ldr	r2, .L43
 902 0004 5268     		ldr	r2, [r2, #4]
 903 0006 22F40002 		bic	r2, r2, #8388608
 904 000a 5A60     		str	r2, [r3, #4]
 905              		.loc 1 278 0
 906 000c 7047     		bx	lr
 907              	.L44:
 908 000e 00BF     		.align	2
 909              	.L43:
 910 0010 00270140 		.word	1073817344
 911              		.cfi_endproc
 912              	.LFE71:
 913              		.size	adcSTM32DisableTSVREFE, .-adcSTM32DisableTSVREFE
 914 0014 AFF30080 		.text
 914      AFF30080 
 914      AFF30080 
 915              	.Letext0:
 916              		.file 2 "/opt/gcc-arm-none-eabi-4_8-2014q1/lib/gcc/arm-none-eabi/4.8.3/include/stddef.h"
 917              		.file 3 "/opt/gcc-arm-none-eabi-4_8-2014q1/arm-none-eabi/include/machine/_default_types.h"
 918              		.file 4 "/opt/gcc-arm-none-eabi-4_8-2014q1/arm-none-eabi/include/stdint.h"
 919              		.file 5 "/home/pauba/ChibiOS-RT/os/ports/GCC/ARMCMx/chtypes.h"
 920              		.file 6 "/home/pauba/ChibiOS-RT/os/kernel/include/chlists.h"
 921              		.file 7 "/home/pauba/ChibiOS-RT/os/kernel/include/chthreads.h"
 922              		.file 8 "/home/pauba/ChibiOS-RT/os/ports/GCC/ARMCMx/chcore_v7m.h"
 923              		.file 9 "/home/pauba/ChibiOS-RT/os/kernel/include/chmtx.h"
 924              		.file 10 "/home/pauba/ChibiOS-RT/os/hal/platforms/STM32L1xx/stm32l1xx.h"
 925              		.file 11 "/home/pauba/ChibiOS-RT/os/hal/platforms/STM32L1xx/stm32_dma.h"
 926              		.file 12 "/home/pauba/ChibiOS-RT/os/hal/include/adc.h"
 927              		.file 13 "/home/pauba/ChibiOS-RT/os/hal/platforms/STM32L1xx/adc_lld.h"
 928              		.file 14 "/home/pauba/ChibiOS-RT/os/ports/common/ARMCMx/CMSIS/include/core_cm3.h"