ARM GAS  /home/pauba/tmp/ccqbUBmw.s 			page 1


   1              		.syntax unified
   2              		.cpu cortex-m4
   3              		.fpu softvfp
   4              		.eabi_attribute 20, 1
   5              		.eabi_attribute 21, 1
   6              		.eabi_attribute 23, 3
   7              		.eabi_attribute 24, 1
   8              		.eabi_attribute 25, 1
   9              		.eabi_attribute 26, 1
  10              		.eabi_attribute 30, 6
  11              		.eabi_attribute 34, 1
  12              		.eabi_attribute 18, 4
  13              		.thumb
  14              		.file	"adc_lld.c"
  15              		.text
  16              	.Ltext0:
  17              		.cfi_sections	.debug_frame
  18              		.global	ADCD1
  19              		.section	.bss.ADCD1,"aw",%nobits
  20              		.align	2
  21              		.type	ADCD1, %object
  22              		.size	ADCD1, 52
  23              	ADCD1:
  24 0000 00000000 		.space	52
  24      00000000 
  24      00000000 
  24      00000000 
  24      00000000 
  25              		.section	.text.adc_lld_serve_rx_interrupt,"ax",%progbits
  26              		.align	2
  27              		.p2align 4,,15
  28              		.thumb
  29              		.thumb_func
  30              		.type	adc_lld_serve_rx_interrupt, %function
  31              	adc_lld_serve_rx_interrupt:
  32              	.LFB63:
  33              		.file 1 "/home/pauba/ChibiOS-RT/os/hal/platforms/STM32L1xx/adc_lld.c"
  34              		.loc 1 57 0
  35              		.cfi_startproc
  36              		@ args = 0, pretend = 0, frame = 24
  37              		@ frame_needed = 0, uses_anonymous_args = 0
  38 0000 00B5     		push	{lr}
  39              		.cfi_def_cfa_offset 4
  40              		.cfi_offset 14, -4
  41 0002 87B0     		sub	sp, sp, #28
  42              		.cfi_def_cfa_offset 32
  43 0004 0190     		str	r0, [sp, #4]
  44 0006 0091     		str	r1, [sp]
  45              		.loc 1 60 0
  46 0008 009B     		ldr	r3, [sp]
  47 000a 03F00803 		and	r3, r3, #8
  48 000e 002B     		cmp	r3, #0
  49 0010 36D0     		beq	.L2
  50              		.loc 1 63 0
  51 0012 0198     		ldr	r0, [sp, #4]
  52 0014 FFF7FEFF 		bl	adc_lld_stop_conversion
  53 0018 019B     		ldr	r3, [sp, #4]
ARM GAS  /home/pauba/tmp/ccqbUBmw.s 			page 2


  54 001a 1B69     		ldr	r3, [r3, #16]
  55 001c 9B68     		ldr	r3, [r3, #8]
  56 001e 002B     		cmp	r3, #0
  57 0020 0FD0     		beq	.L3
  58              		.loc 1 63 0 is_stmt 0 discriminator 1
  59 0022 019B     		ldr	r3, [sp, #4]
  60 0024 0522     		movs	r2, #5
  61 0026 1A70     		strb	r2, [r3]
  62 0028 019B     		ldr	r3, [sp, #4]
  63 002a 1B69     		ldr	r3, [r3, #16]
  64 002c 9B68     		ldr	r3, [r3, #8]
  65 002e 0198     		ldr	r0, [sp, #4]
  66 0030 0021     		movs	r1, #0
  67 0032 9847     		blx	r3
  68 0034 019B     		ldr	r3, [sp, #4]
  69 0036 1B78     		ldrb	r3, [r3]	@ zero_extendqisi2
  70 0038 052B     		cmp	r3, #5
  71 003a 02D1     		bne	.L3
  72 003c 019B     		ldr	r3, [sp, #4]
  73 003e 0222     		movs	r2, #2
  74 0040 1A70     		strb	r2, [r3]
  75              	.L3:
  76              		.loc 1 63 0 discriminator 2
  77 0042 019B     		ldr	r3, [sp, #4]
  78 0044 0022     		movs	r2, #0
  79 0046 1A61     		str	r2, [r3, #16]
  80              	.LBB2:
  81 0048 2023     		movs	r3, #32
  82              	@ 63 "/home/pauba/ChibiOS-RT/os/hal/platforms/STM32L1xx/adc_lld.c" 1
  83 004a 83F31188 		msr     BASEPRI, r3
  84              	@ 0 "" 2
  85              		.thumb
  86              	.LBE2:
  87 004e FFF7FEFF 		bl	dbg_check_lock_from_isr
  88 0052 019B     		ldr	r3, [sp, #4]
  89 0054 5B69     		ldr	r3, [r3, #20]
  90 0056 002B     		cmp	r3, #0
  91 0058 0CD0     		beq	.L4
  92              	.LBB3:
  93              		.loc 1 63 0 discriminator 1
  94 005a 019B     		ldr	r3, [sp, #4]
  95 005c 5B69     		ldr	r3, [r3, #20]
  96 005e 0593     		str	r3, [sp, #20]
  97 0060 019B     		ldr	r3, [sp, #4]
  98 0062 0022     		movs	r2, #0
  99 0064 5A61     		str	r2, [r3, #20]
 100 0066 059B     		ldr	r3, [sp, #20]
 101 0068 4FF0FF32 		mov	r2, #-1
 102 006c 9A62     		str	r2, [r3, #40]
 103 006e 0598     		ldr	r0, [sp, #20]
 104 0070 FFF7FEFF 		bl	chSchReadyI
 105              	.L4:
 106              	.LBE3:
 107              		.loc 1 63 0 discriminator 2
 108 0074 FFF7FEFF 		bl	dbg_check_unlock_from_isr
 109              	.LBB4:
 110 0078 0023     		movs	r3, #0
ARM GAS  /home/pauba/tmp/ccqbUBmw.s 			page 3


 111              	@ 63 "/home/pauba/ChibiOS-RT/os/hal/platforms/STM32L1xx/adc_lld.c" 1
 112 007a 83F31188 		msr     BASEPRI, r3
 113              	@ 0 "" 2
 114              		.thumb
 115              	.LBE4:
 116 007e 8DE0     		b	.L1
 117              	.L2:
 118              		.loc 1 68 0 is_stmt 1
 119 0080 019B     		ldr	r3, [sp, #4]
 120 0082 1B69     		ldr	r3, [r3, #16]
 121 0084 002B     		cmp	r3, #0
 122 0086 00F08980 		beq	.L1
 123              		.loc 1 69 0
 124 008a 009B     		ldr	r3, [sp]
 125 008c 03F00203 		and	r3, r3, #2
 126 0090 002B     		cmp	r3, #0
 127 0092 6FD0     		beq	.L6
 128              		.loc 1 71 0
 129 0094 019B     		ldr	r3, [sp, #4]
 130 0096 1B69     		ldr	r3, [r3, #16]
 131 0098 1B78     		ldrb	r3, [r3]	@ zero_extendqisi2
 132 009a 002B     		cmp	r3, #0
 133 009c 2AD0     		beq	.L7
 134              		.loc 1 71 0 is_stmt 0 discriminator 1
 135 009e 019B     		ldr	r3, [sp, #4]
 136 00a0 1B69     		ldr	r3, [r3, #16]
 137 00a2 5B68     		ldr	r3, [r3, #4]
 138 00a4 002B     		cmp	r3, #0
 139 00a6 79D0     		beq	.L1
 140 00a8 019B     		ldr	r3, [sp, #4]
 141 00aa DB68     		ldr	r3, [r3, #12]
 142 00ac 012B     		cmp	r3, #1
 143 00ae 17D9     		bls	.L9
 144              	.LBB5:
 145 00b0 019B     		ldr	r3, [sp, #4]
 146 00b2 DB68     		ldr	r3, [r3, #12]
 147 00b4 5B08     		lsrs	r3, r3, #1
 148 00b6 0493     		str	r3, [sp, #16]
 149 00b8 019B     		ldr	r3, [sp, #4]
 150 00ba 1B69     		ldr	r3, [r3, #16]
 151 00bc 5B88     		ldrh	r3, [r3, #2]
 152 00be 049A     		ldr	r2, [sp, #16]
 153 00c0 02FB03F3 		mul	r3, r2, r3
 154 00c4 0393     		str	r3, [sp, #12]
 155 00c6 019B     		ldr	r3, [sp, #4]
 156 00c8 1B69     		ldr	r3, [r3, #16]
 157 00ca 5B68     		ldr	r3, [r3, #4]
 158 00cc 019A     		ldr	r2, [sp, #4]
 159 00ce 9168     		ldr	r1, [r2, #8]
 160 00d0 039A     		ldr	r2, [sp, #12]
 161 00d2 5200     		lsls	r2, r2, #1
 162 00d4 0A44     		add	r2, r2, r1
 163 00d6 0198     		ldr	r0, [sp, #4]
 164 00d8 1146     		mov	r1, r2
 165 00da 049A     		ldr	r2, [sp, #16]
 166 00dc 9847     		blx	r3
 167              	.LBE5:
ARM GAS  /home/pauba/tmp/ccqbUBmw.s 			page 4


 168 00de 5DE0     		b	.L1
 169              	.L9:
 170              		.loc 1 71 0 discriminator 2
 171 00e0 019B     		ldr	r3, [sp, #4]
 172 00e2 1B69     		ldr	r3, [r3, #16]
 173 00e4 5B68     		ldr	r3, [r3, #4]
 174 00e6 019A     		ldr	r2, [sp, #4]
 175 00e8 9168     		ldr	r1, [r2, #8]
 176 00ea 019A     		ldr	r2, [sp, #4]
 177 00ec D268     		ldr	r2, [r2, #12]
 178 00ee 0198     		ldr	r0, [sp, #4]
 179 00f0 9847     		blx	r3
 180 00f2 53E0     		b	.L1
 181              	.L7:
 182 00f4 0198     		ldr	r0, [sp, #4]
 183 00f6 FFF7FEFF 		bl	adc_lld_stop_conversion
 184 00fa 019B     		ldr	r3, [sp, #4]
 185 00fc 1B69     		ldr	r3, [r3, #16]
 186 00fe 5B68     		ldr	r3, [r3, #4]
 187 0100 002B     		cmp	r3, #0
 188 0102 16D0     		beq	.L11
 189              		.loc 1 71 0 discriminator 1
 190 0104 019B     		ldr	r3, [sp, #4]
 191 0106 0422     		movs	r2, #4
 192 0108 1A70     		strb	r2, [r3]
 193 010a 019B     		ldr	r3, [sp, #4]
 194 010c 1B69     		ldr	r3, [r3, #16]
 195 010e 5B68     		ldr	r3, [r3, #4]
 196 0110 019A     		ldr	r2, [sp, #4]
 197 0112 9168     		ldr	r1, [r2, #8]
 198 0114 019A     		ldr	r2, [sp, #4]
 199 0116 D268     		ldr	r2, [r2, #12]
 200 0118 0198     		ldr	r0, [sp, #4]
 201 011a 9847     		blx	r3
 202 011c 019B     		ldr	r3, [sp, #4]
 203 011e 1B78     		ldrb	r3, [r3]	@ zero_extendqisi2
 204 0120 042B     		cmp	r3, #4
 205 0122 0CD1     		bne	.L13
 206 0124 019B     		ldr	r3, [sp, #4]
 207 0126 0222     		movs	r2, #2
 208 0128 1A70     		strb	r2, [r3]
 209 012a 019B     		ldr	r3, [sp, #4]
 210 012c 0022     		movs	r2, #0
 211 012e 1A61     		str	r2, [r3, #16]
 212 0130 05E0     		b	.L13
 213              	.L11:
 214              		.loc 1 71 0 discriminator 2
 215 0132 019B     		ldr	r3, [sp, #4]
 216 0134 0222     		movs	r2, #2
 217 0136 1A70     		strb	r2, [r3]
 218 0138 019B     		ldr	r3, [sp, #4]
 219 013a 0022     		movs	r2, #0
 220 013c 1A61     		str	r2, [r3, #16]
 221              	.L13:
 222              	.LBB6:
 223              		.loc 1 71 0 discriminator 1
 224 013e 2023     		movs	r3, #32
ARM GAS  /home/pauba/tmp/ccqbUBmw.s 			page 5


 225              	@ 71 "/home/pauba/ChibiOS-RT/os/hal/platforms/STM32L1xx/adc_lld.c" 1
 226 0140 83F31188 		msr     BASEPRI, r3
 227              	@ 0 "" 2
 228              		.thumb
 229              	.LBE6:
 230 0144 FFF7FEFF 		bl	dbg_check_lock_from_isr
 231 0148 019B     		ldr	r3, [sp, #4]
 232 014a 5B69     		ldr	r3, [r3, #20]
 233 014c 002B     		cmp	r3, #0
 234 014e 0BD0     		beq	.L14
 235              	.LBB7:
 236 0150 019B     		ldr	r3, [sp, #4]
 237 0152 5B69     		ldr	r3, [r3, #20]
 238 0154 0293     		str	r3, [sp, #8]
 239 0156 019B     		ldr	r3, [sp, #4]
 240 0158 0022     		movs	r2, #0
 241 015a 5A61     		str	r2, [r3, #20]
 242 015c 029B     		ldr	r3, [sp, #8]
 243 015e 0022     		movs	r2, #0
 244 0160 9A62     		str	r2, [r3, #40]
 245 0162 0298     		ldr	r0, [sp, #8]
 246 0164 FFF7FEFF 		bl	chSchReadyI
 247              	.L14:
 248              	.LBE7:
 249              		.loc 1 71 0 discriminator 2
 250 0168 FFF7FEFF 		bl	dbg_check_unlock_from_isr
 251              	.LBB8:
 252 016c 0023     		movs	r3, #0
 253              	@ 71 "/home/pauba/ChibiOS-RT/os/hal/platforms/STM32L1xx/adc_lld.c" 1
 254 016e 83F31188 		msr     BASEPRI, r3
 255              	@ 0 "" 2
 256              		.thumb
 257 0172 13E0     		b	.L1
 258              	.L6:
 259              	.LBE8:
 260              		.loc 1 73 0 is_stmt 1
 261 0174 009B     		ldr	r3, [sp]
 262 0176 03F00403 		and	r3, r3, #4
 263 017a 002B     		cmp	r3, #0
 264 017c 0ED0     		beq	.L1
 265              		.loc 1 75 0
 266 017e 019B     		ldr	r3, [sp, #4]
 267 0180 1B69     		ldr	r3, [r3, #16]
 268 0182 5B68     		ldr	r3, [r3, #4]
 269 0184 002B     		cmp	r3, #0
 270 0186 09D0     		beq	.L1
 271              		.loc 1 75 0 is_stmt 0 discriminator 1
 272 0188 019B     		ldr	r3, [sp, #4]
 273 018a 1B69     		ldr	r3, [r3, #16]
 274 018c 5B68     		ldr	r3, [r3, #4]
 275 018e 019A     		ldr	r2, [sp, #4]
 276 0190 9168     		ldr	r1, [r2, #8]
 277 0192 019A     		ldr	r2, [sp, #4]
 278 0194 D268     		ldr	r2, [r2, #12]
 279 0196 5208     		lsrs	r2, r2, #1
 280 0198 0198     		ldr	r0, [sp, #4]
 281 019a 9847     		blx	r3
ARM GAS  /home/pauba/tmp/ccqbUBmw.s 			page 6


 282              	.L1:
 283              		.loc 1 79 0 is_stmt 1
 284 019c 07B0     		add	sp, sp, #28
 285              		@ sp needed
 286 019e 5DF804FB 		ldr	pc, [sp], #4
 287              		.cfi_endproc
 288              	.LFE63:
 289              		.size	adc_lld_serve_rx_interrupt, .-adc_lld_serve_rx_interrupt
 290 01a2 00BFAFF3 		.section	.text.Vector88,"ax",%progbits
 290      0080AFF3 
 290      0080AFF3 
 290      0080
 291              		.align	2
 292              		.p2align 4,,15
 293              		.global	Vector88
 294              		.thumb
 295              		.thumb_func
 296              		.type	Vector88, %function
 297              	Vector88:
 298              	.LFB64:
 299              		.loc 1 91 0
 300              		.cfi_startproc
 301              		@ args = 0, pretend = 0, frame = 8
 302              		@ frame_needed = 0, uses_anonymous_args = 0
 303 0000 00B5     		push	{lr}
 304              		.cfi_def_cfa_offset 4
 305              		.cfi_offset 14, -4
 306 0002 83B0     		sub	sp, sp, #12
 307              		.cfi_def_cfa_offset 16
 308              		.loc 1 94 0
 309 0004 FFF7FEFF 		bl	dbg_check_enter_isr
 310              		.loc 1 96 0
 311 0008 284B     		ldr	r3, .L19
 312 000a 1B68     		ldr	r3, [r3]
 313 000c 0193     		str	r3, [sp, #4]
 314              		.loc 1 97 0
 315 000e 274B     		ldr	r3, .L19
 316 0010 0022     		movs	r2, #0
 317 0012 1A60     		str	r2, [r3]
 318              		.loc 1 100 0
 319 0014 019B     		ldr	r3, [sp, #4]
 320 0016 03F02003 		and	r3, r3, #32
 321 001a 002B     		cmp	r3, #0
 322 001c 3FD0     		beq	.L16
 323              		.loc 1 100 0 is_stmt 0 discriminator 1
 324 001e 244B     		ldr	r3, .L19+4
 325 0020 DB6A     		ldr	r3, [r3, #44]
 326 0022 1B68     		ldr	r3, [r3]
 327 0024 5B68     		ldr	r3, [r3, #4]
 328 0026 002B     		cmp	r3, #0
 329 0028 39D0     		beq	.L16
 330              		.loc 1 103 0 is_stmt 1
 331 002a 214B     		ldr	r3, .L19+4
 332 002c 1B69     		ldr	r3, [r3, #16]
 333 002e 002B     		cmp	r3, #0
 334 0030 35D0     		beq	.L16
 335              		.loc 1 104 0
ARM GAS  /home/pauba/tmp/ccqbUBmw.s 			page 7


 336 0032 1F48     		ldr	r0, .L19+4
 337 0034 FFF7FEFF 		bl	adc_lld_stop_conversion
 338 0038 1D4B     		ldr	r3, .L19+4
 339 003a 1B69     		ldr	r3, [r3, #16]
 340 003c 9B68     		ldr	r3, [r3, #8]
 341 003e 002B     		cmp	r3, #0
 342 0040 0FD0     		beq	.L17
 343              		.loc 1 104 0 is_stmt 0 discriminator 1
 344 0042 1B4B     		ldr	r3, .L19+4
 345 0044 0522     		movs	r2, #5
 346 0046 1A70     		strb	r2, [r3]
 347 0048 194B     		ldr	r3, .L19+4
 348 004a 1B69     		ldr	r3, [r3, #16]
 349 004c 9B68     		ldr	r3, [r3, #8]
 350 004e 1848     		ldr	r0, .L19+4
 351 0050 0121     		movs	r1, #1
 352 0052 9847     		blx	r3
 353 0054 164B     		ldr	r3, .L19+4
 354 0056 1B78     		ldrb	r3, [r3]	@ zero_extendqisi2
 355 0058 052B     		cmp	r3, #5
 356 005a 02D1     		bne	.L17
 357 005c 144B     		ldr	r3, .L19+4
 358 005e 0222     		movs	r2, #2
 359 0060 1A70     		strb	r2, [r3]
 360              	.L17:
 361              		.loc 1 104 0 discriminator 2
 362 0062 134B     		ldr	r3, .L19+4
 363 0064 0022     		movs	r2, #0
 364 0066 1A61     		str	r2, [r3, #16]
 365              	.LBB9:
 366 0068 2023     		movs	r3, #32
 367              	@ 104 "/home/pauba/ChibiOS-RT/os/hal/platforms/STM32L1xx/adc_lld.c" 1
 368 006a 83F31188 		msr     BASEPRI, r3
 369              	@ 0 "" 2
 370              		.thumb
 371              	.LBE9:
 372 006e FFF7FEFF 		bl	dbg_check_lock_from_isr
 373 0072 0F4B     		ldr	r3, .L19+4
 374 0074 5B69     		ldr	r3, [r3, #20]
 375 0076 002B     		cmp	r3, #0
 376 0078 0CD0     		beq	.L18
 377              	.LBB10:
 378              		.loc 1 104 0 discriminator 1
 379 007a 0D4B     		ldr	r3, .L19+4
 380 007c 5B69     		ldr	r3, [r3, #20]
 381 007e 0093     		str	r3, [sp]
 382 0080 0B4B     		ldr	r3, .L19+4
 383 0082 0022     		movs	r2, #0
 384 0084 5A61     		str	r2, [r3, #20]
 385 0086 009B     		ldr	r3, [sp]
 386 0088 4FF0FF32 		mov	r2, #-1
 387 008c 9A62     		str	r2, [r3, #40]
 388 008e 0098     		ldr	r0, [sp]
 389 0090 FFF7FEFF 		bl	chSchReadyI
 390              	.L18:
 391              	.LBE10:
 392              		.loc 1 104 0 discriminator 2
ARM GAS  /home/pauba/tmp/ccqbUBmw.s 			page 8


 393 0094 FFF7FEFF 		bl	dbg_check_unlock_from_isr
 394              	.LBB11:
 395 0098 0023     		movs	r3, #0
 396              	@ 104 "/home/pauba/ChibiOS-RT/os/hal/platforms/STM32L1xx/adc_lld.c" 1
 397 009a 83F31188 		msr     BASEPRI, r3
 398              	@ 0 "" 2
 399              		.thumb
 400              	.L16:
 401              	.LBE11:
 402              		.loc 1 108 0 is_stmt 1
 403 009e FFF7FEFF 		bl	dbg_check_leave_isr
 404 00a2 FFF7FEFF 		bl	_port_irq_epilogue
 405              		.loc 1 109 0
 406 00a6 03B0     		add	sp, sp, #12
 407              		@ sp needed
 408 00a8 5DF804FB 		ldr	pc, [sp], #4
 409              	.L20:
 410              		.align	2
 411              	.L19:
 412 00ac 00240140 		.word	1073816576
 413 00b0 00000000 		.word	ADCD1
 414              		.cfi_endproc
 415              	.LFE64:
 416              		.size	Vector88, .-Vector88
 417 00b4 AFF30080 		.section	.text.adc_lld_init,"ax",%progbits
 417      AFF30080 
 417      AFF30080 
 418              		.align	2
 419              		.p2align 4,,15
 420              		.global	adc_lld_init
 421              		.thumb
 422              		.thumb_func
 423              		.type	adc_lld_init, %function
 424              	adc_lld_init:
 425              	.LFB65:
 426              		.loc 1 121 0
 427              		.cfi_startproc
 428              		@ args = 0, pretend = 0, frame = 0
 429              		@ frame_needed = 0, uses_anonymous_args = 0
 430 0000 08B5     		push	{r3, lr}
 431              		.cfi_def_cfa_offset 8
 432              		.cfi_offset 3, -8
 433              		.cfi_offset 14, -4
 434              		.loc 1 125 0
 435 0002 0948     		ldr	r0, .L22
 436 0004 FFF7FEFF 		bl	adcObjectInit
 437              		.loc 1 126 0
 438 0008 074B     		ldr	r3, .L22
 439 000a 084A     		ldr	r2, .L22+4
 440 000c 9A62     		str	r2, [r3, #40]
 441              		.loc 1 127 0
 442 000e 064B     		ldr	r3, .L22
 443 0010 074A     		ldr	r2, .L22+8
 444 0012 DA62     		str	r2, [r3, #44]
 445              		.loc 1 128 0
 446 0014 044B     		ldr	r3, .L22
 447 0016 42F28A52 		movw	r2, #9610
ARM GAS  /home/pauba/tmp/ccqbUBmw.s 			page 9


 448 001a 1A63     		str	r2, [r3, #48]
 449              		.loc 1 137 0
 450 001c 1220     		movs	r0, #18
 451 001e 6021     		movs	r1, #96
 452 0020 FFF7FEFF 		bl	nvicEnableVector
 453              		.loc 1 138 0
 454 0024 08BD     		pop	{r3, pc}
 455              	.L23:
 456 0026 00BF     		.align	2
 457              	.L22:
 458 0028 00000000 		.word	ADCD1
 459 002c 00240140 		.word	1073816576
 460 0030 00000000 		.word	_stm32_dma_streams
 461              		.cfi_endproc
 462              	.LFE65:
 463              		.size	adc_lld_init, .-adc_lld_init
 464 0034 AFF30080 		.section	.rodata
 464      AFF30080 
 464      AFF30080 
 465              		.align	2
 466              	.LC0:
 467 0000 6164635F 		.ascii	"adc_lld_start(), #1\000"
 467      6C6C645F 
 467      73746172 
 467      7428292C 
 467      20233100 
 468              		.section	.text.adc_lld_start,"ax",%progbits
 469              		.align	2
 470              		.p2align 4,,15
 471              		.global	adc_lld_start
 472              		.thumb
 473              		.thumb_func
 474              		.type	adc_lld_start, %function
 475              	adc_lld_start:
 476              	.LFB66:
 477              		.loc 1 147 0
 478              		.cfi_startproc
 479              		@ args = 0, pretend = 0, frame = 16
 480              		@ frame_needed = 0, uses_anonymous_args = 0
 481 0000 00B5     		push	{lr}
 482              		.cfi_def_cfa_offset 4
 483              		.cfi_offset 14, -4
 484 0002 85B0     		sub	sp, sp, #20
 485              		.cfi_def_cfa_offset 24
 486 0004 0190     		str	r0, [sp, #4]
 487              		.loc 1 150 0
 488 0006 019B     		ldr	r3, [sp, #4]
 489 0008 1B78     		ldrb	r3, [r3]	@ zero_extendqisi2
 490 000a 012B     		cmp	r3, #1
 491 000c 2CD1     		bne	.L24
 492              		.loc 1 152 0
 493 000e 019A     		ldr	r2, [sp, #4]
 494 0010 174B     		ldr	r3, .L28
 495 0012 9A42     		cmp	r2, r3
 496 0014 1CD1     		bne	.L26
 497              	.LBB12:
 498              		.loc 1 154 0
ARM GAS  /home/pauba/tmp/ccqbUBmw.s 			page 10


 499 0016 019B     		ldr	r3, [sp, #4]
 500 0018 DB6A     		ldr	r3, [r3, #44]
 501 001a 1846     		mov	r0, r3
 502 001c 0621     		movs	r1, #6
 503 001e 154A     		ldr	r2, .L28+4
 504 0020 019B     		ldr	r3, [sp, #4]
 505 0022 FFF7FEFF 		bl	dmaStreamAllocate
 506 0026 0346     		mov	r3, r0
 507 0028 8DF80F30 		strb	r3, [sp, #15]
 508              		.loc 1 158 0
 509 002c 9DF80F30 		ldrb	r3, [sp, #15]	@ zero_extendqisi2
 510 0030 002B     		cmp	r3, #0
 511 0032 02D0     		beq	.L27
 512              		.loc 1 158 0 is_stmt 0 discriminator 1
 513 0034 1048     		ldr	r0, .L28+8
 514 0036 FFF7FEFF 		bl	chDbgPanic
 515              	.L27:
 516              		.loc 1 159 0 is_stmt 1
 517 003a 019B     		ldr	r3, [sp, #4]
 518 003c DB6A     		ldr	r3, [r3, #44]
 519 003e 1B68     		ldr	r3, [r3]
 520 0040 0E4A     		ldr	r2, .L28+12
 521 0042 9A60     		str	r2, [r3, #8]
 522              		.loc 1 160 0
 523 0044 0E4B     		ldr	r3, .L28+16
 524 0046 0E4A     		ldr	r2, .L28+16
 525 0048 126A     		ldr	r2, [r2, #32]
 526 004a 42F40072 		orr	r2, r2, #512
 527 004e 1A62     		str	r2, [r3, #32]
 528              	.L26:
 529              	.LBE12:
 530              		.loc 1 166 0
 531 0050 019B     		ldr	r3, [sp, #4]
 532 0052 9B6A     		ldr	r3, [r3, #40]
 533 0054 0022     		movs	r2, #0
 534 0056 5A60     		str	r2, [r3, #4]
 535              		.loc 1 167 0
 536 0058 019B     		ldr	r3, [sp, #4]
 537 005a 9B6A     		ldr	r3, [r3, #40]
 538 005c 0022     		movs	r2, #0
 539 005e 9A60     		str	r2, [r3, #8]
 540              		.loc 1 168 0
 541 0060 019B     		ldr	r3, [sp, #4]
 542 0062 9B6A     		ldr	r3, [r3, #40]
 543 0064 0122     		movs	r2, #1
 544 0066 9A60     		str	r2, [r3, #8]
 545              	.L24:
 546              		.loc 1 170 0
 547 0068 05B0     		add	sp, sp, #20
 548              		@ sp needed
 549 006a 5DF804FB 		ldr	pc, [sp], #4
 550              	.L29:
 551 006e 00BF     		.align	2
 552              	.L28:
 553 0070 00000000 		.word	ADCD1
 554 0074 00000000 		.word	adc_lld_serve_rx_interrupt
 555 0078 00000000 		.word	.LC0
ARM GAS  /home/pauba/tmp/ccqbUBmw.s 			page 11


 556 007c 58240140 		.word	1073816664
 557 0080 00380240 		.word	1073887232
 558              		.cfi_endproc
 559              	.LFE66:
 560              		.size	adc_lld_start, .-adc_lld_start
 561 0084 AFF30080 		.section	.text.adc_lld_stop,"ax",%progbits
 561      AFF30080 
 561      AFF30080 
 562              		.align	2
 563              		.p2align 4,,15
 564              		.global	adc_lld_stop
 565              		.thumb
 566              		.thumb_func
 567              		.type	adc_lld_stop, %function
 568              	adc_lld_stop:
 569              	.LFB67:
 570              		.loc 1 179 0
 571              		.cfi_startproc
 572              		@ args = 0, pretend = 0, frame = 8
 573              		@ frame_needed = 0, uses_anonymous_args = 0
 574 0000 00B5     		push	{lr}
 575              		.cfi_def_cfa_offset 4
 576              		.cfi_offset 14, -4
 577 0002 83B0     		sub	sp, sp, #12
 578              		.cfi_def_cfa_offset 16
 579 0004 0190     		str	r0, [sp, #4]
 580              		.loc 1 182 0
 581 0006 019B     		ldr	r3, [sp, #4]
 582 0008 1B78     		ldrb	r3, [r3]	@ zero_extendqisi2
 583 000a 022B     		cmp	r3, #2
 584 000c 16D1     		bne	.L30
 585              		.loc 1 183 0
 586 000e 019B     		ldr	r3, [sp, #4]
 587 0010 DB6A     		ldr	r3, [r3, #44]
 588 0012 1846     		mov	r0, r3
 589 0014 FFF7FEFF 		bl	dmaStreamRelease
 590              		.loc 1 184 0
 591 0018 019B     		ldr	r3, [sp, #4]
 592 001a 9B6A     		ldr	r3, [r3, #40]
 593 001c 0022     		movs	r2, #0
 594 001e 5A60     		str	r2, [r3, #4]
 595              		.loc 1 185 0
 596 0020 019B     		ldr	r3, [sp, #4]
 597 0022 9B6A     		ldr	r3, [r3, #40]
 598 0024 0022     		movs	r2, #0
 599 0026 9A60     		str	r2, [r3, #8]
 600              		.loc 1 188 0
 601 0028 019A     		ldr	r2, [sp, #4]
 602 002a 064B     		ldr	r3, .L32
 603 002c 9A42     		cmp	r2, r3
 604 002e 05D1     		bne	.L30
 605              		.loc 1 189 0
 606 0030 054B     		ldr	r3, .L32+4
 607 0032 054A     		ldr	r2, .L32+4
 608 0034 126A     		ldr	r2, [r2, #32]
 609 0036 22F40072 		bic	r2, r2, #512
 610 003a 1A62     		str	r2, [r3, #32]
ARM GAS  /home/pauba/tmp/ccqbUBmw.s 			page 12


 611              	.L30:
 612              		.loc 1 192 0
 613 003c 03B0     		add	sp, sp, #12
 614              		@ sp needed
 615 003e 5DF804FB 		ldr	pc, [sp], #4
 616              	.L33:
 617 0042 00BF     		.align	2
 618              	.L32:
 619 0044 00000000 		.word	ADCD1
 620 0048 00380240 		.word	1073887232
 621              		.cfi_endproc
 622              	.LFE67:
 623              		.size	adc_lld_stop, .-adc_lld_stop
 624 004c AFF30080 		.section	.text.adc_lld_start_conversion,"ax",%progbits
 625              		.align	2
 626              		.p2align 4,,15
 627              		.global	adc_lld_start_conversion
 628              		.thumb
 629              		.thumb_func
 630              		.type	adc_lld_start_conversion, %function
 631              	adc_lld_start_conversion:
 632              	.LFB68:
 633              		.loc 1 201 0
 634              		.cfi_startproc
 635              		@ args = 0, pretend = 0, frame = 16
 636              		@ frame_needed = 0, uses_anonymous_args = 0
 637              		@ link register save eliminated.
 638 0000 84B0     		sub	sp, sp, #16
 639              		.cfi_def_cfa_offset 16
 640 0002 0190     		str	r0, [sp, #4]
 641              		.loc 1 203 0
 642 0004 019B     		ldr	r3, [sp, #4]
 643 0006 1B69     		ldr	r3, [r3, #16]
 644 0008 0293     		str	r3, [sp, #8]
 645              		.loc 1 206 0
 646 000a 019B     		ldr	r3, [sp, #4]
 647 000c 1B6B     		ldr	r3, [r3, #48]
 648 000e 0393     		str	r3, [sp, #12]
 649              		.loc 1 207 0
 650 0010 029B     		ldr	r3, [sp, #8]
 651 0012 1B78     		ldrb	r3, [r3]	@ zero_extendqisi2
 652 0014 002B     		cmp	r3, #0
 653 0016 0BD0     		beq	.L35
 654              		.loc 1 208 0
 655 0018 039B     		ldr	r3, [sp, #12]
 656 001a 43F02003 		orr	r3, r3, #32
 657 001e 0393     		str	r3, [sp, #12]
 658              		.loc 1 209 0
 659 0020 019B     		ldr	r3, [sp, #4]
 660 0022 DB68     		ldr	r3, [r3, #12]
 661 0024 012B     		cmp	r3, #1
 662 0026 03D9     		bls	.L35
 663              		.loc 1 212 0
 664 0028 039B     		ldr	r3, [sp, #12]
 665 002a 43F00403 		orr	r3, r3, #4
 666 002e 0393     		str	r3, [sp, #12]
 667              	.L35:
ARM GAS  /home/pauba/tmp/ccqbUBmw.s 			page 13


 668              		.loc 1 215 0
 669 0030 019B     		ldr	r3, [sp, #4]
 670 0032 DB6A     		ldr	r3, [r3, #44]
 671 0034 1B68     		ldr	r3, [r3]
 672 0036 019A     		ldr	r2, [sp, #4]
 673 0038 9268     		ldr	r2, [r2, #8]
 674 003a DA60     		str	r2, [r3, #12]
 675              		.loc 1 216 0
 676 003c 019B     		ldr	r3, [sp, #4]
 677 003e DB6A     		ldr	r3, [r3, #44]
 678 0040 1B68     		ldr	r3, [r3]
 679 0042 029A     		ldr	r2, [sp, #8]
 680 0044 5288     		ldrh	r2, [r2, #2]
 681 0046 0199     		ldr	r1, [sp, #4]
 682 0048 C968     		ldr	r1, [r1, #12]
 683 004a 01FB02F2 		mul	r2, r1, r2
 684 004e 5A60     		str	r2, [r3, #4]
 685              		.loc 1 218 0
 686 0050 019B     		ldr	r3, [sp, #4]
 687 0052 DB6A     		ldr	r3, [r3, #44]
 688 0054 1B68     		ldr	r3, [r3]
 689 0056 039A     		ldr	r2, [sp, #12]
 690 0058 1A60     		str	r2, [r3]
 691              		.loc 1 219 0
 692 005a 019B     		ldr	r3, [sp, #4]
 693 005c DB6A     		ldr	r3, [r3, #44]
 694 005e 1B68     		ldr	r3, [r3]
 695 0060 019A     		ldr	r2, [sp, #4]
 696 0062 D26A     		ldr	r2, [r2, #44]
 697 0064 1268     		ldr	r2, [r2]
 698 0066 1268     		ldr	r2, [r2]
 699 0068 42F00102 		orr	r2, r2, #1
 700 006c 1A60     		str	r2, [r3]
 701              		.loc 1 222 0
 702 006e 019B     		ldr	r3, [sp, #4]
 703 0070 9B6A     		ldr	r3, [r3, #40]
 704 0072 0022     		movs	r2, #0
 705 0074 1A60     		str	r2, [r3]
 706              		.loc 1 223 0
 707 0076 019B     		ldr	r3, [sp, #4]
 708 0078 9B6A     		ldr	r3, [r3, #40]
 709 007a 029A     		ldr	r2, [sp, #8]
 710 007c 5269     		ldr	r2, [r2, #20]
 711 007e DA60     		str	r2, [r3, #12]
 712              		.loc 1 224 0
 713 0080 019B     		ldr	r3, [sp, #4]
 714 0082 9B6A     		ldr	r3, [r3, #40]
 715 0084 029A     		ldr	r2, [sp, #8]
 716 0086 9269     		ldr	r2, [r2, #24]
 717 0088 1A61     		str	r2, [r3, #16]
 718              		.loc 1 225 0
 719 008a 019B     		ldr	r3, [sp, #4]
 720 008c 9B6A     		ldr	r3, [r3, #40]
 721 008e 029A     		ldr	r2, [sp, #8]
 722 0090 D269     		ldr	r2, [r2, #28]
 723 0092 5A61     		str	r2, [r3, #20]
 724              		.loc 1 226 0
ARM GAS  /home/pauba/tmp/ccqbUBmw.s 			page 14


 725 0094 019B     		ldr	r3, [sp, #4]
 726 0096 9B6A     		ldr	r3, [r3, #40]
 727 0098 029A     		ldr	r2, [sp, #8]
 728 009a 126A     		ldr	r2, [r2, #32]
 729 009c 1A63     		str	r2, [r3, #48]
 730              		.loc 1 227 0
 731 009e 019B     		ldr	r3, [sp, #4]
 732 00a0 9B6A     		ldr	r3, [r3, #40]
 733 00a2 029A     		ldr	r2, [sp, #8]
 734 00a4 526A     		ldr	r2, [r2, #36]
 735 00a6 5A63     		str	r2, [r3, #52]
 736              		.loc 1 228 0
 737 00a8 019B     		ldr	r3, [sp, #4]
 738 00aa 9B6A     		ldr	r3, [r3, #40]
 739 00ac 029A     		ldr	r2, [sp, #8]
 740 00ae 926A     		ldr	r2, [r2, #40]
 741 00b0 9A63     		str	r2, [r3, #56]
 742              		.loc 1 229 0
 743 00b2 019B     		ldr	r3, [sp, #4]
 744 00b4 9B6A     		ldr	r3, [r3, #40]
 745 00b6 029A     		ldr	r2, [sp, #8]
 746 00b8 D26A     		ldr	r2, [r2, #44]
 747 00ba DA63     		str	r2, [r3, #60]
 748              		.loc 1 230 0
 749 00bc 019B     		ldr	r3, [sp, #4]
 750 00be 9B6A     		ldr	r3, [r3, #40]
 751 00c0 029A     		ldr	r2, [sp, #8]
 752 00c2 126B     		ldr	r2, [r2, #48]
 753 00c4 1A64     		str	r2, [r3, #64]
 754              		.loc 1 234 0
 755 00c6 019B     		ldr	r3, [sp, #4]
 756 00c8 9A6A     		ldr	r2, [r3, #40]
 757 00ca 029B     		ldr	r3, [sp, #8]
 758 00cc DB68     		ldr	r3, [r3, #12]
 759 00ce 43F08063 		orr	r3, r3, #67108864
 760 00d2 43F48073 		orr	r3, r3, #256
 761 00d6 5360     		str	r3, [r2, #4]
 762              		.loc 1 235 0
 763 00d8 029B     		ldr	r3, [sp, #8]
 764 00da 1B69     		ldr	r3, [r3, #16]
 765 00dc 03F08043 		and	r3, r3, #1073741824
 766 00e0 002B     		cmp	r3, #0
 767 00e2 09D0     		beq	.L36
 768              		.loc 1 236 0
 769 00e4 019B     		ldr	r3, [sp, #4]
 770 00e6 9A6A     		ldr	r2, [r3, #40]
 771 00e8 029B     		ldr	r3, [sp, #8]
 772 00ea 1B69     		ldr	r3, [r3, #16]
 773              		.loc 1 237 0
 774 00ec 43F44073 		orr	r3, r3, #768
 775 00f0 43F00303 		orr	r3, r3, #3
 776              		.loc 1 236 0
 777 00f4 9360     		str	r3, [r2, #8]
 778 00f6 08E0     		b	.L34
 779              	.L36:
 780              		.loc 1 239 0
 781 00f8 019B     		ldr	r3, [sp, #4]
ARM GAS  /home/pauba/tmp/ccqbUBmw.s 			page 15


 782 00fa 9A6A     		ldr	r2, [r3, #40]
 783 00fc 029B     		ldr	r3, [sp, #8]
 784 00fe 1B69     		ldr	r3, [r3, #16]
 785              		.loc 1 240 0
 786 0100 43F44073 		orr	r3, r3, #768
 787 0104 43F00103 		orr	r3, r3, #1
 788              		.loc 1 239 0
 789 0108 9360     		str	r3, [r2, #8]
 790              	.L34:
 791              		.loc 1 241 0
 792 010a 04B0     		add	sp, sp, #16
 793              		@ sp needed
 794 010c 7047     		bx	lr
 795              		.cfi_endproc
 796              	.LFE68:
 797              		.size	adc_lld_start_conversion, .-adc_lld_start_conversion
 798 010e 00BF     		.section	.text.adc_lld_stop_conversion,"ax",%progbits
 799              		.align	2
 800              		.p2align 4,,15
 801              		.global	adc_lld_stop_conversion
 802              		.thumb
 803              		.thumb_func
 804              		.type	adc_lld_stop_conversion, %function
 805              	adc_lld_stop_conversion:
 806              	.LFB69:
 807              		.loc 1 250 0
 808              		.cfi_startproc
 809              		@ args = 0, pretend = 0, frame = 8
 810              		@ frame_needed = 0, uses_anonymous_args = 0
 811              		@ link register save eliminated.
 812 0000 82B0     		sub	sp, sp, #8
 813              		.cfi_def_cfa_offset 8
 814 0002 0190     		str	r0, [sp, #4]
 815              		.loc 1 252 0
 816 0004 019B     		ldr	r3, [sp, #4]
 817 0006 DB6A     		ldr	r3, [r3, #44]
 818 0008 1B68     		ldr	r3, [r3]
 819 000a 019A     		ldr	r2, [sp, #4]
 820 000c D26A     		ldr	r2, [r2, #44]
 821 000e 1268     		ldr	r2, [r2]
 822 0010 1268     		ldr	r2, [r2]
 823 0012 22F00F02 		bic	r2, r2, #15
 824 0016 1A60     		str	r2, [r3]
 825 0018 019B     		ldr	r3, [sp, #4]
 826 001a DB6A     		ldr	r3, [r3, #44]
 827 001c 5B68     		ldr	r3, [r3, #4]
 828 001e 019A     		ldr	r2, [sp, #4]
 829 0020 D26A     		ldr	r2, [r2, #44]
 830 0022 127A     		ldrb	r2, [r2, #8]	@ zero_extendqisi2
 831 0024 0F21     		movs	r1, #15
 832 0026 01FA02F2 		lsl	r2, r1, r2
 833 002a 1A60     		str	r2, [r3]
 834              		.loc 1 253 0
 835 002c 019B     		ldr	r3, [sp, #4]
 836 002e 9B6A     		ldr	r3, [r3, #40]
 837 0030 0022     		movs	r2, #0
 838 0032 5A60     		str	r2, [r3, #4]
ARM GAS  /home/pauba/tmp/ccqbUBmw.s 			page 16


 839              		.loc 1 254 0
 840 0034 019B     		ldr	r3, [sp, #4]
 841 0036 9B6A     		ldr	r3, [r3, #40]
 842 0038 0022     		movs	r2, #0
 843 003a 9A60     		str	r2, [r3, #8]
 844              		.loc 1 255 0
 845 003c 019B     		ldr	r3, [sp, #4]
 846 003e 9B6A     		ldr	r3, [r3, #40]
 847 0040 0122     		movs	r2, #1
 848 0042 9A60     		str	r2, [r3, #8]
 849              		.loc 1 256 0
 850 0044 02B0     		add	sp, sp, #8
 851              		@ sp needed
 852 0046 7047     		bx	lr
 853              		.cfi_endproc
 854              	.LFE69:
 855              		.size	adc_lld_stop_conversion, .-adc_lld_stop_conversion
 856 0048 AFF30080 		.section	.text.adcSTM32EnableTSVREFE,"ax",%progbits
 856      AFF30080 
 857              		.align	2
 858              		.p2align 4,,15
 859              		.global	adcSTM32EnableTSVREFE
 860              		.thumb
 861              		.thumb_func
 862              		.type	adcSTM32EnableTSVREFE, %function
 863              	adcSTM32EnableTSVREFE:
 864              	.LFB70:
 865              		.loc 1 264 0
 866              		.cfi_startproc
 867              		@ args = 0, pretend = 0, frame = 0
 868              		@ frame_needed = 0, uses_anonymous_args = 0
 869              		@ link register save eliminated.
 870              		.loc 1 266 0
 871 0000 034B     		ldr	r3, .L40
 872 0002 034A     		ldr	r2, .L40
 873 0004 5268     		ldr	r2, [r2, #4]
 874 0006 42F40002 		orr	r2, r2, #8388608
 875 000a 5A60     		str	r2, [r3, #4]
 876              		.loc 1 267 0
 877 000c 7047     		bx	lr
 878              	.L41:
 879 000e 00BF     		.align	2
 880              	.L40:
 881 0010 00270140 		.word	1073817344
 882              		.cfi_endproc
 883              	.LFE70:
 884              		.size	adcSTM32EnableTSVREFE, .-adcSTM32EnableTSVREFE
 885 0014 AFF30080 		.section	.text.adcSTM32DisableTSVREFE,"ax",%progbits
 885      AFF30080 
 885      AFF30080 
 886              		.align	2
 887              		.p2align 4,,15
 888              		.global	adcSTM32DisableTSVREFE
 889              		.thumb
 890              		.thumb_func
 891              		.type	adcSTM32DisableTSVREFE, %function
 892              	adcSTM32DisableTSVREFE:
ARM GAS  /home/pauba/tmp/ccqbUBmw.s 			page 17


 893              	.LFB71:
 894              		.loc 1 275 0
 895              		.cfi_startproc
 896              		@ args = 0, pretend = 0, frame = 0
 897              		@ frame_needed = 0, uses_anonymous_args = 0
 898              		@ link register save eliminated.
 899              		.loc 1 277 0
 900 0000 034B     		ldr	r3, .L43
 901 0002 034A     		ldr	r2, .L43
 902 0004 5268     		ldr	r2, [r2, #4]
 903 0006 22F40002 		bic	r2, r2, #8388608
 904 000a 5A60     		str	r2, [r3, #4]
 905              		.loc 1 278 0
 906 000c 7047     		bx	lr
 907              	.L44:
 908 000e 00BF     		.align	2
 909              	.L43:
 910 0010 00270140 		.word	1073817344
 911              		.cfi_endproc
 912              	.LFE71:
 913              		.size	adcSTM32DisableTSVREFE, .-adcSTM32DisableTSVREFE
 914 0014 AFF30080 		.text
 914      AFF30080 
 914      AFF30080 
 915              	.Letext0:
 916              		.file 2 "/opt/gcc-arm-none-eabi-4_8-2014q1/lib/gcc/arm-none-eabi/4.8.3/include/stddef.h"
 917              		.file 3 "/opt/gcc-arm-none-eabi-4_8-2014q1/arm-none-eabi/include/machine/_default_types.h"
 918              		.file 4 "/opt/gcc-arm-none-eabi-4_8-2014q1/arm-none-eabi/include/stdint.h"
 919              		.file 5 "/home/pauba/ChibiOS-RT/os/ports/GCC/ARMCMx/chtypes.h"
 920              		.file 6 "/home/pauba/ChibiOS-RT/os/kernel/include/chlists.h"
 921              		.file 7 "/home/pauba/ChibiOS-RT/os/kernel/include/chthreads.h"
 922              		.file 8 "/home/pauba/ChibiOS-RT/os/ports/GCC/ARMCMx/chcore_v7m.h"
 923              		.file 9 "/home/pauba/ChibiOS-RT/os/kernel/include/chmtx.h"
 924              		.file 10 "/home/pauba/ChibiOS-RT/os/hal/platforms/STM32L1xx/stm32l1xx.h"
 925              		.file 11 "/home/pauba/ChibiOS-RT/os/hal/platforms/STM32L1xx/stm32_dma.h"
 926              		.file 12 "/home/pauba/ChibiOS-RT/os/hal/include/adc.h"
 927              		.file 13 "/home/pauba/ChibiOS-RT/os/hal/platforms/STM32L1xx/adc_lld.h"
 928              		.file 14 "/home/pauba/ChibiOS-RT/os/ports/common/ARMCMx/CMSIS/include/core_cm3.h"
 929              		.section	.debug_info,"",%progbits
 930              	.Ldebug_info0:
 931 0000 720D0000 		.4byte	0xd72
 932 0004 0400     		.2byte	0x4
 933 0006 00000000 		.4byte	.Ldebug_abbrev0
 934 000a 04       		.byte	0x4
 935 000b 01       		.uleb128 0x1
 936 000c E9060000 		.4byte	.LASF218
 937 0010 01       		.byte	0x1
 938 0011 FC000000 		.4byte	.LASF219
 939 0015 00000000 		.4byte	.Ldebug_ranges0+0
 940 0019 00000000 		.4byte	0
 941 001d 00000000 		.4byte	.Ldebug_line0
 942 0021 02       		.uleb128 0x2
 943 0022 04       		.byte	0x4
 944 0023 05       		.byte	0x5
 945 0024 696E7400 		.ascii	"int\000"
 946 0028 03       		.uleb128 0x3
 947 0029 09000000 		.4byte	.LASF2
ARM GAS  /home/pauba/tmp/ccqbUBmw.s 			page 18


 948 002d 02       		.byte	0x2
 949 002e D4       		.byte	0xd4
 950 002f 33000000 		.4byte	0x33
 951 0033 04       		.uleb128 0x4
 952 0034 04       		.byte	0x4
 953 0035 07       		.byte	0x7
 954 0036 0B020000 		.4byte	.LASF0
 955 003a 04       		.uleb128 0x4
 956 003b 01       		.byte	0x1
 957 003c 06       		.byte	0x6
 958 003d 5C010000 		.4byte	.LASF1
 959 0041 03       		.uleb128 0x3
 960 0042 4E000000 		.4byte	.LASF3
 961 0046 03       		.byte	0x3
 962 0047 1C       		.byte	0x1c
 963 0048 4C000000 		.4byte	0x4c
 964 004c 04       		.uleb128 0x4
 965 004d 01       		.byte	0x1
 966 004e 08       		.byte	0x8
 967 004f DD050000 		.4byte	.LASF4
 968 0053 04       		.uleb128 0x4
 969 0054 02       		.byte	0x2
 970 0055 05       		.byte	0x5
 971 0056 31040000 		.4byte	.LASF5
 972 005a 03       		.uleb128 0x3
 973 005b F8070000 		.4byte	.LASF6
 974 005f 03       		.byte	0x3
 975 0060 26       		.byte	0x26
 976 0061 65000000 		.4byte	0x65
 977 0065 04       		.uleb128 0x4
 978 0066 02       		.byte	0x2
 979 0067 07       		.byte	0x7
 980 0068 8C030000 		.4byte	.LASF7
 981 006c 03       		.uleb128 0x3
 982 006d 2C080000 		.4byte	.LASF8
 983 0071 03       		.byte	0x3
 984 0072 37       		.byte	0x37
 985 0073 77000000 		.4byte	0x77
 986 0077 04       		.uleb128 0x4
 987 0078 04       		.byte	0x4
 988 0079 05       		.byte	0x5
 989 007a BA010000 		.4byte	.LASF9
 990 007e 03       		.uleb128 0x3
 991 007f A2020000 		.4byte	.LASF10
 992 0083 03       		.byte	0x3
 993 0084 38       		.byte	0x38
 994 0085 89000000 		.4byte	0x89
 995 0089 04       		.uleb128 0x4
 996 008a 04       		.byte	0x4
 997 008b 07       		.byte	0x7
 998 008c 68010000 		.4byte	.LASF11
 999 0090 04       		.uleb128 0x4
 1000 0091 08       		.byte	0x8
 1001 0092 05       		.byte	0x5
 1002 0093 4E010000 		.4byte	.LASF12
 1003 0097 03       		.uleb128 0x3
 1004 0098 5F050000 		.4byte	.LASF13
ARM GAS  /home/pauba/tmp/ccqbUBmw.s 			page 19


 1005 009c 03       		.byte	0x3
 1006 009d 4E       		.byte	0x4e
 1007 009e A2000000 		.4byte	0xa2
 1008 00a2 04       		.uleb128 0x4
 1009 00a3 08       		.byte	0x8
 1010 00a4 07       		.byte	0x7
 1011 00a5 91000000 		.4byte	.LASF14
 1012 00a9 03       		.uleb128 0x3
 1013 00aa FA080000 		.4byte	.LASF15
 1014 00ae 04       		.byte	0x4
 1015 00af 2A       		.byte	0x2a
 1016 00b0 41000000 		.4byte	0x41
 1017 00b4 03       		.uleb128 0x3
 1018 00b5 46020000 		.4byte	.LASF16
 1019 00b9 04       		.byte	0x4
 1020 00ba 36       		.byte	0x36
 1021 00bb 5A000000 		.4byte	0x5a
 1022 00bf 03       		.uleb128 0x3
 1023 00c0 D5050000 		.4byte	.LASF17
 1024 00c4 04       		.byte	0x4
 1025 00c5 41       		.byte	0x41
 1026 00c6 6C000000 		.4byte	0x6c
 1027 00ca 03       		.uleb128 0x3
 1028 00cb BE060000 		.4byte	.LASF18
 1029 00cf 04       		.byte	0x4
 1030 00d0 42       		.byte	0x42
 1031 00d1 7E000000 		.4byte	0x7e
 1032 00d5 03       		.uleb128 0x3
 1033 00d6 DA040000 		.4byte	.LASF19
 1034 00da 04       		.byte	0x4
 1035 00db 4E       		.byte	0x4e
 1036 00dc 97000000 		.4byte	0x97
 1037 00e0 03       		.uleb128 0x3
 1038 00e1 8A010000 		.4byte	.LASF20
 1039 00e5 05       		.byte	0x5
 1040 00e6 2B       		.byte	0x2b
 1041 00e7 EB000000 		.4byte	0xeb
 1042 00eb 04       		.uleb128 0x4
 1043 00ec 01       		.byte	0x1
 1044 00ed 02       		.byte	0x2
 1045 00ee CF050000 		.4byte	.LASF21
 1046 00f2 03       		.uleb128 0x3
 1047 00f3 FA030000 		.4byte	.LASF22
 1048 00f7 05       		.byte	0x5
 1049 00f8 2C       		.byte	0x2c
 1050 00f9 A9000000 		.4byte	0xa9
 1051 00fd 03       		.uleb128 0x3
 1052 00fe 02020000 		.4byte	.LASF23
 1053 0102 05       		.byte	0x5
 1054 0103 2D       		.byte	0x2d
 1055 0104 A9000000 		.4byte	0xa9
 1056 0108 03       		.uleb128 0x3
 1057 0109 93050000 		.4byte	.LASF24
 1058 010d 05       		.byte	0x5
 1059 010e 2E       		.byte	0x2e
 1060 010f A9000000 		.4byte	0xa9
 1061 0113 03       		.uleb128 0x3
ARM GAS  /home/pauba/tmp/ccqbUBmw.s 			page 20


 1062 0114 09030000 		.4byte	.LASF25
 1063 0118 05       		.byte	0x5
 1064 0119 2F       		.byte	0x2f
 1065 011a A9000000 		.4byte	0xa9
 1066 011e 03       		.uleb128 0x3
 1067 011f C1050000 		.4byte	.LASF26
 1068 0123 05       		.byte	0x5
 1069 0124 30       		.byte	0x30
 1070 0125 CA000000 		.4byte	0xca
 1071 0129 03       		.uleb128 0x3
 1072 012a D0030000 		.4byte	.LASF27
 1073 012e 05       		.byte	0x5
 1074 012f 31       		.byte	0x31
 1075 0130 BF000000 		.4byte	0xbf
 1076 0134 03       		.uleb128 0x3
 1077 0135 25040000 		.4byte	.LASF28
 1078 0139 05       		.byte	0x5
 1079 013a 33       		.byte	0x33
 1080 013b CA000000 		.4byte	0xca
 1081 013f 03       		.uleb128 0x3
 1082 0140 E3020000 		.4byte	.LASF29
 1083 0144 05       		.byte	0x5
 1084 0145 35       		.byte	0x35
 1085 0146 CA000000 		.4byte	0xca
 1086 014a 03       		.uleb128 0x3
 1087 014b DC020000 		.4byte	.LASF30
 1088 014f 06       		.byte	0x6
 1089 0150 2A       		.byte	0x2a
 1090 0151 55010000 		.4byte	0x155
 1091 0155 05       		.uleb128 0x5
 1092 0156 DC020000 		.4byte	.LASF30
 1093 015a 4C       		.byte	0x4c
 1094 015b 07       		.byte	0x7
 1095 015c 5E       		.byte	0x5e
 1096 015d 5E020000 		.4byte	0x25e
 1097 0161 06       		.uleb128 0x6
 1098 0162 B7040000 		.4byte	.LASF31
 1099 0166 07       		.byte	0x7
 1100 0167 5F       		.byte	0x5f
 1101 0168 7F020000 		.4byte	0x27f
 1102 016c 00       		.byte	0
 1103 016d 06       		.uleb128 0x6
 1104 016e A7050000 		.4byte	.LASF32
 1105 0172 07       		.byte	0x7
 1106 0173 61       		.byte	0x61
 1107 0174 7F020000 		.4byte	0x27f
 1108 0178 04       		.byte	0x4
 1109 0179 06       		.uleb128 0x6
 1110 017a 42010000 		.4byte	.LASF33
 1111 017e 07       		.byte	0x7
 1112 017f 63       		.byte	0x63
 1113 0180 1E010000 		.4byte	0x11e
 1114 0184 08       		.byte	0x8
 1115 0185 06       		.uleb128 0x6
 1116 0186 D6090000 		.4byte	.LASF34
 1117 018a 07       		.byte	0x7
 1118 018b 64       		.byte	0x64
ARM GAS  /home/pauba/tmp/ccqbUBmw.s 			page 21


 1119 018c 44030000 		.4byte	0x344
 1120 0190 0C       		.byte	0xc
 1121 0191 06       		.uleb128 0x6
 1122 0192 6D020000 		.4byte	.LASF35
 1123 0196 07       		.byte	0x7
 1124 0197 66       		.byte	0x66
 1125 0198 7F020000 		.4byte	0x27f
 1126 019c 10       		.byte	0x10
 1127 019d 06       		.uleb128 0x6
 1128 019e 41080000 		.4byte	.LASF36
 1129 01a2 07       		.byte	0x7
 1130 01a3 67       		.byte	0x67
 1131 01a4 7F020000 		.4byte	0x27f
 1132 01a8 14       		.byte	0x14
 1133 01a9 06       		.uleb128 0x6
 1134 01aa 4E090000 		.4byte	.LASF37
 1135 01ae 07       		.byte	0x7
 1136 01af 6E       		.byte	0x6e
 1137 01b0 ED030000 		.4byte	0x3ed
 1138 01b4 18       		.byte	0x18
 1139 01b5 06       		.uleb128 0x6
 1140 01b6 36080000 		.4byte	.LASF38
 1141 01ba 07       		.byte	0x7
 1142 01bb 74       		.byte	0x74
 1143 01bc FF030000 		.4byte	0x3ff
 1144 01c0 1C       		.byte	0x1c
 1145 01c1 06       		.uleb128 0x6
 1146 01c2 7A010000 		.4byte	.LASF39
 1147 01c6 07       		.byte	0x7
 1148 01c7 79       		.byte	0x79
 1149 01c8 FD000000 		.4byte	0xfd
 1150 01cc 20       		.byte	0x20
 1151 01cd 06       		.uleb128 0x6
 1152 01ce 74060000 		.4byte	.LASF40
 1153 01d2 07       		.byte	0x7
 1154 01d3 7D       		.byte	0x7d
 1155 01d4 F2000000 		.4byte	0xf2
 1156 01d8 21       		.byte	0x21
 1157 01d9 06       		.uleb128 0x6
 1158 01da 28020000 		.4byte	.LASF41
 1159 01de 07       		.byte	0x7
 1160 01df 82       		.byte	0x82
 1161 01e0 08010000 		.4byte	0x108
 1162 01e4 22       		.byte	0x22
 1163 01e5 06       		.uleb128 0x6
 1164 01e6 3C060000 		.4byte	.LASF42
 1165 01ea 07       		.byte	0x7
 1166 01eb 88       		.byte	0x88
 1167 01ec 13010000 		.4byte	0x113
 1168 01f0 23       		.byte	0x23
 1169 01f1 06       		.uleb128 0x6
 1170 01f2 4F020000 		.4byte	.LASF43
 1171 01f6 07       		.byte	0x7
 1172 01f7 8F       		.byte	0x8f
 1173 01f8 71030000 		.4byte	0x371
 1174 01fc 24       		.byte	0x24
 1175 01fd 07       		.uleb128 0x7
ARM GAS  /home/pauba/tmp/ccqbUBmw.s 			page 22


 1176 01fe 705F7500 		.ascii	"p_u\000"
 1177 0202 07       		.byte	0x7
 1178 0203 B4       		.byte	0xb4
 1179 0204 B8030000 		.4byte	0x3b8
 1180 0208 28       		.byte	0x28
 1181 0209 06       		.uleb128 0x6
 1182 020a DC090000 		.4byte	.LASF44
 1183 020e 07       		.byte	0x7
 1184 020f B9       		.byte	0xb9
 1185 0210 A5020000 		.4byte	0x2a5
 1186 0214 2C       		.byte	0x2c
 1187 0215 06       		.uleb128 0x6
 1188 0216 38030000 		.4byte	.LASF45
 1189 021a 07       		.byte	0x7
 1190 021b BF       		.byte	0xbf
 1191 021c 85020000 		.4byte	0x285
 1192 0220 30       		.byte	0x30
 1193 0221 06       		.uleb128 0x6
 1194 0222 80090000 		.4byte	.LASF46
 1195 0226 07       		.byte	0x7
 1196 0227 C3       		.byte	0xc3
 1197 0228 29010000 		.4byte	0x129
 1198 022c 38       		.byte	0x38
 1199 022d 06       		.uleb128 0x6
 1200 022e AE060000 		.4byte	.LASF47
 1201 0232 07       		.byte	0x7
 1202 0233 C9       		.byte	0xc9
 1203 0234 34010000 		.4byte	0x134
 1204 0238 3C       		.byte	0x3c
 1205 0239 06       		.uleb128 0x6
 1206 023a 10060000 		.4byte	.LASF48
 1207 023e 07       		.byte	0x7
 1208 023f D0       		.byte	0xd0
 1209 0240 05040000 		.4byte	0x405
 1210 0244 40       		.byte	0x40
 1211 0245 06       		.uleb128 0x6
 1212 0246 D6030000 		.4byte	.LASF49
 1213 024a 07       		.byte	0x7
 1214 024b D4       		.byte	0xd4
 1215 024c 1E010000 		.4byte	0x11e
 1216 0250 44       		.byte	0x44
 1217 0251 06       		.uleb128 0x6
 1218 0252 82010000 		.4byte	.LASF50
 1219 0256 07       		.byte	0x7
 1220 0257 DA       		.byte	0xda
 1221 0258 BB020000 		.4byte	0x2bb
 1222 025c 48       		.byte	0x48
 1223 025d 00       		.byte	0
 1224 025e 08       		.uleb128 0x8
 1225 025f 08       		.byte	0x8
 1226 0260 06       		.byte	0x6
 1227 0261 61       		.byte	0x61
 1228 0262 7F020000 		.4byte	0x27f
 1229 0266 06       		.uleb128 0x6
 1230 0267 B7040000 		.4byte	.LASF31
 1231 026b 06       		.byte	0x6
 1232 026c 62       		.byte	0x62
ARM GAS  /home/pauba/tmp/ccqbUBmw.s 			page 23


 1233 026d 7F020000 		.4byte	0x27f
 1234 0271 00       		.byte	0
 1235 0272 06       		.uleb128 0x6
 1236 0273 A7050000 		.4byte	.LASF32
 1237 0277 06       		.byte	0x6
 1238 0278 64       		.byte	0x64
 1239 0279 7F020000 		.4byte	0x27f
 1240 027d 04       		.byte	0x4
 1241 027e 00       		.byte	0
 1242 027f 09       		.uleb128 0x9
 1243 0280 04       		.byte	0x4
 1244 0281 4A010000 		.4byte	0x14a
 1245 0285 03       		.uleb128 0x3
 1246 0286 FF040000 		.4byte	.LASF51
 1247 028a 06       		.byte	0x6
 1248 028b 66       		.byte	0x66
 1249 028c 5E020000 		.4byte	0x25e
 1250 0290 08       		.uleb128 0x8
 1251 0291 04       		.byte	0x4
 1252 0292 06       		.byte	0x6
 1253 0293 6B       		.byte	0x6b
 1254 0294 A5020000 		.4byte	0x2a5
 1255 0298 06       		.uleb128 0x6
 1256 0299 B7040000 		.4byte	.LASF31
 1257 029d 06       		.byte	0x6
 1258 029e 6D       		.byte	0x6d
 1259 029f 7F020000 		.4byte	0x27f
 1260 02a3 00       		.byte	0
 1261 02a4 00       		.byte	0
 1262 02a5 03       		.uleb128 0x3
 1263 02a6 19040000 		.4byte	.LASF52
 1264 02aa 06       		.byte	0x6
 1265 02ab 70       		.byte	0x70
 1266 02ac 90020000 		.4byte	0x290
 1267 02b0 03       		.uleb128 0x3
 1268 02b1 B7020000 		.4byte	.LASF53
 1269 02b5 08       		.byte	0x8
 1270 02b6 E5       		.byte	0xe5
 1271 02b7 BB020000 		.4byte	0x2bb
 1272 02bb 0A       		.uleb128 0xa
 1273 02bc 04       		.byte	0x4
 1274 02bd 03       		.uleb128 0x3
 1275 02be 65040000 		.4byte	.LASF54
 1276 02c2 08       		.byte	0x8
 1277 02c3 EB       		.byte	0xeb
 1278 02c4 D5000000 		.4byte	0xd5
 1279 02c8 0B       		.uleb128 0xb
 1280 02c9 78080000 		.4byte	.LASF55
 1281 02cd 24       		.byte	0x24
 1282 02ce 08       		.byte	0x8
 1283 02cf 0C01     		.2byte	0x10c
 1284 02d1 44030000 		.4byte	0x344
 1285 02d5 0C       		.uleb128 0xc
 1286 02d6 723400   		.ascii	"r4\000"
 1287 02d9 08       		.byte	0x8
 1288 02da 1F01     		.2byte	0x11f
 1289 02dc B0020000 		.4byte	0x2b0
ARM GAS  /home/pauba/tmp/ccqbUBmw.s 			page 24


 1290 02e0 00       		.byte	0
 1291 02e1 0C       		.uleb128 0xc
 1292 02e2 723500   		.ascii	"r5\000"
 1293 02e5 08       		.byte	0x8
 1294 02e6 2001     		.2byte	0x120
 1295 02e8 B0020000 		.4byte	0x2b0
 1296 02ec 04       		.byte	0x4
 1297 02ed 0C       		.uleb128 0xc
 1298 02ee 723600   		.ascii	"r6\000"
 1299 02f1 08       		.byte	0x8
 1300 02f2 2101     		.2byte	0x121
 1301 02f4 B0020000 		.4byte	0x2b0
 1302 02f8 08       		.byte	0x8
 1303 02f9 0C       		.uleb128 0xc
 1304 02fa 723700   		.ascii	"r7\000"
 1305 02fd 08       		.byte	0x8
 1306 02fe 2201     		.2byte	0x122
 1307 0300 B0020000 		.4byte	0x2b0
 1308 0304 0C       		.byte	0xc
 1309 0305 0C       		.uleb128 0xc
 1310 0306 723800   		.ascii	"r8\000"
 1311 0309 08       		.byte	0x8
 1312 030a 2301     		.2byte	0x123
 1313 030c B0020000 		.4byte	0x2b0
 1314 0310 10       		.byte	0x10
 1315 0311 0C       		.uleb128 0xc
 1316 0312 723900   		.ascii	"r9\000"
 1317 0315 08       		.byte	0x8
 1318 0316 2401     		.2byte	0x124
 1319 0318 B0020000 		.4byte	0x2b0
 1320 031c 14       		.byte	0x14
 1321 031d 0C       		.uleb128 0xc
 1322 031e 72313000 		.ascii	"r10\000"
 1323 0322 08       		.byte	0x8
 1324 0323 2501     		.2byte	0x125
 1325 0325 B0020000 		.4byte	0x2b0
 1326 0329 18       		.byte	0x18
 1327 032a 0C       		.uleb128 0xc
 1328 032b 72313100 		.ascii	"r11\000"
 1329 032f 08       		.byte	0x8
 1330 0330 2601     		.2byte	0x126
 1331 0332 B0020000 		.4byte	0x2b0
 1332 0336 1C       		.byte	0x1c
 1333 0337 0C       		.uleb128 0xc
 1334 0338 6C7200   		.ascii	"lr\000"
 1335 033b 08       		.byte	0x8
 1336 033c 2701     		.2byte	0x127
 1337 033e B0020000 		.4byte	0x2b0
 1338 0342 20       		.byte	0x20
 1339 0343 00       		.byte	0
 1340 0344 0B       		.uleb128 0xb
 1341 0345 70080000 		.4byte	.LASF56
 1342 0349 04       		.byte	0x4
 1343 034a 08       		.byte	0x8
 1344 034b 3101     		.2byte	0x131
 1345 034d 5F030000 		.4byte	0x35f
 1346 0351 0C       		.uleb128 0xc
ARM GAS  /home/pauba/tmp/ccqbUBmw.s 			page 25


 1347 0352 72313300 		.ascii	"r13\000"
 1348 0356 08       		.byte	0x8
 1349 0357 3201     		.2byte	0x132
 1350 0359 5F030000 		.4byte	0x35f
 1351 035d 00       		.byte	0
 1352 035e 00       		.byte	0
 1353 035f 09       		.uleb128 0x9
 1354 0360 04       		.byte	0x4
 1355 0361 C8020000 		.4byte	0x2c8
 1356 0365 0D       		.uleb128 0xd
 1357 0366 CA000000 		.4byte	0xca
 1358 036a 04       		.uleb128 0x4
 1359 036b 04       		.byte	0x4
 1360 036c 07       		.byte	0x7
 1361 036d A8040000 		.4byte	.LASF57
 1362 0371 0D       		.uleb128 0xd
 1363 0372 3F010000 		.4byte	0x13f
 1364 0376 05       		.uleb128 0x5
 1365 0377 B1040000 		.4byte	.LASF58
 1366 037b 10       		.byte	0x10
 1367 037c 09       		.byte	0x9
 1368 037d 2C       		.byte	0x2c
 1369 037e A7030000 		.4byte	0x3a7
 1370 0382 06       		.uleb128 0x6
 1371 0383 91010000 		.4byte	.LASF59
 1372 0387 09       		.byte	0x9
 1373 0388 2D       		.byte	0x2d
 1374 0389 85020000 		.4byte	0x285
 1375 038d 00       		.byte	0
 1376 038e 06       		.uleb128 0x6
 1377 038f AF090000 		.4byte	.LASF60
 1378 0393 09       		.byte	0x9
 1379 0394 2F       		.byte	0x2f
 1380 0395 7F020000 		.4byte	0x27f
 1381 0399 08       		.byte	0x8
 1382 039a 06       		.uleb128 0x6
 1383 039b 1D030000 		.4byte	.LASF61
 1384 039f 09       		.byte	0x9
 1385 03a0 31       		.byte	0x31
 1386 03a1 A7030000 		.4byte	0x3a7
 1387 03a5 0C       		.byte	0xc
 1388 03a6 00       		.byte	0
 1389 03a7 09       		.uleb128 0x9
 1390 03a8 04       		.byte	0x4
 1391 03a9 76030000 		.4byte	0x376
 1392 03ad 03       		.uleb128 0x3
 1393 03ae B1040000 		.4byte	.LASF58
 1394 03b2 09       		.byte	0x9
 1395 03b3 33       		.byte	0x33
 1396 03b4 76030000 		.4byte	0x376
 1397 03b8 0E       		.uleb128 0xe
 1398 03b9 04       		.byte	0x4
 1399 03ba 07       		.byte	0x7
 1400 03bb 96       		.byte	0x96
 1401 03bc ED030000 		.4byte	0x3ed
 1402 03c0 0F       		.uleb128 0xf
 1403 03c1 1D000000 		.4byte	.LASF62
ARM GAS  /home/pauba/tmp/ccqbUBmw.s 			page 26


 1404 03c5 07       		.byte	0x7
 1405 03c6 9D       		.byte	0x9d
 1406 03c7 29010000 		.4byte	0x129
 1407 03cb 0F       		.uleb128 0xf
 1408 03cc A8000000 		.4byte	.LASF63
 1409 03d0 07       		.byte	0x7
 1410 03d1 A4       		.byte	0xa4
 1411 03d2 29010000 		.4byte	0x129
 1412 03d6 0F       		.uleb128 0xf
 1413 03d7 3A090000 		.4byte	.LASF64
 1414 03db 07       		.byte	0x7
 1415 03dc AB       		.byte	0xab
 1416 03dd BB020000 		.4byte	0x2bb
 1417 03e1 0F       		.uleb128 0xf
 1418 03e2 6D060000 		.4byte	.LASF65
 1419 03e6 07       		.byte	0x7
 1420 03e7 B2       		.byte	0xb2
 1421 03e8 34010000 		.4byte	0x134
 1422 03ec 00       		.byte	0
 1423 03ed 09       		.uleb128 0x9
 1424 03ee 04       		.byte	0x4
 1425 03ef F3030000 		.4byte	0x3f3
 1426 03f3 10       		.uleb128 0x10
 1427 03f4 F8030000 		.4byte	0x3f8
 1428 03f8 04       		.uleb128 0x4
 1429 03f9 01       		.byte	0x1
 1430 03fa 08       		.byte	0x8
 1431 03fb D9070000 		.4byte	.LASF66
 1432 03ff 09       		.uleb128 0x9
 1433 0400 04       		.byte	0x4
 1434 0401 BD020000 		.4byte	0x2bd
 1435 0405 09       		.uleb128 0x9
 1436 0406 04       		.byte	0x4
 1437 0407 AD030000 		.4byte	0x3ad
 1438 040b 11       		.uleb128 0x11
 1439 040c 70040000 		.4byte	.LASF220
 1440 0410 01       		.byte	0x1
 1441 0411 0A       		.byte	0xa
 1442 0412 AB       		.byte	0xab
 1443 0413 56050000 		.4byte	0x556
 1444 0417 12       		.uleb128 0x12
 1445 0418 C5070000 		.4byte	.LASF67
 1446 041c 72       		.sleb128 -14
 1447 041d 12       		.uleb128 0x12
 1448 041e 7D050000 		.4byte	.LASF68
 1449 0422 74       		.sleb128 -12
 1450 0423 12       		.uleb128 0x12
 1451 0424 E3070000 		.4byte	.LASF69
 1452 0428 75       		.sleb128 -11
 1453 0429 12       		.uleb128 0x12
 1454 042a D9060000 		.4byte	.LASF70
 1455 042e 76       		.sleb128 -10
 1456 042f 12       		.uleb128 0x12
 1457 0430 ED090000 		.4byte	.LASF71
 1458 0434 7B       		.sleb128 -5
 1459 0435 12       		.uleb128 0x12
 1460 0436 E3040000 		.4byte	.LASF72
ARM GAS  /home/pauba/tmp/ccqbUBmw.s 			page 27


 1461 043a 7C       		.sleb128 -4
 1462 043b 12       		.uleb128 0x12
 1463 043c 8A020000 		.4byte	.LASF73
 1464 0440 7E       		.sleb128 -2
 1465 0441 12       		.uleb128 0x12
 1466 0442 53040000 		.4byte	.LASF74
 1467 0446 7F       		.sleb128 -1
 1468 0447 12       		.uleb128 0x12
 1469 0448 38010000 		.4byte	.LASF75
 1470 044c 00       		.sleb128 0
 1471 044d 12       		.uleb128 0x12
 1472 044e 00000000 		.4byte	.LASF76
 1473 0452 01       		.sleb128 1
 1474 0453 12       		.uleb128 0x12
 1475 0454 93090000 		.4byte	.LASF77
 1476 0458 02       		.sleb128 2
 1477 0459 12       		.uleb128 0x12
 1478 045a 9F030000 		.4byte	.LASF78
 1479 045e 03       		.sleb128 3
 1480 045f 12       		.uleb128 0x12
 1481 0460 A3060000 		.4byte	.LASF79
 1482 0464 04       		.sleb128 4
 1483 0465 12       		.uleb128 0x12
 1484 0466 CD090000 		.4byte	.LASF80
 1485 046a 05       		.sleb128 5
 1486 046b 12       		.uleb128 0x12
 1487 046c C3080000 		.4byte	.LASF81
 1488 0470 06       		.sleb128 6
 1489 0471 12       		.uleb128 0x12
 1490 0472 2F090000 		.4byte	.LASF82
 1491 0476 07       		.sleb128 7
 1492 0477 12       		.uleb128 0x12
 1493 0478 88060000 		.4byte	.LASF83
 1494 047c 08       		.sleb128 8
 1495 047d 12       		.uleb128 0x12
 1496 047e E9080000 		.4byte	.LASF84
 1497 0482 09       		.sleb128 9
 1498 0483 12       		.uleb128 0x12
 1499 0484 46060000 		.4byte	.LASF85
 1500 0488 0A       		.sleb128 10
 1501 0489 12       		.uleb128 0x12
 1502 048a 6A050000 		.4byte	.LASF86
 1503 048e 0B       		.sleb128 11
 1504 048f 12       		.uleb128 0x12
 1505 0490 95040000 		.4byte	.LASF87
 1506 0494 0C       		.sleb128 12
 1507 0495 12       		.uleb128 0x12
 1508 0496 5A060000 		.4byte	.LASF88
 1509 049a 0D       		.sleb128 13
 1510 049b 12       		.uleb128 0x12
 1511 049c 40040000 		.4byte	.LASF89
 1512 04a0 0E       		.sleb128 14
 1513 04a1 12       		.uleb128 0x12
 1514 04a2 79030000 		.4byte	.LASF90
 1515 04a6 0F       		.sleb128 15
 1516 04a7 12       		.uleb128 0x12
 1517 04a8 49080000 		.4byte	.LASF91
ARM GAS  /home/pauba/tmp/ccqbUBmw.s 			page 28


 1518 04ac 10       		.sleb128 16
 1519 04ad 12       		.uleb128 0x12
 1520 04ae 55090000 		.4byte	.LASF92
 1521 04b2 11       		.sleb128 17
 1522 04b3 12       		.uleb128 0x12
 1523 04b4 32060000 		.4byte	.LASF93
 1524 04b8 12       		.sleb128 18
 1525 04b9 12       		.uleb128 0x12
 1526 04ba CA020000 		.4byte	.LASF94
 1527 04be 13       		.sleb128 19
 1528 04bf 12       		.uleb128 0x12
 1529 04c0 64080000 		.4byte	.LASF95
 1530 04c4 14       		.sleb128 20
 1531 04c5 12       		.uleb128 0x12
 1532 04c6 F3000000 		.4byte	.LASF96
 1533 04ca 15       		.sleb128 21
 1534 04cb 12       		.uleb128 0x12
 1535 04cc 24000000 		.4byte	.LASF97
 1536 04d0 16       		.sleb128 22
 1537 04d1 12       		.uleb128 0x12
 1538 04d2 10000000 		.4byte	.LASF98
 1539 04d6 17       		.sleb128 23
 1540 04d7 12       		.uleb128 0x12
 1541 04d8 7F080000 		.4byte	.LASF99
 1542 04dc 18       		.sleb128 24
 1543 04dd 12       		.uleb128 0x12
 1544 04de 13030000 		.4byte	.LASF100
 1545 04e2 19       		.sleb128 25
 1546 04e3 12       		.uleb128 0x12
 1547 04e4 62020000 		.4byte	.LASF101
 1548 04e8 1A       		.sleb128 26
 1549 04e9 12       		.uleb128 0x12
 1550 04ea B7090000 		.4byte	.LASF102
 1551 04ee 1B       		.sleb128 27
 1552 04ef 12       		.uleb128 0x12
 1553 04f0 B9080000 		.4byte	.LASF103
 1554 04f4 1C       		.sleb128 28
 1555 04f5 12       		.uleb128 0x12
 1556 04f6 A5090000 		.4byte	.LASF104
 1557 04fa 1D       		.sleb128 29
 1558 04fb 12       		.uleb128 0x12
 1559 04fc DC000000 		.4byte	.LASF105
 1560 0500 1E       		.sleb128 30
 1561 0501 12       		.uleb128 0x12
 1562 0502 41000000 		.4byte	.LASF106
 1563 0506 1F       		.sleb128 31
 1564 0507 12       		.uleb128 0x12
 1565 0508 86090000 		.4byte	.LASF107
 1566 050c 20       		.sleb128 32
 1567 050d 12       		.uleb128 0x12
 1568 050e A0080000 		.4byte	.LASF108
 1569 0512 21       		.sleb128 33
 1570 0513 12       		.uleb128 0x12
 1571 0514 CF000000 		.4byte	.LASF109
 1572 0518 22       		.sleb128 34
 1573 0519 12       		.uleb128 0x12
 1574 051a F0030000 		.4byte	.LASF110
ARM GAS  /home/pauba/tmp/ccqbUBmw.s 			page 29


 1575 051e 23       		.sleb128 35
 1576 051f 12       		.uleb128 0x12
 1577 0520 F5040000 		.4byte	.LASF111
 1578 0524 24       		.sleb128 36
 1579 0525 12       		.uleb128 0x12
 1580 0526 9B050000 		.4byte	.LASF112
 1581 052a 25       		.sleb128 37
 1582 052b 12       		.uleb128 0x12
 1583 052c CD060000 		.4byte	.LASF113
 1584 0530 26       		.sleb128 38
 1585 0531 12       		.uleb128 0x12
 1586 0532 AD080000 		.4byte	.LASF114
 1587 0536 27       		.sleb128 39
 1588 0537 12       		.uleb128 0x12
 1589 0538 E1030000 		.4byte	.LASF115
 1590 053c 28       		.sleb128 40
 1591 053d 12       		.uleb128 0x12
 1592 053e 58000000 		.4byte	.LASF116
 1593 0542 29       		.sleb128 41
 1594 0543 12       		.uleb128 0x12
 1595 0544 2C050000 		.4byte	.LASF117
 1596 0548 2A       		.sleb128 42
 1597 0549 12       		.uleb128 0x12
 1598 054a EB050000 		.4byte	.LASF118
 1599 054e 2B       		.sleb128 43
 1600 054f 12       		.uleb128 0x12
 1601 0550 03080000 		.4byte	.LASF119
 1602 0554 2C       		.sleb128 44
 1603 0555 00       		.byte	0
 1604 0556 13       		.uleb128 0x13
 1605 0557 60       		.byte	0x60
 1606 0558 0A       		.byte	0xa
 1607 0559 4F01     		.2byte	0x14f
 1608 055b 96060000 		.4byte	0x696
 1609 055f 0C       		.uleb128 0xc
 1610 0560 535200   		.ascii	"SR\000"
 1611 0563 0A       		.byte	0xa
 1612 0564 5101     		.2byte	0x151
 1613 0566 65030000 		.4byte	0x365
 1614 056a 00       		.byte	0
 1615 056b 0C       		.uleb128 0xc
 1616 056c 43523100 		.ascii	"CR1\000"
 1617 0570 0A       		.byte	0xa
 1618 0571 5201     		.2byte	0x152
 1619 0573 65030000 		.4byte	0x365
 1620 0577 04       		.byte	0x4
 1621 0578 0C       		.uleb128 0xc
 1622 0579 43523200 		.ascii	"CR2\000"
 1623 057d 0A       		.byte	0xa
 1624 057e 5301     		.2byte	0x153
 1625 0580 65030000 		.4byte	0x365
 1626 0584 08       		.byte	0x8
 1627 0585 14       		.uleb128 0x14
 1628 0586 12050000 		.4byte	.LASF120
 1629 058a 0A       		.byte	0xa
 1630 058b 5401     		.2byte	0x154
 1631 058d 65030000 		.4byte	0x365
ARM GAS  /home/pauba/tmp/ccqbUBmw.s 			page 30


 1632 0591 0C       		.byte	0xc
 1633 0592 14       		.uleb128 0x14
 1634 0593 18050000 		.4byte	.LASF121
 1635 0597 0A       		.byte	0xa
 1636 0598 5501     		.2byte	0x155
 1637 059a 65030000 		.4byte	0x365
 1638 059e 10       		.byte	0x10
 1639 059f 14       		.uleb128 0x14
 1640 05a0 1E050000 		.4byte	.LASF122
 1641 05a4 0A       		.byte	0xa
 1642 05a5 5601     		.2byte	0x156
 1643 05a7 65030000 		.4byte	0x365
 1644 05ab 14       		.byte	0x14
 1645 05ac 14       		.uleb128 0x14
 1646 05ad 75040000 		.4byte	.LASF123
 1647 05b1 0A       		.byte	0xa
 1648 05b2 5701     		.2byte	0x157
 1649 05b4 65030000 		.4byte	0x365
 1650 05b8 18       		.byte	0x18
 1651 05b9 14       		.uleb128 0x14
 1652 05ba F4080000 		.4byte	.LASF124
 1653 05be 0A       		.byte	0xa
 1654 05bf 5801     		.2byte	0x158
 1655 05c1 65030000 		.4byte	0x365
 1656 05c5 1C       		.byte	0x1c
 1657 05c6 14       		.uleb128 0x14
 1658 05c7 7C060000 		.4byte	.LASF125
 1659 05cb 0A       		.byte	0xa
 1660 05cc 5901     		.2byte	0x159
 1661 05ce 65030000 		.4byte	0x365
 1662 05d2 20       		.byte	0x20
 1663 05d3 14       		.uleb128 0x14
 1664 05d4 82060000 		.4byte	.LASF126
 1665 05d8 0A       		.byte	0xa
 1666 05d9 5A01     		.2byte	0x15a
 1667 05db 65030000 		.4byte	0x365
 1668 05df 24       		.byte	0x24
 1669 05e0 0C       		.uleb128 0xc
 1670 05e1 48545200 		.ascii	"HTR\000"
 1671 05e5 0A       		.byte	0xa
 1672 05e6 5B01     		.2byte	0x15b
 1673 05e8 65030000 		.4byte	0x365
 1674 05ec 28       		.byte	0x28
 1675 05ed 0C       		.uleb128 0xc
 1676 05ee 4C545200 		.ascii	"LTR\000"
 1677 05f2 0A       		.byte	0xa
 1678 05f3 5C01     		.2byte	0x15c
 1679 05f5 65030000 		.4byte	0x365
 1680 05f9 2C       		.byte	0x2c
 1681 05fa 14       		.uleb128 0x14
 1682 05fb 46050000 		.4byte	.LASF127
 1683 05ff 0A       		.byte	0xa
 1684 0600 5D01     		.2byte	0x15d
 1685 0602 65030000 		.4byte	0x365
 1686 0606 30       		.byte	0x30
 1687 0607 14       		.uleb128 0x14
 1688 0608 4B050000 		.4byte	.LASF128
ARM GAS  /home/pauba/tmp/ccqbUBmw.s 			page 31


 1689 060c 0A       		.byte	0xa
 1690 060d 5E01     		.2byte	0x15e
 1691 060f 65030000 		.4byte	0x365
 1692 0613 34       		.byte	0x34
 1693 0614 14       		.uleb128 0x14
 1694 0615 50050000 		.4byte	.LASF129
 1695 0619 0A       		.byte	0xa
 1696 061a 5F01     		.2byte	0x15f
 1697 061c 65030000 		.4byte	0x365
 1698 0620 38       		.byte	0x38
 1699 0621 14       		.uleb128 0x14
 1700 0622 55050000 		.4byte	.LASF130
 1701 0626 0A       		.byte	0xa
 1702 0627 6001     		.2byte	0x160
 1703 0629 65030000 		.4byte	0x365
 1704 062d 3C       		.byte	0x3c
 1705 062e 14       		.uleb128 0x14
 1706 062f 5A050000 		.4byte	.LASF131
 1707 0633 0A       		.byte	0xa
 1708 0634 6101     		.2byte	0x161
 1709 0636 65030000 		.4byte	0x365
 1710 063a 40       		.byte	0x40
 1711 063b 14       		.uleb128 0x14
 1712 063c 49010000 		.4byte	.LASF132
 1713 0640 0A       		.byte	0xa
 1714 0641 6201     		.2byte	0x162
 1715 0643 65030000 		.4byte	0x365
 1716 0647 44       		.byte	0x44
 1717 0648 14       		.uleb128 0x14
 1718 0649 1B090000 		.4byte	.LASF133
 1719 064d 0A       		.byte	0xa
 1720 064e 6301     		.2byte	0x163
 1721 0650 65030000 		.4byte	0x365
 1722 0654 48       		.byte	0x48
 1723 0655 14       		.uleb128 0x14
 1724 0656 20090000 		.4byte	.LASF134
 1725 065a 0A       		.byte	0xa
 1726 065b 6401     		.2byte	0x164
 1727 065d 65030000 		.4byte	0x365
 1728 0661 4C       		.byte	0x4c
 1729 0662 14       		.uleb128 0x14
 1730 0663 25090000 		.4byte	.LASF135
 1731 0667 0A       		.byte	0xa
 1732 0668 6501     		.2byte	0x165
 1733 066a 65030000 		.4byte	0x365
 1734 066e 50       		.byte	0x50
 1735 066f 14       		.uleb128 0x14
 1736 0670 2A090000 		.4byte	.LASF136
 1737 0674 0A       		.byte	0xa
 1738 0675 6601     		.2byte	0x166
 1739 0677 65030000 		.4byte	0x365
 1740 067b 54       		.byte	0x54
 1741 067c 0C       		.uleb128 0xc
 1742 067d 445200   		.ascii	"DR\000"
 1743 0680 0A       		.byte	0xa
 1744 0681 6701     		.2byte	0x167
 1745 0683 65030000 		.4byte	0x365
ARM GAS  /home/pauba/tmp/ccqbUBmw.s 			page 32


 1746 0687 58       		.byte	0x58
 1747 0688 14       		.uleb128 0x14
 1748 0689 0C050000 		.4byte	.LASF137
 1749 068d 0A       		.byte	0xa
 1750 068e 6801     		.2byte	0x168
 1751 0690 65030000 		.4byte	0x365
 1752 0694 5C       		.byte	0x5c
 1753 0695 00       		.byte	0
 1754 0696 15       		.uleb128 0x15
 1755 0697 56020000 		.4byte	.LASF138
 1756 069b 0A       		.byte	0xa
 1757 069c 6901     		.2byte	0x169
 1758 069e 56050000 		.4byte	0x556
 1759 06a2 13       		.uleb128 0x13
 1760 06a3 08       		.byte	0x8
 1761 06a4 0A       		.byte	0xa
 1762 06a5 6B01     		.2byte	0x16b
 1763 06a7 C6060000 		.4byte	0x6c6
 1764 06ab 0C       		.uleb128 0xc
 1765 06ac 43535200 		.ascii	"CSR\000"
 1766 06b0 0A       		.byte	0xa
 1767 06b1 6D01     		.2byte	0x16d
 1768 06b3 65030000 		.4byte	0x365
 1769 06b7 00       		.byte	0
 1770 06b8 0C       		.uleb128 0xc
 1771 06b9 43435200 		.ascii	"CCR\000"
 1772 06bd 0A       		.byte	0xa
 1773 06be 6E01     		.2byte	0x16e
 1774 06c0 65030000 		.4byte	0x365
 1775 06c4 04       		.byte	0x4
 1776 06c5 00       		.byte	0
 1777 06c6 15       		.uleb128 0x15
 1778 06c7 C7040000 		.4byte	.LASF139
 1779 06cb 0A       		.byte	0xa
 1780 06cc 6F01     		.2byte	0x16f
 1781 06ce A2060000 		.4byte	0x6a2
 1782 06d2 13       		.uleb128 0x13
 1783 06d3 10       		.byte	0x10
 1784 06d4 0A       		.byte	0xa
 1785 06d5 C201     		.2byte	0x1c2
 1786 06d7 10070000 		.4byte	0x710
 1787 06db 0C       		.uleb128 0xc
 1788 06dc 43435200 		.ascii	"CCR\000"
 1789 06e0 0A       		.byte	0xa
 1790 06e1 C401     		.2byte	0x1c4
 1791 06e3 65030000 		.4byte	0x365
 1792 06e7 00       		.byte	0
 1793 06e8 14       		.uleb128 0x14
 1794 06e9 D7080000 		.4byte	.LASF140
 1795 06ed 0A       		.byte	0xa
 1796 06ee C501     		.2byte	0x1c5
 1797 06f0 65030000 		.4byte	0x365
 1798 06f4 04       		.byte	0x4
 1799 06f5 14       		.uleb128 0x14
 1800 06f6 24030000 		.4byte	.LASF141
 1801 06fa 0A       		.byte	0xa
 1802 06fb C601     		.2byte	0x1c6
ARM GAS  /home/pauba/tmp/ccqbUBmw.s 			page 33


 1803 06fd 65030000 		.4byte	0x365
 1804 0701 08       		.byte	0x8
 1805 0702 14       		.uleb128 0x14
 1806 0703 60040000 		.4byte	.LASF142
 1807 0707 0A       		.byte	0xa
 1808 0708 C701     		.2byte	0x1c7
 1809 070a 65030000 		.4byte	0x365
 1810 070e 0C       		.byte	0xc
 1811 070f 00       		.byte	0
 1812 0710 15       		.uleb128 0x15
 1813 0711 5E030000 		.4byte	.LASF143
 1814 0715 0A       		.byte	0xa
 1815 0716 C801     		.2byte	0x1c8
 1816 0718 D2060000 		.4byte	0x6d2
 1817 071c 13       		.uleb128 0x13
 1818 071d 38       		.byte	0x38
 1819 071e 0A       		.byte	0xa
 1820 071f 8602     		.2byte	0x286
 1821 0721 DB070000 		.4byte	0x7db
 1822 0725 0C       		.uleb128 0xc
 1823 0726 435200   		.ascii	"CR\000"
 1824 0729 0A       		.byte	0xa
 1825 072a 8802     		.2byte	0x288
 1826 072c 65030000 		.4byte	0x365
 1827 0730 00       		.byte	0
 1828 0731 14       		.uleb128 0x14
 1829 0732 0D080000 		.4byte	.LASF144
 1830 0736 0A       		.byte	0xa
 1831 0737 8902     		.2byte	0x289
 1832 0739 65030000 		.4byte	0x365
 1833 073d 04       		.byte	0x4
 1834 073e 14       		.uleb128 0x14
 1835 073f 7B090000 		.4byte	.LASF145
 1836 0743 0A       		.byte	0xa
 1837 0744 8A02     		.2byte	0x28a
 1838 0746 65030000 		.4byte	0x365
 1839 074a 08       		.byte	0x8
 1840 074b 0C       		.uleb128 0xc
 1841 074c 43495200 		.ascii	"CIR\000"
 1842 0750 0A       		.byte	0xa
 1843 0751 8B02     		.2byte	0x28b
 1844 0753 65030000 		.4byte	0x365
 1845 0757 0C       		.byte	0xc
 1846 0758 14       		.uleb128 0x14
 1847 0759 24050000 		.4byte	.LASF146
 1848 075d 0A       		.byte	0xa
 1849 075e 8C02     		.2byte	0x28c
 1850 0760 65030000 		.4byte	0x365
 1851 0764 10       		.byte	0x10
 1852 0765 14       		.uleb128 0x14
 1853 0766 C1030000 		.4byte	.LASF147
 1854 076a 0A       		.byte	0xa
 1855 076b 8D02     		.2byte	0x28d
 1856 076d 65030000 		.4byte	0x365
 1857 0771 14       		.byte	0x14
 1858 0772 14       		.uleb128 0x14
 1859 0773 3D050000 		.4byte	.LASF148
ARM GAS  /home/pauba/tmp/ccqbUBmw.s 			page 34


 1860 0777 0A       		.byte	0xa
 1861 0778 8E02     		.2byte	0x28e
 1862 077a 65030000 		.4byte	0x365
 1863 077e 18       		.byte	0x18
 1864 077f 14       		.uleb128 0x14
 1865 0780 E6090000 		.4byte	.LASF149
 1866 0784 0A       		.byte	0xa
 1867 0785 8F02     		.2byte	0x28f
 1868 0787 65030000 		.4byte	0x365
 1869 078b 1C       		.byte	0x1c
 1870 078c 14       		.uleb128 0x14
 1871 078d 93060000 		.4byte	.LASF150
 1872 0791 0A       		.byte	0xa
 1873 0792 9002     		.2byte	0x290
 1874 0794 65030000 		.4byte	0x365
 1875 0798 20       		.byte	0x20
 1876 0799 14       		.uleb128 0x14
 1877 079a 5C080000 		.4byte	.LASF151
 1878 079e 0A       		.byte	0xa
 1879 079f 9102     		.2byte	0x291
 1880 07a1 65030000 		.4byte	0x365
 1881 07a5 24       		.byte	0x24
 1882 07a6 14       		.uleb128 0x14
 1883 07a7 18020000 		.4byte	.LASF152
 1884 07ab 0A       		.byte	0xa
 1885 07ac 9202     		.2byte	0x292
 1886 07ae 65030000 		.4byte	0x365
 1887 07b2 28       		.byte	0x28
 1888 07b3 14       		.uleb128 0x14
 1889 07b4 0F040000 		.4byte	.LASF153
 1890 07b8 0A       		.byte	0xa
 1891 07b9 9302     		.2byte	0x293
 1892 07bb 65030000 		.4byte	0x365
 1893 07bf 2C       		.byte	0x2c
 1894 07c0 14       		.uleb128 0x14
 1895 07c1 AD030000 		.4byte	.LASF154
 1896 07c5 0A       		.byte	0xa
 1897 07c6 9402     		.2byte	0x294
 1898 07c8 65030000 		.4byte	0x365
 1899 07cc 30       		.byte	0x30
 1900 07cd 0C       		.uleb128 0xc
 1901 07ce 43535200 		.ascii	"CSR\000"
 1902 07d2 0A       		.byte	0xa
 1903 07d3 9502     		.2byte	0x295
 1904 07d5 65030000 		.4byte	0x365
 1905 07d9 34       		.byte	0x34
 1906 07da 00       		.byte	0
 1907 07db 15       		.uleb128 0x15
 1908 07dc 4D030000 		.4byte	.LASF155
 1909 07e0 0A       		.byte	0xa
 1910 07e1 9602     		.2byte	0x296
 1911 07e3 1C070000 		.4byte	0x71c
 1912 07e7 08       		.uleb128 0x8
 1913 07e8 0C       		.byte	0xc
 1914 07e9 0B       		.byte	0xb
 1915 07ea B8       		.byte	0xb8
 1916 07eb 2C080000 		.4byte	0x82c
ARM GAS  /home/pauba/tmp/ccqbUBmw.s 			page 35


 1917 07ef 06       		.uleb128 0x6
 1918 07f0 9B060000 		.4byte	.LASF156
 1919 07f4 0B       		.byte	0xb
 1920 07f5 B9       		.byte	0xb9
 1921 07f6 2C080000 		.4byte	0x82c
 1922 07fa 00       		.byte	0
 1923 07fb 06       		.uleb128 0x6
 1924 07fc B9060000 		.4byte	.LASF157
 1925 0800 0B       		.byte	0xb
 1926 0801 BA       		.byte	0xba
 1927 0802 32080000 		.4byte	0x832
 1928 0806 04       		.byte	0x4
 1929 0807 06       		.uleb128 0x6
 1930 0808 72030000 		.4byte	.LASF158
 1931 080c 0B       		.byte	0xb
 1932 080d BB       		.byte	0xbb
 1933 080e A9000000 		.4byte	0xa9
 1934 0812 08       		.byte	0x8
 1935 0813 06       		.uleb128 0x6
 1936 0814 C0020000 		.4byte	.LASF159
 1937 0818 0B       		.byte	0xb
 1938 0819 BD       		.byte	0xbd
 1939 081a A9000000 		.4byte	0xa9
 1940 081e 09       		.byte	0x9
 1941 081f 06       		.uleb128 0x6
 1942 0820 7D000000 		.4byte	.LASF160
 1943 0824 0B       		.byte	0xb
 1944 0825 BE       		.byte	0xbe
 1945 0826 A9000000 		.4byte	0xa9
 1946 082a 0A       		.byte	0xa
 1947 082b 00       		.byte	0
 1948 082c 09       		.uleb128 0x9
 1949 082d 04       		.byte	0x4
 1950 082e 10070000 		.4byte	0x710
 1951 0832 09       		.uleb128 0x9
 1952 0833 04       		.byte	0x4
 1953 0834 65030000 		.4byte	0x365
 1954 0838 03       		.uleb128 0x3
 1955 0839 AE050000 		.4byte	.LASF161
 1956 083d 0B       		.byte	0xb
 1957 083e BF       		.byte	0xbf
 1958 083f E7070000 		.4byte	0x7e7
 1959 0843 03       		.uleb128 0x3
 1960 0844 29030000 		.4byte	.LASF162
 1961 0848 0B       		.byte	0xb
 1962 0849 C8       		.byte	0xc8
 1963 084a 4E080000 		.4byte	0x84e
 1964 084e 09       		.uleb128 0x9
 1965 084f 04       		.byte	0x4
 1966 0850 54080000 		.4byte	0x854
 1967 0854 16       		.uleb128 0x16
 1968 0855 64080000 		.4byte	0x864
 1969 0859 17       		.uleb128 0x17
 1970 085a BB020000 		.4byte	0x2bb
 1971 085e 17       		.uleb128 0x17
 1972 085f CA000000 		.4byte	0xca
 1973 0863 00       		.byte	0
ARM GAS  /home/pauba/tmp/ccqbUBmw.s 			page 36


 1974 0864 18       		.uleb128 0x18
 1975 0865 01       		.byte	0x1
 1976 0866 0C       		.byte	0xc
 1977 0867 55       		.byte	0x55
 1978 0868 91080000 		.4byte	0x891
 1979 086c 12       		.uleb128 0x12
 1980 086d B1000000 		.4byte	.LASF163
 1981 0871 00       		.sleb128 0
 1982 0872 12       		.uleb128 0x12
 1983 0873 BE040000 		.4byte	.LASF164
 1984 0877 01       		.sleb128 1
 1985 0878 12       		.uleb128 0x12
 1986 0879 B7030000 		.4byte	.LASF165
 1987 087d 02       		.sleb128 2
 1988 087e 12       		.uleb128 0x12
 1989 087f FE020000 		.4byte	.LASF166
 1990 0883 03       		.sleb128 3
 1991 0884 12       		.uleb128 0x12
 1992 0885 41090000 		.4byte	.LASF167
 1993 0889 04       		.sleb128 4
 1994 088a 12       		.uleb128 0x12
 1995 088b 96080000 		.4byte	.LASF168
 1996 088f 05       		.sleb128 5
 1997 0890 00       		.byte	0
 1998 0891 03       		.uleb128 0x3
 1999 0892 36000000 		.4byte	.LASF169
 2000 0896 0C       		.byte	0xc
 2001 0897 5C       		.byte	0x5c
 2002 0898 64080000 		.4byte	0x864
 2003 089c 03       		.uleb128 0x3
 2004 089d 96020000 		.4byte	.LASF170
 2005 08a1 0D       		.byte	0xd
 2006 08a2 B9       		.byte	0xb9
 2007 08a3 B4000000 		.4byte	0xb4
 2008 08a7 03       		.uleb128 0x3
 2009 08a8 68090000 		.4byte	.LASF171
 2010 08ac 0D       		.byte	0xd
 2011 08ad BE       		.byte	0xbe
 2012 08ae B4000000 		.4byte	0xb4
 2013 08b2 18       		.uleb128 0x18
 2014 08b3 01       		.byte	0x1
 2015 08b4 0D       		.byte	0xd
 2016 08b5 C5       		.byte	0xc5
 2017 08b6 C7080000 		.4byte	0x8c7
 2018 08ba 12       		.uleb128 0x12
 2019 08bb C3010000 		.4byte	.LASF172
 2020 08bf 00       		.sleb128 0
 2021 08c0 12       		.uleb128 0x12
 2022 08c1 ED020000 		.4byte	.LASF173
 2023 08c5 01       		.sleb128 1
 2024 08c6 00       		.byte	0
 2025 08c7 03       		.uleb128 0x3
 2026 08c8 99010000 		.4byte	.LASF174
 2027 08cc 0D       		.byte	0xd
 2028 08cd C8       		.byte	0xc8
 2029 08ce B2080000 		.4byte	0x8b2
 2030 08d2 03       		.uleb128 0x3
ARM GAS  /home/pauba/tmp/ccqbUBmw.s 			page 37


 2031 08d3 43030000 		.4byte	.LASF175
 2032 08d7 0D       		.byte	0xd
 2033 08d8 CD       		.byte	0xcd
 2034 08d9 DD080000 		.4byte	0x8dd
 2035 08dd 0B       		.uleb128 0xb
 2036 08de 43030000 		.4byte	.LASF175
 2037 08e2 34       		.byte	0x34
 2038 08e3 0D       		.byte	0xd
 2039 08e4 4101     		.2byte	0x141
 2040 08e6 6D090000 		.4byte	0x96d
 2041 08ea 14       		.uleb128 0x14
 2042 08eb AB010000 		.4byte	.LASF176
 2043 08ef 0D       		.byte	0xd
 2044 08f0 4501     		.2byte	0x145
 2045 08f2 91080000 		.4byte	0x891
 2046 08f6 00       		.byte	0
 2047 08f7 14       		.uleb128 0x14
 2048 08f8 F1070000 		.4byte	.LASF177
 2049 08fc 0D       		.byte	0xd
 2050 08fd 4901     		.2byte	0x149
 2051 08ff AA0A0000 		.4byte	0xaaa
 2052 0903 04       		.byte	0x4
 2053 0904 14       		.uleb128 0x14
 2054 0905 8D040000 		.4byte	.LASF178
 2055 0909 0D       		.byte	0xd
 2056 090a 4D01     		.2byte	0x14d
 2057 090c 99090000 		.4byte	0x999
 2058 0910 08       		.byte	0x8
 2059 0911 14       		.uleb128 0x14
 2060 0912 CA030000 		.4byte	.LASF179
 2061 0916 0D       		.byte	0xd
 2062 0917 5101     		.2byte	0x151
 2063 0919 28000000 		.4byte	0x28
 2064 091d 0C       		.byte	0xc
 2065 091e 14       		.uleb128 0x14
 2066 091f 7B040000 		.4byte	.LASF180
 2067 0923 0D       		.byte	0xd
 2068 0924 5501     		.2byte	0x155
 2069 0926 B50A0000 		.4byte	0xab5
 2070 092a 10       		.byte	0x10
 2071 092b 14       		.uleb128 0x14
 2072 092c 21020000 		.4byte	.LASF181
 2073 0930 0D       		.byte	0xd
 2074 0931 5A01     		.2byte	0x15a
 2075 0933 7F020000 		.4byte	0x27f
 2076 0937 14       		.byte	0x14
 2077 0938 14       		.uleb128 0x14
 2078 0939 C9050000 		.4byte	.LASF182
 2079 093d 0D       		.byte	0xd
 2080 093e 6101     		.2byte	0x161
 2081 0940 AD030000 		.4byte	0x3ad
 2082 0944 18       		.byte	0x18
 2083 0945 0C       		.uleb128 0xc
 2084 0946 61646300 		.ascii	"adc\000"
 2085 094a 0D       		.byte	0xd
 2086 094b 6D01     		.2byte	0x16d
 2087 094d C00A0000 		.4byte	0xac0
ARM GAS  /home/pauba/tmp/ccqbUBmw.s 			page 38


 2088 0951 28       		.byte	0x28
 2089 0952 14       		.uleb128 0x14
 2090 0953 A4010000 		.4byte	.LASF183
 2091 0957 0D       		.byte	0xd
 2092 0958 7101     		.2byte	0x171
 2093 095a C60A0000 		.4byte	0xac6
 2094 095e 2C       		.byte	0x2c
 2095 095f 14       		.uleb128 0x14
 2096 0960 2E000000 		.4byte	.LASF184
 2097 0964 0D       		.byte	0xd
 2098 0965 7501     		.2byte	0x175
 2099 0967 CA000000 		.4byte	0xca
 2100 096b 30       		.byte	0x30
 2101 096c 00       		.byte	0
 2102 096d 03       		.uleb128 0x3
 2103 096e 7C020000 		.4byte	.LASF185
 2104 0972 0D       		.byte	0xd
 2105 0973 D7       		.byte	0xd7
 2106 0974 78090000 		.4byte	0x978
 2107 0978 09       		.uleb128 0x9
 2108 0979 04       		.byte	0x4
 2109 097a 7E090000 		.4byte	0x97e
 2110 097e 16       		.uleb128 0x16
 2111 097f 93090000 		.4byte	0x993
 2112 0983 17       		.uleb128 0x17
 2113 0984 93090000 		.4byte	0x993
 2114 0988 17       		.uleb128 0x17
 2115 0989 99090000 		.4byte	0x999
 2116 098d 17       		.uleb128 0x17
 2117 098e 28000000 		.4byte	0x28
 2118 0992 00       		.byte	0
 2119 0993 09       		.uleb128 0x9
 2120 0994 04       		.byte	0x4
 2121 0995 D2080000 		.4byte	0x8d2
 2122 0999 09       		.uleb128 0x9
 2123 099a 04       		.byte	0x4
 2124 099b 9C080000 		.4byte	0x89c
 2125 099f 03       		.uleb128 0x3
 2126 09a0 EF010000 		.4byte	.LASF186
 2127 09a4 0D       		.byte	0xd
 2128 09a5 E0       		.byte	0xe0
 2129 09a6 AA090000 		.4byte	0x9aa
 2130 09aa 09       		.uleb128 0x9
 2131 09ab 04       		.byte	0x4
 2132 09ac B0090000 		.4byte	0x9b0
 2133 09b0 16       		.uleb128 0x16
 2134 09b1 C0090000 		.4byte	0x9c0
 2135 09b5 17       		.uleb128 0x17
 2136 09b6 93090000 		.4byte	0x993
 2137 09ba 17       		.uleb128 0x17
 2138 09bb C7080000 		.4byte	0x8c7
 2139 09bf 00       		.byte	0
 2140 09c0 08       		.uleb128 0x8
 2141 09c1 34       		.byte	0x34
 2142 09c2 0D       		.byte	0xd
 2143 09c3 EA       		.byte	0xea
 2144 09c4 7B0A0000 		.4byte	0xa7b
ARM GAS  /home/pauba/tmp/ccqbUBmw.s 			page 39


 2145 09c8 06       		.uleb128 0x6
 2146 09c9 B1010000 		.4byte	.LASF187
 2147 09cd 0D       		.byte	0xd
 2148 09ce EE       		.byte	0xee
 2149 09cf E0000000 		.4byte	0xe0
 2150 09d3 00       		.byte	0
 2151 09d4 06       		.uleb128 0x6
 2152 09d5 02040000 		.4byte	.LASF188
 2153 09d9 0D       		.byte	0xd
 2154 09da F2       		.byte	0xf2
 2155 09db A7080000 		.4byte	0x8a7
 2156 09df 02       		.byte	0x2
 2157 09e0 06       		.uleb128 0x6
 2158 09e1 75020000 		.4byte	.LASF189
 2159 09e5 0D       		.byte	0xd
 2160 09e6 F6       		.byte	0xf6
 2161 09e7 6D090000 		.4byte	0x96d
 2162 09eb 04       		.byte	0x4
 2163 09ec 06       		.uleb128 0x6
 2164 09ed 51060000 		.4byte	.LASF190
 2165 09f1 0D       		.byte	0xd
 2166 09f2 FA       		.byte	0xfa
 2167 09f3 9F090000 		.4byte	0x99f
 2168 09f7 08       		.byte	0x8
 2169 09f8 0C       		.uleb128 0xc
 2170 09f9 63723100 		.ascii	"cr1\000"
 2171 09fd 0D       		.byte	0xd
 2172 09fe 0101     		.2byte	0x101
 2173 0a00 CA000000 		.4byte	0xca
 2174 0a04 0C       		.byte	0xc
 2175 0a05 0C       		.uleb128 0xc
 2176 0a06 63723200 		.ascii	"cr2\000"
 2177 0a0a 0D       		.byte	0xd
 2178 0a0b 0801     		.2byte	0x108
 2179 0a0d CA000000 		.4byte	0xca
 2180 0a11 10       		.byte	0x10
 2181 0a12 14       		.uleb128 0x14
 2182 0a13 BF070000 		.4byte	.LASF191
 2183 0a17 0D       		.byte	0xd
 2184 0a18 0E01     		.2byte	0x10e
 2185 0a1a CA000000 		.4byte	0xca
 2186 0a1e 14       		.byte	0x14
 2187 0a1f 14       		.uleb128 0x14
 2188 0a20 DD080000 		.4byte	.LASF192
 2189 0a24 0D       		.byte	0xd
 2190 0a25 1401     		.2byte	0x114
 2191 0a27 CA000000 		.4byte	0xca
 2192 0a2b 18       		.byte	0x18
 2193 0a2c 14       		.uleb128 0x14
 2194 0a2d E3080000 		.4byte	.LASF193
 2195 0a31 0D       		.byte	0xd
 2196 0a32 1A01     		.2byte	0x11a
 2197 0a34 CA000000 		.4byte	0xca
 2198 0a38 1C       		.byte	0x1c
 2199 0a39 14       		.uleb128 0x14
 2200 0a3a 13080000 		.4byte	.LASF194
 2201 0a3e 0D       		.byte	0xd
ARM GAS  /home/pauba/tmp/ccqbUBmw.s 			page 40


 2202 0a3f 1F01     		.2byte	0x11f
 2203 0a41 CA000000 		.4byte	0xca
 2204 0a45 20       		.byte	0x20
 2205 0a46 14       		.uleb128 0x14
 2206 0a47 18080000 		.4byte	.LASF195
 2207 0a4b 0D       		.byte	0xd
 2208 0a4c 2401     		.2byte	0x124
 2209 0a4e CA000000 		.4byte	0xca
 2210 0a52 24       		.byte	0x24
 2211 0a53 14       		.uleb128 0x14
 2212 0a54 1D080000 		.4byte	.LASF196
 2213 0a58 0D       		.byte	0xd
 2214 0a59 2901     		.2byte	0x129
 2215 0a5b CA000000 		.4byte	0xca
 2216 0a5f 28       		.byte	0x28
 2217 0a60 14       		.uleb128 0x14
 2218 0a61 22080000 		.4byte	.LASF197
 2219 0a65 0D       		.byte	0xd
 2220 0a66 2E01     		.2byte	0x12e
 2221 0a68 CA000000 		.4byte	0xca
 2222 0a6c 2C       		.byte	0x2c
 2223 0a6d 14       		.uleb128 0x14
 2224 0a6e 27080000 		.4byte	.LASF198
 2225 0a72 0D       		.byte	0xd
 2226 0a73 3301     		.2byte	0x133
 2227 0a75 CA000000 		.4byte	0xca
 2228 0a79 30       		.byte	0x30
 2229 0a7a 00       		.byte	0
 2230 0a7b 15       		.uleb128 0x15
 2231 0a7c 02090000 		.4byte	.LASF199
 2232 0a80 0D       		.byte	0xd
 2233 0a81 3401     		.2byte	0x134
 2234 0a83 C0090000 		.4byte	0x9c0
 2235 0a87 13       		.uleb128 0x13
 2236 0a88 04       		.byte	0x4
 2237 0a89 0D       		.byte	0xd
 2238 0a8a 3A01     		.2byte	0x13a
 2239 0a8c 9E0A0000 		.4byte	0xa9e
 2240 0a90 14       		.uleb128 0x14
 2241 0a91 D6020000 		.4byte	.LASF200
 2242 0a95 0D       		.byte	0xd
 2243 0a96 3B01     		.2byte	0x13b
 2244 0a98 CA000000 		.4byte	0xca
 2245 0a9c 00       		.byte	0
 2246 0a9d 00       		.byte	0
 2247 0a9e 15       		.uleb128 0x15
 2248 0a9f AD020000 		.4byte	.LASF201
 2249 0aa3 0D       		.byte	0xd
 2250 0aa4 3C01     		.2byte	0x13c
 2251 0aa6 870A0000 		.4byte	0xa87
 2252 0aaa 09       		.uleb128 0x9
 2253 0aab 04       		.byte	0x4
 2254 0aac B00A0000 		.4byte	0xab0
 2255 0ab0 10       		.uleb128 0x10
 2256 0ab1 9E0A0000 		.4byte	0xa9e
 2257 0ab5 09       		.uleb128 0x9
 2258 0ab6 04       		.byte	0x4
ARM GAS  /home/pauba/tmp/ccqbUBmw.s 			page 41


 2259 0ab7 BB0A0000 		.4byte	0xabb
 2260 0abb 10       		.uleb128 0x10
 2261 0abc 7B0A0000 		.4byte	0xa7b
 2262 0ac0 09       		.uleb128 0x9
 2263 0ac1 04       		.byte	0x4
 2264 0ac2 96060000 		.4byte	0x696
 2265 0ac6 09       		.uleb128 0x9
 2266 0ac7 04       		.byte	0x4
 2267 0ac8 CC0A0000 		.4byte	0xacc
 2268 0acc 10       		.uleb128 0x10
 2269 0acd 38080000 		.4byte	0x838
 2270 0ad1 19       		.uleb128 0x19
 2271 0ad2 F5050000 		.4byte	.LASF221
 2272 0ad6 01       		.byte	0x1
 2273 0ad7 39       		.byte	0x39
 2274 0ad8 00000000 		.4byte	.LFB63
 2275 0adc A2010000 		.4byte	.LFE63-.LFB63
 2276 0ae0 01       		.uleb128 0x1
 2277 0ae1 9C       		.byte	0x9c
 2278 0ae2 CB0B0000 		.4byte	0xbcb
 2279 0ae6 1A       		.uleb128 0x1a
 2280 0ae7 59030000 		.4byte	.LASF202
 2281 0aeb 01       		.byte	0x1
 2282 0aec 39       		.byte	0x39
 2283 0aed 93090000 		.4byte	0x993
 2284 0af1 02       		.uleb128 0x2
 2285 0af2 91       		.byte	0x91
 2286 0af3 64       		.sleb128 -28
 2287 0af4 1A       		.uleb128 0x1a
 2288 0af5 15090000 		.4byte	.LASF203
 2289 0af9 01       		.byte	0x1
 2290 0afa 39       		.byte	0x39
 2291 0afb CA000000 		.4byte	0xca
 2292 0aff 02       		.uleb128 0x2
 2293 0b00 91       		.byte	0x91
 2294 0b01 60       		.sleb128 -32
 2295 0b02 1B       		.uleb128 0x1b
 2296 0b03 48000000 		.4byte	.LBB2
 2297 0b07 06000000 		.4byte	.LBE2-.LBB2
 2298 0b0b 1D0B0000 		.4byte	0xb1d
 2299 0b0f 1C       		.uleb128 0x1c
 2300 0b10 746D7000 		.ascii	"tmp\000"
 2301 0b14 01       		.byte	0x1
 2302 0b15 3F       		.byte	0x3f
 2303 0b16 CA000000 		.4byte	0xca
 2304 0b1a 01       		.uleb128 0x1
 2305 0b1b 53       		.byte	0x53
 2306 0b1c 00       		.byte	0
 2307 0b1d 1B       		.uleb128 0x1b
 2308 0b1e 5A000000 		.4byte	.LBB3
 2309 0b22 1A000000 		.4byte	.LBE3-.LBB3
 2310 0b26 380B0000 		.4byte	0xb38
 2311 0b2a 1C       		.uleb128 0x1c
 2312 0b2b 747000   		.ascii	"tp\000"
 2313 0b2e 01       		.byte	0x1
 2314 0b2f 3F       		.byte	0x3f
 2315 0b30 7F020000 		.4byte	0x27f
ARM GAS  /home/pauba/tmp/ccqbUBmw.s 			page 42


 2316 0b34 02       		.uleb128 0x2
 2317 0b35 91       		.byte	0x91
 2318 0b36 74       		.sleb128 -12
 2319 0b37 00       		.byte	0
 2320 0b38 1B       		.uleb128 0x1b
 2321 0b39 78000000 		.4byte	.LBB4
 2322 0b3d 06000000 		.4byte	.LBE4-.LBB4
 2323 0b41 530B0000 		.4byte	0xb53
 2324 0b45 1C       		.uleb128 0x1c
 2325 0b46 746D7000 		.ascii	"tmp\000"
 2326 0b4a 01       		.byte	0x1
 2327 0b4b 3F       		.byte	0x3f
 2328 0b4c CA000000 		.4byte	0xca
 2329 0b50 01       		.uleb128 0x1
 2330 0b51 53       		.byte	0x53
 2331 0b52 00       		.byte	0
 2332 0b53 1B       		.uleb128 0x1b
 2333 0b54 B0000000 		.4byte	.LBB5
 2334 0b58 2E000000 		.4byte	.LBE5-.LBB5
 2335 0b5c 7D0B0000 		.4byte	0xb7d
 2336 0b60 1D       		.uleb128 0x1d
 2337 0b61 3B040000 		.4byte	.LASF204
 2338 0b65 01       		.byte	0x1
 2339 0b66 47       		.byte	0x47
 2340 0b67 28000000 		.4byte	0x28
 2341 0b6b 02       		.uleb128 0x2
 2342 0b6c 91       		.byte	0x91
 2343 0b6d 70       		.sleb128 -16
 2344 0b6e 1D       		.uleb128 0x1d
 2345 0b6f C2090000 		.4byte	.LASF205
 2346 0b73 01       		.byte	0x1
 2347 0b74 47       		.byte	0x47
 2348 0b75 28000000 		.4byte	0x28
 2349 0b79 02       		.uleb128 0x2
 2350 0b7a 91       		.byte	0x91
 2351 0b7b 6C       		.sleb128 -20
 2352 0b7c 00       		.byte	0
 2353 0b7d 1B       		.uleb128 0x1b
 2354 0b7e 3E010000 		.4byte	.LBB6
 2355 0b82 06000000 		.4byte	.LBE6-.LBB6
 2356 0b86 980B0000 		.4byte	0xb98
 2357 0b8a 1C       		.uleb128 0x1c
 2358 0b8b 746D7000 		.ascii	"tmp\000"
 2359 0b8f 01       		.byte	0x1
 2360 0b90 47       		.byte	0x47
 2361 0b91 CA000000 		.4byte	0xca
 2362 0b95 01       		.uleb128 0x1
 2363 0b96 53       		.byte	0x53
 2364 0b97 00       		.byte	0
 2365 0b98 1B       		.uleb128 0x1b
 2366 0b99 50010000 		.4byte	.LBB7
 2367 0b9d 18000000 		.4byte	.LBE7-.LBB7
 2368 0ba1 B30B0000 		.4byte	0xbb3
 2369 0ba5 1C       		.uleb128 0x1c
 2370 0ba6 747000   		.ascii	"tp\000"
 2371 0ba9 01       		.byte	0x1
 2372 0baa 47       		.byte	0x47
ARM GAS  /home/pauba/tmp/ccqbUBmw.s 			page 43


 2373 0bab 7F020000 		.4byte	0x27f
 2374 0baf 02       		.uleb128 0x2
 2375 0bb0 91       		.byte	0x91
 2376 0bb1 68       		.sleb128 -24
 2377 0bb2 00       		.byte	0
 2378 0bb3 1E       		.uleb128 0x1e
 2379 0bb4 6C010000 		.4byte	.LBB8
 2380 0bb8 08000000 		.4byte	.LBE8-.LBB8
 2381 0bbc 1C       		.uleb128 0x1c
 2382 0bbd 746D7000 		.ascii	"tmp\000"
 2383 0bc1 01       		.byte	0x1
 2384 0bc2 47       		.byte	0x47
 2385 0bc3 CA000000 		.4byte	0xca
 2386 0bc7 01       		.uleb128 0x1
 2387 0bc8 53       		.byte	0x53
 2388 0bc9 00       		.byte	0
 2389 0bca 00       		.byte	0
 2390 0bcb 1F       		.uleb128 0x1f
 2391 0bcc CE080000 		.4byte	.LASF206
 2392 0bd0 01       		.byte	0x1
 2393 0bd1 5B       		.byte	0x5b
 2394 0bd2 00000000 		.4byte	.LFB64
 2395 0bd6 B4000000 		.4byte	.LFE64-.LFB64
 2396 0bda 01       		.uleb128 0x1
 2397 0bdb 9C       		.byte	0x9c
 2398 0bdc 3B0C0000 		.4byte	0xc3b
 2399 0be0 1C       		.uleb128 0x1c
 2400 0be1 737200   		.ascii	"sr\000"
 2401 0be4 01       		.byte	0x1
 2402 0be5 5C       		.byte	0x5c
 2403 0be6 CA000000 		.4byte	0xca
 2404 0bea 02       		.uleb128 0x2
 2405 0beb 91       		.byte	0x91
 2406 0bec 74       		.sleb128 -12
 2407 0bed 1B       		.uleb128 0x1b
 2408 0bee 68000000 		.4byte	.LBB9
 2409 0bf2 06000000 		.4byte	.LBE9-.LBB9
 2410 0bf6 080C0000 		.4byte	0xc08
 2411 0bfa 1C       		.uleb128 0x1c
 2412 0bfb 746D7000 		.ascii	"tmp\000"
 2413 0bff 01       		.byte	0x1
 2414 0c00 68       		.byte	0x68
 2415 0c01 CA000000 		.4byte	0xca
 2416 0c05 01       		.uleb128 0x1
 2417 0c06 53       		.byte	0x53
 2418 0c07 00       		.byte	0
 2419 0c08 1B       		.uleb128 0x1b
 2420 0c09 7A000000 		.4byte	.LBB10
 2421 0c0d 1A000000 		.4byte	.LBE10-.LBB10
 2422 0c11 230C0000 		.4byte	0xc23
 2423 0c15 1C       		.uleb128 0x1c
 2424 0c16 747000   		.ascii	"tp\000"
 2425 0c19 01       		.byte	0x1
 2426 0c1a 68       		.byte	0x68
 2427 0c1b 7F020000 		.4byte	0x27f
 2428 0c1f 02       		.uleb128 0x2
 2429 0c20 91       		.byte	0x91
ARM GAS  /home/pauba/tmp/ccqbUBmw.s 			page 44


 2430 0c21 70       		.sleb128 -16
 2431 0c22 00       		.byte	0
 2432 0c23 1E       		.uleb128 0x1e
 2433 0c24 98000000 		.4byte	.LBB11
 2434 0c28 06000000 		.4byte	.LBE11-.LBB11
 2435 0c2c 1C       		.uleb128 0x1c
 2436 0c2d 746D7000 		.ascii	"tmp\000"
 2437 0c31 01       		.byte	0x1
 2438 0c32 68       		.byte	0x68
 2439 0c33 CA000000 		.4byte	0xca
 2440 0c37 01       		.uleb128 0x1
 2441 0c38 53       		.byte	0x53
 2442 0c39 00       		.byte	0
 2443 0c3a 00       		.byte	0
 2444 0c3b 20       		.uleb128 0x20
 2445 0c3c 80040000 		.4byte	.LASF212
 2446 0c40 01       		.byte	0x1
 2447 0c41 79       		.byte	0x79
 2448 0c42 00000000 		.4byte	.LFB65
 2449 0c46 34000000 		.4byte	.LFE65-.LFB65
 2450 0c4a 01       		.uleb128 0x1
 2451 0c4b 9C       		.byte	0x9c
 2452 0c4c 1F       		.uleb128 0x1f
 2453 0c4d 88080000 		.4byte	.LASF207
 2454 0c51 01       		.byte	0x1
 2455 0c52 93       		.byte	0x93
 2456 0c53 00000000 		.4byte	.LFB66
 2457 0c57 84000000 		.4byte	.LFE66-.LFB66
 2458 0c5b 01       		.uleb128 0x1
 2459 0c5c 9C       		.byte	0x9c
 2460 0c5d 860C0000 		.4byte	0xc86
 2461 0c61 1A       		.uleb128 0x1a
 2462 0c62 59030000 		.4byte	.LASF202
 2463 0c66 01       		.byte	0x1
 2464 0c67 93       		.byte	0x93
 2465 0c68 93090000 		.4byte	0x993
 2466 0c6c 02       		.uleb128 0x2
 2467 0c6d 91       		.byte	0x91
 2468 0c6e 6C       		.sleb128 -20
 2469 0c6f 1E       		.uleb128 0x1e
 2470 0c70 16000000 		.4byte	.LBB12
 2471 0c74 3A000000 		.4byte	.LBE12-.LBB12
 2472 0c78 1C       		.uleb128 0x1c
 2473 0c79 6200     		.ascii	"b\000"
 2474 0c7b 01       		.byte	0x1
 2475 0c7c 99       		.byte	0x99
 2476 0c7d E0000000 		.4byte	0xe0
 2477 0c81 02       		.uleb128 0x2
 2478 0c82 91       		.byte	0x91
 2479 0c83 77       		.sleb128 -9
 2480 0c84 00       		.byte	0
 2481 0c85 00       		.byte	0
 2482 0c86 1F       		.uleb128 0x1f
 2483 0c87 84000000 		.4byte	.LASF208
 2484 0c8b 01       		.byte	0x1
 2485 0c8c B3       		.byte	0xb3
 2486 0c8d 00000000 		.4byte	.LFB67
ARM GAS  /home/pauba/tmp/ccqbUBmw.s 			page 45


 2487 0c91 4C000000 		.4byte	.LFE67-.LFB67
 2488 0c95 01       		.uleb128 0x1
 2489 0c96 9C       		.byte	0x9c
 2490 0c97 AA0C0000 		.4byte	0xcaa
 2491 0c9b 1A       		.uleb128 0x1a
 2492 0c9c 59030000 		.4byte	.LASF202
 2493 0ca0 01       		.byte	0x1
 2494 0ca1 B3       		.byte	0xb3
 2495 0ca2 93090000 		.4byte	0x993
 2496 0ca6 02       		.uleb128 0x2
 2497 0ca7 91       		.byte	0x91
 2498 0ca8 74       		.sleb128 -12
 2499 0ca9 00       		.byte	0
 2500 0caa 21       		.uleb128 0x21
 2501 0cab D6010000 		.4byte	.LASF209
 2502 0caf 01       		.byte	0x1
 2503 0cb0 C9       		.byte	0xc9
 2504 0cb1 00000000 		.4byte	.LFB68
 2505 0cb5 0E010000 		.4byte	.LFE68-.LFB68
 2506 0cb9 01       		.uleb128 0x1
 2507 0cba 9C       		.byte	0x9c
 2508 0cbb EA0C0000 		.4byte	0xcea
 2509 0cbf 1A       		.uleb128 0x1a
 2510 0cc0 59030000 		.4byte	.LASF202
 2511 0cc4 01       		.byte	0x1
 2512 0cc5 C9       		.byte	0xc9
 2513 0cc6 93090000 		.4byte	0x993
 2514 0cca 02       		.uleb128 0x2
 2515 0ccb 91       		.byte	0x91
 2516 0ccc 74       		.sleb128 -12
 2517 0ccd 1D       		.uleb128 0x1d
 2518 0cce DE070000 		.4byte	.LASF210
 2519 0cd2 01       		.byte	0x1
 2520 0cd3 CA       		.byte	0xca
 2521 0cd4 CA000000 		.4byte	0xca
 2522 0cd8 02       		.uleb128 0x2
 2523 0cd9 91       		.byte	0x91
 2524 0cda 7C       		.sleb128 -4
 2525 0cdb 1D       		.uleb128 0x1d
 2526 0cdc 7B040000 		.4byte	.LASF180
 2527 0ce0 01       		.byte	0x1
 2528 0ce1 CB       		.byte	0xcb
 2529 0ce2 B50A0000 		.4byte	0xab5
 2530 0ce6 02       		.uleb128 0x2
 2531 0ce7 91       		.byte	0x91
 2532 0ce8 78       		.sleb128 -8
 2533 0ce9 00       		.byte	0
 2534 0cea 21       		.uleb128 0x21
 2535 0ceb 1A060000 		.4byte	.LASF211
 2536 0cef 01       		.byte	0x1
 2537 0cf0 FA       		.byte	0xfa
 2538 0cf1 00000000 		.4byte	.LFB69
 2539 0cf5 48000000 		.4byte	.LFE69-.LFB69
 2540 0cf9 01       		.uleb128 0x1
 2541 0cfa 9C       		.byte	0x9c
 2542 0cfb 0E0D0000 		.4byte	0xd0e
 2543 0cff 1A       		.uleb128 0x1a
ARM GAS  /home/pauba/tmp/ccqbUBmw.s 			page 46


 2544 0d00 59030000 		.4byte	.LASF202
 2545 0d04 01       		.byte	0x1
 2546 0d05 FA       		.byte	0xfa
 2547 0d06 93090000 		.4byte	0x993
 2548 0d0a 02       		.uleb128 0x2
 2549 0d0b 91       		.byte	0x91
 2550 0d0c 7C       		.sleb128 -4
 2551 0d0d 00       		.byte	0
 2552 0d0e 22       		.uleb128 0x22
 2553 0d0f 67000000 		.4byte	.LASF213
 2554 0d13 01       		.byte	0x1
 2555 0d14 0801     		.2byte	0x108
 2556 0d16 00000000 		.4byte	.LFB70
 2557 0d1a 14000000 		.4byte	.LFE70-.LFB70
 2558 0d1e 01       		.uleb128 0x1
 2559 0d1f 9C       		.byte	0x9c
 2560 0d20 22       		.uleb128 0x22
 2561 0d21 2F020000 		.4byte	.LASF214
 2562 0d25 01       		.byte	0x1
 2563 0d26 1301     		.2byte	0x113
 2564 0d28 00000000 		.4byte	.LFB71
 2565 0d2c 14000000 		.4byte	.LFE71-.LFB71
 2566 0d30 01       		.uleb128 0x1
 2567 0d31 9C       		.byte	0x9c
 2568 0d32 23       		.uleb128 0x23
 2569 0d33 E6000000 		.4byte	.LASF215
 2570 0d37 0E       		.byte	0xe
 2571 0d38 0706     		.2byte	0x607
 2572 0d3a 3E0D0000 		.4byte	0xd3e
 2573 0d3e 0D       		.uleb128 0xd
 2574 0d3f BF000000 		.4byte	0xbf
 2575 0d43 24       		.uleb128 0x24
 2576 0d44 38080000 		.4byte	0x838
 2577 0d48 530D0000 		.4byte	0xd53
 2578 0d4c 25       		.uleb128 0x25
 2579 0d4d 6A030000 		.4byte	0x36a
 2580 0d51 06       		.byte	0x6
 2581 0d52 00       		.byte	0
 2582 0d53 23       		.uleb128 0x23
 2583 0d54 BC000000 		.4byte	.LASF216
 2584 0d58 0B       		.byte	0xb
 2585 0d59 7A01     		.2byte	0x17a
 2586 0d5b 5F0D0000 		.4byte	0xd5f
 2587 0d5f 10       		.uleb128 0x10
 2588 0d60 430D0000 		.4byte	0xd43
 2589 0d64 26       		.uleb128 0x26
 2590 0d65 C7060000 		.4byte	.LASF217
 2591 0d69 01       		.byte	0x1
 2592 0d6a 28       		.byte	0x28
 2593 0d6b D2080000 		.4byte	0x8d2
 2594 0d6f 05       		.uleb128 0x5
 2595 0d70 03       		.byte	0x3
 2596 0d71 00000000 		.4byte	ADCD1
 2597 0d75 00       		.byte	0
 2598              		.section	.debug_abbrev,"",%progbits
 2599              	.Ldebug_abbrev0:
 2600 0000 01       		.uleb128 0x1
ARM GAS  /home/pauba/tmp/ccqbUBmw.s 			page 47


 2601 0001 11       		.uleb128 0x11
 2602 0002 01       		.byte	0x1
 2603 0003 25       		.uleb128 0x25
 2604 0004 0E       		.uleb128 0xe
 2605 0005 13       		.uleb128 0x13
 2606 0006 0B       		.uleb128 0xb
 2607 0007 03       		.uleb128 0x3
 2608 0008 0E       		.uleb128 0xe
 2609 0009 55       		.uleb128 0x55
 2610 000a 17       		.uleb128 0x17
 2611 000b 11       		.uleb128 0x11
 2612 000c 01       		.uleb128 0x1
 2613 000d 10       		.uleb128 0x10
 2614 000e 17       		.uleb128 0x17
 2615 000f 00       		.byte	0
 2616 0010 00       		.byte	0
 2617 0011 02       		.uleb128 0x2
 2618 0012 24       		.uleb128 0x24
 2619 0013 00       		.byte	0
 2620 0014 0B       		.uleb128 0xb
 2621 0015 0B       		.uleb128 0xb
 2622 0016 3E       		.uleb128 0x3e
 2623 0017 0B       		.uleb128 0xb
 2624 0018 03       		.uleb128 0x3
 2625 0019 08       		.uleb128 0x8
 2626 001a 00       		.byte	0
 2627 001b 00       		.byte	0
 2628 001c 03       		.uleb128 0x3
 2629 001d 16       		.uleb128 0x16
 2630 001e 00       		.byte	0
 2631 001f 03       		.uleb128 0x3
 2632 0020 0E       		.uleb128 0xe
 2633 0021 3A       		.uleb128 0x3a
 2634 0022 0B       		.uleb128 0xb
 2635 0023 3B       		.uleb128 0x3b
 2636 0024 0B       		.uleb128 0xb
 2637 0025 49       		.uleb128 0x49
 2638 0026 13       		.uleb128 0x13
 2639 0027 00       		.byte	0
 2640 0028 00       		.byte	0
 2641 0029 04       		.uleb128 0x4
 2642 002a 24       		.uleb128 0x24
 2643 002b 00       		.byte	0
 2644 002c 0B       		.uleb128 0xb
 2645 002d 0B       		.uleb128 0xb
 2646 002e 3E       		.uleb128 0x3e
 2647 002f 0B       		.uleb128 0xb
 2648 0030 03       		.uleb128 0x3
 2649 0031 0E       		.uleb128 0xe
 2650 0032 00       		.byte	0
 2651 0033 00       		.byte	0
 2652 0034 05       		.uleb128 0x5
 2653 0035 13       		.uleb128 0x13
 2654 0036 01       		.byte	0x1
 2655 0037 03       		.uleb128 0x3
 2656 0038 0E       		.uleb128 0xe
 2657 0039 0B       		.uleb128 0xb
ARM GAS  /home/pauba/tmp/ccqbUBmw.s 			page 48


 2658 003a 0B       		.uleb128 0xb
 2659 003b 3A       		.uleb128 0x3a
 2660 003c 0B       		.uleb128 0xb
 2661 003d 3B       		.uleb128 0x3b
 2662 003e 0B       		.uleb128 0xb
 2663 003f 01       		.uleb128 0x1
 2664 0040 13       		.uleb128 0x13
 2665 0041 00       		.byte	0
 2666 0042 00       		.byte	0
 2667 0043 06       		.uleb128 0x6
 2668 0044 0D       		.uleb128 0xd
 2669 0045 00       		.byte	0
 2670 0046 03       		.uleb128 0x3
 2671 0047 0E       		.uleb128 0xe
 2672 0048 3A       		.uleb128 0x3a
 2673 0049 0B       		.uleb128 0xb
 2674 004a 3B       		.uleb128 0x3b
 2675 004b 0B       		.uleb128 0xb
 2676 004c 49       		.uleb128 0x49
 2677 004d 13       		.uleb128 0x13
 2678 004e 38       		.uleb128 0x38
 2679 004f 0B       		.uleb128 0xb
 2680 0050 00       		.byte	0
 2681 0051 00       		.byte	0
 2682 0052 07       		.uleb128 0x7
 2683 0053 0D       		.uleb128 0xd
 2684 0054 00       		.byte	0
 2685 0055 03       		.uleb128 0x3
 2686 0056 08       		.uleb128 0x8
 2687 0057 3A       		.uleb128 0x3a
 2688 0058 0B       		.uleb128 0xb
 2689 0059 3B       		.uleb128 0x3b
 2690 005a 0B       		.uleb128 0xb
 2691 005b 49       		.uleb128 0x49
 2692 005c 13       		.uleb128 0x13
 2693 005d 38       		.uleb128 0x38
 2694 005e 0B       		.uleb128 0xb
 2695 005f 00       		.byte	0
 2696 0060 00       		.byte	0
 2697 0061 08       		.uleb128 0x8
 2698 0062 13       		.uleb128 0x13
 2699 0063 01       		.byte	0x1
 2700 0064 0B       		.uleb128 0xb
 2701 0065 0B       		.uleb128 0xb
 2702 0066 3A       		.uleb128 0x3a
 2703 0067 0B       		.uleb128 0xb
 2704 0068 3B       		.uleb128 0x3b
 2705 0069 0B       		.uleb128 0xb
 2706 006a 01       		.uleb128 0x1
 2707 006b 13       		.uleb128 0x13
 2708 006c 00       		.byte	0
 2709 006d 00       		.byte	0
 2710 006e 09       		.uleb128 0x9
 2711 006f 0F       		.uleb128 0xf
 2712 0070 00       		.byte	0
 2713 0071 0B       		.uleb128 0xb
 2714 0072 0B       		.uleb128 0xb
ARM GAS  /home/pauba/tmp/ccqbUBmw.s 			page 49


 2715 0073 49       		.uleb128 0x49
 2716 0074 13       		.uleb128 0x13
 2717 0075 00       		.byte	0
 2718 0076 00       		.byte	0
 2719 0077 0A       		.uleb128 0xa
 2720 0078 0F       		.uleb128 0xf
 2721 0079 00       		.byte	0
 2722 007a 0B       		.uleb128 0xb
 2723 007b 0B       		.uleb128 0xb
 2724 007c 00       		.byte	0
 2725 007d 00       		.byte	0
 2726 007e 0B       		.uleb128 0xb
 2727 007f 13       		.uleb128 0x13
 2728 0080 01       		.byte	0x1
 2729 0081 03       		.uleb128 0x3
 2730 0082 0E       		.uleb128 0xe
 2731 0083 0B       		.uleb128 0xb
 2732 0084 0B       		.uleb128 0xb
 2733 0085 3A       		.uleb128 0x3a
 2734 0086 0B       		.uleb128 0xb
 2735 0087 3B       		.uleb128 0x3b
 2736 0088 05       		.uleb128 0x5
 2737 0089 01       		.uleb128 0x1
 2738 008a 13       		.uleb128 0x13
 2739 008b 00       		.byte	0
 2740 008c 00       		.byte	0
 2741 008d 0C       		.uleb128 0xc
 2742 008e 0D       		.uleb128 0xd
 2743 008f 00       		.byte	0
 2744 0090 03       		.uleb128 0x3
 2745 0091 08       		.uleb128 0x8
 2746 0092 3A       		.uleb128 0x3a
 2747 0093 0B       		.uleb128 0xb
 2748 0094 3B       		.uleb128 0x3b
 2749 0095 05       		.uleb128 0x5
 2750 0096 49       		.uleb128 0x49
 2751 0097 13       		.uleb128 0x13
 2752 0098 38       		.uleb128 0x38
 2753 0099 0B       		.uleb128 0xb
 2754 009a 00       		.byte	0
 2755 009b 00       		.byte	0
 2756 009c 0D       		.uleb128 0xd
 2757 009d 35       		.uleb128 0x35
 2758 009e 00       		.byte	0
 2759 009f 49       		.uleb128 0x49
 2760 00a0 13       		.uleb128 0x13
 2761 00a1 00       		.byte	0
 2762 00a2 00       		.byte	0
 2763 00a3 0E       		.uleb128 0xe
 2764 00a4 17       		.uleb128 0x17
 2765 00a5 01       		.byte	0x1
 2766 00a6 0B       		.uleb128 0xb
 2767 00a7 0B       		.uleb128 0xb
 2768 00a8 3A       		.uleb128 0x3a
 2769 00a9 0B       		.uleb128 0xb
 2770 00aa 3B       		.uleb128 0x3b
 2771 00ab 0B       		.uleb128 0xb
ARM GAS  /home/pauba/tmp/ccqbUBmw.s 			page 50


 2772 00ac 01       		.uleb128 0x1
 2773 00ad 13       		.uleb128 0x13
 2774 00ae 00       		.byte	0
 2775 00af 00       		.byte	0
 2776 00b0 0F       		.uleb128 0xf
 2777 00b1 0D       		.uleb128 0xd
 2778 00b2 00       		.byte	0
 2779 00b3 03       		.uleb128 0x3
 2780 00b4 0E       		.uleb128 0xe
 2781 00b5 3A       		.uleb128 0x3a
 2782 00b6 0B       		.uleb128 0xb
 2783 00b7 3B       		.uleb128 0x3b
 2784 00b8 0B       		.uleb128 0xb
 2785 00b9 49       		.uleb128 0x49
 2786 00ba 13       		.uleb128 0x13
 2787 00bb 00       		.byte	0
 2788 00bc 00       		.byte	0
 2789 00bd 10       		.uleb128 0x10
 2790 00be 26       		.uleb128 0x26
 2791 00bf 00       		.byte	0
 2792 00c0 49       		.uleb128 0x49
 2793 00c1 13       		.uleb128 0x13
 2794 00c2 00       		.byte	0
 2795 00c3 00       		.byte	0
 2796 00c4 11       		.uleb128 0x11
 2797 00c5 04       		.uleb128 0x4
 2798 00c6 01       		.byte	0x1
 2799 00c7 03       		.uleb128 0x3
 2800 00c8 0E       		.uleb128 0xe
 2801 00c9 0B       		.uleb128 0xb
 2802 00ca 0B       		.uleb128 0xb
 2803 00cb 3A       		.uleb128 0x3a
 2804 00cc 0B       		.uleb128 0xb
 2805 00cd 3B       		.uleb128 0x3b
 2806 00ce 0B       		.uleb128 0xb
 2807 00cf 01       		.uleb128 0x1
 2808 00d0 13       		.uleb128 0x13
 2809 00d1 00       		.byte	0
 2810 00d2 00       		.byte	0
 2811 00d3 12       		.uleb128 0x12
 2812 00d4 28       		.uleb128 0x28
 2813 00d5 00       		.byte	0
 2814 00d6 03       		.uleb128 0x3
 2815 00d7 0E       		.uleb128 0xe
 2816 00d8 1C       		.uleb128 0x1c
 2817 00d9 0D       		.uleb128 0xd
 2818 00da 00       		.byte	0
 2819 00db 00       		.byte	0
 2820 00dc 13       		.uleb128 0x13
 2821 00dd 13       		.uleb128 0x13
 2822 00de 01       		.byte	0x1
 2823 00df 0B       		.uleb128 0xb
 2824 00e0 0B       		.uleb128 0xb
 2825 00e1 3A       		.uleb128 0x3a
 2826 00e2 0B       		.uleb128 0xb
 2827 00e3 3B       		.uleb128 0x3b
 2828 00e4 05       		.uleb128 0x5
ARM GAS  /home/pauba/tmp/ccqbUBmw.s 			page 51


 2829 00e5 01       		.uleb128 0x1
 2830 00e6 13       		.uleb128 0x13
 2831 00e7 00       		.byte	0
 2832 00e8 00       		.byte	0
 2833 00e9 14       		.uleb128 0x14
 2834 00ea 0D       		.uleb128 0xd
 2835 00eb 00       		.byte	0
 2836 00ec 03       		.uleb128 0x3
 2837 00ed 0E       		.uleb128 0xe
 2838 00ee 3A       		.uleb128 0x3a
 2839 00ef 0B       		.uleb128 0xb
 2840 00f0 3B       		.uleb128 0x3b
 2841 00f1 05       		.uleb128 0x5
 2842 00f2 49       		.uleb128 0x49
 2843 00f3 13       		.uleb128 0x13
 2844 00f4 38       		.uleb128 0x38
 2845 00f5 0B       		.uleb128 0xb
 2846 00f6 00       		.byte	0
 2847 00f7 00       		.byte	0
 2848 00f8 15       		.uleb128 0x15
 2849 00f9 16       		.uleb128 0x16
 2850 00fa 00       		.byte	0
 2851 00fb 03       		.uleb128 0x3
 2852 00fc 0E       		.uleb128 0xe
 2853 00fd 3A       		.uleb128 0x3a
 2854 00fe 0B       		.uleb128 0xb
 2855 00ff 3B       		.uleb128 0x3b
 2856 0100 05       		.uleb128 0x5
 2857 0101 49       		.uleb128 0x49
 2858 0102 13       		.uleb128 0x13
 2859 0103 00       		.byte	0
 2860 0104 00       		.byte	0
 2861 0105 16       		.uleb128 0x16
 2862 0106 15       		.uleb128 0x15
 2863 0107 01       		.byte	0x1
 2864 0108 27       		.uleb128 0x27
 2865 0109 19       		.uleb128 0x19
 2866 010a 01       		.uleb128 0x1
 2867 010b 13       		.uleb128 0x13
 2868 010c 00       		.byte	0
 2869 010d 00       		.byte	0
 2870 010e 17       		.uleb128 0x17
 2871 010f 05       		.uleb128 0x5
 2872 0110 00       		.byte	0
 2873 0111 49       		.uleb128 0x49
 2874 0112 13       		.uleb128 0x13
 2875 0113 00       		.byte	0
 2876 0114 00       		.byte	0
 2877 0115 18       		.uleb128 0x18
 2878 0116 04       		.uleb128 0x4
 2879 0117 01       		.byte	0x1
 2880 0118 0B       		.uleb128 0xb
 2881 0119 0B       		.uleb128 0xb
 2882 011a 3A       		.uleb128 0x3a
 2883 011b 0B       		.uleb128 0xb
 2884 011c 3B       		.uleb128 0x3b
 2885 011d 0B       		.uleb128 0xb
ARM GAS  /home/pauba/tmp/ccqbUBmw.s 			page 52


 2886 011e 01       		.uleb128 0x1
 2887 011f 13       		.uleb128 0x13
 2888 0120 00       		.byte	0
 2889 0121 00       		.byte	0
 2890 0122 19       		.uleb128 0x19
 2891 0123 2E       		.uleb128 0x2e
 2892 0124 01       		.byte	0x1
 2893 0125 03       		.uleb128 0x3
 2894 0126 0E       		.uleb128 0xe
 2895 0127 3A       		.uleb128 0x3a
 2896 0128 0B       		.uleb128 0xb
 2897 0129 3B       		.uleb128 0x3b
 2898 012a 0B       		.uleb128 0xb
 2899 012b 27       		.uleb128 0x27
 2900 012c 19       		.uleb128 0x19
 2901 012d 11       		.uleb128 0x11
 2902 012e 01       		.uleb128 0x1
 2903 012f 12       		.uleb128 0x12
 2904 0130 06       		.uleb128 0x6
 2905 0131 40       		.uleb128 0x40
 2906 0132 18       		.uleb128 0x18
 2907 0133 9642     		.uleb128 0x2116
 2908 0135 19       		.uleb128 0x19
 2909 0136 01       		.uleb128 0x1
 2910 0137 13       		.uleb128 0x13
 2911 0138 00       		.byte	0
 2912 0139 00       		.byte	0
 2913 013a 1A       		.uleb128 0x1a
 2914 013b 05       		.uleb128 0x5
 2915 013c 00       		.byte	0
 2916 013d 03       		.uleb128 0x3
 2917 013e 0E       		.uleb128 0xe
 2918 013f 3A       		.uleb128 0x3a
 2919 0140 0B       		.uleb128 0xb
 2920 0141 3B       		.uleb128 0x3b
 2921 0142 0B       		.uleb128 0xb
 2922 0143 49       		.uleb128 0x49
 2923 0144 13       		.uleb128 0x13
 2924 0145 02       		.uleb128 0x2
 2925 0146 18       		.uleb128 0x18
 2926 0147 00       		.byte	0
 2927 0148 00       		.byte	0
 2928 0149 1B       		.uleb128 0x1b
 2929 014a 0B       		.uleb128 0xb
 2930 014b 01       		.byte	0x1
 2931 014c 11       		.uleb128 0x11
 2932 014d 01       		.uleb128 0x1
 2933 014e 12       		.uleb128 0x12
 2934 014f 06       		.uleb128 0x6
 2935 0150 01       		.uleb128 0x1
 2936 0151 13       		.uleb128 0x13
 2937 0152 00       		.byte	0
 2938 0153 00       		.byte	0
 2939 0154 1C       		.uleb128 0x1c
 2940 0155 34       		.uleb128 0x34
 2941 0156 00       		.byte	0
 2942 0157 03       		.uleb128 0x3
ARM GAS  /home/pauba/tmp/ccqbUBmw.s 			page 53


 2943 0158 08       		.uleb128 0x8
 2944 0159 3A       		.uleb128 0x3a
 2945 015a 0B       		.uleb128 0xb
 2946 015b 3B       		.uleb128 0x3b
 2947 015c 0B       		.uleb128 0xb
 2948 015d 49       		.uleb128 0x49
 2949 015e 13       		.uleb128 0x13
 2950 015f 02       		.uleb128 0x2
 2951 0160 18       		.uleb128 0x18
 2952 0161 00       		.byte	0
 2953 0162 00       		.byte	0
 2954 0163 1D       		.uleb128 0x1d
 2955 0164 34       		.uleb128 0x34
 2956 0165 00       		.byte	0
 2957 0166 03       		.uleb128 0x3
 2958 0167 0E       		.uleb128 0xe
 2959 0168 3A       		.uleb128 0x3a
 2960 0169 0B       		.uleb128 0xb
 2961 016a 3B       		.uleb128 0x3b
 2962 016b 0B       		.uleb128 0xb
 2963 016c 49       		.uleb128 0x49
 2964 016d 13       		.uleb128 0x13
 2965 016e 02       		.uleb128 0x2
 2966 016f 18       		.uleb128 0x18
 2967 0170 00       		.byte	0
 2968 0171 00       		.byte	0
 2969 0172 1E       		.uleb128 0x1e
 2970 0173 0B       		.uleb128 0xb
 2971 0174 01       		.byte	0x1
 2972 0175 11       		.uleb128 0x11
 2973 0176 01       		.uleb128 0x1
 2974 0177 12       		.uleb128 0x12
 2975 0178 06       		.uleb128 0x6
 2976 0179 00       		.byte	0
 2977 017a 00       		.byte	0
 2978 017b 1F       		.uleb128 0x1f
 2979 017c 2E       		.uleb128 0x2e
 2980 017d 01       		.byte	0x1
 2981 017e 3F       		.uleb128 0x3f
 2982 017f 19       		.uleb128 0x19
 2983 0180 03       		.uleb128 0x3
 2984 0181 0E       		.uleb128 0xe
 2985 0182 3A       		.uleb128 0x3a
 2986 0183 0B       		.uleb128 0xb
 2987 0184 3B       		.uleb128 0x3b
 2988 0185 0B       		.uleb128 0xb
 2989 0186 27       		.uleb128 0x27
 2990 0187 19       		.uleb128 0x19
 2991 0188 11       		.uleb128 0x11
 2992 0189 01       		.uleb128 0x1
 2993 018a 12       		.uleb128 0x12
 2994 018b 06       		.uleb128 0x6
 2995 018c 40       		.uleb128 0x40
 2996 018d 18       		.uleb128 0x18
 2997 018e 9642     		.uleb128 0x2116
 2998 0190 19       		.uleb128 0x19
 2999 0191 01       		.uleb128 0x1
ARM GAS  /home/pauba/tmp/ccqbUBmw.s 			page 54


 3000 0192 13       		.uleb128 0x13
 3001 0193 00       		.byte	0
 3002 0194 00       		.byte	0
 3003 0195 20       		.uleb128 0x20
 3004 0196 2E       		.uleb128 0x2e
 3005 0197 00       		.byte	0
 3006 0198 3F       		.uleb128 0x3f
 3007 0199 19       		.uleb128 0x19
 3008 019a 03       		.uleb128 0x3
 3009 019b 0E       		.uleb128 0xe
 3010 019c 3A       		.uleb128 0x3a
 3011 019d 0B       		.uleb128 0xb
 3012 019e 3B       		.uleb128 0x3b
 3013 019f 0B       		.uleb128 0xb
 3014 01a0 27       		.uleb128 0x27
 3015 01a1 19       		.uleb128 0x19
 3016 01a2 11       		.uleb128 0x11
 3017 01a3 01       		.uleb128 0x1
 3018 01a4 12       		.uleb128 0x12
 3019 01a5 06       		.uleb128 0x6
 3020 01a6 40       		.uleb128 0x40
 3021 01a7 18       		.uleb128 0x18
 3022 01a8 9642     		.uleb128 0x2116
 3023 01aa 19       		.uleb128 0x19
 3024 01ab 00       		.byte	0
 3025 01ac 00       		.byte	0
 3026 01ad 21       		.uleb128 0x21
 3027 01ae 2E       		.uleb128 0x2e
 3028 01af 01       		.byte	0x1
 3029 01b0 3F       		.uleb128 0x3f
 3030 01b1 19       		.uleb128 0x19
 3031 01b2 03       		.uleb128 0x3
 3032 01b3 0E       		.uleb128 0xe
 3033 01b4 3A       		.uleb128 0x3a
 3034 01b5 0B       		.uleb128 0xb
 3035 01b6 3B       		.uleb128 0x3b
 3036 01b7 0B       		.uleb128 0xb
 3037 01b8 27       		.uleb128 0x27
 3038 01b9 19       		.uleb128 0x19
 3039 01ba 11       		.uleb128 0x11
 3040 01bb 01       		.uleb128 0x1
 3041 01bc 12       		.uleb128 0x12
 3042 01bd 06       		.uleb128 0x6
 3043 01be 40       		.uleb128 0x40
 3044 01bf 18       		.uleb128 0x18
 3045 01c0 9742     		.uleb128 0x2117
 3046 01c2 19       		.uleb128 0x19
 3047 01c3 01       		.uleb128 0x1
 3048 01c4 13       		.uleb128 0x13
 3049 01c5 00       		.byte	0
 3050 01c6 00       		.byte	0
 3051 01c7 22       		.uleb128 0x22
 3052 01c8 2E       		.uleb128 0x2e
 3053 01c9 00       		.byte	0
 3054 01ca 3F       		.uleb128 0x3f
 3055 01cb 19       		.uleb128 0x19
 3056 01cc 03       		.uleb128 0x3
ARM GAS  /home/pauba/tmp/ccqbUBmw.s 			page 55


 3057 01cd 0E       		.uleb128 0xe
 3058 01ce 3A       		.uleb128 0x3a
 3059 01cf 0B       		.uleb128 0xb
 3060 01d0 3B       		.uleb128 0x3b
 3061 01d1 05       		.uleb128 0x5
 3062 01d2 27       		.uleb128 0x27
 3063 01d3 19       		.uleb128 0x19
 3064 01d4 11       		.uleb128 0x11
 3065 01d5 01       		.uleb128 0x1
 3066 01d6 12       		.uleb128 0x12
 3067 01d7 06       		.uleb128 0x6
 3068 01d8 40       		.uleb128 0x40
 3069 01d9 18       		.uleb128 0x18
 3070 01da 9742     		.uleb128 0x2117
 3071 01dc 19       		.uleb128 0x19
 3072 01dd 00       		.byte	0
 3073 01de 00       		.byte	0
 3074 01df 23       		.uleb128 0x23
 3075 01e0 34       		.uleb128 0x34
 3076 01e1 00       		.byte	0
 3077 01e2 03       		.uleb128 0x3
 3078 01e3 0E       		.uleb128 0xe
 3079 01e4 3A       		.uleb128 0x3a
 3080 01e5 0B       		.uleb128 0xb
 3081 01e6 3B       		.uleb128 0x3b
 3082 01e7 05       		.uleb128 0x5
 3083 01e8 49       		.uleb128 0x49
 3084 01e9 13       		.uleb128 0x13
 3085 01ea 3F       		.uleb128 0x3f
 3086 01eb 19       		.uleb128 0x19
 3087 01ec 3C       		.uleb128 0x3c
 3088 01ed 19       		.uleb128 0x19
 3089 01ee 00       		.byte	0
 3090 01ef 00       		.byte	0
 3091 01f0 24       		.uleb128 0x24
 3092 01f1 01       		.uleb128 0x1
 3093 01f2 01       		.byte	0x1
 3094 01f3 49       		.uleb128 0x49
 3095 01f4 13       		.uleb128 0x13
 3096 01f5 01       		.uleb128 0x1
 3097 01f6 13       		.uleb128 0x13
 3098 01f7 00       		.byte	0
 3099 01f8 00       		.byte	0
 3100 01f9 25       		.uleb128 0x25
 3101 01fa 21       		.uleb128 0x21
 3102 01fb 00       		.byte	0
 3103 01fc 49       		.uleb128 0x49
 3104 01fd 13       		.uleb128 0x13
 3105 01fe 2F       		.uleb128 0x2f
 3106 01ff 0B       		.uleb128 0xb
 3107 0200 00       		.byte	0
 3108 0201 00       		.byte	0
 3109 0202 26       		.uleb128 0x26
 3110 0203 34       		.uleb128 0x34
 3111 0204 00       		.byte	0
 3112 0205 03       		.uleb128 0x3
 3113 0206 0E       		.uleb128 0xe
ARM GAS  /home/pauba/tmp/ccqbUBmw.s 			page 56


 3114 0207 3A       		.uleb128 0x3a
 3115 0208 0B       		.uleb128 0xb
 3116 0209 3B       		.uleb128 0x3b
 3117 020a 0B       		.uleb128 0xb
 3118 020b 49       		.uleb128 0x49
 3119 020c 13       		.uleb128 0x13
 3120 020d 3F       		.uleb128 0x3f
 3121 020e 19       		.uleb128 0x19
 3122 020f 02       		.uleb128 0x2
 3123 0210 18       		.uleb128 0x18
 3124 0211 00       		.byte	0
 3125 0212 00       		.byte	0
 3126 0213 00       		.byte	0
 3127              		.section	.debug_aranges,"",%progbits
 3128 0000 5C000000 		.4byte	0x5c
 3129 0004 0200     		.2byte	0x2
 3130 0006 00000000 		.4byte	.Ldebug_info0
 3131 000a 04       		.byte	0x4
 3132 000b 00       		.byte	0
 3133 000c 0000     		.2byte	0
 3134 000e 0000     		.2byte	0
 3135 0010 00000000 		.4byte	.LFB63
 3136 0014 A2010000 		.4byte	.LFE63-.LFB63
 3137 0018 00000000 		.4byte	.LFB64
 3138 001c B4000000 		.4byte	.LFE64-.LFB64
 3139 0020 00000000 		.4byte	.LFB65
 3140 0024 34000000 		.4byte	.LFE65-.LFB65
 3141 0028 00000000 		.4byte	.LFB66
 3142 002c 84000000 		.4byte	.LFE66-.LFB66
 3143 0030 00000000 		.4byte	.LFB67
 3144 0034 4C000000 		.4byte	.LFE67-.LFB67
 3145 0038 00000000 		.4byte	.LFB68
 3146 003c 0E010000 		.4byte	.LFE68-.LFB68
 3147 0040 00000000 		.4byte	.LFB69
 3148 0044 48000000 		.4byte	.LFE69-.LFB69
 3149 0048 00000000 		.4byte	.LFB70
 3150 004c 14000000 		.4byte	.LFE70-.LFB70
 3151 0050 00000000 		.4byte	.LFB71
 3152 0054 14000000 		.4byte	.LFE71-.LFB71
 3153 0058 00000000 		.4byte	0
 3154 005c 00000000 		.4byte	0
 3155              		.section	.debug_ranges,"",%progbits
 3156              	.Ldebug_ranges0:
 3157 0000 00000000 		.4byte	.LFB63
 3158 0004 A2010000 		.4byte	.LFE63
 3159 0008 00000000 		.4byte	.LFB64
 3160 000c B4000000 		.4byte	.LFE64
 3161 0010 00000000 		.4byte	.LFB65
 3162 0014 34000000 		.4byte	.LFE65
 3163 0018 00000000 		.4byte	.LFB66
 3164 001c 84000000 		.4byte	.LFE66
 3165 0020 00000000 		.4byte	.LFB67
 3166 0024 4C000000 		.4byte	.LFE67
 3167 0028 00000000 		.4byte	.LFB68
 3168 002c 0E010000 		.4byte	.LFE68
 3169 0030 00000000 		.4byte	.LFB69
 3170 0034 48000000 		.4byte	.LFE69
ARM GAS  /home/pauba/tmp/ccqbUBmw.s 			page 57


 3171 0038 00000000 		.4byte	.LFB70
 3172 003c 14000000 		.4byte	.LFE70
 3173 0040 00000000 		.4byte	.LFB71
 3174 0044 14000000 		.4byte	.LFE71
 3175 0048 00000000 		.4byte	0
 3176 004c 00000000 		.4byte	0
 3177              		.section	.debug_line,"",%progbits
 3178              	.Ldebug_line0:
 3179 0000 C1030000 		.section	.debug_str,"MS",%progbits,1
 3179      02007802 
 3179      00000201 
 3179      FB0E0D00 
 3179      01010101 
 3180              	.LASF76:
 3181 0000 5056445F 		.ascii	"PVD_IRQn\000"
 3181      4952516E 
 3181      00
 3182              	.LASF2:
 3183 0009 73697A65 		.ascii	"size_t\000"
 3183      5F7400
 3184              	.LASF98:
 3185 0010 45585449 		.ascii	"EXTI9_5_IRQn\000"
 3185      395F355F 
 3185      4952516E 
 3185      00
 3186              	.LASF62:
 3187 001d 7264796D 		.ascii	"rdymsg\000"
 3187      736700
 3188              	.LASF97:
 3189 0024 434F4D50 		.ascii	"COMP_IRQn\000"
 3189      5F495251 
 3189      6E00
 3190              	.LASF184:
 3191 002e 646D616D 		.ascii	"dmamode\000"
 3191      6F646500 
 3192              	.LASF169:
 3193 0036 61646373 		.ascii	"adcstate_t\000"
 3193      74617465 
 3193      5F7400
 3194              	.LASF106:
 3195 0041 49324331 		.ascii	"I2C1_EV_IRQn\000"
 3195      5F45565F 
 3195      4952516E 
 3195      00
 3196              	.LASF3:
 3197 004e 5F5F7569 		.ascii	"__uint8_t\000"
 3197      6E74385F 
 3197      7400
 3198              	.LASF116:
 3199 0058 5254435F 		.ascii	"RTC_Alarm_IRQn\000"
 3199      416C6172 
 3199      6D5F4952 
 3199      516E00
 3200              	.LASF213:
 3201 0067 61646353 		.ascii	"adcSTM32EnableTSVREFE\000"
 3201      544D3332 
 3201      456E6162 
ARM GAS  /home/pauba/tmp/ccqbUBmw.s 			page 58


 3201      6C655453 
 3201      56524546 
 3202              	.LASF160:
 3203 007d 76656374 		.ascii	"vector\000"
 3203      6F7200
 3204              	.LASF208:
 3205 0084 6164635F 		.ascii	"adc_lld_stop\000"
 3205      6C6C645F 
 3205      73746F70 
 3205      00
 3206              	.LASF14:
 3207 0091 6C6F6E67 		.ascii	"long long unsigned int\000"
 3207      206C6F6E 
 3207      6720756E 
 3207      7369676E 
 3207      65642069 
 3208              	.LASF63:
 3209 00a8 65786974 		.ascii	"exitcode\000"
 3209      636F6465 
 3209      00
 3210              	.LASF163:
 3211 00b1 4144435F 		.ascii	"ADC_UNINIT\000"
 3211      554E494E 
 3211      495400
 3212              	.LASF216:
 3213 00bc 5F73746D 		.ascii	"_stm32_dma_streams\000"
 3213      33325F64 
 3213      6D615F73 
 3213      74726561 
 3213      6D7300
 3214              	.LASF109:
 3215 00cf 49324332 		.ascii	"I2C2_ER_IRQn\000"
 3215      5F45525F 
 3215      4952516E 
 3215      00
 3216              	.LASF105:
 3217 00dc 54494D34 		.ascii	"TIM4_IRQn\000"
 3217      5F495251 
 3217      6E00
 3218              	.LASF215:
 3219 00e6 49544D5F 		.ascii	"ITM_RxBuffer\000"
 3219      52784275 
 3219      66666572 
 3219      00
 3220              	.LASF96:
 3221 00f3 4441435F 		.ascii	"DAC_IRQn\000"
 3221      4952516E 
 3221      00
 3222              	.LASF219:
 3223 00fc 2F686F6D 		.ascii	"/home/pauba/ChibiOS-RT/os/hal/platforms/STM32L1xx/a"
 3223      652F7061 
 3223      7562612F 
 3223      43686962 
 3223      694F532D 
 3224 012f 64635F6C 		.ascii	"dc_lld.c\000"
 3224      6C642E63 
 3224      00
ARM GAS  /home/pauba/tmp/ccqbUBmw.s 			page 59


 3225              	.LASF75:
 3226 0138 57574447 		.ascii	"WWDG_IRQn\000"
 3226      5F495251 
 3226      6E00
 3227              	.LASF33:
 3228 0142 705F7072 		.ascii	"p_prio\000"
 3228      696F00
 3229              	.LASF132:
 3230 0149 4A535152 		.ascii	"JSQR\000"
 3230      00
 3231              	.LASF12:
 3232 014e 6C6F6E67 		.ascii	"long long int\000"
 3232      206C6F6E 
 3232      6720696E 
 3232      7400
 3233              	.LASF1:
 3234 015c 7369676E 		.ascii	"signed char\000"
 3234      65642063 
 3234      68617200 
 3235              	.LASF11:
 3236 0168 6C6F6E67 		.ascii	"long unsigned int\000"
 3236      20756E73 
 3236      69676E65 
 3236      6420696E 
 3236      7400
 3237              	.LASF39:
 3238 017a 705F7374 		.ascii	"p_state\000"
 3238      61746500 
 3239              	.LASF50:
 3240 0182 705F6D70 		.ascii	"p_mpool\000"
 3240      6F6F6C00 
 3241              	.LASF20:
 3242 018a 626F6F6C 		.ascii	"bool_t\000"
 3242      5F7400
 3243              	.LASF59:
 3244 0191 6D5F7175 		.ascii	"m_queue\000"
 3244      65756500 
 3245              	.LASF174:
 3246 0199 61646365 		.ascii	"adcerror_t\000"
 3246      72726F72 
 3246      5F7400
 3247              	.LASF183:
 3248 01a4 646D6173 		.ascii	"dmastp\000"
 3248      747000
 3249              	.LASF176:
 3250 01ab 73746174 		.ascii	"state\000"
 3250      6500
 3251              	.LASF187:
 3252 01b1 63697263 		.ascii	"circular\000"
 3252      756C6172 
 3252      00
 3253              	.LASF9:
 3254 01ba 6C6F6E67 		.ascii	"long int\000"
 3254      20696E74 
 3254      00
 3255              	.LASF172:
 3256 01c3 4144435F 		.ascii	"ADC_ERR_DMAFAILURE\000"
ARM GAS  /home/pauba/tmp/ccqbUBmw.s 			page 60


 3256      4552525F 
 3256      444D4146 
 3256      41494C55 
 3256      524500
 3257              	.LASF209:
 3258 01d6 6164635F 		.ascii	"adc_lld_start_conversion\000"
 3258      6C6C645F 
 3258      73746172 
 3258      745F636F 
 3258      6E766572 
 3259              	.LASF186:
 3260 01ef 61646365 		.ascii	"adcerrorcallback_t\000"
 3260      72726F72 
 3260      63616C6C 
 3260      6261636B 
 3260      5F7400
 3261              	.LASF23:
 3262 0202 74737461 		.ascii	"tstate_t\000"
 3262      74655F74 
 3262      00
 3263              	.LASF0:
 3264 020b 756E7369 		.ascii	"unsigned int\000"
 3264      676E6564 
 3264      20696E74 
 3264      00
 3265              	.LASF152:
 3266 0218 4148424C 		.ascii	"AHBLPENR\000"
 3266      50454E52 
 3266      00
 3267              	.LASF181:
 3268 0221 74687265 		.ascii	"thread\000"
 3268      616400
 3269              	.LASF41:
 3270 0228 705F7265 		.ascii	"p_refs\000"
 3270      667300
 3271              	.LASF214:
 3272 022f 61646353 		.ascii	"adcSTM32DisableTSVREFE\000"
 3272      544D3332 
 3272      44697361 
 3272      626C6554 
 3272      53565245 
 3273              	.LASF16:
 3274 0246 75696E74 		.ascii	"uint16_t\000"
 3274      31365F74 
 3274      00
 3275              	.LASF43:
 3276 024f 705F7469 		.ascii	"p_time\000"
 3276      6D6500
 3277              	.LASF138:
 3278 0256 4144435F 		.ascii	"ADC_TypeDef\000"
 3278      54797065 
 3278      44656600 
 3279              	.LASF101:
 3280 0262 54494D31 		.ascii	"TIM10_IRQn\000"
 3280      305F4952 
 3280      516E00
 3281              	.LASF35:
ARM GAS  /home/pauba/tmp/ccqbUBmw.s 			page 61


 3282 026d 705F6E65 		.ascii	"p_newer\000"
 3282      77657200 
 3283              	.LASF189:
 3284 0275 656E645F 		.ascii	"end_cb\000"
 3284      636200
 3285              	.LASF185:
 3286 027c 61646363 		.ascii	"adccallback_t\000"
 3286      616C6C62 
 3286      61636B5F 
 3286      7400
 3287              	.LASF73:
 3288 028a 50656E64 		.ascii	"PendSV_IRQn\000"
 3288      53565F49 
 3288      52516E00 
 3289              	.LASF170:
 3290 0296 61646373 		.ascii	"adcsample_t\000"
 3290      616D706C 
 3290      655F7400 
 3291              	.LASF10:
 3292 02a2 5F5F7569 		.ascii	"__uint32_t\000"
 3292      6E743332 
 3292      5F7400
 3293              	.LASF201:
 3294 02ad 41444343 		.ascii	"ADCConfig\000"
 3294      6F6E6669 
 3294      6700
 3295              	.LASF53:
 3296 02b7 72656761 		.ascii	"regarm_t\000"
 3296      726D5F74 
 3296      00
 3297              	.LASF159:
 3298 02c0 73656C66 		.ascii	"selfindex\000"
 3298      696E6465 
 3298      7800
 3299              	.LASF94:
 3300 02ca 5553425F 		.ascii	"USB_HP_IRQn\000"
 3300      48505F49 
 3300      52516E00 
 3301              	.LASF200:
 3302 02d6 64756D6D 		.ascii	"dummy\000"
 3302      7900
 3303              	.LASF30:
 3304 02dc 54687265 		.ascii	"Thread\000"
 3304      616400
 3305              	.LASF29:
 3306 02e3 73797374 		.ascii	"systime_t\000"
 3306      696D655F 
 3306      7400
 3307              	.LASF173:
 3308 02ed 4144435F 		.ascii	"ADC_ERR_OVERFLOW\000"
 3308      4552525F 
 3308      4F564552 
 3308      464C4F57 
 3308      00
 3309              	.LASF166:
 3310 02fe 4144435F 		.ascii	"ADC_ACTIVE\000"
 3310      41435449 
ARM GAS  /home/pauba/tmp/ccqbUBmw.s 			page 62


 3310      564500
 3311              	.LASF25:
 3312 0309 74736C69 		.ascii	"tslices_t\000"
 3312      6365735F 
 3312      7400
 3313              	.LASF100:
 3314 0313 54494D39 		.ascii	"TIM9_IRQn\000"
 3314      5F495251 
 3314      6E00
 3315              	.LASF61:
 3316 031d 6D5F6E65 		.ascii	"m_next\000"
 3316      787400
 3317              	.LASF141:
 3318 0324 43504152 		.ascii	"CPAR\000"
 3318      00
 3319              	.LASF162:
 3320 0329 73746D33 		.ascii	"stm32_dmaisr_t\000"
 3320      325F646D 
 3320      61697372 
 3320      5F7400
 3321              	.LASF45:
 3322 0338 705F6D73 		.ascii	"p_msgqueue\000"
 3322      67717565 
 3322      756500
 3323              	.LASF175:
 3324 0343 41444344 		.ascii	"ADCDriver\000"
 3324      72697665 
 3324      7200
 3325              	.LASF155:
 3326 034d 5243435F 		.ascii	"RCC_TypeDef\000"
 3326      54797065 
 3326      44656600 
 3327              	.LASF202:
 3328 0359 61646370 		.ascii	"adcp\000"
 3328      00
 3329              	.LASF143:
 3330 035e 444D415F 		.ascii	"DMA_Channel_TypeDef\000"
 3330      4368616E 
 3330      6E656C5F 
 3330      54797065 
 3330      44656600 
 3331              	.LASF158:
 3332 0372 69736869 		.ascii	"ishift\000"
 3332      667400
 3333              	.LASF90:
 3334 0379 444D4131 		.ascii	"DMA1_Channel5_IRQn\000"
 3334      5F436861 
 3334      6E6E656C 
 3334      355F4952 
 3334      516E00
 3335              	.LASF7:
 3336 038c 73686F72 		.ascii	"short unsigned int\000"
 3336      7420756E 
 3336      7369676E 
 3336      65642069 
 3336      6E7400
 3337              	.LASF78:
ARM GAS  /home/pauba/tmp/ccqbUBmw.s 			page 63


 3338 039f 5254435F 		.ascii	"RTC_WKUP_IRQn\000"
 3338      574B5550 
 3338      5F495251 
 3338      6E00
 3339              	.LASF154:
 3340 03ad 41504231 		.ascii	"APB1LPENR\000"
 3340      4C50454E 
 3340      5200
 3341              	.LASF165:
 3342 03b7 4144435F 		.ascii	"ADC_READY\000"
 3342      52454144 
 3342      5900
 3343              	.LASF147:
 3344 03c1 41504232 		.ascii	"APB2RSTR\000"
 3344      52535452 
 3344      00
 3345              	.LASF179:
 3346 03ca 64657074 		.ascii	"depth\000"
 3346      6800
 3347              	.LASF27:
 3348 03d0 6D73675F 		.ascii	"msg_t\000"
 3348      7400
 3349              	.LASF49:
 3350 03d6 705F7265 		.ascii	"p_realprio\000"
 3350      616C7072 
 3350      696F00
 3351              	.LASF115:
 3352 03e1 45585449 		.ascii	"EXTI15_10_IRQn\000"
 3352      31355F31 
 3352      305F4952 
 3352      516E00
 3353              	.LASF110:
 3354 03f0 53504931 		.ascii	"SPI1_IRQn\000"
 3354      5F495251 
 3354      6E00
 3355              	.LASF22:
 3356 03fa 746D6F64 		.ascii	"tmode_t\000"
 3356      655F7400 
 3357              	.LASF188:
 3358 0402 6E756D5F 		.ascii	"num_channels\000"
 3358      6368616E 
 3358      6E656C73 
 3358      00
 3359              	.LASF153:
 3360 040f 41504232 		.ascii	"APB2LPENR\000"
 3360      4C50454E 
 3360      5200
 3361              	.LASF52:
 3362 0419 54687265 		.ascii	"ThreadsList\000"
 3362      6164734C 
 3362      69737400 
 3363              	.LASF28:
 3364 0425 6576656E 		.ascii	"eventmask_t\000"
 3364      746D6173 
 3364      6B5F7400 
 3365              	.LASF5:
 3366 0431 73686F72 		.ascii	"short int\000"
ARM GAS  /home/pauba/tmp/ccqbUBmw.s 			page 64


 3366      7420696E 
 3366      7400
 3367              	.LASF204:
 3368 043b 68616C66 		.ascii	"half\000"
 3368      00
 3369              	.LASF89:
 3370 0440 444D4131 		.ascii	"DMA1_Channel4_IRQn\000"
 3370      5F436861 
 3370      6E6E656C 
 3370      345F4952 
 3370      516E00
 3371              	.LASF74:
 3372 0453 53797354 		.ascii	"SysTick_IRQn\000"
 3372      69636B5F 
 3372      4952516E 
 3372      00
 3373              	.LASF142:
 3374 0460 434D4152 		.ascii	"CMAR\000"
 3374      00
 3375              	.LASF54:
 3376 0465 73746B61 		.ascii	"stkalign_t\000"
 3376      6C69676E 
 3376      5F7400
 3377              	.LASF220:
 3378 0470 4952516E 		.ascii	"IRQn\000"
 3378      00
 3379              	.LASF123:
 3380 0475 4A4F4652 		.ascii	"JOFR1\000"
 3380      3100
 3381              	.LASF180:
 3382 047b 67727070 		.ascii	"grpp\000"
 3382      00
 3383              	.LASF212:
 3384 0480 6164635F 		.ascii	"adc_lld_init\000"
 3384      6C6C645F 
 3384      696E6974 
 3384      00
 3385              	.LASF178:
 3386 048d 73616D70 		.ascii	"samples\000"
 3386      6C657300 
 3387              	.LASF87:
 3388 0495 444D4131 		.ascii	"DMA1_Channel2_IRQn\000"
 3388      5F436861 
 3388      6E6E656C 
 3388      325F4952 
 3388      516E00
 3389              	.LASF57:
 3390 04a8 73697A65 		.ascii	"sizetype\000"
 3390      74797065 
 3390      00
 3391              	.LASF58:
 3392 04b1 4D757465 		.ascii	"Mutex\000"
 3392      7800
 3393              	.LASF31:
 3394 04b7 705F6E65 		.ascii	"p_next\000"
 3394      787400
 3395              	.LASF164:
ARM GAS  /home/pauba/tmp/ccqbUBmw.s 			page 65


 3396 04be 4144435F 		.ascii	"ADC_STOP\000"
 3396      53544F50 
 3396      00
 3397              	.LASF139:
 3398 04c7 4144435F 		.ascii	"ADC_Common_TypeDef\000"
 3398      436F6D6D 
 3398      6F6E5F54 
 3398      79706544 
 3398      656600
 3399              	.LASF19:
 3400 04da 75696E74 		.ascii	"uint64_t\000"
 3400      36345F74 
 3400      00
 3401              	.LASF72:
 3402 04e3 44656275 		.ascii	"DebugMonitor_IRQn\000"
 3402      674D6F6E 
 3402      69746F72 
 3402      5F495251 
 3402      6E00
 3403              	.LASF111:
 3404 04f5 53504932 		.ascii	"SPI2_IRQn\000"
 3404      5F495251 
 3404      6E00
 3405              	.LASF51:
 3406 04ff 54687265 		.ascii	"ThreadsQueue\000"
 3406      61647351 
 3406      75657565 
 3406      00
 3407              	.LASF137:
 3408 050c 534D5052 		.ascii	"SMPR0\000"
 3408      3000
 3409              	.LASF120:
 3410 0512 534D5052 		.ascii	"SMPR1\000"
 3410      3100
 3411              	.LASF121:
 3412 0518 534D5052 		.ascii	"SMPR2\000"
 3412      3200
 3413              	.LASF122:
 3414 051e 534D5052 		.ascii	"SMPR3\000"
 3414      3300
 3415              	.LASF146:
 3416 0524 41484252 		.ascii	"AHBRSTR\000"
 3416      53545200 
 3417              	.LASF117:
 3418 052c 5553425F 		.ascii	"USB_FS_WKUP_IRQn\000"
 3418      46535F57 
 3418      4B55505F 
 3418      4952516E 
 3418      00
 3419              	.LASF148:
 3420 053d 41504231 		.ascii	"APB1RSTR\000"
 3420      52535452 
 3420      00
 3421              	.LASF127:
 3422 0546 53515231 		.ascii	"SQR1\000"
 3422      00
 3423              	.LASF128:
ARM GAS  /home/pauba/tmp/ccqbUBmw.s 			page 66


 3424 054b 53515232 		.ascii	"SQR2\000"
 3424      00
 3425              	.LASF129:
 3426 0550 53515233 		.ascii	"SQR3\000"
 3426      00
 3427              	.LASF130:
 3428 0555 53515234 		.ascii	"SQR4\000"
 3428      00
 3429              	.LASF131:
 3430 055a 53515235 		.ascii	"SQR5\000"
 3430      00
 3431              	.LASF13:
 3432 055f 5F5F7569 		.ascii	"__uint64_t\000"
 3432      6E743634 
 3432      5F7400
 3433              	.LASF86:
 3434 056a 444D4131 		.ascii	"DMA1_Channel1_IRQn\000"
 3434      5F436861 
 3434      6E6E656C 
 3434      315F4952 
 3434      516E00
 3435              	.LASF68:
 3436 057d 4D656D6F 		.ascii	"MemoryManagement_IRQn\000"
 3436      72794D61 
 3436      6E616765 
 3436      6D656E74 
 3436      5F495251 
 3437              	.LASF24:
 3438 0593 74726566 		.ascii	"trefs_t\000"
 3438      735F7400 
 3439              	.LASF112:
 3440 059b 55534152 		.ascii	"USART1_IRQn\000"
 3440      54315F49 
 3440      52516E00 
 3441              	.LASF32:
 3442 05a7 705F7072 		.ascii	"p_prev\000"
 3442      657600
 3443              	.LASF161:
 3444 05ae 73746D33 		.ascii	"stm32_dma_stream_t\000"
 3444      325F646D 
 3444      615F7374 
 3444      7265616D 
 3444      5F7400
 3445              	.LASF26:
 3446 05c1 74707269 		.ascii	"tprio_t\000"
 3446      6F5F7400 
 3447              	.LASF182:
 3448 05c9 6D757465 		.ascii	"mutex\000"
 3448      7800
 3449              	.LASF21:
 3450 05cf 5F426F6F 		.ascii	"_Bool\000"
 3450      6C00
 3451              	.LASF17:
 3452 05d5 696E7433 		.ascii	"int32_t\000"
 3452      325F7400 
 3453              	.LASF4:
 3454 05dd 756E7369 		.ascii	"unsigned char\000"
ARM GAS  /home/pauba/tmp/ccqbUBmw.s 			page 67


 3454      676E6564 
 3454      20636861 
 3454      7200
 3455              	.LASF118:
 3456 05eb 54494D36 		.ascii	"TIM6_IRQn\000"
 3456      5F495251 
 3456      6E00
 3457              	.LASF221:
 3458 05f5 6164635F 		.ascii	"adc_lld_serve_rx_interrupt\000"
 3458      6C6C645F 
 3458      73657276 
 3458      655F7278 
 3458      5F696E74 
 3459              	.LASF48:
 3460 0610 705F6D74 		.ascii	"p_mtxlist\000"
 3460      786C6973 
 3460      7400
 3461              	.LASF211:
 3462 061a 6164635F 		.ascii	"adc_lld_stop_conversion\000"
 3462      6C6C645F 
 3462      73746F70 
 3462      5F636F6E 
 3462      76657273 
 3463              	.LASF93:
 3464 0632 41444331 		.ascii	"ADC1_IRQn\000"
 3464      5F495251 
 3464      6E00
 3465              	.LASF42:
 3466 063c 705F7072 		.ascii	"p_preempt\000"
 3466      65656D70 
 3466      7400
 3467              	.LASF85:
 3468 0646 45585449 		.ascii	"EXTI4_IRQn\000"
 3468      345F4952 
 3468      516E00
 3469              	.LASF190:
 3470 0651 6572726F 		.ascii	"error_cb\000"
 3470      725F6362 
 3470      00
 3471              	.LASF88:
 3472 065a 444D4131 		.ascii	"DMA1_Channel3_IRQn\000"
 3472      5F436861 
 3472      6E6E656C 
 3472      335F4952 
 3472      516E00
 3473              	.LASF65:
 3474 066d 65776D61 		.ascii	"ewmask\000"
 3474      736B00
 3475              	.LASF40:
 3476 0674 705F666C 		.ascii	"p_flags\000"
 3476      61677300 
 3477              	.LASF125:
 3478 067c 4A4F4652 		.ascii	"JOFR3\000"
 3478      3300
 3479              	.LASF126:
 3480 0682 4A4F4652 		.ascii	"JOFR4\000"
 3480      3400
ARM GAS  /home/pauba/tmp/ccqbUBmw.s 			page 68


 3481              	.LASF83:
 3482 0688 45585449 		.ascii	"EXTI2_IRQn\000"
 3482      325F4952 
 3482      516E00
 3483              	.LASF150:
 3484 0693 41504232 		.ascii	"APB2ENR\000"
 3484      454E5200 
 3485              	.LASF156:
 3486 069b 6368616E 		.ascii	"channel\000"
 3486      6E656C00 
 3487              	.LASF79:
 3488 06a3 464C4153 		.ascii	"FLASH_IRQn\000"
 3488      485F4952 
 3488      516E00
 3489              	.LASF47:
 3490 06ae 705F6570 		.ascii	"p_epending\000"
 3490      656E6469 
 3490      6E6700
 3491              	.LASF157:
 3492 06b9 69666372 		.ascii	"ifcr\000"
 3492      00
 3493              	.LASF18:
 3494 06be 75696E74 		.ascii	"uint32_t\000"
 3494      33325F74 
 3494      00
 3495              	.LASF217:
 3496 06c7 41444344 		.ascii	"ADCD1\000"
 3496      3100
 3497              	.LASF113:
 3498 06cd 55534152 		.ascii	"USART2_IRQn\000"
 3498      54325F49 
 3498      52516E00 
 3499              	.LASF70:
 3500 06d9 55736167 		.ascii	"UsageFault_IRQn\000"
 3500      65466175 
 3500      6C745F49 
 3500      52516E00 
 3501              	.LASF218:
 3502 06e9 474E5520 		.ascii	"GNU C 4.8.3 20140228 (release) [ARM/embedded-4_8-br"
 3502      4320342E 
 3502      382E3320 
 3502      32303134 
 3502      30323238 
 3503 071c 616E6368 		.ascii	"anch revision 208322] -mcpu=cortex-m4 -mno-thumb-in"
 3503      20726576 
 3503      6973696F 
 3503      6E203230 
 3503      38333232 
 3504 074f 74657277 		.ascii	"terwork -mthumb -ggdb -fomit-frame-pointer -falign-"
 3504      6F726B20 
 3504      2D6D7468 
 3504      756D6220 
 3504      2D676764 
 3505 0782 66756E63 		.ascii	"functions=16 -ffunction-sections -fdata-sections -f"
 3505      74696F6E 
 3505      733D3136 
 3505      202D6666 
ARM GAS  /home/pauba/tmp/ccqbUBmw.s 			page 69


 3505      756E6374 
 3506 07b5 6E6F2D63 		.ascii	"no-common\000"
 3506      6F6D6D6F 
 3506      6E00
 3507              	.LASF191:
 3508 07bf 736D7072 		.ascii	"smpr1\000"
 3508      3100
 3509              	.LASF67:
 3510 07c5 4E6F6E4D 		.ascii	"NonMaskableInt_IRQn\000"
 3510      61736B61 
 3510      626C6549 
 3510      6E745F49 
 3510      52516E00 
 3511              	.LASF66:
 3512 07d9 63686172 		.ascii	"char\000"
 3512      00
 3513              	.LASF210:
 3514 07de 6D6F6465 		.ascii	"mode\000"
 3514      00
 3515              	.LASF69:
 3516 07e3 42757346 		.ascii	"BusFault_IRQn\000"
 3516      61756C74 
 3516      5F495251 
 3516      6E00
 3517              	.LASF177:
 3518 07f1 636F6E66 		.ascii	"config\000"
 3518      696700
 3519              	.LASF6:
 3520 07f8 5F5F7569 		.ascii	"__uint16_t\000"
 3520      6E743136 
 3520      5F7400
 3521              	.LASF119:
 3522 0803 54494D37 		.ascii	"TIM7_IRQn\000"
 3522      5F495251 
 3522      6E00
 3523              	.LASF144:
 3524 080d 49435343 		.ascii	"ICSCR\000"
 3524      5200
 3525              	.LASF194:
 3526 0813 73717231 		.ascii	"sqr1\000"
 3526      00
 3527              	.LASF195:
 3528 0818 73717232 		.ascii	"sqr2\000"
 3528      00
 3529              	.LASF196:
 3530 081d 73717233 		.ascii	"sqr3\000"
 3530      00
 3531              	.LASF197:
 3532 0822 73717234 		.ascii	"sqr4\000"
 3532      00
 3533              	.LASF198:
 3534 0827 73717235 		.ascii	"sqr5\000"
 3534      00
 3535              	.LASF8:
 3536 082c 5F5F696E 		.ascii	"__int32_t\000"
 3536      7433325F 
 3536      7400
ARM GAS  /home/pauba/tmp/ccqbUBmw.s 			page 70


 3537              	.LASF38:
 3538 0836 705F7374 		.ascii	"p_stklimit\000"
 3538      6B6C696D 
 3538      697400
 3539              	.LASF36:
 3540 0841 705F6F6C 		.ascii	"p_older\000"
 3540      64657200 
 3541              	.LASF91:
 3542 0849 444D4131 		.ascii	"DMA1_Channel6_IRQn\000"
 3542      5F436861 
 3542      6E6E656C 
 3542      365F4952 
 3542      516E00
 3543              	.LASF151:
 3544 085c 41504231 		.ascii	"APB1ENR\000"
 3544      454E5200 
 3545              	.LASF95:
 3546 0864 5553425F 		.ascii	"USB_LP_IRQn\000"
 3546      4C505F49 
 3546      52516E00 
 3547              	.LASF56:
 3548 0870 636F6E74 		.ascii	"context\000"
 3548      65787400 
 3549              	.LASF55:
 3550 0878 696E7463 		.ascii	"intctx\000"
 3550      747800
 3551              	.LASF99:
 3552 087f 4C43445F 		.ascii	"LCD_IRQn\000"
 3552      4952516E 
 3552      00
 3553              	.LASF207:
 3554 0888 6164635F 		.ascii	"adc_lld_start\000"
 3554      6C6C645F 
 3554      73746172 
 3554      7400
 3555              	.LASF168:
 3556 0896 4144435F 		.ascii	"ADC_ERROR\000"
 3556      4552524F 
 3556      5200
 3557              	.LASF108:
 3558 08a0 49324332 		.ascii	"I2C2_EV_IRQn\000"
 3558      5F45565F 
 3558      4952516E 
 3558      00
 3559              	.LASF114:
 3560 08ad 55534152 		.ascii	"USART3_IRQn\000"
 3560      54335F49 
 3560      52516E00 
 3561              	.LASF103:
 3562 08b9 54494D32 		.ascii	"TIM2_IRQn\000"
 3562      5F495251 
 3562      6E00
 3563              	.LASF81:
 3564 08c3 45585449 		.ascii	"EXTI0_IRQn\000"
 3564      305F4952 
 3564      516E00
 3565              	.LASF206:
ARM GAS  /home/pauba/tmp/ccqbUBmw.s 			page 71


 3566 08ce 56656374 		.ascii	"Vector88\000"
 3566      6F723838 
 3566      00
 3567              	.LASF140:
 3568 08d7 434E4454 		.ascii	"CNDTR\000"
 3568      5200
 3569              	.LASF192:
 3570 08dd 736D7072 		.ascii	"smpr2\000"
 3570      3200
 3571              	.LASF193:
 3572 08e3 736D7072 		.ascii	"smpr3\000"
 3572      3300
 3573              	.LASF84:
 3574 08e9 45585449 		.ascii	"EXTI3_IRQn\000"
 3574      335F4952 
 3574      516E00
 3575              	.LASF124:
 3576 08f4 4A4F4652 		.ascii	"JOFR2\000"
 3576      3200
 3577              	.LASF15:
 3578 08fa 75696E74 		.ascii	"uint8_t\000"
 3578      385F7400 
 3579              	.LASF199:
 3580 0902 41444343 		.ascii	"ADCConversionGroup\000"
 3580      6F6E7665 
 3580      7273696F 
 3580      6E47726F 
 3580      757000
 3581              	.LASF203:
 3582 0915 666C6167 		.ascii	"flags\000"
 3582      7300
 3583              	.LASF133:
 3584 091b 4A445231 		.ascii	"JDR1\000"
 3584      00
 3585              	.LASF134:
 3586 0920 4A445232 		.ascii	"JDR2\000"
 3586      00
 3587              	.LASF135:
 3588 0925 4A445233 		.ascii	"JDR3\000"
 3588      00
 3589              	.LASF136:
 3590 092a 4A445234 		.ascii	"JDR4\000"
 3590      00
 3591              	.LASF82:
 3592 092f 45585449 		.ascii	"EXTI1_IRQn\000"
 3592      315F4952 
 3592      516E00
 3593              	.LASF64:
 3594 093a 77746F62 		.ascii	"wtobjp\000"
 3594      6A7000
 3595              	.LASF167:
 3596 0941 4144435F 		.ascii	"ADC_COMPLETE\000"
 3596      434F4D50 
 3596      4C455445 
 3596      00
 3597              	.LASF37:
 3598 094e 705F6E61 		.ascii	"p_name\000"
ARM GAS  /home/pauba/tmp/ccqbUBmw.s 			page 72


 3598      6D6500
 3599              	.LASF92:
 3600 0955 444D4131 		.ascii	"DMA1_Channel7_IRQn\000"
 3600      5F436861 
 3600      6E6E656C 
 3600      375F4952 
 3600      516E00
 3601              	.LASF171:
 3602 0968 6164635F 		.ascii	"adc_channels_num_t\000"
 3602      6368616E 
 3602      6E656C73 
 3602      5F6E756D 
 3602      5F7400
 3603              	.LASF145:
 3604 097b 43464752 		.ascii	"CFGR\000"
 3604      00
 3605              	.LASF46:
 3606 0980 705F6D73 		.ascii	"p_msg\000"
 3606      6700
 3607              	.LASF107:
 3608 0986 49324331 		.ascii	"I2C1_ER_IRQn\000"
 3608      5F45525F 
 3608      4952516E 
 3608      00
 3609              	.LASF77:
 3610 0993 54414D50 		.ascii	"TAMPER_STAMP_IRQn\000"
 3610      45525F53 
 3610      54414D50 
 3610      5F495251 
 3610      6E00
 3611              	.LASF104:
 3612 09a5 54494D33 		.ascii	"TIM3_IRQn\000"
 3612      5F495251 
 3612      6E00
 3613              	.LASF60:
 3614 09af 6D5F6F77 		.ascii	"m_owner\000"
 3614      6E657200 
 3615              	.LASF102:
 3616 09b7 54494D31 		.ascii	"TIM11_IRQn\000"
 3616      315F4952 
 3616      516E00
 3617              	.LASF205:
 3618 09c2 68616C66 		.ascii	"half_index\000"
 3618      5F696E64 
 3618      657800
 3619              	.LASF80:
 3620 09cd 5243435F 		.ascii	"RCC_IRQn\000"
 3620      4952516E 
 3620      00
 3621              	.LASF34:
 3622 09d6 705F6374 		.ascii	"p_ctx\000"
 3622      7800
 3623              	.LASF44:
 3624 09dc 705F7761 		.ascii	"p_waiting\000"
 3624      6974696E 
 3624      6700
 3625              	.LASF149:
ARM GAS  /home/pauba/tmp/ccqbUBmw.s 			page 73


 3626 09e6 41484245 		.ascii	"AHBENR\000"
 3626      4E5200
 3627              	.LASF71:
 3628 09ed 5356435F 		.ascii	"SVC_IRQn\000"
 3628      4952516E 
 3628      00
 3629              		.ident	"GCC: (GNU Tools for ARM Embedded Processors) 4.8.3 20140228 (release) [ARM/embedded-4_8-br
ARM GAS  /home/pauba/tmp/ccqbUBmw.s 			page 74


DEFINED SYMBOLS
                            *ABS*:00000000 adc_lld.c
/home/pauba/tmp/ccqbUBmw.s:23     .bss.ADCD1:00000000 ADCD1
/home/pauba/tmp/ccqbUBmw.s:20     .bss.ADCD1:00000000 $d
/home/pauba/tmp/ccqbUBmw.s:26     .text.adc_lld_serve_rx_interrupt:00000000 $t
/home/pauba/tmp/ccqbUBmw.s:31     .text.adc_lld_serve_rx_interrupt:00000000 adc_lld_serve_rx_interrupt
/home/pauba/tmp/ccqbUBmw.s:805    .text.adc_lld_stop_conversion:00000000 adc_lld_stop_conversion
/home/pauba/tmp/ccqbUBmw.s:291    .text.Vector88:00000000 $t
/home/pauba/tmp/ccqbUBmw.s:297    .text.Vector88:00000000 Vector88
/home/pauba/tmp/ccqbUBmw.s:412    .text.Vector88:000000ac $d
/home/pauba/tmp/ccqbUBmw.s:418    .text.adc_lld_init:00000000 $t
/home/pauba/tmp/ccqbUBmw.s:424    .text.adc_lld_init:00000000 adc_lld_init
/home/pauba/tmp/ccqbUBmw.s:458    .text.adc_lld_init:00000028 $d
/home/pauba/tmp/ccqbUBmw.s:465    .rodata:00000000 $d
/home/pauba/tmp/ccqbUBmw.s:469    .text.adc_lld_start:00000000 $t
/home/pauba/tmp/ccqbUBmw.s:475    .text.adc_lld_start:00000000 adc_lld_start
/home/pauba/tmp/ccqbUBmw.s:553    .text.adc_lld_start:00000070 $d
/home/pauba/tmp/ccqbUBmw.s:562    .text.adc_lld_stop:00000000 $t
/home/pauba/tmp/ccqbUBmw.s:568    .text.adc_lld_stop:00000000 adc_lld_stop
/home/pauba/tmp/ccqbUBmw.s:619    .text.adc_lld_stop:00000044 $d
/home/pauba/tmp/ccqbUBmw.s:625    .text.adc_lld_start_conversion:00000000 $t
/home/pauba/tmp/ccqbUBmw.s:631    .text.adc_lld_start_conversion:00000000 adc_lld_start_conversion
/home/pauba/tmp/ccqbUBmw.s:799    .text.adc_lld_stop_conversion:00000000 $t
/home/pauba/tmp/ccqbUBmw.s:857    .text.adcSTM32EnableTSVREFE:00000000 $t
/home/pauba/tmp/ccqbUBmw.s:863    .text.adcSTM32EnableTSVREFE:00000000 adcSTM32EnableTSVREFE
/home/pauba/tmp/ccqbUBmw.s:881    .text.adcSTM32EnableTSVREFE:00000010 $d
/home/pauba/tmp/ccqbUBmw.s:886    .text.adcSTM32DisableTSVREFE:00000000 $t
/home/pauba/tmp/ccqbUBmw.s:892    .text.adcSTM32DisableTSVREFE:00000000 adcSTM32DisableTSVREFE
/home/pauba/tmp/ccqbUBmw.s:910    .text.adcSTM32DisableTSVREFE:00000010 $d
                     .debug_frame:00000010 $d
/home/pauba/tmp/ccqbUBmw.s:417    .text.Vector88:000000b4 $t
/home/pauba/tmp/ccqbUBmw.s:464    .text.adc_lld_init:00000034 $t
/home/pauba/tmp/ccqbUBmw.s:561    .text.adc_lld_start:00000084 $t
/home/pauba/tmp/ccqbUBmw.s:624    .text.adc_lld_stop:0000004c $t
/home/pauba/tmp/ccqbUBmw.s:885    .text.adcSTM32EnableTSVREFE:00000014 $t
/home/pauba/tmp/ccqbUBmw.s:914    .text.adcSTM32DisableTSVREFE:00000014 $t

UNDEFINED SYMBOLS
dbg_check_lock_from_isr
chSchReadyI
dbg_check_unlock_from_isr
dbg_check_enter_isr
dbg_check_leave_isr
_port_irq_epilogue
adcObjectInit
nvicEnableVector
_stm32_dma_streams
dmaStreamAllocate
chDbgPanic
dmaStreamRelease
