ARM GAS  /home/pauba/tmp/ccTJAxZO.s 			page 1


   1              		.syntax unified
   2              		.cpu cortex-m4
   3              		.fpu softvfp
   4              		.eabi_attribute 20, 1
   5              		.eabi_attribute 21, 1
   6              		.eabi_attribute 23, 3
   7              		.eabi_attribute 24, 1
   8              		.eabi_attribute 25, 1
   9              		.eabi_attribute 26, 1
  10              		.eabi_attribute 30, 6
  11              		.eabi_attribute 34, 1
  12              		.eabi_attribute 18, 4
  13              		.thumb
  14              		.file	"chmboxes.c"
  15              		.text
  16              	.Ltext0:
  17              		.cfi_sections	.debug_frame
  18              		.section	.rodata
  19              		.align	2
  20              	.LC0:
  21 0000 2263684D 		.ascii	"\"chMBInit\"()\000"
  21      42496E69 
  21      74222829 
  21      00
  22              		.section	.text.chMBInit,"ax",%progbits
  23              		.align	2
  24              		.p2align 4,,15
  25              		.global	chMBInit
  26              		.thumb
  27              		.thumb_func
  28              		.type	chMBInit, %function
  29              	chMBInit:
  30              	.LFB7:
  31              		.file 1 "/home/pauba/ChibiOS-RT/os/kernel/src/chmboxes.c"
  32              		.loc 1 72 0
  33              		.cfi_startproc
  34              		@ args = 0, pretend = 0, frame = 16
  35              		@ frame_needed = 0, uses_anonymous_args = 0
  36 0000 00B5     		push	{lr}
  37              		.cfi_def_cfa_offset 4
  38              		.cfi_offset 14, -4
  39 0002 85B0     		sub	sp, sp, #20
  40              		.cfi_def_cfa_offset 24
  41 0004 0390     		str	r0, [sp, #12]
  42 0006 0291     		str	r1, [sp, #8]
  43 0008 0192     		str	r2, [sp, #4]
  44              		.loc 1 74 0
  45 000a 039B     		ldr	r3, [sp, #12]
  46 000c 002B     		cmp	r3, #0
  47 000e 05D0     		beq	.L2
  48              		.loc 1 74 0 is_stmt 0 discriminator 2
  49 0010 029B     		ldr	r3, [sp, #8]
  50 0012 002B     		cmp	r3, #0
  51 0014 02D0     		beq	.L2
  52              		.loc 1 74 0 discriminator 1
  53 0016 019B     		ldr	r3, [sp, #4]
  54 0018 002B     		cmp	r3, #0
ARM GAS  /home/pauba/tmp/ccTJAxZO.s 			page 2


  55 001a 02DC     		bgt	.L3
  56              	.L2:
  57 001c 1148     		ldr	r0, .L4
  58 001e FFF7FEFF 		bl	chDbgPanic
  59              	.L3:
  60              		.loc 1 76 0 is_stmt 1
  61 0022 039B     		ldr	r3, [sp, #12]
  62 0024 029A     		ldr	r2, [sp, #8]
  63 0026 DA60     		str	r2, [r3, #12]
  64 0028 039B     		ldr	r3, [sp, #12]
  65 002a DA68     		ldr	r2, [r3, #12]
  66 002c 039B     		ldr	r3, [sp, #12]
  67 002e 9A60     		str	r2, [r3, #8]
  68 0030 039B     		ldr	r3, [sp, #12]
  69 0032 9A68     		ldr	r2, [r3, #8]
  70 0034 039B     		ldr	r3, [sp, #12]
  71 0036 1A60     		str	r2, [r3]
  72              		.loc 1 77 0
  73 0038 019B     		ldr	r3, [sp, #4]
  74 003a 9B00     		lsls	r3, r3, #2
  75 003c 029A     		ldr	r2, [sp, #8]
  76 003e 1A44     		add	r2, r2, r3
  77 0040 039B     		ldr	r3, [sp, #12]
  78 0042 5A60     		str	r2, [r3, #4]
  79              		.loc 1 78 0
  80 0044 039B     		ldr	r3, [sp, #12]
  81 0046 1C33     		adds	r3, r3, #28
  82 0048 1846     		mov	r0, r3
  83 004a 0199     		ldr	r1, [sp, #4]
  84 004c FFF7FEFF 		bl	chSemInit
  85              		.loc 1 79 0
  86 0050 039B     		ldr	r3, [sp, #12]
  87 0052 1033     		adds	r3, r3, #16
  88 0054 1846     		mov	r0, r3
  89 0056 0021     		movs	r1, #0
  90 0058 FFF7FEFF 		bl	chSemInit
  91              		.loc 1 80 0
  92 005c 05B0     		add	sp, sp, #20
  93              		@ sp needed
  94 005e 5DF804FB 		ldr	pc, [sp], #4
  95              	.L5:
  96 0062 00BF     		.align	2
  97              	.L4:
  98 0064 00000000 		.word	.LC0
  99              		.cfi_endproc
 100              	.LFE7:
 101              		.size	chMBInit, .-chMBInit
 102 0068 AFF30080 		.section	.rodata
 102      AFF30080 
 103 000d 000000   		.align	2
 104              	.LC1:
 105 0010 2263684D 		.ascii	"\"chMBReset\"()\000"
 105      42526573 
 105      65742228 
 105      2900
 106              		.section	.text.chMBReset,"ax",%progbits
 107              		.align	2
ARM GAS  /home/pauba/tmp/ccTJAxZO.s 			page 3


 108              		.p2align 4,,15
 109              		.global	chMBReset
 110              		.thumb
 111              		.thumb_func
 112              		.type	chMBReset, %function
 113              	chMBReset:
 114              	.LFB8:
 115              		.loc 1 91 0
 116              		.cfi_startproc
 117              		@ args = 0, pretend = 0, frame = 8
 118              		@ frame_needed = 0, uses_anonymous_args = 0
 119 0000 00B5     		push	{lr}
 120              		.cfi_def_cfa_offset 4
 121              		.cfi_offset 14, -4
 122 0002 83B0     		sub	sp, sp, #12
 123              		.cfi_def_cfa_offset 16
 124 0004 0190     		str	r0, [sp, #4]
 125              		.loc 1 93 0
 126 0006 019B     		ldr	r3, [sp, #4]
 127 0008 002B     		cmp	r3, #0
 128 000a 02D1     		bne	.L7
 129              		.loc 1 93 0 is_stmt 0 discriminator 1
 130 000c 1648     		ldr	r0, .L8
 131 000e FFF7FEFF 		bl	chDbgPanic
 132              	.L7:
 133              	.LBB2:
 134              		.loc 1 95 0 is_stmt 1
 135 0012 2023     		movs	r3, #32
 136              	@ 95 "/home/pauba/ChibiOS-RT/os/kernel/src/chmboxes.c" 1
 137 0014 83F31188 		msr     BASEPRI, r3
 138              	@ 0 "" 2
 139              		.thumb
 140              	.LBE2:
 141 0018 FFF7FEFF 		bl	dbg_check_lock
 142              		.loc 1 96 0
 143 001c 019B     		ldr	r3, [sp, #4]
 144 001e 1A68     		ldr	r2, [r3]
 145 0020 019B     		ldr	r3, [sp, #4]
 146 0022 DA60     		str	r2, [r3, #12]
 147 0024 019B     		ldr	r3, [sp, #4]
 148 0026 DA68     		ldr	r2, [r3, #12]
 149 0028 019B     		ldr	r3, [sp, #4]
 150 002a 9A60     		str	r2, [r3, #8]
 151              		.loc 1 97 0
 152 002c 019B     		ldr	r3, [sp, #4]
 153 002e 03F11C02 		add	r2, r3, #28
 154 0032 019B     		ldr	r3, [sp, #4]
 155 0034 5B68     		ldr	r3, [r3, #4]
 156 0036 1946     		mov	r1, r3
 157 0038 019B     		ldr	r3, [sp, #4]
 158 003a 1B68     		ldr	r3, [r3]
 159 003c CB1A     		subs	r3, r1, r3
 160 003e 9B10     		asrs	r3, r3, #2
 161 0040 1046     		mov	r0, r2
 162 0042 1946     		mov	r1, r3
 163 0044 FFF7FEFF 		bl	chSemResetI
 164              		.loc 1 98 0
ARM GAS  /home/pauba/tmp/ccTJAxZO.s 			page 4


 165 0048 019B     		ldr	r3, [sp, #4]
 166 004a 1033     		adds	r3, r3, #16
 167 004c 1846     		mov	r0, r3
 168 004e 0021     		movs	r1, #0
 169 0050 FFF7FEFF 		bl	chSemResetI
 170              		.loc 1 99 0
 171 0054 FFF7FEFF 		bl	chSchRescheduleS
 172              		.loc 1 100 0
 173 0058 FFF7FEFF 		bl	dbg_check_unlock
 174              	.LBB3:
 175 005c 0023     		movs	r3, #0
 176              	@ 100 "/home/pauba/ChibiOS-RT/os/kernel/src/chmboxes.c" 1
 177 005e 83F31188 		msr     BASEPRI, r3
 178              	@ 0 "" 2
 179              		.thumb
 180              	.LBE3:
 181              		.loc 1 101 0
 182 0062 03B0     		add	sp, sp, #12
 183              		@ sp needed
 184 0064 5DF804FB 		ldr	pc, [sp], #4
 185              	.L9:
 186              		.align	2
 187              	.L8:
 188 0068 10000000 		.word	.LC1
 189              		.cfi_endproc
 190              	.LFE8:
 191              		.size	chMBReset, .-chMBReset
 192 006c AFF30080 		.section	.text.chMBPost,"ax",%progbits
 193              		.align	2
 194              		.p2align 4,,15
 195              		.global	chMBPost
 196              		.thumb
 197              		.thumb_func
 198              		.type	chMBPost, %function
 199              	chMBPost:
 200              	.LFB9:
 201              		.loc 1 122 0
 202              		.cfi_startproc
 203              		@ args = 0, pretend = 0, frame = 24
 204              		@ frame_needed = 0, uses_anonymous_args = 0
 205 0000 00B5     		push	{lr}
 206              		.cfi_def_cfa_offset 4
 207              		.cfi_offset 14, -4
 208 0002 87B0     		sub	sp, sp, #28
 209              		.cfi_def_cfa_offset 32
 210 0004 0390     		str	r0, [sp, #12]
 211 0006 0291     		str	r1, [sp, #8]
 212 0008 0192     		str	r2, [sp, #4]
 213              	.LBB4:
 214              		.loc 1 125 0
 215 000a 2023     		movs	r3, #32
 216              	@ 125 "/home/pauba/ChibiOS-RT/os/kernel/src/chmboxes.c" 1
 217 000c 83F31188 		msr     BASEPRI, r3
 218              	@ 0 "" 2
 219              		.thumb
 220              	.LBE4:
 221 0010 FFF7FEFF 		bl	dbg_check_lock
ARM GAS  /home/pauba/tmp/ccTJAxZO.s 			page 5


 222              		.loc 1 126 0
 223 0014 0398     		ldr	r0, [sp, #12]
 224 0016 0299     		ldr	r1, [sp, #8]
 225 0018 019A     		ldr	r2, [sp, #4]
 226 001a FFF7FEFF 		bl	chMBPostS
 227 001e 0590     		str	r0, [sp, #20]
 228              		.loc 1 127 0
 229 0020 FFF7FEFF 		bl	dbg_check_unlock
 230              	.LBB5:
 231 0024 0023     		movs	r3, #0
 232              	@ 127 "/home/pauba/ChibiOS-RT/os/kernel/src/chmboxes.c" 1
 233 0026 83F31188 		msr     BASEPRI, r3
 234              	@ 0 "" 2
 235              		.thumb
 236              	.LBE5:
 237              		.loc 1 128 0
 238 002a 059B     		ldr	r3, [sp, #20]
 239              		.loc 1 129 0
 240 002c 1846     		mov	r0, r3
 241 002e 07B0     		add	sp, sp, #28
 242              		@ sp needed
 243 0030 5DF804FB 		ldr	pc, [sp], #4
 244              		.cfi_endproc
 245              	.LFE9:
 246              		.size	chMBPost, .-chMBPost
 247 0034 AFF30080 		.section	.rodata
 247      AFF30080 
 247      AFF30080 
 248 001e 0000     		.align	2
 249              	.LC2:
 250 0020 2263684D 		.ascii	"\"chMBPostS\"()\000"
 250      42506F73 
 250      74532228 
 250      2900
 251              		.section	.text.chMBPostS,"ax",%progbits
 252              		.align	2
 253              		.p2align 4,,15
 254              		.global	chMBPostS
 255              		.thumb
 256              		.thumb_func
 257              		.type	chMBPostS, %function
 258              	chMBPostS:
 259              	.LFB10:
 260              		.loc 1 150 0
 261              		.cfi_startproc
 262              		@ args = 0, pretend = 0, frame = 24
 263              		@ frame_needed = 0, uses_anonymous_args = 0
 264 0000 00B5     		push	{lr}
 265              		.cfi_def_cfa_offset 4
 266              		.cfi_offset 14, -4
 267 0002 87B0     		sub	sp, sp, #28
 268              		.cfi_def_cfa_offset 32
 269 0004 0390     		str	r0, [sp, #12]
 270 0006 0291     		str	r1, [sp, #8]
 271 0008 0192     		str	r2, [sp, #4]
 272              		.loc 1 153 0
 273 000a FFF7FEFF 		bl	chDbgCheckClassS
ARM GAS  /home/pauba/tmp/ccTJAxZO.s 			page 6


 274              		.loc 1 154 0
 275 000e 039B     		ldr	r3, [sp, #12]
 276 0010 002B     		cmp	r3, #0
 277 0012 02D1     		bne	.L13
 278              		.loc 1 154 0 is_stmt 0 discriminator 1
 279 0014 1448     		ldr	r0, .L17
 280 0016 FFF7FEFF 		bl	chDbgPanic
 281              	.L13:
 282              		.loc 1 156 0 is_stmt 1
 283 001a 039B     		ldr	r3, [sp, #12]
 284 001c 1C33     		adds	r3, r3, #28
 285 001e 1846     		mov	r0, r3
 286 0020 0199     		ldr	r1, [sp, #4]
 287 0022 FFF7FEFF 		bl	chSemWaitTimeoutS
 288 0026 0590     		str	r0, [sp, #20]
 289              		.loc 1 157 0
 290 0028 059B     		ldr	r3, [sp, #20]
 291 002a 002B     		cmp	r3, #0
 292 002c 17D1     		bne	.L14
 293              		.loc 1 158 0
 294 002e 039B     		ldr	r3, [sp, #12]
 295 0030 9B68     		ldr	r3, [r3, #8]
 296 0032 191D     		adds	r1, r3, #4
 297 0034 039A     		ldr	r2, [sp, #12]
 298 0036 9160     		str	r1, [r2, #8]
 299 0038 029A     		ldr	r2, [sp, #8]
 300 003a 1A60     		str	r2, [r3]
 301              		.loc 1 159 0
 302 003c 039B     		ldr	r3, [sp, #12]
 303 003e 9A68     		ldr	r2, [r3, #8]
 304 0040 039B     		ldr	r3, [sp, #12]
 305 0042 5B68     		ldr	r3, [r3, #4]
 306 0044 9A42     		cmp	r2, r3
 307 0046 03D3     		bcc	.L15
 308              		.loc 1 160 0
 309 0048 039B     		ldr	r3, [sp, #12]
 310 004a 1A68     		ldr	r2, [r3]
 311 004c 039B     		ldr	r3, [sp, #12]
 312 004e 9A60     		str	r2, [r3, #8]
 313              	.L15:
 314              		.loc 1 161 0
 315 0050 039B     		ldr	r3, [sp, #12]
 316 0052 1033     		adds	r3, r3, #16
 317 0054 1846     		mov	r0, r3
 318 0056 FFF7FEFF 		bl	chSemSignalI
 319              		.loc 1 162 0
 320 005a FFF7FEFF 		bl	chSchRescheduleS
 321              	.L14:
 322              		.loc 1 164 0
 323 005e 059B     		ldr	r3, [sp, #20]
 324              		.loc 1 165 0
 325 0060 1846     		mov	r0, r3
 326 0062 07B0     		add	sp, sp, #28
 327              		@ sp needed
 328 0064 5DF804FB 		ldr	pc, [sp], #4
 329              	.L18:
 330              		.align	2
ARM GAS  /home/pauba/tmp/ccTJAxZO.s 			page 7


 331              	.L17:
 332 0068 20000000 		.word	.LC2
 333              		.cfi_endproc
 334              	.LFE10:
 335              		.size	chMBPostS, .-chMBPostS
 336 006c AFF30080 		.section	.rodata
 337 002e 0000     		.align	2
 338              	.LC3:
 339 0030 2263684D 		.ascii	"\"chMBPostI\"()\000"
 339      42506F73 
 339      74492228 
 339      2900
 340              		.section	.text.chMBPostI,"ax",%progbits
 341              		.align	2
 342              		.p2align 4,,15
 343              		.global	chMBPostI
 344              		.thumb
 345              		.thumb_func
 346              		.type	chMBPostI, %function
 347              	chMBPostI:
 348              	.LFB11:
 349              		.loc 1 181 0
 350              		.cfi_startproc
 351              		@ args = 0, pretend = 0, frame = 8
 352              		@ frame_needed = 0, uses_anonymous_args = 0
 353 0000 00B5     		push	{lr}
 354              		.cfi_def_cfa_offset 4
 355              		.cfi_offset 14, -4
 356 0002 83B0     		sub	sp, sp, #12
 357              		.cfi_def_cfa_offset 16
 358 0004 0190     		str	r0, [sp, #4]
 359 0006 0091     		str	r1, [sp]
 360              		.loc 1 183 0
 361 0008 FFF7FEFF 		bl	chDbgCheckClassI
 362              		.loc 1 184 0
 363 000c 019B     		ldr	r3, [sp, #4]
 364 000e 002B     		cmp	r3, #0
 365 0010 02D1     		bne	.L20
 366              		.loc 1 184 0 is_stmt 0 discriminator 1
 367 0012 1548     		ldr	r0, .L24
 368 0014 FFF7FEFF 		bl	chDbgPanic
 369              	.L20:
 370              		.loc 1 186 0 is_stmt 1
 371 0018 019B     		ldr	r3, [sp, #4]
 372 001a 5B6A     		ldr	r3, [r3, #36]
 373 001c 002B     		cmp	r3, #0
 374 001e 02DC     		bgt	.L21
 375              		.loc 1 187 0
 376 0020 4FF0FF33 		mov	r3, #-1
 377 0024 1BE0     		b	.L22
 378              	.L21:
 379              		.loc 1 188 0
 380 0026 019B     		ldr	r3, [sp, #4]
 381 0028 5B6A     		ldr	r3, [r3, #36]
 382 002a 5A1E     		subs	r2, r3, #1
 383 002c 019B     		ldr	r3, [sp, #4]
 384 002e 5A62     		str	r2, [r3, #36]
ARM GAS  /home/pauba/tmp/ccTJAxZO.s 			page 8


 385              		.loc 1 189 0
 386 0030 019B     		ldr	r3, [sp, #4]
 387 0032 9B68     		ldr	r3, [r3, #8]
 388 0034 191D     		adds	r1, r3, #4
 389 0036 019A     		ldr	r2, [sp, #4]
 390 0038 9160     		str	r1, [r2, #8]
 391 003a 009A     		ldr	r2, [sp]
 392 003c 1A60     		str	r2, [r3]
 393              		.loc 1 190 0
 394 003e 019B     		ldr	r3, [sp, #4]
 395 0040 9A68     		ldr	r2, [r3, #8]
 396 0042 019B     		ldr	r3, [sp, #4]
 397 0044 5B68     		ldr	r3, [r3, #4]
 398 0046 9A42     		cmp	r2, r3
 399 0048 03D3     		bcc	.L23
 400              		.loc 1 191 0
 401 004a 019B     		ldr	r3, [sp, #4]
 402 004c 1A68     		ldr	r2, [r3]
 403 004e 019B     		ldr	r3, [sp, #4]
 404 0050 9A60     		str	r2, [r3, #8]
 405              	.L23:
 406              		.loc 1 192 0
 407 0052 019B     		ldr	r3, [sp, #4]
 408 0054 1033     		adds	r3, r3, #16
 409 0056 1846     		mov	r0, r3
 410 0058 FFF7FEFF 		bl	chSemSignalI
 411              		.loc 1 193 0
 412 005c 0023     		movs	r3, #0
 413              	.L22:
 414              		.loc 1 194 0
 415 005e 1846     		mov	r0, r3
 416 0060 03B0     		add	sp, sp, #12
 417              		@ sp needed
 418 0062 5DF804FB 		ldr	pc, [sp], #4
 419              	.L25:
 420 0066 00BF     		.align	2
 421              	.L24:
 422 0068 30000000 		.word	.LC3
 423              		.cfi_endproc
 424              	.LFE11:
 425              		.size	chMBPostI, .-chMBPostI
 426 006c AFF30080 		.section	.text.chMBPostAhead,"ax",%progbits
 427              		.align	2
 428              		.p2align 4,,15
 429              		.global	chMBPostAhead
 430              		.thumb
 431              		.thumb_func
 432              		.type	chMBPostAhead, %function
 433              	chMBPostAhead:
 434              	.LFB12:
 435              		.loc 1 215 0
 436              		.cfi_startproc
 437              		@ args = 0, pretend = 0, frame = 24
 438              		@ frame_needed = 0, uses_anonymous_args = 0
 439 0000 00B5     		push	{lr}
 440              		.cfi_def_cfa_offset 4
 441              		.cfi_offset 14, -4
ARM GAS  /home/pauba/tmp/ccTJAxZO.s 			page 9


 442 0002 87B0     		sub	sp, sp, #28
 443              		.cfi_def_cfa_offset 32
 444 0004 0390     		str	r0, [sp, #12]
 445 0006 0291     		str	r1, [sp, #8]
 446 0008 0192     		str	r2, [sp, #4]
 447              	.LBB6:
 448              		.loc 1 218 0
 449 000a 2023     		movs	r3, #32
 450              	@ 218 "/home/pauba/ChibiOS-RT/os/kernel/src/chmboxes.c" 1
 451 000c 83F31188 		msr     BASEPRI, r3
 452              	@ 0 "" 2
 453              		.thumb
 454              	.LBE6:
 455 0010 FFF7FEFF 		bl	dbg_check_lock
 456              		.loc 1 219 0
 457 0014 0398     		ldr	r0, [sp, #12]
 458 0016 0299     		ldr	r1, [sp, #8]
 459 0018 019A     		ldr	r2, [sp, #4]
 460 001a FFF7FEFF 		bl	chMBPostAheadS
 461 001e 0590     		str	r0, [sp, #20]
 462              		.loc 1 220 0
 463 0020 FFF7FEFF 		bl	dbg_check_unlock
 464              	.LBB7:
 465 0024 0023     		movs	r3, #0
 466              	@ 220 "/home/pauba/ChibiOS-RT/os/kernel/src/chmboxes.c" 1
 467 0026 83F31188 		msr     BASEPRI, r3
 468              	@ 0 "" 2
 469              		.thumb
 470              	.LBE7:
 471              		.loc 1 221 0
 472 002a 059B     		ldr	r3, [sp, #20]
 473              		.loc 1 222 0
 474 002c 1846     		mov	r0, r3
 475 002e 07B0     		add	sp, sp, #28
 476              		@ sp needed
 477 0030 5DF804FB 		ldr	pc, [sp], #4
 478              		.cfi_endproc
 479              	.LFE12:
 480              		.size	chMBPostAhead, .-chMBPostAhead
 481 0034 AFF30080 		.section	.rodata
 481      AFF30080 
 481      AFF30080 
 482 003e 0000     		.align	2
 483              	.LC4:
 484 0040 2263684D 		.ascii	"\"chMBPostAheadS\"()\000"
 484      42506F73 
 484      74416865 
 484      61645322 
 484      282900
 485              		.section	.text.chMBPostAheadS,"ax",%progbits
 486              		.align	2
 487              		.p2align 4,,15
 488              		.global	chMBPostAheadS
 489              		.thumb
 490              		.thumb_func
 491              		.type	chMBPostAheadS, %function
 492              	chMBPostAheadS:
ARM GAS  /home/pauba/tmp/ccTJAxZO.s 			page 10


 493              	.LFB13:
 494              		.loc 1 243 0
 495              		.cfi_startproc
 496              		@ args = 0, pretend = 0, frame = 24
 497              		@ frame_needed = 0, uses_anonymous_args = 0
 498 0000 00B5     		push	{lr}
 499              		.cfi_def_cfa_offset 4
 500              		.cfi_offset 14, -4
 501 0002 87B0     		sub	sp, sp, #28
 502              		.cfi_def_cfa_offset 32
 503 0004 0390     		str	r0, [sp, #12]
 504 0006 0291     		str	r1, [sp, #8]
 505 0008 0192     		str	r2, [sp, #4]
 506              		.loc 1 246 0
 507 000a FFF7FEFF 		bl	chDbgCheckClassS
 508              		.loc 1 247 0
 509 000e 039B     		ldr	r3, [sp, #12]
 510 0010 002B     		cmp	r3, #0
 511 0012 02D1     		bne	.L29
 512              		.loc 1 247 0 is_stmt 0 discriminator 1
 513 0014 1648     		ldr	r0, .L33
 514 0016 FFF7FEFF 		bl	chDbgPanic
 515              	.L29:
 516              		.loc 1 249 0 is_stmt 1
 517 001a 039B     		ldr	r3, [sp, #12]
 518 001c 1C33     		adds	r3, r3, #28
 519 001e 1846     		mov	r0, r3
 520 0020 0199     		ldr	r1, [sp, #4]
 521 0022 FFF7FEFF 		bl	chSemWaitTimeoutS
 522 0026 0590     		str	r0, [sp, #20]
 523              		.loc 1 250 0
 524 0028 059B     		ldr	r3, [sp, #20]
 525 002a 002B     		cmp	r3, #0
 526 002c 1AD1     		bne	.L30
 527              		.loc 1 251 0
 528 002e 039B     		ldr	r3, [sp, #12]
 529 0030 DB68     		ldr	r3, [r3, #12]
 530 0032 1A1F     		subs	r2, r3, #4
 531 0034 039B     		ldr	r3, [sp, #12]
 532 0036 DA60     		str	r2, [r3, #12]
 533 0038 039B     		ldr	r3, [sp, #12]
 534 003a DA68     		ldr	r2, [r3, #12]
 535 003c 039B     		ldr	r3, [sp, #12]
 536 003e 1B68     		ldr	r3, [r3]
 537 0040 9A42     		cmp	r2, r3
 538 0042 04D2     		bcs	.L31
 539              		.loc 1 252 0
 540 0044 039B     		ldr	r3, [sp, #12]
 541 0046 5B68     		ldr	r3, [r3, #4]
 542 0048 1A1F     		subs	r2, r3, #4
 543 004a 039B     		ldr	r3, [sp, #12]
 544 004c DA60     		str	r2, [r3, #12]
 545              	.L31:
 546              		.loc 1 253 0
 547 004e 039B     		ldr	r3, [sp, #12]
 548 0050 DB68     		ldr	r3, [r3, #12]
 549 0052 029A     		ldr	r2, [sp, #8]
ARM GAS  /home/pauba/tmp/ccTJAxZO.s 			page 11


 550 0054 1A60     		str	r2, [r3]
 551              		.loc 1 254 0
 552 0056 039B     		ldr	r3, [sp, #12]
 553 0058 1033     		adds	r3, r3, #16
 554 005a 1846     		mov	r0, r3
 555 005c FFF7FEFF 		bl	chSemSignalI
 556              		.loc 1 255 0
 557 0060 FFF7FEFF 		bl	chSchRescheduleS
 558              	.L30:
 559              		.loc 1 257 0
 560 0064 059B     		ldr	r3, [sp, #20]
 561              		.loc 1 258 0
 562 0066 1846     		mov	r0, r3
 563 0068 07B0     		add	sp, sp, #28
 564              		@ sp needed
 565 006a 5DF804FB 		ldr	pc, [sp], #4
 566              	.L34:
 567 006e 00BF     		.align	2
 568              	.L33:
 569 0070 40000000 		.word	.LC4
 570              		.cfi_endproc
 571              	.LFE13:
 572              		.size	chMBPostAheadS, .-chMBPostAheadS
 573 0074 AFF30080 		.section	.rodata
 573      AFF30080 
 573      AFF30080 
 574 0053 00       		.align	2
 575              	.LC5:
 576 0054 2263684D 		.ascii	"\"chMBPostAheadI\"()\000"
 576      42506F73 
 576      74416865 
 576      61644922 
 576      282900
 577              		.section	.text.chMBPostAheadI,"ax",%progbits
 578              		.align	2
 579              		.p2align 4,,15
 580              		.global	chMBPostAheadI
 581              		.thumb
 582              		.thumb_func
 583              		.type	chMBPostAheadI, %function
 584              	chMBPostAheadI:
 585              	.LFB14:
 586              		.loc 1 274 0
 587              		.cfi_startproc
 588              		@ args = 0, pretend = 0, frame = 8
 589              		@ frame_needed = 0, uses_anonymous_args = 0
 590 0000 00B5     		push	{lr}
 591              		.cfi_def_cfa_offset 4
 592              		.cfi_offset 14, -4
 593 0002 83B0     		sub	sp, sp, #12
 594              		.cfi_def_cfa_offset 16
 595 0004 0190     		str	r0, [sp, #4]
 596 0006 0091     		str	r1, [sp]
 597              		.loc 1 276 0
 598 0008 FFF7FEFF 		bl	chDbgCheckClassI
 599              		.loc 1 277 0
 600 000c 019B     		ldr	r3, [sp, #4]
ARM GAS  /home/pauba/tmp/ccTJAxZO.s 			page 12


 601 000e 002B     		cmp	r3, #0
 602 0010 02D1     		bne	.L36
 603              		.loc 1 277 0 is_stmt 0 discriminator 1
 604 0012 1648     		ldr	r0, .L40
 605 0014 FFF7FEFF 		bl	chDbgPanic
 606              	.L36:
 607              		.loc 1 279 0 is_stmt 1
 608 0018 019B     		ldr	r3, [sp, #4]
 609 001a 5B6A     		ldr	r3, [r3, #36]
 610 001c 002B     		cmp	r3, #0
 611 001e 02DC     		bgt	.L37
 612              		.loc 1 280 0
 613 0020 4FF0FF33 		mov	r3, #-1
 614 0024 1EE0     		b	.L38
 615              	.L37:
 616              		.loc 1 281 0
 617 0026 019B     		ldr	r3, [sp, #4]
 618 0028 5B6A     		ldr	r3, [r3, #36]
 619 002a 5A1E     		subs	r2, r3, #1
 620 002c 019B     		ldr	r3, [sp, #4]
 621 002e 5A62     		str	r2, [r3, #36]
 622              		.loc 1 282 0
 623 0030 019B     		ldr	r3, [sp, #4]
 624 0032 DB68     		ldr	r3, [r3, #12]
 625 0034 1A1F     		subs	r2, r3, #4
 626 0036 019B     		ldr	r3, [sp, #4]
 627 0038 DA60     		str	r2, [r3, #12]
 628 003a 019B     		ldr	r3, [sp, #4]
 629 003c DA68     		ldr	r2, [r3, #12]
 630 003e 019B     		ldr	r3, [sp, #4]
 631 0040 1B68     		ldr	r3, [r3]
 632 0042 9A42     		cmp	r2, r3
 633 0044 04D2     		bcs	.L39
 634              		.loc 1 283 0
 635 0046 019B     		ldr	r3, [sp, #4]
 636 0048 5B68     		ldr	r3, [r3, #4]
 637 004a 1A1F     		subs	r2, r3, #4
 638 004c 019B     		ldr	r3, [sp, #4]
 639 004e DA60     		str	r2, [r3, #12]
 640              	.L39:
 641              		.loc 1 284 0
 642 0050 019B     		ldr	r3, [sp, #4]
 643 0052 DB68     		ldr	r3, [r3, #12]
 644 0054 009A     		ldr	r2, [sp]
 645 0056 1A60     		str	r2, [r3]
 646              		.loc 1 285 0
 647 0058 019B     		ldr	r3, [sp, #4]
 648 005a 1033     		adds	r3, r3, #16
 649 005c 1846     		mov	r0, r3
 650 005e FFF7FEFF 		bl	chSemSignalI
 651              		.loc 1 286 0
 652 0062 0023     		movs	r3, #0
 653              	.L38:
 654              		.loc 1 287 0
 655 0064 1846     		mov	r0, r3
 656 0066 03B0     		add	sp, sp, #12
 657              		@ sp needed
ARM GAS  /home/pauba/tmp/ccTJAxZO.s 			page 13


 658 0068 5DF804FB 		ldr	pc, [sp], #4
 659              	.L41:
 660              		.align	2
 661              	.L40:
 662 006c 54000000 		.word	.LC5
 663              		.cfi_endproc
 664              	.LFE14:
 665              		.size	chMBPostAheadI, .-chMBPostAheadI
 666              		.section	.text.chMBFetch,"ax",%progbits
 667              		.align	2
 668              		.p2align 4,,15
 669              		.global	chMBFetch
 670              		.thumb
 671              		.thumb_func
 672              		.type	chMBFetch, %function
 673              	chMBFetch:
 674              	.LFB15:
 675              		.loc 1 308 0
 676              		.cfi_startproc
 677              		@ args = 0, pretend = 0, frame = 24
 678              		@ frame_needed = 0, uses_anonymous_args = 0
 679 0000 00B5     		push	{lr}
 680              		.cfi_def_cfa_offset 4
 681              		.cfi_offset 14, -4
 682 0002 87B0     		sub	sp, sp, #28
 683              		.cfi_def_cfa_offset 32
 684 0004 0390     		str	r0, [sp, #12]
 685 0006 0291     		str	r1, [sp, #8]
 686 0008 0192     		str	r2, [sp, #4]
 687              	.LBB8:
 688              		.loc 1 311 0
 689 000a 2023     		movs	r3, #32
 690              	@ 311 "/home/pauba/ChibiOS-RT/os/kernel/src/chmboxes.c" 1
 691 000c 83F31188 		msr     BASEPRI, r3
 692              	@ 0 "" 2
 693              		.thumb
 694              	.LBE8:
 695 0010 FFF7FEFF 		bl	dbg_check_lock
 696              		.loc 1 312 0
 697 0014 0398     		ldr	r0, [sp, #12]
 698 0016 0299     		ldr	r1, [sp, #8]
 699 0018 019A     		ldr	r2, [sp, #4]
 700 001a FFF7FEFF 		bl	chMBFetchS
 701 001e 0590     		str	r0, [sp, #20]
 702              		.loc 1 313 0
 703 0020 FFF7FEFF 		bl	dbg_check_unlock
 704              	.LBB9:
 705 0024 0023     		movs	r3, #0
 706              	@ 313 "/home/pauba/ChibiOS-RT/os/kernel/src/chmboxes.c" 1
 707 0026 83F31188 		msr     BASEPRI, r3
 708              	@ 0 "" 2
 709              		.thumb
 710              	.LBE9:
 711              		.loc 1 314 0
 712 002a 059B     		ldr	r3, [sp, #20]
 713              		.loc 1 315 0
 714 002c 1846     		mov	r0, r3
ARM GAS  /home/pauba/tmp/ccTJAxZO.s 			page 14


 715 002e 07B0     		add	sp, sp, #28
 716              		@ sp needed
 717 0030 5DF804FB 		ldr	pc, [sp], #4
 718              		.cfi_endproc
 719              	.LFE15:
 720              		.size	chMBFetch, .-chMBFetch
 721 0034 AFF30080 		.section	.rodata
 721      AFF30080 
 721      AFF30080 
 722 0067 00       		.align	2
 723              	.LC6:
 724 0068 2263684D 		.ascii	"\"chMBFetchS\"()\000"
 724      42466574 
 724      63685322 
 724      282900
 725              		.section	.text.chMBFetchS,"ax",%progbits
 726              		.align	2
 727              		.p2align 4,,15
 728              		.global	chMBFetchS
 729              		.thumb
 730              		.thumb_func
 731              		.type	chMBFetchS, %function
 732              	chMBFetchS:
 733              	.LFB16:
 734              		.loc 1 336 0
 735              		.cfi_startproc
 736              		@ args = 0, pretend = 0, frame = 24
 737              		@ frame_needed = 0, uses_anonymous_args = 0
 738 0000 00B5     		push	{lr}
 739              		.cfi_def_cfa_offset 4
 740              		.cfi_offset 14, -4
 741 0002 87B0     		sub	sp, sp, #28
 742              		.cfi_def_cfa_offset 32
 743 0004 0390     		str	r0, [sp, #12]
 744 0006 0291     		str	r1, [sp, #8]
 745 0008 0192     		str	r2, [sp, #4]
 746              		.loc 1 339 0
 747 000a FFF7FEFF 		bl	chDbgCheckClassS
 748              		.loc 1 340 0
 749 000e 039B     		ldr	r3, [sp, #12]
 750 0010 002B     		cmp	r3, #0
 751 0012 02D0     		beq	.L45
 752              		.loc 1 340 0 is_stmt 0 discriminator 2
 753 0014 029B     		ldr	r3, [sp, #8]
 754 0016 002B     		cmp	r3, #0
 755 0018 02D1     		bne	.L46
 756              	.L45:
 757              		.loc 1 340 0 discriminator 1
 758 001a 1548     		ldr	r0, .L50
 759 001c FFF7FEFF 		bl	chDbgPanic
 760              	.L46:
 761              		.loc 1 342 0 is_stmt 1
 762 0020 039B     		ldr	r3, [sp, #12]
 763 0022 1033     		adds	r3, r3, #16
 764 0024 1846     		mov	r0, r3
 765 0026 0199     		ldr	r1, [sp, #4]
 766 0028 FFF7FEFF 		bl	chSemWaitTimeoutS
ARM GAS  /home/pauba/tmp/ccTJAxZO.s 			page 15


 767 002c 0590     		str	r0, [sp, #20]
 768              		.loc 1 343 0
 769 002e 059B     		ldr	r3, [sp, #20]
 770 0030 002B     		cmp	r3, #0
 771 0032 18D1     		bne	.L47
 772              		.loc 1 344 0
 773 0034 039B     		ldr	r3, [sp, #12]
 774 0036 DB68     		ldr	r3, [r3, #12]
 775 0038 191D     		adds	r1, r3, #4
 776 003a 039A     		ldr	r2, [sp, #12]
 777 003c D160     		str	r1, [r2, #12]
 778 003e 1A68     		ldr	r2, [r3]
 779 0040 029B     		ldr	r3, [sp, #8]
 780 0042 1A60     		str	r2, [r3]
 781              		.loc 1 345 0
 782 0044 039B     		ldr	r3, [sp, #12]
 783 0046 DA68     		ldr	r2, [r3, #12]
 784 0048 039B     		ldr	r3, [sp, #12]
 785 004a 5B68     		ldr	r3, [r3, #4]
 786 004c 9A42     		cmp	r2, r3
 787 004e 03D3     		bcc	.L48
 788              		.loc 1 346 0
 789 0050 039B     		ldr	r3, [sp, #12]
 790 0052 1A68     		ldr	r2, [r3]
 791 0054 039B     		ldr	r3, [sp, #12]
 792 0056 DA60     		str	r2, [r3, #12]
 793              	.L48:
 794              		.loc 1 347 0
 795 0058 039B     		ldr	r3, [sp, #12]
 796 005a 1C33     		adds	r3, r3, #28
 797 005c 1846     		mov	r0, r3
 798 005e FFF7FEFF 		bl	chSemSignalI
 799              		.loc 1 348 0
 800 0062 FFF7FEFF 		bl	chSchRescheduleS
 801              	.L47:
 802              		.loc 1 350 0
 803 0066 059B     		ldr	r3, [sp, #20]
 804              		.loc 1 351 0
 805 0068 1846     		mov	r0, r3
 806 006a 07B0     		add	sp, sp, #28
 807              		@ sp needed
 808 006c 5DF804FB 		ldr	pc, [sp], #4
 809              	.L51:
 810              		.align	2
 811              	.L50:
 812 0070 68000000 		.word	.LC6
 813              		.cfi_endproc
 814              	.LFE16:
 815              		.size	chMBFetchS, .-chMBFetchS
 816 0074 AFF30080 		.section	.rodata
 816      AFF30080 
 816      AFF30080 
 817 0077 00       		.align	2
 818              	.LC7:
 819 0078 2263684D 		.ascii	"\"chMBFetchI\"()\000"
 819      42466574 
 819      63684922 
ARM GAS  /home/pauba/tmp/ccTJAxZO.s 			page 16


 819      282900
 820 0087 00       		.section	.text.chMBFetchI,"ax",%progbits
 821              		.align	2
 822              		.p2align 4,,15
 823              		.global	chMBFetchI
 824              		.thumb
 825              		.thumb_func
 826              		.type	chMBFetchI, %function
 827              	chMBFetchI:
 828              	.LFB17:
 829              		.loc 1 367 0
 830              		.cfi_startproc
 831              		@ args = 0, pretend = 0, frame = 8
 832              		@ frame_needed = 0, uses_anonymous_args = 0
 833 0000 00B5     		push	{lr}
 834              		.cfi_def_cfa_offset 4
 835              		.cfi_offset 14, -4
 836 0002 83B0     		sub	sp, sp, #12
 837              		.cfi_def_cfa_offset 16
 838 0004 0190     		str	r0, [sp, #4]
 839 0006 0091     		str	r1, [sp]
 840              		.loc 1 369 0
 841 0008 FFF7FEFF 		bl	chDbgCheckClassI
 842              		.loc 1 370 0
 843 000c 019B     		ldr	r3, [sp, #4]
 844 000e 002B     		cmp	r3, #0
 845 0010 02D0     		beq	.L53
 846              		.loc 1 370 0 is_stmt 0 discriminator 2
 847 0012 009B     		ldr	r3, [sp]
 848 0014 002B     		cmp	r3, #0
 849 0016 02D1     		bne	.L54
 850              	.L53:
 851              		.loc 1 370 0 discriminator 1
 852 0018 1548     		ldr	r0, .L58
 853 001a FFF7FEFF 		bl	chDbgPanic
 854              	.L54:
 855              		.loc 1 372 0 is_stmt 1
 856 001e 019B     		ldr	r3, [sp, #4]
 857 0020 9B69     		ldr	r3, [r3, #24]
 858 0022 002B     		cmp	r3, #0
 859 0024 02DC     		bgt	.L55
 860              		.loc 1 373 0
 861 0026 4FF0FF33 		mov	r3, #-1
 862 002a 1CE0     		b	.L56
 863              	.L55:
 864              		.loc 1 374 0
 865 002c 019B     		ldr	r3, [sp, #4]
 866 002e 9B69     		ldr	r3, [r3, #24]
 867 0030 5A1E     		subs	r2, r3, #1
 868 0032 019B     		ldr	r3, [sp, #4]
 869 0034 9A61     		str	r2, [r3, #24]
 870              		.loc 1 375 0
 871 0036 019B     		ldr	r3, [sp, #4]
 872 0038 DB68     		ldr	r3, [r3, #12]
 873 003a 191D     		adds	r1, r3, #4
 874 003c 019A     		ldr	r2, [sp, #4]
 875 003e D160     		str	r1, [r2, #12]
ARM GAS  /home/pauba/tmp/ccTJAxZO.s 			page 17


 876 0040 1A68     		ldr	r2, [r3]
 877 0042 009B     		ldr	r3, [sp]
 878 0044 1A60     		str	r2, [r3]
 879              		.loc 1 376 0
 880 0046 019B     		ldr	r3, [sp, #4]
 881 0048 DA68     		ldr	r2, [r3, #12]
 882 004a 019B     		ldr	r3, [sp, #4]
 883 004c 5B68     		ldr	r3, [r3, #4]
 884 004e 9A42     		cmp	r2, r3
 885 0050 03D3     		bcc	.L57
 886              		.loc 1 377 0
 887 0052 019B     		ldr	r3, [sp, #4]
 888 0054 1A68     		ldr	r2, [r3]
 889 0056 019B     		ldr	r3, [sp, #4]
 890 0058 DA60     		str	r2, [r3, #12]
 891              	.L57:
 892              		.loc 1 378 0
 893 005a 019B     		ldr	r3, [sp, #4]
 894 005c 1C33     		adds	r3, r3, #28
 895 005e 1846     		mov	r0, r3
 896 0060 FFF7FEFF 		bl	chSemSignalI
 897              		.loc 1 379 0
 898 0064 0023     		movs	r3, #0
 899              	.L56:
 900              		.loc 1 380 0
 901 0066 1846     		mov	r0, r3
 902 0068 03B0     		add	sp, sp, #12
 903              		@ sp needed
 904 006a 5DF804FB 		ldr	pc, [sp], #4
 905              	.L59:
 906 006e 00BF     		.align	2
 907              	.L58:
 908 0070 78000000 		.word	.LC7
 909              		.cfi_endproc
 910              	.LFE17:
 911              		.size	chMBFetchI, .-chMBFetchI
 912 0074 AFF30080 		.text
 912      AFF30080 
 912      AFF30080 
 913              	.Letext0:
 914              		.file 2 "/opt/gcc-arm-none-eabi-4_8-2014q1/arm-none-eabi/include/machine/_default_types.h"
 915              		.file 3 "/opt/gcc-arm-none-eabi-4_8-2014q1/arm-none-eabi/include/stdint.h"
 916              		.file 4 "/home/pauba/ChibiOS-RT/os/ports/GCC/ARMCMx/chtypes.h"
 917              		.file 5 "/home/pauba/ChibiOS-RT/os/kernel/include/chlists.h"
 918              		.file 6 "/home/pauba/ChibiOS-RT/os/kernel/include/chthreads.h"
 919              		.file 7 "/home/pauba/ChibiOS-RT/os/ports/GCC/ARMCMx/chcore_v7m.h"
 920              		.file 8 "/home/pauba/ChibiOS-RT/os/kernel/include/chsem.h"
 921              		.file 9 "/home/pauba/ChibiOS-RT/os/kernel/include/chmtx.h"
 922              		.file 10 "/home/pauba/ChibiOS-RT/os/kernel/include/chmboxes.h"