ARM GAS  /home/pauba/tmp/cc74bQ37.s 			page 1


   1              		.syntax unified
   2              		.cpu cortex-m4
   3              		.fpu softvfp
   4              		.eabi_attribute 20, 1
   5              		.eabi_attribute 21, 1
   6              		.eabi_attribute 23, 3
   7              		.eabi_attribute 24, 1
   8              		.eabi_attribute 25, 1
   9              		.eabi_attribute 26, 1
  10              		.eabi_attribute 30, 6
  11              		.eabi_attribute 34, 1
  12              		.eabi_attribute 18, 4
  13              		.thumb
  14              		.file	"chmemcore.c"
  15              		.text
  16              	.Ltext0:
  17              		.cfi_sections	.debug_frame
  18              		.section	.bss.nextmem,"aw",%nobits
  19              		.align	2
  20              		.type	nextmem, %object
  21              		.size	nextmem, 4
  22              	nextmem:
  23 0000 00000000 		.space	4
  24              		.section	.bss.endmem,"aw",%nobits
  25              		.align	2
  26              		.type	endmem, %object
  27              		.size	endmem, 4
  28              	endmem:
  29 0000 00000000 		.space	4
  30              		.section	.text._core_init,"ax",%progbits
  31              		.align	2
  32              		.p2align 4,,15
  33              		.global	_core_init
  34              		.thumb
  35              		.thumb_func
  36              		.type	_core_init, %function
  37              	_core_init:
  38              	.LFB7:
  39              		.file 1 "/home/pauba/ChibiOS-RT/os/kernel/src/chmemcore.c"
  40              		.loc 1 66 0
  41              		.cfi_startproc
  42              		@ args = 0, pretend = 0, frame = 0
  43              		@ frame_needed = 0, uses_anonymous_args = 0
  44              		@ link register save eliminated.
  45              		.loc 1 70 0
  46 0000 064B     		ldr	r3, .L2
  47 0002 0733     		adds	r3, r3, #7
  48 0004 23F00703 		bic	r3, r3, #7
  49 0008 1A46     		mov	r2, r3
  50 000a 054B     		ldr	r3, .L2+4
  51 000c 1A60     		str	r2, [r3]
  52              		.loc 1 71 0
  53 000e 054B     		ldr	r3, .L2+8
  54 0010 23F00703 		bic	r3, r3, #7
  55 0014 1A46     		mov	r2, r3
  56 0016 044B     		ldr	r3, .L2+12
  57 0018 1A60     		str	r2, [r3]
ARM GAS  /home/pauba/tmp/cc74bQ37.s 			page 2


  58              		.loc 1 77 0
  59 001a 7047     		bx	lr
  60              	.L3:
  61              		.align	2
  62              	.L2:
  63 001c 00000000 		.word	__heap_base__
  64 0020 00000000 		.word	nextmem
  65 0024 00000000 		.word	__heap_end__
  66 0028 00000000 		.word	endmem
  67              		.cfi_endproc
  68              	.LFE7:
  69              		.size	_core_init, .-_core_init
  70 002c AFF30080 		.section	.text.chCoreAlloc,"ax",%progbits
  71              		.align	2
  72              		.p2align 4,,15
  73              		.global	chCoreAlloc
  74              		.thumb
  75              		.thumb_func
  76              		.type	chCoreAlloc, %function
  77              	chCoreAlloc:
  78              	.LFB8:
  79              		.loc 1 91 0
  80              		.cfi_startproc
  81              		@ args = 0, pretend = 0, frame = 16
  82              		@ frame_needed = 0, uses_anonymous_args = 0
  83 0000 00B5     		push	{lr}
  84              		.cfi_def_cfa_offset 4
  85              		.cfi_offset 14, -4
  86 0002 85B0     		sub	sp, sp, #20
  87              		.cfi_def_cfa_offset 24
  88 0004 0190     		str	r0, [sp, #4]
  89              	.LBB2:
  90              		.loc 1 94 0
  91 0006 2023     		movs	r3, #32
  92              	@ 94 "/home/pauba/ChibiOS-RT/os/kernel/src/chmemcore.c" 1
  93 0008 83F31188 		msr     BASEPRI, r3
  94              	@ 0 "" 2
  95              		.thumb
  96              	.LBE2:
  97 000c FFF7FEFF 		bl	dbg_check_lock
  98              		.loc 1 95 0
  99 0010 0198     		ldr	r0, [sp, #4]
 100 0012 FFF7FEFF 		bl	chCoreAllocI
 101 0016 0390     		str	r0, [sp, #12]
 102              		.loc 1 96 0
 103 0018 FFF7FEFF 		bl	dbg_check_unlock
 104              	.LBB3:
 105 001c 0023     		movs	r3, #0
 106              	@ 96 "/home/pauba/ChibiOS-RT/os/kernel/src/chmemcore.c" 1
 107 001e 83F31188 		msr     BASEPRI, r3
 108              	@ 0 "" 2
 109              		.thumb
 110              	.LBE3:
 111              		.loc 1 97 0
 112 0022 039B     		ldr	r3, [sp, #12]
 113              		.loc 1 98 0
 114 0024 1846     		mov	r0, r3
ARM GAS  /home/pauba/tmp/cc74bQ37.s 			page 3


 115 0026 05B0     		add	sp, sp, #20
 116              		@ sp needed
 117 0028 5DF804FB 		ldr	pc, [sp], #4
 118              		.cfi_endproc
 119              	.LFE8:
 120              		.size	chCoreAlloc, .-chCoreAlloc
 121 002c AFF30080 		.section	.text.chCoreAllocI,"ax",%progbits
 122              		.align	2
 123              		.p2align 4,,15
 124              		.global	chCoreAllocI
 125              		.thumb
 126              		.thumb_func
 127              		.type	chCoreAllocI, %function
 128              	chCoreAllocI:
 129              	.LFB9:
 130              		.loc 1 112 0
 131              		.cfi_startproc
 132              		@ args = 0, pretend = 0, frame = 16
 133              		@ frame_needed = 0, uses_anonymous_args = 0
 134 0000 00B5     		push	{lr}
 135              		.cfi_def_cfa_offset 4
 136              		.cfi_offset 14, -4
 137 0002 85B0     		sub	sp, sp, #20
 138              		.cfi_def_cfa_offset 24
 139 0004 0190     		str	r0, [sp, #4]
 140              		.loc 1 115 0
 141 0006 FFF7FEFF 		bl	chDbgCheckClassI
 142              		.loc 1 117 0
 143 000a 019B     		ldr	r3, [sp, #4]
 144 000c 0733     		adds	r3, r3, #7
 145 000e 23F00703 		bic	r3, r3, #7
 146 0012 0193     		str	r3, [sp, #4]
 147              		.loc 1 118 0
 148 0014 0C4B     		ldr	r3, .L9
 149 0016 1B68     		ldr	r3, [r3]
 150 0018 1A46     		mov	r2, r3
 151 001a 0C4B     		ldr	r3, .L9+4
 152 001c 1B68     		ldr	r3, [r3]
 153 001e D31A     		subs	r3, r2, r3
 154 0020 1A46     		mov	r2, r3
 155 0022 019B     		ldr	r3, [sp, #4]
 156 0024 9A42     		cmp	r2, r3
 157 0026 01D2     		bcs	.L7
 158              		.loc 1 119 0
 159 0028 0023     		movs	r3, #0
 160 002a 09E0     		b	.L8
 161              	.L7:
 162              		.loc 1 120 0
 163 002c 074B     		ldr	r3, .L9+4
 164 002e 1B68     		ldr	r3, [r3]
 165 0030 0393     		str	r3, [sp, #12]
 166              		.loc 1 121 0
 167 0032 064B     		ldr	r3, .L9+4
 168 0034 1A68     		ldr	r2, [r3]
 169 0036 019B     		ldr	r3, [sp, #4]
 170 0038 1A44     		add	r2, r2, r3
 171 003a 044B     		ldr	r3, .L9+4
ARM GAS  /home/pauba/tmp/cc74bQ37.s 			page 4


 172 003c 1A60     		str	r2, [r3]
 173              		.loc 1 122 0
 174 003e 039B     		ldr	r3, [sp, #12]
 175              	.L8:
 176              		.loc 1 123 0
 177 0040 1846     		mov	r0, r3
 178 0042 05B0     		add	sp, sp, #20
 179              		@ sp needed
 180 0044 5DF804FB 		ldr	pc, [sp], #4
 181              	.L10:
 182              		.align	2
 183              	.L9:
 184 0048 00000000 		.word	endmem
 185 004c 00000000 		.word	nextmem
 186              		.cfi_endproc
 187              	.LFE9:
 188              		.size	chCoreAllocI, .-chCoreAllocI
 189              		.section	.text.chCoreStatus,"ax",%progbits
 190              		.align	2
 191              		.p2align 4,,15
 192              		.global	chCoreStatus
 193              		.thumb
 194              		.thumb_func
 195              		.type	chCoreStatus, %function
 196              	chCoreStatus:
 197              	.LFB10:
 198              		.loc 1 132 0
 199              		.cfi_startproc
 200              		@ args = 0, pretend = 0, frame = 0
 201              		@ frame_needed = 0, uses_anonymous_args = 0
 202              		@ link register save eliminated.
 203              		.loc 1 134 0
 204 0000 034B     		ldr	r3, .L13
 205 0002 1B68     		ldr	r3, [r3]
 206 0004 1A46     		mov	r2, r3
 207 0006 034B     		ldr	r3, .L13+4
 208 0008 1B68     		ldr	r3, [r3]
 209 000a D31A     		subs	r3, r2, r3
 210              		.loc 1 135 0
 211 000c 1846     		mov	r0, r3
 212 000e 7047     		bx	lr
 213              	.L14:
 214              		.align	2
 215              	.L13:
 216 0010 00000000 		.word	endmem
 217 0014 00000000 		.word	nextmem
 218              		.cfi_endproc
 219              	.LFE10:
 220              		.size	chCoreStatus, .-chCoreStatus
 221 0018 AFF30080 		.text
 221      AFF30080 
 222              	.Letext0:
 223              		.file 2 "/opt/gcc-arm-none-eabi-4_8-2014q1/lib/gcc/arm-none-eabi/4.8.3/include/stddef.h"
 224              		.file 3 "/opt/gcc-arm-none-eabi-4_8-2014q1/arm-none-eabi/include/machine/_default_types.h"
 225              		.file 4 "/opt/gcc-arm-none-eabi-4_8-2014q1/arm-none-eabi/include/stdint.h"