ARM GAS  /home/pauba/tmp/ccPH8yKj.s 			page 1


   1              		.syntax unified
   2              		.cpu cortex-m4
   3              		.fpu softvfp
   4              		.eabi_attribute 20, 1
   5              		.eabi_attribute 21, 1
   6              		.eabi_attribute 23, 3
   7              		.eabi_attribute 24, 1
   8              		.eabi_attribute 25, 1
   9              		.eabi_attribute 26, 1
  10              		.eabi_attribute 30, 6
  11              		.eabi_attribute 34, 1
  12              		.eabi_attribute 18, 4
  13              		.thumb
  14              		.file	"chmempools.c"
  15              		.text
  16              	.Ltext0:
  17              		.cfi_sections	.debug_frame
  18              		.section	.rodata
  19              		.align	2
  20              	.LC0:
  21 0000 22636850 		.ascii	"\"chPoolInit\"()\000"
  21      6F6F6C49 
  21      6E697422 
  21      282900
  22              		.section	.text.chPoolInit,"ax",%progbits
  23              		.align	2
  24              		.p2align 4,,15
  25              		.global	chPoolInit
  26              		.thumb
  27              		.thumb_func
  28              		.type	chPoolInit, %function
  29              	chPoolInit:
  30              	.LFB7:
  31              		.file 1 "/home/pauba/ChibiOS-RT/os/kernel/src/chmempools.c"
  32              		.loc 1 62 0
  33              		.cfi_startproc
  34              		@ args = 0, pretend = 0, frame = 16
  35              		@ frame_needed = 0, uses_anonymous_args = 0
  36 0000 00B5     		push	{lr}
  37              		.cfi_def_cfa_offset 4
  38              		.cfi_offset 14, -4
  39 0002 85B0     		sub	sp, sp, #20
  40              		.cfi_def_cfa_offset 24
  41 0004 0390     		str	r0, [sp, #12]
  42 0006 0291     		str	r1, [sp, #8]
  43 0008 0192     		str	r2, [sp, #4]
  44              		.loc 1 64 0
  45 000a 039B     		ldr	r3, [sp, #12]
  46 000c 002B     		cmp	r3, #0
  47 000e 02D0     		beq	.L2
  48              		.loc 1 64 0 is_stmt 0 discriminator 2
  49 0010 029B     		ldr	r3, [sp, #8]
  50 0012 032B     		cmp	r3, #3
  51 0014 02D8     		bhi	.L3
  52              	.L2:
  53              		.loc 1 64 0 discriminator 1
  54 0016 0748     		ldr	r0, .L4
ARM GAS  /home/pauba/tmp/ccPH8yKj.s 			page 2


  55 0018 FFF7FEFF 		bl	chDbgPanic
  56              	.L3:
  57              		.loc 1 66 0 is_stmt 1
  58 001c 039B     		ldr	r3, [sp, #12]
  59 001e 0022     		movs	r2, #0
  60 0020 1A60     		str	r2, [r3]
  61              		.loc 1 67 0
  62 0022 039B     		ldr	r3, [sp, #12]
  63 0024 029A     		ldr	r2, [sp, #8]
  64 0026 5A60     		str	r2, [r3, #4]
  65              		.loc 1 68 0
  66 0028 039B     		ldr	r3, [sp, #12]
  67 002a 019A     		ldr	r2, [sp, #4]
  68 002c 9A60     		str	r2, [r3, #8]
  69              		.loc 1 69 0
  70 002e 05B0     		add	sp, sp, #20
  71              		@ sp needed
  72 0030 5DF804FB 		ldr	pc, [sp], #4
  73              	.L5:
  74              		.align	2
  75              	.L4:
  76 0034 00000000 		.word	.LC0
  77              		.cfi_endproc
  78              	.LFE7:
  79              		.size	chPoolInit, .-chPoolInit
  80 0038 AFF30080 		.section	.rodata
  80      AFF30080 
  81 000f 00       		.align	2
  82              	.LC1:
  83 0010 22636850 		.ascii	"\"chPoolLoadArray\"()\000"
  83      6F6F6C4C 
  83      6F616441 
  83      72726179 
  83      22282900 
  84              		.section	.text.chPoolLoadArray,"ax",%progbits
  85              		.align	2
  86              		.p2align 4,,15
  87              		.global	chPoolLoadArray
  88              		.thumb
  89              		.thumb_func
  90              		.type	chPoolLoadArray, %function
  91              	chPoolLoadArray:
  92              	.LFB8:
  93              		.loc 1 84 0
  94              		.cfi_startproc
  95              		@ args = 0, pretend = 0, frame = 16
  96              		@ frame_needed = 0, uses_anonymous_args = 0
  97 0000 00B5     		push	{lr}
  98              		.cfi_def_cfa_offset 4
  99              		.cfi_offset 14, -4
 100 0002 85B0     		sub	sp, sp, #20
 101              		.cfi_def_cfa_offset 24
 102 0004 0390     		str	r0, [sp, #12]
 103 0006 0291     		str	r1, [sp, #8]
 104 0008 0192     		str	r2, [sp, #4]
 105              		.loc 1 86 0
 106 000a 039B     		ldr	r3, [sp, #12]
ARM GAS  /home/pauba/tmp/ccPH8yKj.s 			page 3


 107 000c 002B     		cmp	r3, #0
 108 000e 02D0     		beq	.L7
 109              		.loc 1 86 0 is_stmt 0 discriminator 2
 110 0010 019B     		ldr	r3, [sp, #4]
 111 0012 002B     		cmp	r3, #0
 112 0014 03D1     		bne	.L8
 113              	.L7:
 114              		.loc 1 86 0 discriminator 1
 115 0016 0B48     		ldr	r0, .L11
 116 0018 FFF7FEFF 		bl	chDbgPanic
 117              		.loc 1 88 0 is_stmt 1 discriminator 1
 118 001c 0CE0     		b	.L9
 119              	.L8:
 120              		.loc 1 88 0 is_stmt 0
 121 001e 0BE0     		b	.L9
 122              	.L10:
 123              		.loc 1 89 0 is_stmt 1
 124 0020 0398     		ldr	r0, [sp, #12]
 125 0022 0299     		ldr	r1, [sp, #8]
 126 0024 FFF7FEFF 		bl	chPoolFree
 127              		.loc 1 90 0
 128 0028 039B     		ldr	r3, [sp, #12]
 129 002a 5B68     		ldr	r3, [r3, #4]
 130 002c 029A     		ldr	r2, [sp, #8]
 131 002e 1344     		add	r3, r3, r2
 132 0030 0293     		str	r3, [sp, #8]
 133              		.loc 1 91 0
 134 0032 019B     		ldr	r3, [sp, #4]
 135 0034 013B     		subs	r3, r3, #1
 136 0036 0193     		str	r3, [sp, #4]
 137              	.L9:
 138              		.loc 1 88 0 discriminator 1
 139 0038 019B     		ldr	r3, [sp, #4]
 140 003a 002B     		cmp	r3, #0
 141 003c F0D1     		bne	.L10
 142              		.loc 1 93 0
 143 003e 05B0     		add	sp, sp, #20
 144              		@ sp needed
 145 0040 5DF804FB 		ldr	pc, [sp], #4
 146              	.L12:
 147              		.align	2
 148              	.L11:
 149 0044 10000000 		.word	.LC1
 150              		.cfi_endproc
 151              	.LFE8:
 152              		.size	chPoolLoadArray, .-chPoolLoadArray
 153 0048 AFF30080 		.section	.rodata
 153      AFF30080 
 154              		.align	2
 155              	.LC2:
 156 0024 22636850 		.ascii	"\"chPoolAllocI\"()\000"
 156      6F6F6C41 
 156      6C6C6F63 
 156      49222829 
 156      00
 157              		.section	.text.chPoolAllocI,"ax",%progbits
 158              		.align	2
ARM GAS  /home/pauba/tmp/ccPH8yKj.s 			page 4


 159              		.p2align 4,,15
 160              		.global	chPoolAllocI
 161              		.thumb
 162              		.thumb_func
 163              		.type	chPoolAllocI, %function
 164              	chPoolAllocI:
 165              	.LFB9:
 166              		.loc 1 105 0
 167              		.cfi_startproc
 168              		@ args = 0, pretend = 0, frame = 16
 169              		@ frame_needed = 0, uses_anonymous_args = 0
 170 0000 00B5     		push	{lr}
 171              		.cfi_def_cfa_offset 4
 172              		.cfi_offset 14, -4
 173 0002 85B0     		sub	sp, sp, #20
 174              		.cfi_def_cfa_offset 24
 175 0004 0190     		str	r0, [sp, #4]
 176              		.loc 1 108 0
 177 0006 FFF7FEFF 		bl	chDbgCheckClassI
 178              		.loc 1 109 0
 179 000a 019B     		ldr	r3, [sp, #4]
 180 000c 002B     		cmp	r3, #0
 181 000e 02D1     		bne	.L14
 182              		.loc 1 109 0 is_stmt 0 discriminator 1
 183 0010 0F48     		ldr	r0, .L18
 184 0012 FFF7FEFF 		bl	chDbgPanic
 185              	.L14:
 186              		.loc 1 111 0 is_stmt 1
 187 0016 019B     		ldr	r3, [sp, #4]
 188 0018 1B68     		ldr	r3, [r3]
 189 001a 0393     		str	r3, [sp, #12]
 190 001c 039B     		ldr	r3, [sp, #12]
 191 001e 002B     		cmp	r3, #0
 192 0020 05D0     		beq	.L15
 193              		.loc 1 112 0
 194 0022 019B     		ldr	r3, [sp, #4]
 195 0024 1B68     		ldr	r3, [r3]
 196 0026 1A68     		ldr	r2, [r3]
 197 0028 019B     		ldr	r3, [sp, #4]
 198 002a 1A60     		str	r2, [r3]
 199 002c 0AE0     		b	.L16
 200              	.L15:
 201              		.loc 1 113 0
 202 002e 019B     		ldr	r3, [sp, #4]
 203 0030 9B68     		ldr	r3, [r3, #8]
 204 0032 002B     		cmp	r3, #0
 205 0034 06D0     		beq	.L16
 206              		.loc 1 114 0
 207 0036 019B     		ldr	r3, [sp, #4]
 208 0038 9B68     		ldr	r3, [r3, #8]
 209 003a 019A     		ldr	r2, [sp, #4]
 210 003c 5268     		ldr	r2, [r2, #4]
 211 003e 1046     		mov	r0, r2
 212 0040 9847     		blx	r3
 213 0042 0390     		str	r0, [sp, #12]
 214              	.L16:
 215              		.loc 1 115 0
ARM GAS  /home/pauba/tmp/ccPH8yKj.s 			page 5


 216 0044 039B     		ldr	r3, [sp, #12]
 217              		.loc 1 116 0
 218 0046 1846     		mov	r0, r3
 219 0048 05B0     		add	sp, sp, #20
 220              		@ sp needed
 221 004a 5DF804FB 		ldr	pc, [sp], #4
 222              	.L19:
 223 004e 00BF     		.align	2
 224              	.L18:
 225 0050 24000000 		.word	.LC2
 226              		.cfi_endproc
 227              	.LFE9:
 228              		.size	chPoolAllocI, .-chPoolAllocI
 229 0054 AFF30080 		.section	.text.chPoolAlloc,"ax",%progbits
 229      AFF30080 
 229      AFF30080 
 230              		.align	2
 231              		.p2align 4,,15
 232              		.global	chPoolAlloc
 233              		.thumb
 234              		.thumb_func
 235              		.type	chPoolAlloc, %function
 236              	chPoolAlloc:
 237              	.LFB10:
 238              		.loc 1 128 0
 239              		.cfi_startproc
 240              		@ args = 0, pretend = 0, frame = 16
 241              		@ frame_needed = 0, uses_anonymous_args = 0
 242 0000 00B5     		push	{lr}
 243              		.cfi_def_cfa_offset 4
 244              		.cfi_offset 14, -4
 245 0002 85B0     		sub	sp, sp, #20
 246              		.cfi_def_cfa_offset 24
 247 0004 0190     		str	r0, [sp, #4]
 248              	.LBB2:
 249              		.loc 1 131 0
 250 0006 2023     		movs	r3, #32
 251              	@ 131 "/home/pauba/ChibiOS-RT/os/kernel/src/chmempools.c" 1
 252 0008 83F31188 		msr     BASEPRI, r3
 253              	@ 0 "" 2
 254              		.thumb
 255              	.LBE2:
 256 000c FFF7FEFF 		bl	dbg_check_lock
 257              		.loc 1 132 0
 258 0010 0198     		ldr	r0, [sp, #4]
 259 0012 FFF7FEFF 		bl	chPoolAllocI
 260 0016 0390     		str	r0, [sp, #12]
 261              		.loc 1 133 0
 262 0018 FFF7FEFF 		bl	dbg_check_unlock
 263              	.LBB3:
 264 001c 0023     		movs	r3, #0
 265              	@ 133 "/home/pauba/ChibiOS-RT/os/kernel/src/chmempools.c" 1
 266 001e 83F31188 		msr     BASEPRI, r3
 267              	@ 0 "" 2
 268              		.thumb
 269              	.LBE3:
 270              		.loc 1 134 0
ARM GAS  /home/pauba/tmp/ccPH8yKj.s 			page 6


 271 0022 039B     		ldr	r3, [sp, #12]
 272              		.loc 1 135 0
 273 0024 1846     		mov	r0, r3
 274 0026 05B0     		add	sp, sp, #20
 275              		@ sp needed
 276 0028 5DF804FB 		ldr	pc, [sp], #4
 277              		.cfi_endproc
 278              	.LFE10:
 279              		.size	chPoolAlloc, .-chPoolAlloc
 280 002c AFF30080 		.section	.rodata
 281 0035 000000   		.align	2
 282              	.LC3:
 283 0038 22636850 		.ascii	"\"chPoolFreeI\"()\000"
 283      6F6F6C46 
 283      72656549 
 283      22282900 
 284              		.section	.text.chPoolFreeI,"ax",%progbits
 285              		.align	2
 286              		.p2align 4,,15
 287              		.global	chPoolFreeI
 288              		.thumb
 289              		.thumb_func
 290              		.type	chPoolFreeI, %function
 291              	chPoolFreeI:
 292              	.LFB11:
 293              		.loc 1 149 0
 294              		.cfi_startproc
 295              		@ args = 0, pretend = 0, frame = 16
 296              		@ frame_needed = 0, uses_anonymous_args = 0
 297 0000 00B5     		push	{lr}
 298              		.cfi_def_cfa_offset 4
 299              		.cfi_offset 14, -4
 300 0002 85B0     		sub	sp, sp, #20
 301              		.cfi_def_cfa_offset 24
 302 0004 0190     		str	r0, [sp, #4]
 303 0006 0091     		str	r1, [sp]
 304              		.loc 1 150 0
 305 0008 009B     		ldr	r3, [sp]
 306 000a 0393     		str	r3, [sp, #12]
 307              		.loc 1 152 0
 308 000c FFF7FEFF 		bl	chDbgCheckClassI
 309              		.loc 1 153 0
 310 0010 019B     		ldr	r3, [sp, #4]
 311 0012 002B     		cmp	r3, #0
 312 0014 02D0     		beq	.L23
 313              		.loc 1 153 0 is_stmt 0 discriminator 2
 314 0016 009B     		ldr	r3, [sp]
 315 0018 002B     		cmp	r3, #0
 316 001a 02D1     		bne	.L24
 317              	.L23:
 318              		.loc 1 153 0 discriminator 1
 319 001c 0648     		ldr	r0, .L25
 320 001e FFF7FEFF 		bl	chDbgPanic
 321              	.L24:
 322              		.loc 1 155 0 is_stmt 1
 323 0022 019B     		ldr	r3, [sp, #4]
 324 0024 1A68     		ldr	r2, [r3]
ARM GAS  /home/pauba/tmp/ccPH8yKj.s 			page 7


 325 0026 039B     		ldr	r3, [sp, #12]
 326 0028 1A60     		str	r2, [r3]
 327              		.loc 1 156 0
 328 002a 019B     		ldr	r3, [sp, #4]
 329 002c 039A     		ldr	r2, [sp, #12]
 330 002e 1A60     		str	r2, [r3]
 331              		.loc 1 157 0
 332 0030 05B0     		add	sp, sp, #20
 333              		@ sp needed
 334 0032 5DF804FB 		ldr	pc, [sp], #4
 335              	.L26:
 336 0036 00BF     		.align	2
 337              	.L25:
 338 0038 38000000 		.word	.LC3
 339              		.cfi_endproc
 340              	.LFE11:
 341              		.size	chPoolFreeI, .-chPoolFreeI
 342 003c AFF30080 		.section	.text.chPoolFree,"ax",%progbits
 343              		.align	2
 344              		.p2align 4,,15
 345              		.global	chPoolFree
 346              		.thumb
 347              		.thumb_func
 348              		.type	chPoolFree, %function
 349              	chPoolFree:
 350              	.LFB12:
 351              		.loc 1 171 0
 352              		.cfi_startproc
 353              		@ args = 0, pretend = 0, frame = 8
 354              		@ frame_needed = 0, uses_anonymous_args = 0
 355 0000 00B5     		push	{lr}
 356              		.cfi_def_cfa_offset 4
 357              		.cfi_offset 14, -4
 358 0002 83B0     		sub	sp, sp, #12
 359              		.cfi_def_cfa_offset 16
 360 0004 0190     		str	r0, [sp, #4]
 361 0006 0091     		str	r1, [sp]
 362              	.LBB4:
 363              		.loc 1 173 0
 364 0008 2023     		movs	r3, #32
 365              	@ 173 "/home/pauba/ChibiOS-RT/os/kernel/src/chmempools.c" 1
 366 000a 83F31188 		msr     BASEPRI, r3
 367              	@ 0 "" 2
 368              		.thumb
 369              	.LBE4:
 370 000e FFF7FEFF 		bl	dbg_check_lock
 371              		.loc 1 174 0
 372 0012 0198     		ldr	r0, [sp, #4]
 373 0014 0099     		ldr	r1, [sp]
 374 0016 FFF7FEFF 		bl	chPoolFreeI
 375              		.loc 1 175 0
 376 001a FFF7FEFF 		bl	dbg_check_unlock
 377              	.LBB5:
 378 001e 0023     		movs	r3, #0
 379              	@ 175 "/home/pauba/ChibiOS-RT/os/kernel/src/chmempools.c" 1
 380 0020 83F31188 		msr     BASEPRI, r3
 381              	@ 0 "" 2
ARM GAS  /home/pauba/tmp/ccPH8yKj.s 			page 8


 382              		.thumb
 383              	.LBE5:
 384              		.loc 1 176 0
 385 0024 03B0     		add	sp, sp, #12
 386              		@ sp needed
 387 0026 5DF804FB 		ldr	pc, [sp], #4
 388              		.cfi_endproc
 389              	.LFE12:
 390              		.size	chPoolFree, .-chPoolFree
 391 002a 00BFAFF3 		.text
 391      0080
 392              	.Letext0:
 393              		.file 2 "/opt/gcc-arm-none-eabi-4_8-2014q1/lib/gcc/arm-none-eabi/4.8.3/include/stddef.h"
 394              		.file 3 "/opt/gcc-arm-none-eabi-4_8-2014q1/arm-none-eabi/include/machine/_default_types.h"
 395              		.file 4 "/opt/gcc-arm-none-eabi-4_8-2014q1/arm-none-eabi/include/stdint.h"
 396              		.file 5 "/home/pauba/ChibiOS-RT/os/kernel/include/chmemcore.h"
 397              		.file 6 "/home/pauba/ChibiOS-RT/os/kernel/include/chmempools.h"