ARM GAS  /home/pauba/tmp/cchYN7Hl.s 			page 1


   1              		.syntax unified
   2              		.cpu cortex-m4
   3              		.fpu softvfp
   4              		.eabi_attribute 20, 1
   5              		.eabi_attribute 21, 1
   6              		.eabi_attribute 23, 3
   7              		.eabi_attribute 24, 1
   8              		.eabi_attribute 25, 1
   9              		.eabi_attribute 26, 1
  10              		.eabi_attribute 30, 6
  11              		.eabi_attribute 34, 1
  12              		.eabi_attribute 18, 4
  13              		.thumb
  14              		.file	"chmtx.c"
  15              		.text
  16              	.Ltext0:
  17              		.cfi_sections	.debug_frame
  18              		.section	.text.prio_insert,"ax",%progbits
  19              		.align	2
  20              		.p2align 4,,15
  21              		.thumb
  22              		.thumb_func
  23              		.type	prio_insert, %function
  24              	prio_insert:
  25              	.LFB0:
  26              		.file 1 "/home/pauba/ChibiOS-RT/os/kernel/include/chinline.h"
  27              		.loc 1 41 0
  28              		.cfi_startproc
  29              		@ args = 0, pretend = 0, frame = 16
  30              		@ frame_needed = 0, uses_anonymous_args = 0
  31              		@ link register save eliminated.
  32 0000 84B0     		sub	sp, sp, #16
  33              		.cfi_def_cfa_offset 16
  34 0002 0190     		str	r0, [sp, #4]
  35 0004 0091     		str	r1, [sp]
  36              		.loc 1 43 0
  37 0006 009B     		ldr	r3, [sp]
  38 0008 0393     		str	r3, [sp, #12]
  39              	.L3:
  40              		.loc 1 45 0 discriminator 1
  41 000a 039B     		ldr	r3, [sp, #12]
  42 000c 1B68     		ldr	r3, [r3]
  43 000e 0393     		str	r3, [sp, #12]
  44              		.loc 1 46 0 discriminator 1
  45 0010 039A     		ldr	r2, [sp, #12]
  46 0012 009B     		ldr	r3, [sp]
  47 0014 9A42     		cmp	r2, r3
  48 0016 05D0     		beq	.L2
  49 0018 039B     		ldr	r3, [sp, #12]
  50 001a 9A68     		ldr	r2, [r3, #8]
  51 001c 019B     		ldr	r3, [sp, #4]
  52 001e 9B68     		ldr	r3, [r3, #8]
  53 0020 9A42     		cmp	r2, r3
  54 0022 F2D2     		bcs	.L3
  55              	.L2:
  56              		.loc 1 47 0
  57 0024 019B     		ldr	r3, [sp, #4]
ARM GAS  /home/pauba/tmp/cchYN7Hl.s 			page 2


  58 0026 039A     		ldr	r2, [sp, #12]
  59 0028 1A60     		str	r2, [r3]
  60              		.loc 1 48 0
  61 002a 039B     		ldr	r3, [sp, #12]
  62 002c 5A68     		ldr	r2, [r3, #4]
  63 002e 019B     		ldr	r3, [sp, #4]
  64 0030 5A60     		str	r2, [r3, #4]
  65              		.loc 1 49 0
  66 0032 019B     		ldr	r3, [sp, #4]
  67 0034 5B68     		ldr	r3, [r3, #4]
  68 0036 039A     		ldr	r2, [sp, #12]
  69 0038 0199     		ldr	r1, [sp, #4]
  70 003a 5160     		str	r1, [r2, #4]
  71 003c 039A     		ldr	r2, [sp, #12]
  72 003e 5268     		ldr	r2, [r2, #4]
  73 0040 1A60     		str	r2, [r3]
  74              		.loc 1 50 0
  75 0042 04B0     		add	sp, sp, #16
  76              		@ sp needed
  77 0044 7047     		bx	lr
  78              		.cfi_endproc
  79              	.LFE0:
  80              		.size	prio_insert, .-prio_insert
  81 0046 00BFAFF3 		.section	.text.fifo_remove,"ax",%progbits
  81      0080AFF3 
  81      0080
  82              		.align	2
  83              		.p2align 4,,15
  84              		.thumb
  85              		.thumb_func
  86              		.type	fifo_remove, %function
  87              	fifo_remove:
  88              	.LFB2:
  89              		.loc 1 59 0
  90              		.cfi_startproc
  91              		@ args = 0, pretend = 0, frame = 16
  92              		@ frame_needed = 0, uses_anonymous_args = 0
  93              		@ link register save eliminated.
  94 0000 84B0     		sub	sp, sp, #16
  95              		.cfi_def_cfa_offset 16
  96 0002 0190     		str	r0, [sp, #4]
  97              		.loc 1 60 0
  98 0004 019B     		ldr	r3, [sp, #4]
  99 0006 1B68     		ldr	r3, [r3]
 100 0008 0393     		str	r3, [sp, #12]
 101              		.loc 1 62 0
 102 000a 039B     		ldr	r3, [sp, #12]
 103 000c 1A68     		ldr	r2, [r3]
 104 000e 019B     		ldr	r3, [sp, #4]
 105 0010 1A60     		str	r2, [r3]
 106 0012 019B     		ldr	r3, [sp, #4]
 107 0014 1B68     		ldr	r3, [r3]
 108 0016 019A     		ldr	r2, [sp, #4]
 109 0018 5A60     		str	r2, [r3, #4]
 110              		.loc 1 63 0
 111 001a 039B     		ldr	r3, [sp, #12]
 112              		.loc 1 64 0
ARM GAS  /home/pauba/tmp/cchYN7Hl.s 			page 3


 113 001c 1846     		mov	r0, r3
 114 001e 04B0     		add	sp, sp, #16
 115              		@ sp needed
 116 0020 7047     		bx	lr
 117              		.cfi_endproc
 118              	.LFE2:
 119              		.size	fifo_remove, .-fifo_remove
 120 0022 00BFAFF3 		.section	.text.dequeue,"ax",%progbits
 120      0080AFF3 
 120      0080AFF3 
 120      0080
 121              		.align	2
 122              		.p2align 4,,15
 123              		.thumb
 124              		.thumb_func
 125              		.type	dequeue, %function
 126              	dequeue:
 127              	.LFB4:
 128              		.loc 1 73 0
 129              		.cfi_startproc
 130              		@ args = 0, pretend = 0, frame = 8
 131              		@ frame_needed = 0, uses_anonymous_args = 0
 132              		@ link register save eliminated.
 133 0000 82B0     		sub	sp, sp, #8
 134              		.cfi_def_cfa_offset 8
 135 0002 0190     		str	r0, [sp, #4]
 136              		.loc 1 75 0
 137 0004 019B     		ldr	r3, [sp, #4]
 138 0006 5B68     		ldr	r3, [r3, #4]
 139 0008 019A     		ldr	r2, [sp, #4]
 140 000a 1268     		ldr	r2, [r2]
 141 000c 1A60     		str	r2, [r3]
 142              		.loc 1 76 0
 143 000e 019B     		ldr	r3, [sp, #4]
 144 0010 1B68     		ldr	r3, [r3]
 145 0012 019A     		ldr	r2, [sp, #4]
 146 0014 5268     		ldr	r2, [r2, #4]
 147 0016 5A60     		str	r2, [r3, #4]
 148              		.loc 1 77 0
 149 0018 019B     		ldr	r3, [sp, #4]
 150              		.loc 1 78 0
 151 001a 1846     		mov	r0, r3
 152 001c 02B0     		add	sp, sp, #8
 153              		@ sp needed
 154 001e 7047     		bx	lr
 155              		.cfi_endproc
 156              	.LFE4:
 157              		.size	dequeue, .-dequeue
 158              		.section	.rodata
 159              		.align	2
 160              	.LC0:
 161 0000 2263684D 		.ascii	"\"chMtxInit\"()\000"
 161      7478496E 
 161      69742228 
 161      2900
 162              		.section	.text.chMtxInit,"ax",%progbits
 163              		.align	2
ARM GAS  /home/pauba/tmp/cchYN7Hl.s 			page 4


 164              		.p2align 4,,15
 165              		.global	chMtxInit
 166              		.thumb
 167              		.thumb_func
 168              		.type	chMtxInit, %function
 169              	chMtxInit:
 170              	.LFB7:
 171              		.file 2 "/home/pauba/ChibiOS-RT/os/kernel/src/chmtx.c"
 172              		.loc 2 86 0
 173              		.cfi_startproc
 174              		@ args = 0, pretend = 0, frame = 8
 175              		@ frame_needed = 0, uses_anonymous_args = 0
 176 0000 00B5     		push	{lr}
 177              		.cfi_def_cfa_offset 4
 178              		.cfi_offset 14, -4
 179 0002 83B0     		sub	sp, sp, #12
 180              		.cfi_def_cfa_offset 16
 181 0004 0190     		str	r0, [sp, #4]
 182              		.loc 2 88 0
 183 0006 019B     		ldr	r3, [sp, #4]
 184 0008 002B     		cmp	r3, #0
 185 000a 02D1     		bne	.L9
 186              		.loc 2 88 0 is_stmt 0 discriminator 1
 187 000c 0748     		ldr	r0, .L10
 188 000e FFF7FEFF 		bl	chDbgPanic
 189              	.L9:
 190              		.loc 2 90 0 is_stmt 1
 191 0012 019A     		ldr	r2, [sp, #4]
 192 0014 019B     		ldr	r3, [sp, #4]
 193 0016 5A60     		str	r2, [r3, #4]
 194 0018 019B     		ldr	r3, [sp, #4]
 195 001a 5A68     		ldr	r2, [r3, #4]
 196 001c 019B     		ldr	r3, [sp, #4]
 197 001e 1A60     		str	r2, [r3]
 198              		.loc 2 91 0
 199 0020 019B     		ldr	r3, [sp, #4]
 200 0022 0022     		movs	r2, #0
 201 0024 9A60     		str	r2, [r3, #8]
 202              		.loc 2 92 0
 203 0026 03B0     		add	sp, sp, #12
 204              		@ sp needed
 205 0028 5DF804FB 		ldr	pc, [sp], #4
 206              	.L11:
 207              		.align	2
 208              	.L10:
 209 002c 00000000 		.word	.LC0
 210              		.cfi_endproc
 211              	.LFE7:
 212              		.size	chMtxInit, .-chMtxInit
 213              		.section	.text.chMtxLock,"ax",%progbits
 214              		.align	2
 215              		.p2align 4,,15
 216              		.global	chMtxLock
 217              		.thumb
 218              		.thumb_func
 219              		.type	chMtxLock, %function
 220              	chMtxLock:
ARM GAS  /home/pauba/tmp/cchYN7Hl.s 			page 5


 221              	.LFB8:
 222              		.loc 2 103 0
 223              		.cfi_startproc
 224              		@ args = 0, pretend = 0, frame = 8
 225              		@ frame_needed = 0, uses_anonymous_args = 0
 226 0000 00B5     		push	{lr}
 227              		.cfi_def_cfa_offset 4
 228              		.cfi_offset 14, -4
 229 0002 83B0     		sub	sp, sp, #12
 230              		.cfi_def_cfa_offset 16
 231 0004 0190     		str	r0, [sp, #4]
 232              	.LBB2:
 233              		.loc 2 105 0
 234 0006 2023     		movs	r3, #32
 235              	@ 105 "/home/pauba/ChibiOS-RT/os/kernel/src/chmtx.c" 1
 236 0008 83F31188 		msr     BASEPRI, r3
 237              	@ 0 "" 2
 238              		.thumb
 239              	.LBE2:
 240 000c FFF7FEFF 		bl	dbg_check_lock
 241              		.loc 2 107 0
 242 0010 0198     		ldr	r0, [sp, #4]
 243 0012 FFF7FEFF 		bl	chMtxLockS
 244              		.loc 2 109 0
 245 0016 FFF7FEFF 		bl	dbg_check_unlock
 246              	.LBB3:
 247 001a 0023     		movs	r3, #0
 248              	@ 109 "/home/pauba/ChibiOS-RT/os/kernel/src/chmtx.c" 1
 249 001c 83F31188 		msr     BASEPRI, r3
 250              	@ 0 "" 2
 251              		.thumb
 252              	.LBE3:
 253              		.loc 2 110 0
 254 0020 03B0     		add	sp, sp, #12
 255              		@ sp needed
 256 0022 5DF804FB 		ldr	pc, [sp], #4
 257              		.cfi_endproc
 258              	.LFE8:
 259              		.size	chMtxLock, .-chMtxLock
 260 0026 00BFAFF3 		.section	.rodata
 260      0080AFF3 
 260      0080
 261 000e 0000     		.align	2
 262              	.LC1:
 263 0010 2263684D 		.ascii	"\"chMtxLockS\"()\000"
 263      74784C6F 
 263      636B5322 
 263      282900
 264 001f 00       		.align	2
 265              	.LC2:
 266 0020 63684D74 		.ascii	"chMtxLockS(), #1\000"
 266      784C6F63 
 266      6B532829 
 266      2C202331 
 266      00
 267 0031 000000   		.align	2
 268              	.LC3:
ARM GAS  /home/pauba/tmp/cchYN7Hl.s 			page 6


 269 0034 63684D74 		.ascii	"chMtxLockS(), #2\000"
 269      784C6F63 
 269      6B532829 
 269      2C202332 
 269      00
 270              		.section	.text.chMtxLockS,"ax",%progbits
 271              		.align	2
 272              		.p2align 4,,15
 273              		.global	chMtxLockS
 274              		.thumb
 275              		.thumb_func
 276              		.type	chMtxLockS, %function
 277              	chMtxLockS:
 278              	.LFB9:
 279              		.loc 2 121 0
 280              		.cfi_startproc
 281              		@ args = 0, pretend = 0, frame = 16
 282              		@ frame_needed = 0, uses_anonymous_args = 0
 283 0000 00B5     		push	{lr}
 284              		.cfi_def_cfa_offset 4
 285              		.cfi_offset 14, -4
 286 0002 85B0     		sub	sp, sp, #20
 287              		.cfi_def_cfa_offset 24
 288 0004 0190     		str	r0, [sp, #4]
 289              		.loc 2 122 0
 290 0006 3C4B     		ldr	r3, .L26
 291 0008 9B69     		ldr	r3, [r3, #24]
 292 000a 0293     		str	r3, [sp, #8]
 293              		.loc 2 124 0
 294 000c FFF7FEFF 		bl	chDbgCheckClassS
 295              		.loc 2 125 0
 296 0010 019B     		ldr	r3, [sp, #4]
 297 0012 002B     		cmp	r3, #0
 298 0014 02D1     		bne	.L14
 299              		.loc 2 125 0 is_stmt 0 discriminator 1
 300 0016 3948     		ldr	r0, .L26+4
 301 0018 FFF7FEFF 		bl	chDbgPanic
 302              	.L14:
 303              		.loc 2 128 0 is_stmt 1
 304 001c 019B     		ldr	r3, [sp, #4]
 305 001e 9B68     		ldr	r3, [r3, #8]
 306 0020 002B     		cmp	r3, #0
 307 0022 5BD0     		beq	.L15
 308              	.LBB4:
 309              		.loc 2 132 0
 310 0024 019B     		ldr	r3, [sp, #4]
 311 0026 9B68     		ldr	r3, [r3, #8]
 312 0028 0393     		str	r3, [sp, #12]
 313              		.loc 2 135 0
 314 002a 34E0     		b	.L16
 315              	.L22:
 316              		.loc 2 137 0
 317 002c 029B     		ldr	r3, [sp, #8]
 318 002e 9A68     		ldr	r2, [r3, #8]
 319 0030 039B     		ldr	r3, [sp, #12]
 320 0032 9A60     		str	r2, [r3, #8]
 321              		.loc 2 139 0
ARM GAS  /home/pauba/tmp/cchYN7Hl.s 			page 7


 322 0034 039B     		ldr	r3, [sp, #12]
 323 0036 93F82030 		ldrb	r3, [r3, #32]	@ zero_extendqisi2
 324 003a 042B     		cmp	r3, #4
 325 003c 04D0     		beq	.L18
 326 003e 052B     		cmp	r3, #5
 327 0040 11D0     		beq	.L19
 328 0042 002B     		cmp	r3, #0
 329 0044 1AD0     		beq	.L20
 330              		.loc 2 170 0
 331 0046 2CE0     		b	.L21
 332              	.L18:
 333              		.loc 2 142 0
 334 0048 0398     		ldr	r0, [sp, #12]
 335 004a FFF7FEFF 		bl	dequeue
 336 004e 0246     		mov	r2, r0
 337 0050 039B     		ldr	r3, [sp, #12]
 338 0052 9B6A     		ldr	r3, [r3, #40]
 339 0054 1046     		mov	r0, r2
 340 0056 1946     		mov	r1, r3
 341 0058 FFF7FEFF 		bl	prio_insert
 342              		.loc 2 143 0
 343 005c 039B     		ldr	r3, [sp, #12]
 344 005e 9B6A     		ldr	r3, [r3, #40]
 345 0060 9B68     		ldr	r3, [r3, #8]
 346 0062 0393     		str	r3, [sp, #12]
 347              		.loc 2 144 0
 348 0064 17E0     		b	.L16
 349              	.L19:
 350              		.loc 2 158 0
 351 0066 0398     		ldr	r0, [sp, #12]
 352 0068 FFF7FEFF 		bl	dequeue
 353 006c 0246     		mov	r2, r0
 354 006e 039B     		ldr	r3, [sp, #12]
 355 0070 9B6A     		ldr	r3, [r3, #40]
 356 0072 1046     		mov	r0, r2
 357 0074 1946     		mov	r1, r3
 358 0076 FFF7FEFF 		bl	prio_insert
 359              		.loc 2 159 0
 360 007a 0BE0     		b	.L17
 361              	.L20:
 362              		.loc 2 164 0
 363 007c 039B     		ldr	r3, [sp, #12]
 364 007e 0122     		movs	r2, #1
 365 0080 83F82020 		strb	r2, [r3, #32]
 366              		.loc 2 167 0
 367 0084 0398     		ldr	r0, [sp, #12]
 368 0086 FFF7FEFF 		bl	dequeue
 369 008a 0346     		mov	r3, r0
 370 008c 1846     		mov	r0, r3
 371 008e FFF7FEFF 		bl	chSchReadyI
 372              		.loc 2 168 0
 373 0092 00BF     		nop
 374              	.L17:
 375              		.loc 2 170 0
 376 0094 05E0     		b	.L21
 377              	.L16:
 378              		.loc 2 135 0 discriminator 1
ARM GAS  /home/pauba/tmp/cchYN7Hl.s 			page 8


 379 0096 039B     		ldr	r3, [sp, #12]
 380 0098 9A68     		ldr	r2, [r3, #8]
 381 009a 029B     		ldr	r3, [sp, #8]
 382 009c 9B68     		ldr	r3, [r3, #8]
 383 009e 9A42     		cmp	r2, r3
 384 00a0 C4D3     		bcc	.L22
 385              	.L21:
 386              		.loc 2 173 0
 387 00a2 019B     		ldr	r3, [sp, #4]
 388 00a4 0298     		ldr	r0, [sp, #8]
 389 00a6 1946     		mov	r1, r3
 390 00a8 FFF7FEFF 		bl	prio_insert
 391              		.loc 2 174 0
 392 00ac 029B     		ldr	r3, [sp, #8]
 393 00ae 019A     		ldr	r2, [sp, #4]
 394 00b0 9A62     		str	r2, [r3, #40]
 395              		.loc 2 175 0
 396 00b2 0420     		movs	r0, #4
 397 00b4 FFF7FEFF 		bl	chSchGoSleepS
 398              		.loc 2 178 0
 399 00b8 019B     		ldr	r3, [sp, #4]
 400 00ba 9A68     		ldr	r2, [r3, #8]
 401 00bc 029B     		ldr	r3, [sp, #8]
 402 00be 9A42     		cmp	r2, r3
 403 00c0 02D0     		beq	.L23
 404              		.loc 2 178 0 is_stmt 0 discriminator 1
 405 00c2 0F48     		ldr	r0, .L26+8
 406 00c4 FFF7FEFF 		bl	chDbgPanic
 407              	.L23:
 408              		.loc 2 179 0 is_stmt 1
 409 00c8 029B     		ldr	r3, [sp, #8]
 410 00ca 1A6C     		ldr	r2, [r3, #64]
 411 00cc 019B     		ldr	r3, [sp, #4]
 412 00ce 9A42     		cmp	r2, r3
 413 00d0 03D0     		beq	.L24
 414              		.loc 2 179 0 is_stmt 0 discriminator 1
 415 00d2 0C48     		ldr	r0, .L26+12
 416 00d4 FFF7FEFF 		bl	chDbgPanic
 417              	.LBE4:
 418 00d8 0AE0     		b	.L13
 419              	.L24:
 420 00da 09E0     		b	.L13
 421              	.L15:
 422              		.loc 2 183 0 is_stmt 1
 423 00dc 019B     		ldr	r3, [sp, #4]
 424 00de 029A     		ldr	r2, [sp, #8]
 425 00e0 9A60     		str	r2, [r3, #8]
 426              		.loc 2 184 0
 427 00e2 029B     		ldr	r3, [sp, #8]
 428 00e4 1A6C     		ldr	r2, [r3, #64]
 429 00e6 019B     		ldr	r3, [sp, #4]
 430 00e8 DA60     		str	r2, [r3, #12]
 431              		.loc 2 185 0
 432 00ea 029B     		ldr	r3, [sp, #8]
 433 00ec 019A     		ldr	r2, [sp, #4]
 434 00ee 1A64     		str	r2, [r3, #64]
 435              	.L13:
ARM GAS  /home/pauba/tmp/cchYN7Hl.s 			page 9


 436              		.loc 2 187 0
 437 00f0 05B0     		add	sp, sp, #20
 438              		@ sp needed
 439 00f2 5DF804FB 		ldr	pc, [sp], #4
 440              	.L27:
 441 00f6 00BF     		.align	2
 442              	.L26:
 443 00f8 00000000 		.word	rlist
 444 00fc 10000000 		.word	.LC1
 445 0100 20000000 		.word	.LC2
 446 0104 34000000 		.word	.LC3
 447              		.cfi_endproc
 448              	.LFE9:
 449              		.size	chMtxLockS, .-chMtxLockS
 450 0108 AFF30080 		.section	.text.chMtxTryLock,"ax",%progbits
 450      AFF30080 
 451              		.align	2
 452              		.p2align 4,,15
 453              		.global	chMtxTryLock
 454              		.thumb
 455              		.thumb_func
 456              		.type	chMtxTryLock, %function
 457              	chMtxTryLock:
 458              	.LFB10:
 459              		.loc 2 206 0
 460              		.cfi_startproc
 461              		@ args = 0, pretend = 0, frame = 16
 462              		@ frame_needed = 0, uses_anonymous_args = 0
 463 0000 00B5     		push	{lr}
 464              		.cfi_def_cfa_offset 4
 465              		.cfi_offset 14, -4
 466 0002 85B0     		sub	sp, sp, #20
 467              		.cfi_def_cfa_offset 24
 468 0004 0190     		str	r0, [sp, #4]
 469              	.LBB5:
 470              		.loc 2 209 0
 471 0006 2023     		movs	r3, #32
 472              	@ 209 "/home/pauba/ChibiOS-RT/os/kernel/src/chmtx.c" 1
 473 0008 83F31188 		msr     BASEPRI, r3
 474              	@ 0 "" 2
 475              		.thumb
 476              	.LBE5:
 477 000c FFF7FEFF 		bl	dbg_check_lock
 478              		.loc 2 211 0
 479 0010 0198     		ldr	r0, [sp, #4]
 480 0012 FFF7FEFF 		bl	chMtxTryLockS
 481 0016 0346     		mov	r3, r0
 482 0018 8DF80F30 		strb	r3, [sp, #15]
 483              		.loc 2 213 0
 484 001c FFF7FEFF 		bl	dbg_check_unlock
 485              	.LBB6:
 486 0020 0023     		movs	r3, #0
 487              	@ 213 "/home/pauba/ChibiOS-RT/os/kernel/src/chmtx.c" 1
 488 0022 83F31188 		msr     BASEPRI, r3
 489              	@ 0 "" 2
 490              		.thumb
 491              	.LBE6:
ARM GAS  /home/pauba/tmp/cchYN7Hl.s 			page 10


 492              		.loc 2 214 0
 493 0026 9DF80F30 		ldrb	r3, [sp, #15]	@ zero_extendqisi2
 494              		.loc 2 215 0
 495 002a 1846     		mov	r0, r3
 496 002c 05B0     		add	sp, sp, #20
 497              		@ sp needed
 498 002e 5DF804FB 		ldr	pc, [sp], #4
 499              		.cfi_endproc
 500              	.LFE10:
 501              		.size	chMtxTryLock, .-chMtxTryLock
 502 0032 00BFAFF3 		.section	.rodata
 502      0080AFF3 
 502      0080AFF3 
 502      0080
 503 0045 000000   		.align	2
 504              	.LC4:
 505 0048 2263684D 		.ascii	"\"chMtxTryLockS\"()\000"
 505      74785472 
 505      794C6F63 
 505      6B532228 
 505      2900
 506              		.section	.text.chMtxTryLockS,"ax",%progbits
 507              		.align	2
 508              		.p2align 4,,15
 509              		.global	chMtxTryLockS
 510              		.thumb
 511              		.thumb_func
 512              		.type	chMtxTryLockS, %function
 513              	chMtxTryLockS:
 514              	.LFB11:
 515              		.loc 2 234 0
 516              		.cfi_startproc
 517              		@ args = 0, pretend = 0, frame = 8
 518              		@ frame_needed = 0, uses_anonymous_args = 0
 519 0000 00B5     		push	{lr}
 520              		.cfi_def_cfa_offset 4
 521              		.cfi_offset 14, -4
 522 0002 83B0     		sub	sp, sp, #12
 523              		.cfi_def_cfa_offset 16
 524 0004 0190     		str	r0, [sp, #4]
 525              		.loc 2 236 0
 526 0006 FFF7FEFF 		bl	chDbgCheckClassS
 527              		.loc 2 237 0
 528 000a 019B     		ldr	r3, [sp, #4]
 529 000c 002B     		cmp	r3, #0
 530 000e 02D1     		bne	.L31
 531              		.loc 2 237 0 is_stmt 0 discriminator 1
 532 0010 0D48     		ldr	r0, .L34
 533 0012 FFF7FEFF 		bl	chDbgPanic
 534              	.L31:
 535              		.loc 2 239 0 is_stmt 1
 536 0016 019B     		ldr	r3, [sp, #4]
 537 0018 9B68     		ldr	r3, [r3, #8]
 538 001a 002B     		cmp	r3, #0
 539 001c 01D0     		beq	.L32
 540              		.loc 2 240 0
 541 001e 0023     		movs	r3, #0
ARM GAS  /home/pauba/tmp/cchYN7Hl.s 			page 11


 542 0020 0DE0     		b	.L33
 543              	.L32:
 544              		.loc 2 241 0
 545 0022 0A4B     		ldr	r3, .L34+4
 546 0024 9A69     		ldr	r2, [r3, #24]
 547 0026 019B     		ldr	r3, [sp, #4]
 548 0028 9A60     		str	r2, [r3, #8]
 549              		.loc 2 242 0
 550 002a 084B     		ldr	r3, .L34+4
 551 002c 9B69     		ldr	r3, [r3, #24]
 552 002e 1A6C     		ldr	r2, [r3, #64]
 553 0030 019B     		ldr	r3, [sp, #4]
 554 0032 DA60     		str	r2, [r3, #12]
 555              		.loc 2 243 0
 556 0034 054B     		ldr	r3, .L34+4
 557 0036 9B69     		ldr	r3, [r3, #24]
 558 0038 019A     		ldr	r2, [sp, #4]
 559 003a 1A64     		str	r2, [r3, #64]
 560              		.loc 2 244 0
 561 003c 0123     		movs	r3, #1
 562              	.L33:
 563              		.loc 2 245 0
 564 003e 1846     		mov	r0, r3
 565 0040 03B0     		add	sp, sp, #12
 566              		@ sp needed
 567 0042 5DF804FB 		ldr	pc, [sp], #4
 568              	.L35:
 569 0046 00BF     		.align	2
 570              	.L34:
 571 0048 48000000 		.word	.LC4
 572 004c 00000000 		.word	rlist
 573              		.cfi_endproc
 574              	.LFE11:
 575              		.size	chMtxTryLockS, .-chMtxTryLockS
 576              		.section	.rodata
 577 005a 0000     		.align	2
 578              	.LC5:
 579 005c 63684D74 		.ascii	"chMtxUnlock(), #1\000"
 579      78556E6C 
 579      6F636B28 
 579      292C2023 
 579      3100
 580 006e 0000     		.align	2
 581              	.LC6:
 582 0070 63684D74 		.ascii	"chMtxUnlock(), #2\000"
 582      78556E6C 
 582      6F636B28 
 582      292C2023 
 582      3200
 583              		.section	.text.chMtxUnlock,"ax",%progbits
 584              		.align	2
 585              		.p2align 4,,15
 586              		.global	chMtxUnlock
 587              		.thumb
 588              		.thumb_func
 589              		.type	chMtxUnlock, %function
 590              	chMtxUnlock:
ARM GAS  /home/pauba/tmp/cchYN7Hl.s 			page 12


 591              	.LFB12:
 592              		.loc 2 257 0
 593              		.cfi_startproc
 594              		@ args = 0, pretend = 0, frame = 24
 595              		@ frame_needed = 0, uses_anonymous_args = 0
 596 0000 00B5     		push	{lr}
 597              		.cfi_def_cfa_offset 4
 598              		.cfi_offset 14, -4
 599 0002 87B0     		sub	sp, sp, #28
 600              		.cfi_def_cfa_offset 32
 601              		.loc 2 258 0
 602 0004 314B     		ldr	r3, .L45
 603 0006 9B69     		ldr	r3, [r3, #24]
 604 0008 0393     		str	r3, [sp, #12]
 605              	.LBB7:
 606              		.loc 2 261 0
 607 000a 2023     		movs	r3, #32
 608              	@ 261 "/home/pauba/ChibiOS-RT/os/kernel/src/chmtx.c" 1
 609 000c 83F31188 		msr     BASEPRI, r3
 610              	@ 0 "" 2
 611              		.thumb
 612              	.LBE7:
 613 0010 FFF7FEFF 		bl	dbg_check_lock
 614              		.loc 2 262 0
 615 0014 039B     		ldr	r3, [sp, #12]
 616 0016 1B6C     		ldr	r3, [r3, #64]
 617 0018 002B     		cmp	r3, #0
 618 001a 02D1     		bne	.L37
 619              		.loc 2 262 0 is_stmt 0 discriminator 1
 620 001c 2C48     		ldr	r0, .L45+4
 621 001e FFF7FEFF 		bl	chDbgPanic
 622              	.L37:
 623              		.loc 2 265 0 is_stmt 1
 624 0022 039B     		ldr	r3, [sp, #12]
 625 0024 1B6C     		ldr	r3, [r3, #64]
 626 0026 9A68     		ldr	r2, [r3, #8]
 627 0028 039B     		ldr	r3, [sp, #12]
 628 002a 9A42     		cmp	r2, r3
 629 002c 02D0     		beq	.L38
 630              		.loc 2 265 0 is_stmt 0 discriminator 1
 631 002e 2948     		ldr	r0, .L45+8
 632 0030 FFF7FEFF 		bl	chDbgPanic
 633              	.L38:
 634              		.loc 2 270 0 is_stmt 1
 635 0034 039B     		ldr	r3, [sp, #12]
 636 0036 1B6C     		ldr	r3, [r3, #64]
 637 0038 0293     		str	r3, [sp, #8]
 638              		.loc 2 271 0
 639 003a 029B     		ldr	r3, [sp, #8]
 640 003c DA68     		ldr	r2, [r3, #12]
 641 003e 039B     		ldr	r3, [sp, #12]
 642 0040 1A64     		str	r2, [r3, #64]
 643              		.loc 2 273 0
 644 0042 029B     		ldr	r3, [sp, #8]
 645 0044 1A68     		ldr	r2, [r3]
 646 0046 029B     		ldr	r3, [sp, #8]
 647 0048 9A42     		cmp	r2, r3
ARM GAS  /home/pauba/tmp/cchYN7Hl.s 			page 13


 648 004a 32D0     		beq	.L39
 649              	.LBB8:
 650              		.loc 2 278 0
 651 004c 039B     		ldr	r3, [sp, #12]
 652 004e 5B6C     		ldr	r3, [r3, #68]
 653 0050 0493     		str	r3, [sp, #16]
 654              		.loc 2 279 0
 655 0052 039B     		ldr	r3, [sp, #12]
 656 0054 1B6C     		ldr	r3, [r3, #64]
 657 0056 0593     		str	r3, [sp, #20]
 658              		.loc 2 280 0
 659 0058 11E0     		b	.L40
 660              	.L42:
 661              		.loc 2 284 0
 662 005a 059B     		ldr	r3, [sp, #20]
 663 005c 1A68     		ldr	r2, [r3]
 664 005e 059B     		ldr	r3, [sp, #20]
 665 0060 9A42     		cmp	r2, r3
 666 0062 09D0     		beq	.L41
 667              		.loc 2 284 0 is_stmt 0 discriminator 1
 668 0064 059B     		ldr	r3, [sp, #20]
 669 0066 1B68     		ldr	r3, [r3]
 670 0068 9A68     		ldr	r2, [r3, #8]
 671 006a 049B     		ldr	r3, [sp, #16]
 672 006c 9A42     		cmp	r2, r3
 673 006e 03D9     		bls	.L41
 674              		.loc 2 285 0 is_stmt 1
 675 0070 059B     		ldr	r3, [sp, #20]
 676 0072 1B68     		ldr	r3, [r3]
 677 0074 9B68     		ldr	r3, [r3, #8]
 678 0076 0493     		str	r3, [sp, #16]
 679              	.L41:
 680              		.loc 2 286 0
 681 0078 059B     		ldr	r3, [sp, #20]
 682 007a DB68     		ldr	r3, [r3, #12]
 683 007c 0593     		str	r3, [sp, #20]
 684              	.L40:
 685              		.loc 2 280 0 discriminator 1
 686 007e 059B     		ldr	r3, [sp, #20]
 687 0080 002B     		cmp	r3, #0
 688 0082 EAD1     		bne	.L42
 689              		.loc 2 290 0
 690 0084 039B     		ldr	r3, [sp, #12]
 691 0086 049A     		ldr	r2, [sp, #16]
 692 0088 9A60     		str	r2, [r3, #8]
 693              		.loc 2 293 0
 694 008a 029B     		ldr	r3, [sp, #8]
 695 008c 1846     		mov	r0, r3
 696 008e FFF7FEFF 		bl	fifo_remove
 697 0092 0190     		str	r0, [sp, #4]
 698              		.loc 2 294 0
 699 0094 029B     		ldr	r3, [sp, #8]
 700 0096 019A     		ldr	r2, [sp, #4]
 701 0098 9A60     		str	r2, [r3, #8]
 702              		.loc 2 295 0
 703 009a 019B     		ldr	r3, [sp, #4]
 704 009c 1A6C     		ldr	r2, [r3, #64]
ARM GAS  /home/pauba/tmp/cchYN7Hl.s 			page 14


 705 009e 029B     		ldr	r3, [sp, #8]
 706 00a0 DA60     		str	r2, [r3, #12]
 707              		.loc 2 296 0
 708 00a2 019B     		ldr	r3, [sp, #4]
 709 00a4 029A     		ldr	r2, [sp, #8]
 710 00a6 1A64     		str	r2, [r3, #64]
 711              		.loc 2 297 0
 712 00a8 0198     		ldr	r0, [sp, #4]
 713 00aa 0021     		movs	r1, #0
 714 00ac FFF7FEFF 		bl	chSchWakeupS
 715              	.LBE8:
 716 00b0 02E0     		b	.L43
 717              	.L39:
 718              		.loc 2 300 0
 719 00b2 029B     		ldr	r3, [sp, #8]
 720 00b4 0022     		movs	r2, #0
 721 00b6 9A60     		str	r2, [r3, #8]
 722              	.L43:
 723              		.loc 2 301 0
 724 00b8 FFF7FEFF 		bl	dbg_check_unlock
 725              	.LBB9:
 726 00bc 0023     		movs	r3, #0
 727              	@ 301 "/home/pauba/ChibiOS-RT/os/kernel/src/chmtx.c" 1
 728 00be 83F31188 		msr     BASEPRI, r3
 729              	@ 0 "" 2
 730              		.thumb
 731              	.LBE9:
 732              		.loc 2 302 0
 733 00c2 029B     		ldr	r3, [sp, #8]
 734              		.loc 2 303 0
 735 00c4 1846     		mov	r0, r3
 736 00c6 07B0     		add	sp, sp, #28
 737              		@ sp needed
 738 00c8 5DF804FB 		ldr	pc, [sp], #4
 739              	.L46:
 740              		.align	2
 741              	.L45:
 742 00cc 00000000 		.word	rlist
 743 00d0 5C000000 		.word	.LC5
 744 00d4 70000000 		.word	.LC6
 745              		.cfi_endproc
 746              	.LFE12:
 747              		.size	chMtxUnlock, .-chMtxUnlock
 748 00d8 AFF30080 		.section	.rodata
 748      AFF30080 
 749 0082 0000     		.align	2
 750              	.LC7:
 751 0084 63684D74 		.ascii	"chMtxUnlockS(), #1\000"
 751      78556E6C 
 751      6F636B53 
 751      28292C20 
 751      233100
 752 0097 00       		.align	2
 753              	.LC8:
 754 0098 63684D74 		.ascii	"chMtxUnlockS(), #2\000"
 754      78556E6C 
 754      6F636B53 
ARM GAS  /home/pauba/tmp/cchYN7Hl.s 			page 15


 754      28292C20 
 754      233200
 755 00ab 00       		.section	.text.chMtxUnlockS,"ax",%progbits
 756              		.align	2
 757              		.p2align 4,,15
 758              		.global	chMtxUnlockS
 759              		.thumb
 760              		.thumb_func
 761              		.type	chMtxUnlockS, %function
 762              	chMtxUnlockS:
 763              	.LFB13:
 764              		.loc 2 317 0
 765              		.cfi_startproc
 766              		@ args = 0, pretend = 0, frame = 24
 767              		@ frame_needed = 0, uses_anonymous_args = 0
 768 0000 00B5     		push	{lr}
 769              		.cfi_def_cfa_offset 4
 770              		.cfi_offset 14, -4
 771 0002 87B0     		sub	sp, sp, #28
 772              		.cfi_def_cfa_offset 32
 773              		.loc 2 318 0
 774 0004 2D4B     		ldr	r3, .L56
 775 0006 9B69     		ldr	r3, [r3, #24]
 776 0008 0393     		str	r3, [sp, #12]
 777              		.loc 2 321 0
 778 000a FFF7FEFF 		bl	chDbgCheckClassS
 779              		.loc 2 322 0
 780 000e 039B     		ldr	r3, [sp, #12]
 781 0010 1B6C     		ldr	r3, [r3, #64]
 782 0012 002B     		cmp	r3, #0
 783 0014 02D1     		bne	.L48
 784              		.loc 2 322 0 is_stmt 0 discriminator 1
 785 0016 2A48     		ldr	r0, .L56+4
 786 0018 FFF7FEFF 		bl	chDbgPanic
 787              	.L48:
 788              		.loc 2 325 0 is_stmt 1
 789 001c 039B     		ldr	r3, [sp, #12]
 790 001e 1B6C     		ldr	r3, [r3, #64]
 791 0020 9A68     		ldr	r2, [r3, #8]
 792 0022 039B     		ldr	r3, [sp, #12]
 793 0024 9A42     		cmp	r2, r3
 794 0026 02D0     		beq	.L49
 795              		.loc 2 325 0 is_stmt 0 discriminator 1
 796 0028 2648     		ldr	r0, .L56+8
 797 002a FFF7FEFF 		bl	chDbgPanic
 798              	.L49:
 799              		.loc 2 331 0 is_stmt 1
 800 002e 039B     		ldr	r3, [sp, #12]
 801 0030 1B6C     		ldr	r3, [r3, #64]
 802 0032 0293     		str	r3, [sp, #8]
 803              		.loc 2 332 0
 804 0034 029B     		ldr	r3, [sp, #8]
 805 0036 DA68     		ldr	r2, [r3, #12]
 806 0038 039B     		ldr	r3, [sp, #12]
 807 003a 1A64     		str	r2, [r3, #64]
 808              		.loc 2 334 0
 809 003c 029B     		ldr	r3, [sp, #8]
ARM GAS  /home/pauba/tmp/cchYN7Hl.s 			page 16


 810 003e 1A68     		ldr	r2, [r3]
 811 0040 029B     		ldr	r3, [sp, #8]
 812 0042 9A42     		cmp	r2, r3
 813 0044 31D0     		beq	.L50
 814              	.LBB10:
 815              		.loc 2 339 0
 816 0046 039B     		ldr	r3, [sp, #12]
 817 0048 5B6C     		ldr	r3, [r3, #68]
 818 004a 0493     		str	r3, [sp, #16]
 819              		.loc 2 340 0
 820 004c 039B     		ldr	r3, [sp, #12]
 821 004e 1B6C     		ldr	r3, [r3, #64]
 822 0050 0593     		str	r3, [sp, #20]
 823              		.loc 2 341 0
 824 0052 11E0     		b	.L51
 825              	.L53:
 826              		.loc 2 345 0
 827 0054 059B     		ldr	r3, [sp, #20]
 828 0056 1A68     		ldr	r2, [r3]
 829 0058 059B     		ldr	r3, [sp, #20]
 830 005a 9A42     		cmp	r2, r3
 831 005c 09D0     		beq	.L52
 832              		.loc 2 345 0 is_stmt 0 discriminator 1
 833 005e 059B     		ldr	r3, [sp, #20]
 834 0060 1B68     		ldr	r3, [r3]
 835 0062 9A68     		ldr	r2, [r3, #8]
 836 0064 049B     		ldr	r3, [sp, #16]
 837 0066 9A42     		cmp	r2, r3
 838 0068 03D9     		bls	.L52
 839              		.loc 2 346 0 is_stmt 1
 840 006a 059B     		ldr	r3, [sp, #20]
 841 006c 1B68     		ldr	r3, [r3]
 842 006e 9B68     		ldr	r3, [r3, #8]
 843 0070 0493     		str	r3, [sp, #16]
 844              	.L52:
 845              		.loc 2 347 0
 846 0072 059B     		ldr	r3, [sp, #20]
 847 0074 DB68     		ldr	r3, [r3, #12]
 848 0076 0593     		str	r3, [sp, #20]
 849              	.L51:
 850              		.loc 2 341 0 discriminator 1
 851 0078 059B     		ldr	r3, [sp, #20]
 852 007a 002B     		cmp	r3, #0
 853 007c EAD1     		bne	.L53
 854              		.loc 2 349 0
 855 007e 039B     		ldr	r3, [sp, #12]
 856 0080 049A     		ldr	r2, [sp, #16]
 857 0082 9A60     		str	r2, [r3, #8]
 858              		.loc 2 352 0
 859 0084 029B     		ldr	r3, [sp, #8]
 860 0086 1846     		mov	r0, r3
 861 0088 FFF7FEFF 		bl	fifo_remove
 862 008c 0190     		str	r0, [sp, #4]
 863              		.loc 2 353 0
 864 008e 029B     		ldr	r3, [sp, #8]
 865 0090 019A     		ldr	r2, [sp, #4]
 866 0092 9A60     		str	r2, [r3, #8]
ARM GAS  /home/pauba/tmp/cchYN7Hl.s 			page 17


 867              		.loc 2 354 0
 868 0094 019B     		ldr	r3, [sp, #4]
 869 0096 1A6C     		ldr	r2, [r3, #64]
 870 0098 029B     		ldr	r3, [sp, #8]
 871 009a DA60     		str	r2, [r3, #12]
 872              		.loc 2 355 0
 873 009c 019B     		ldr	r3, [sp, #4]
 874 009e 029A     		ldr	r2, [sp, #8]
 875 00a0 1A64     		str	r2, [r3, #64]
 876              		.loc 2 356 0
 877 00a2 0198     		ldr	r0, [sp, #4]
 878 00a4 FFF7FEFF 		bl	chSchReadyI
 879              	.LBE10:
 880 00a8 02E0     		b	.L54
 881              	.L50:
 882              		.loc 2 359 0
 883 00aa 029B     		ldr	r3, [sp, #8]
 884 00ac 0022     		movs	r2, #0
 885 00ae 9A60     		str	r2, [r3, #8]
 886              	.L54:
 887              		.loc 2 360 0
 888 00b0 029B     		ldr	r3, [sp, #8]
 889              		.loc 2 361 0
 890 00b2 1846     		mov	r0, r3
 891 00b4 07B0     		add	sp, sp, #28
 892              		@ sp needed
 893 00b6 5DF804FB 		ldr	pc, [sp], #4
 894              	.L57:
 895 00ba 00BF     		.align	2
 896              	.L56:
 897 00bc 00000000 		.word	rlist
 898 00c0 84000000 		.word	.LC7
 899 00c4 98000000 		.word	.LC8
 900              		.cfi_endproc
 901              	.LFE13:
 902              		.size	chMtxUnlockS, .-chMtxUnlockS
 903 00c8 AFF30080 		.section	.text.chMtxUnlockAll,"ax",%progbits
 903      AFF30080 
 904              		.align	2
 905              		.p2align 4,,15
 906              		.global	chMtxUnlockAll
 907              		.thumb
 908              		.thumb_func
 909              		.type	chMtxUnlockAll, %function
 910              	chMtxUnlockAll:
 911              	.LFB14:
 912              		.loc 2 374 0
 913              		.cfi_startproc
 914              		@ args = 0, pretend = 0, frame = 16
 915              		@ frame_needed = 0, uses_anonymous_args = 0
 916 0000 00B5     		push	{lr}
 917              		.cfi_def_cfa_offset 4
 918              		.cfi_offset 14, -4
 919 0002 85B0     		sub	sp, sp, #20
 920              		.cfi_def_cfa_offset 24
 921              		.loc 2 375 0
 922 0004 1F4B     		ldr	r3, .L63
ARM GAS  /home/pauba/tmp/cchYN7Hl.s 			page 18


 923 0006 9B69     		ldr	r3, [r3, #24]
 924 0008 0393     		str	r3, [sp, #12]
 925              	.LBB11:
 926              		.loc 2 377 0
 927 000a 2023     		movs	r3, #32
 928              	@ 377 "/home/pauba/ChibiOS-RT/os/kernel/src/chmtx.c" 1
 929 000c 83F31188 		msr     BASEPRI, r3
 930              	@ 0 "" 2
 931              		.thumb
 932              	.LBE11:
 933 0010 FFF7FEFF 		bl	dbg_check_lock
 934              		.loc 2 378 0
 935 0014 039B     		ldr	r3, [sp, #12]
 936 0016 1B6C     		ldr	r3, [r3, #64]
 937 0018 002B     		cmp	r3, #0
 938 001a 2BD0     		beq	.L59
 939              	.L62:
 940              	.LBB12:
 941              		.loc 2 380 0
 942 001c 039B     		ldr	r3, [sp, #12]
 943 001e 1B6C     		ldr	r3, [r3, #64]
 944 0020 0293     		str	r3, [sp, #8]
 945              		.loc 2 381 0
 946 0022 029B     		ldr	r3, [sp, #8]
 947 0024 DA68     		ldr	r2, [r3, #12]
 948 0026 039B     		ldr	r3, [sp, #12]
 949 0028 1A64     		str	r2, [r3, #64]
 950              		.loc 2 382 0
 951 002a 029B     		ldr	r3, [sp, #8]
 952 002c 1A68     		ldr	r2, [r3]
 953 002e 029B     		ldr	r3, [sp, #8]
 954 0030 9A42     		cmp	r2, r3
 955 0032 12D0     		beq	.L60
 956              	.LBB13:
 957              		.loc 2 383 0
 958 0034 029B     		ldr	r3, [sp, #8]
 959 0036 1846     		mov	r0, r3
 960 0038 FFF7FEFF 		bl	fifo_remove
 961 003c 0190     		str	r0, [sp, #4]
 962              		.loc 2 384 0
 963 003e 029B     		ldr	r3, [sp, #8]
 964 0040 019A     		ldr	r2, [sp, #4]
 965 0042 9A60     		str	r2, [r3, #8]
 966              		.loc 2 385 0
 967 0044 019B     		ldr	r3, [sp, #4]
 968 0046 1A6C     		ldr	r2, [r3, #64]
 969 0048 029B     		ldr	r3, [sp, #8]
 970 004a DA60     		str	r2, [r3, #12]
 971              		.loc 2 386 0
 972 004c 019B     		ldr	r3, [sp, #4]
 973 004e 029A     		ldr	r2, [sp, #8]
 974 0050 1A64     		str	r2, [r3, #64]
 975              		.loc 2 387 0
 976 0052 0198     		ldr	r0, [sp, #4]
 977 0054 FFF7FEFF 		bl	chSchReadyI
 978              	.LBE13:
 979 0058 02E0     		b	.L61
ARM GAS  /home/pauba/tmp/cchYN7Hl.s 			page 19


 980              	.L60:
 981              		.loc 2 390 0
 982 005a 029B     		ldr	r3, [sp, #8]
 983 005c 0022     		movs	r2, #0
 984 005e 9A60     		str	r2, [r3, #8]
 985              	.L61:
 986              	.LBE12:
 987              		.loc 2 391 0
 988 0060 039B     		ldr	r3, [sp, #12]
 989 0062 1B6C     		ldr	r3, [r3, #64]
 990 0064 002B     		cmp	r3, #0
 991 0066 D9D1     		bne	.L62
 992              		.loc 2 392 0
 993 0068 039B     		ldr	r3, [sp, #12]
 994 006a 5A6C     		ldr	r2, [r3, #68]
 995 006c 039B     		ldr	r3, [sp, #12]
 996 006e 9A60     		str	r2, [r3, #8]
 997              		.loc 2 393 0
 998 0070 FFF7FEFF 		bl	chSchRescheduleS
 999              	.L59:
 1000              		.loc 2 395 0
 1001 0074 FFF7FEFF 		bl	dbg_check_unlock
 1002              	.LBB14:
 1003 0078 0023     		movs	r3, #0
 1004              	@ 395 "/home/pauba/ChibiOS-RT/os/kernel/src/chmtx.c" 1
 1005 007a 83F31188 		msr     BASEPRI, r3
 1006              	@ 0 "" 2
 1007              		.thumb
 1008              	.LBE14:
 1009              		.loc 2 396 0
 1010 007e 05B0     		add	sp, sp, #20
 1011              		@ sp needed
 1012 0080 5DF804FB 		ldr	pc, [sp], #4
 1013              	.L64:
 1014              		.align	2
 1015              	.L63:
 1016 0084 00000000 		.word	rlist
 1017              		.cfi_endproc
 1018              	.LFE14:
 1019              		.size	chMtxUnlockAll, .-chMtxUnlockAll
 1020 0088 AFF30080 		.text
 1020      AFF30080 
 1021              	.Letext0:
 1022              		.file 3 "/opt/gcc-arm-none-eabi-4_8-2014q1/arm-none-eabi/include/machine/_default_types.h"
 1023              		.file 4 "/opt/gcc-arm-none-eabi-4_8-2014q1/arm-none-eabi/include/stdint.h"
 1024              		.file 5 "/home/pauba/ChibiOS-RT/os/ports/GCC/ARMCMx/chtypes.h"
 1025              		.file 6 "/home/pauba/ChibiOS-RT/os/kernel/include/chlists.h"
 1026              		.file 7 "/home/pauba/ChibiOS-RT/os/kernel/include/chthreads.h"
 1027              		.file 8 "/home/pauba/ChibiOS-RT/os/ports/GCC/ARMCMx/chcore_v7m.h"
 1028              		.file 9 "/home/pauba/ChibiOS-RT/os/kernel/include/chschd.h"
 1029              		.file 10 "/home/pauba/ChibiOS-RT/os/kernel/include/chmtx.h"