ARM GAS  /home/pauba/tmp/ccQ2BtnS.s 			page 1


   1              		.syntax unified
   2              		.cpu cortex-m4
   3              		.fpu softvfp
   4              		.eabi_attribute 20, 1
   5              		.eabi_attribute 21, 1
   6              		.eabi_attribute 23, 3
   7              		.eabi_attribute 24, 1
   8              		.eabi_attribute 25, 1
   9              		.eabi_attribute 26, 1
  10              		.eabi_attribute 30, 6
  11              		.eabi_attribute 34, 1
  12              		.eabi_attribute 18, 4
  13              		.thumb
  14              		.file	"chschd.c"
  15              		.text
  16              	.Ltext0:
  17              		.cfi_sections	.debug_frame
  18              		.section	.text.fifo_remove,"ax",%progbits
  19              		.align	2
  20              		.p2align 4,,15
  21              		.thumb
  22              		.thumb_func
  23              		.type	fifo_remove, %function
  24              	fifo_remove:
  25              	.LFB2:
  26              		.file 1 "/home/pauba/ChibiOS-RT/os/kernel/include/chinline.h"
  27              		.loc 1 59 0
  28              		.cfi_startproc
  29              		@ args = 0, pretend = 0, frame = 16
  30              		@ frame_needed = 0, uses_anonymous_args = 0
  31              		@ link register save eliminated.
  32 0000 84B0     		sub	sp, sp, #16
  33              		.cfi_def_cfa_offset 16
  34 0002 0190     		str	r0, [sp, #4]
  35              		.loc 1 60 0
  36 0004 019B     		ldr	r3, [sp, #4]
  37 0006 1B68     		ldr	r3, [r3]
  38 0008 0393     		str	r3, [sp, #12]
  39              		.loc 1 62 0
  40 000a 039B     		ldr	r3, [sp, #12]
  41 000c 1A68     		ldr	r2, [r3]
  42 000e 019B     		ldr	r3, [sp, #4]
  43 0010 1A60     		str	r2, [r3]
  44 0012 019B     		ldr	r3, [sp, #4]
  45 0014 1B68     		ldr	r3, [r3]
  46 0016 019A     		ldr	r2, [sp, #4]
  47 0018 5A60     		str	r2, [r3, #4]
  48              		.loc 1 63 0
  49 001a 039B     		ldr	r3, [sp, #12]
  50              		.loc 1 64 0
  51 001c 1846     		mov	r0, r3
  52 001e 04B0     		add	sp, sp, #16
  53              		@ sp needed
  54 0020 7047     		bx	lr
  55              		.cfi_endproc
  56              	.LFE2:
  57              		.size	fifo_remove, .-fifo_remove
ARM GAS  /home/pauba/tmp/ccQ2BtnS.s 			page 2


  58 0022 00BFAFF3 		.section	.text.dequeue,"ax",%progbits
  58      0080AFF3 
  58      0080AFF3 
  58      0080
  59              		.align	2
  60              		.p2align 4,,15
  61              		.thumb
  62              		.thumb_func
  63              		.type	dequeue, %function
  64              	dequeue:
  65              	.LFB4:
  66              		.loc 1 73 0
  67              		.cfi_startproc
  68              		@ args = 0, pretend = 0, frame = 8
  69              		@ frame_needed = 0, uses_anonymous_args = 0
  70              		@ link register save eliminated.
  71 0000 82B0     		sub	sp, sp, #8
  72              		.cfi_def_cfa_offset 8
  73 0002 0190     		str	r0, [sp, #4]
  74              		.loc 1 75 0
  75 0004 019B     		ldr	r3, [sp, #4]
  76 0006 5B68     		ldr	r3, [r3, #4]
  77 0008 019A     		ldr	r2, [sp, #4]
  78 000a 1268     		ldr	r2, [r2]
  79 000c 1A60     		str	r2, [r3]
  80              		.loc 1 76 0
  81 000e 019B     		ldr	r3, [sp, #4]
  82 0010 1B68     		ldr	r3, [r3]
  83 0012 019A     		ldr	r2, [sp, #4]
  84 0014 5268     		ldr	r2, [r2, #4]
  85 0016 5A60     		str	r2, [r3, #4]
  86              		.loc 1 77 0
  87 0018 019B     		ldr	r3, [sp, #4]
  88              		.loc 1 78 0
  89 001a 1846     		mov	r0, r3
  90 001c 02B0     		add	sp, sp, #8
  91              		@ sp needed
  92 001e 7047     		bx	lr
  93              		.cfi_endproc
  94              	.LFE4:
  95              		.size	dequeue, .-dequeue
  96              		.global	rlist
  97              		.section	.bss.rlist,"aw",%nobits
  98              		.align	2
  99              		.type	rlist, %object
 100              		.size	rlist, 28
 101              	rlist:
 102 0000 00000000 		.space	28
 102      00000000 
 102      00000000 
 102      00000000 
 102      00000000 
 103              		.section	.text._scheduler_init,"ax",%progbits
 104              		.align	2
 105              		.p2align 4,,15
 106              		.global	_scheduler_init
 107              		.thumb
ARM GAS  /home/pauba/tmp/ccQ2BtnS.s 			page 3


 108              		.thumb_func
 109              		.type	_scheduler_init, %function
 110              	_scheduler_init:
 111              	.LFB7:
 112              		.file 2 "/home/pauba/ChibiOS-RT/os/kernel/src/chschd.c"
 113              		.loc 2 55 0
 114              		.cfi_startproc
 115              		@ args = 0, pretend = 0, frame = 0
 116              		@ frame_needed = 0, uses_anonymous_args = 0
 117              		@ link register save eliminated.
 118              		.loc 2 57 0
 119 0000 084B     		ldr	r3, .L6
 120 0002 084A     		ldr	r2, .L6
 121 0004 5A60     		str	r2, [r3, #4]
 122 0006 074B     		ldr	r3, .L6
 123 0008 5A68     		ldr	r2, [r3, #4]
 124 000a 064B     		ldr	r3, .L6
 125 000c 1A60     		str	r2, [r3]
 126              		.loc 2 58 0
 127 000e 054B     		ldr	r3, .L6
 128 0010 0022     		movs	r2, #0
 129 0012 9A60     		str	r2, [r3, #8]
 130              		.loc 2 60 0
 131 0014 034B     		ldr	r3, .L6
 132 0016 034A     		ldr	r2, .L6
 133 0018 5A61     		str	r2, [r3, #20]
 134 001a 024B     		ldr	r3, .L6
 135 001c 5A69     		ldr	r2, [r3, #20]
 136 001e 014B     		ldr	r3, .L6
 137 0020 1A61     		str	r2, [r3, #16]
 138              		.loc 2 62 0
 139 0022 7047     		bx	lr
 140              	.L7:
 141              		.align	2
 142              	.L6:
 143 0024 00000000 		.word	rlist
 144              		.cfi_endproc
 145              	.LFE7:
 146              		.size	_scheduler_init, .-_scheduler_init
 147 0028 AFF30080 		.section	.rodata
 147      AFF30080 
 148              		.align	2
 149              	.LC0:
 150 0000 63685363 		.ascii	"chSchReadyI(), #1\000"
 150      68526561 
 150      64794928 
 150      292C2023 
 150      3100
 151              		.section	.text.chSchReadyI,"ax",%progbits
 152              		.align	2
 153              		.p2align 4,,15
 154              		.global	chSchReadyI
 155              		.thumb
 156              		.thumb_func
 157              		.type	chSchReadyI, %function
 158              	chSchReadyI:
 159              	.LFB8:
ARM GAS  /home/pauba/tmp/ccQ2BtnS.s 			page 4


 160              		.loc 2 81 0
 161              		.cfi_startproc
 162              		@ args = 0, pretend = 0, frame = 16
 163              		@ frame_needed = 0, uses_anonymous_args = 0
 164 0000 00B5     		push	{lr}
 165              		.cfi_def_cfa_offset 4
 166              		.cfi_offset 14, -4
 167 0002 85B0     		sub	sp, sp, #20
 168              		.cfi_def_cfa_offset 24
 169 0004 0190     		str	r0, [sp, #4]
 170              		.loc 2 84 0
 171 0006 FFF7FEFF 		bl	chDbgCheckClassI
 172              		.loc 2 87 0
 173 000a 019B     		ldr	r3, [sp, #4]
 174 000c 93F82030 		ldrb	r3, [r3, #32]	@ zero_extendqisi2
 175 0010 002B     		cmp	r3, #0
 176 0012 04D0     		beq	.L9
 177              		.loc 2 87 0 is_stmt 0 discriminator 2
 178 0014 019B     		ldr	r3, [sp, #4]
 179 0016 93F82030 		ldrb	r3, [r3, #32]	@ zero_extendqisi2
 180 001a 0E2B     		cmp	r3, #14
 181 001c 02D1     		bne	.L10
 182              	.L9:
 183              		.loc 2 87 0 discriminator 1
 184 001e 1348     		ldr	r0, .L13
 185 0020 FFF7FEFF 		bl	chDbgPanic
 186              	.L10:
 187              		.loc 2 92 0 is_stmt 1
 188 0024 019B     		ldr	r3, [sp, #4]
 189 0026 0022     		movs	r2, #0
 190 0028 83F82020 		strb	r2, [r3, #32]
 191              		.loc 2 93 0
 192 002c 104B     		ldr	r3, .L13+4
 193 002e 0393     		str	r3, [sp, #12]
 194              	.L11:
 195              		.loc 2 95 0 discriminator 1
 196 0030 039B     		ldr	r3, [sp, #12]
 197 0032 1B68     		ldr	r3, [r3]
 198 0034 0393     		str	r3, [sp, #12]
 199              		.loc 2 96 0 discriminator 1
 200 0036 039B     		ldr	r3, [sp, #12]
 201 0038 9A68     		ldr	r2, [r3, #8]
 202 003a 019B     		ldr	r3, [sp, #4]
 203 003c 9B68     		ldr	r3, [r3, #8]
 204 003e 9A42     		cmp	r2, r3
 205 0040 F6D2     		bcs	.L11
 206              		.loc 2 98 0
 207 0042 019B     		ldr	r3, [sp, #4]
 208 0044 039A     		ldr	r2, [sp, #12]
 209 0046 1A60     		str	r2, [r3]
 210              		.loc 2 99 0
 211 0048 039B     		ldr	r3, [sp, #12]
 212 004a 5A68     		ldr	r2, [r3, #4]
 213 004c 019B     		ldr	r3, [sp, #4]
 214 004e 5A60     		str	r2, [r3, #4]
 215              		.loc 2 100 0
 216 0050 019B     		ldr	r3, [sp, #4]
ARM GAS  /home/pauba/tmp/ccQ2BtnS.s 			page 5


 217 0052 5B68     		ldr	r3, [r3, #4]
 218 0054 039A     		ldr	r2, [sp, #12]
 219 0056 0199     		ldr	r1, [sp, #4]
 220 0058 5160     		str	r1, [r2, #4]
 221 005a 039A     		ldr	r2, [sp, #12]
 222 005c 5268     		ldr	r2, [r2, #4]
 223 005e 1A60     		str	r2, [r3]
 224              		.loc 2 101 0
 225 0060 019B     		ldr	r3, [sp, #4]
 226              		.loc 2 102 0
 227 0062 1846     		mov	r0, r3
 228 0064 05B0     		add	sp, sp, #20
 229              		@ sp needed
 230 0066 5DF804FB 		ldr	pc, [sp], #4
 231              	.L14:
 232 006a 00BF     		.align	2
 233              	.L13:
 234 006c 00000000 		.word	.LC0
 235 0070 00000000 		.word	rlist
 236              		.cfi_endproc
 237              	.LFE8:
 238              		.size	chSchReadyI, .-chSchReadyI
 239 0074 AFF30080 		.section	.rodata
 239      AFF30080 
 239      AFF30080 
 240 0012 0000     		.align	2
 241              	.LC1:
 242 0014 73746163 		.ascii	"stack overflow\000"
 242      6B206F76 
 242      6572666C 
 242      6F7700
 243 0023 00       		.section	.text.chSchGoSleepS,"ax",%progbits
 244              		.align	2
 245              		.p2align 4,,15
 246              		.global	chSchGoSleepS
 247              		.thumb
 248              		.thumb_func
 249              		.type	chSchGoSleepS, %function
 250              	chSchGoSleepS:
 251              	.LFB9:
 252              		.loc 2 115 0
 253              		.cfi_startproc
 254              		@ args = 0, pretend = 0, frame = 16
 255              		@ frame_needed = 0, uses_anonymous_args = 0
 256 0000 00B5     		push	{lr}
 257              		.cfi_def_cfa_offset 4
 258              		.cfi_offset 14, -4
 259 0002 85B0     		sub	sp, sp, #20
 260              		.cfi_def_cfa_offset 24
 261 0004 0346     		mov	r3, r0
 262 0006 8DF80730 		strb	r3, [sp, #7]
 263              		.loc 2 118 0
 264 000a FFF7FEFF 		bl	chDbgCheckClassS
 265              		.loc 2 120 0
 266 000e 164B     		ldr	r3, .L17
 267 0010 9B69     		ldr	r3, [r3, #24]
 268 0012 0393     		str	r3, [sp, #12]
ARM GAS  /home/pauba/tmp/ccQ2BtnS.s 			page 6


 269 0014 039B     		ldr	r3, [sp, #12]
 270 0016 9DF80720 		ldrb	r2, [sp, #7]
 271 001a 83F82020 		strb	r2, [r3, #32]
 272              		.loc 2 124 0
 273 001e 039B     		ldr	r3, [sp, #12]
 274 0020 1422     		movs	r2, #20
 275 0022 83F82320 		strb	r2, [r3, #35]
 276              		.loc 2 126 0
 277 0026 1048     		ldr	r0, .L17
 278 0028 FFF7FEFF 		bl	fifo_remove
 279 002c 0246     		mov	r2, r0
 280 002e 0E4B     		ldr	r3, .L17
 281 0030 9A61     		str	r2, [r3, #24]
 282              		.loc 2 127 0
 283 0032 0D4B     		ldr	r3, .L17
 284 0034 9B69     		ldr	r3, [r3, #24]
 285 0036 0122     		movs	r2, #1
 286 0038 83F82020 		strb	r2, [r3, #32]
 287              		.loc 2 128 0
 288 003c 0398     		ldr	r0, [sp, #12]
 289 003e FFF7FEFF 		bl	dbg_trace
 290              	.LBB2:
 291 0042 6B46     		mov	r3, sp
 292 0044 A3F12402 		sub	r2, r3, #36
 293 0048 039B     		ldr	r3, [sp, #12]
 294 004a DB69     		ldr	r3, [r3, #28]
 295 004c 9A42     		cmp	r2, r3
 296 004e 02D2     		bcs	.L16
 297              		.loc 2 128 0 is_stmt 0 discriminator 1
 298 0050 0648     		ldr	r0, .L17+4
 299 0052 FFF7FEFF 		bl	chDbgPanic
 300              	.L16:
 301              		.loc 2 128 0 discriminator 2
 302 0056 044B     		ldr	r3, .L17
 303 0058 9B69     		ldr	r3, [r3, #24]
 304 005a 1846     		mov	r0, r3
 305 005c 0399     		ldr	r1, [sp, #12]
 306 005e FFF7FEFF 		bl	_port_switch
 307              	.LBE2:
 308              		.loc 2 129 0 is_stmt 1 discriminator 2
 309 0062 05B0     		add	sp, sp, #20
 310              		@ sp needed
 311 0064 5DF804FB 		ldr	pc, [sp], #4
 312              	.L18:
 313              		.align	2
 314              	.L17:
 315 0068 00000000 		.word	rlist
 316 006c 14000000 		.word	.LC1
 317              		.cfi_endproc
 318              	.LFE9:
 319              		.size	chSchGoSleepS, .-chSchGoSleepS
 320              		.section	.text.wakeup,"ax",%progbits
 321              		.align	2
 322              		.p2align 4,,15
 323              		.thumb
 324              		.thumb_func
 325              		.type	wakeup, %function
ARM GAS  /home/pauba/tmp/ccQ2BtnS.s 			page 7


 326              	wakeup:
 327              	.LFB10:
 328              		.loc 2 136 0
 329              		.cfi_startproc
 330              		@ args = 0, pretend = 0, frame = 16
 331              		@ frame_needed = 0, uses_anonymous_args = 0
 332 0000 00B5     		push	{lr}
 333              		.cfi_def_cfa_offset 4
 334              		.cfi_offset 14, -4
 335 0002 85B0     		sub	sp, sp, #20
 336              		.cfi_def_cfa_offset 24
 337 0004 0190     		str	r0, [sp, #4]
 338              		.loc 2 137 0
 339 0006 019B     		ldr	r3, [sp, #4]
 340 0008 0393     		str	r3, [sp, #12]
 341              	.LBB3:
 342              		.loc 2 139 0
 343 000a 2023     		movs	r3, #32
 344              	@ 139 "/home/pauba/ChibiOS-RT/os/kernel/src/chschd.c" 1
 345 000c 83F31188 		msr     BASEPRI, r3
 346              	@ 0 "" 2
 347              		.thumb
 348              	.LBE3:
 349 0010 FFF7FEFF 		bl	dbg_check_lock_from_isr
 350              		.loc 2 140 0
 351 0014 039B     		ldr	r3, [sp, #12]
 352 0016 93F82030 		ldrb	r3, [r3, #32]	@ zero_extendqisi2
 353 001a 0D2B     		cmp	r3, #13
 354 001c 2CD8     		bhi	.L20
 355 001e 01A2     		adr	r2, .L22
 356 0020 52F823F0 		ldr	pc, [r2, r3, lsl #2]
 357              		.p2align 2
 358              	.L22:
 359 0024 5D000000 		.word	.L21+1
 360 0028 79000000 		.word	.L20+1
 361 002c 79000000 		.word	.L20+1
 362 0030 69000000 		.word	.L23+1
 363 0034 79000000 		.word	.L20+1
 364 0038 73000000 		.word	.L24+1
 365 003c 79000000 		.word	.L20+1
 366 0040 79000000 		.word	.L20+1
 367 0044 79000000 		.word	.L20+1
 368 0048 79000000 		.word	.L20+1
 369 004c 79000000 		.word	.L20+1
 370 0050 79000000 		.word	.L20+1
 371 0054 79000000 		.word	.L20+1
 372 0058 73000000 		.word	.L24+1
 373              	.L21:
 374              		.loc 2 144 0
 375 005c FFF7FEFF 		bl	dbg_check_unlock_from_isr
 376              	.LBB4:
 377 0060 0023     		movs	r3, #0
 378              	@ 144 "/home/pauba/ChibiOS-RT/os/kernel/src/chschd.c" 1
 379 0062 83F31188 		msr     BASEPRI, r3
 380              	@ 0 "" 2
 381              		.thumb
 382              	.LBE4:
ARM GAS  /home/pauba/tmp/ccQ2BtnS.s 			page 8


 383              		.loc 2 145 0
 384 0066 13E0     		b	.L19
 385              	.L23:
 386              		.loc 2 150 0
 387 0068 039B     		ldr	r3, [sp, #12]
 388 006a 9B6A     		ldr	r3, [r3, #40]
 389 006c 9A68     		ldr	r2, [r3, #8]
 390 006e 0132     		adds	r2, r2, #1
 391 0070 9A60     		str	r2, [r3, #8]
 392              	.L24:
 393              		.loc 2 160 0
 394 0072 0398     		ldr	r0, [sp, #12]
 395 0074 FFF7FEFF 		bl	dequeue
 396              	.L20:
 397              		.loc 2 163 0
 398 0078 039B     		ldr	r3, [sp, #12]
 399 007a 4FF0FF32 		mov	r2, #-1
 400 007e 9A62     		str	r2, [r3, #40]
 401              		.loc 2 164 0
 402 0080 0398     		ldr	r0, [sp, #12]
 403 0082 FFF7FEFF 		bl	chSchReadyI
 404              		.loc 2 165 0
 405 0086 FFF7FEFF 		bl	dbg_check_unlock_from_isr
 406              	.LBB5:
 407 008a 0023     		movs	r3, #0
 408              	@ 165 "/home/pauba/ChibiOS-RT/os/kernel/src/chschd.c" 1
 409 008c 83F31188 		msr     BASEPRI, r3
 410              	@ 0 "" 2
 411              		.thumb
 412              	.L19:
 413              	.LBE5:
 414              		.loc 2 166 0
 415 0090 05B0     		add	sp, sp, #20
 416              		@ sp needed
 417 0092 5DF804FB 		ldr	pc, [sp], #4
 418              		.cfi_endproc
 419              	.LFE10:
 420              		.size	wakeup, .-wakeup
 421 0096 00BFAFF3 		.section	.text.chSchGoSleepTimeoutS,"ax",%progbits
 421      0080AFF3 
 421      0080
 422              		.align	2
 423              		.p2align 4,,15
 424              		.global	chSchGoSleepTimeoutS
 425              		.thumb
 426              		.thumb_func
 427              		.type	chSchGoSleepTimeoutS, %function
 428              	chSchGoSleepTimeoutS:
 429              	.LFB11:
 430              		.loc 2 189 0
 431              		.cfi_startproc
 432              		@ args = 0, pretend = 0, frame = 32
 433              		@ frame_needed = 0, uses_anonymous_args = 0
 434 0000 00B5     		push	{lr}
 435              		.cfi_def_cfa_offset 4
 436              		.cfi_offset 14, -4
 437 0002 89B0     		sub	sp, sp, #36
ARM GAS  /home/pauba/tmp/ccQ2BtnS.s 			page 9


 438              		.cfi_def_cfa_offset 40
 439 0004 0346     		mov	r3, r0
 440 0006 0091     		str	r1, [sp]
 441 0008 8DF80730 		strb	r3, [sp, #7]
 442              		.loc 2 191 0
 443 000c FFF7FEFF 		bl	chDbgCheckClassS
 444              		.loc 2 193 0
 445 0010 009B     		ldr	r3, [sp]
 446 0012 B3F1FF3F 		cmp	r3, #-1
 447 0016 15D0     		beq	.L27
 448              	.LBB6:
 449              		.loc 2 196 0
 450 0018 104B     		ldr	r3, .L31
 451 001a 9B69     		ldr	r3, [r3, #24]
 452 001c 03AA     		add	r2, sp, #12
 453 001e 1046     		mov	r0, r2
 454 0020 0099     		ldr	r1, [sp]
 455 0022 0F4A     		ldr	r2, .L31+4
 456 0024 FFF7FEFF 		bl	chVTSetI
 457              		.loc 2 197 0
 458 0028 9DF80730 		ldrb	r3, [sp, #7]	@ zero_extendqisi2
 459 002c 1846     		mov	r0, r3
 460 002e FFF7FEFF 		bl	chSchGoSleepS
 461              		.loc 2 198 0
 462 0032 069B     		ldr	r3, [sp, #24]
 463 0034 002B     		cmp	r3, #0
 464 0036 04D0     		beq	.L28
 465              		.loc 2 199 0
 466 0038 03AB     		add	r3, sp, #12
 467 003a 1846     		mov	r0, r3
 468 003c FFF7FEFF 		bl	chVTResetI
 469              	.LBE6:
 470 0040 05E0     		b	.L29
 471              	.L28:
 472 0042 04E0     		b	.L29
 473              	.L27:
 474              		.loc 2 202 0
 475 0044 9DF80730 		ldrb	r3, [sp, #7]	@ zero_extendqisi2
 476 0048 1846     		mov	r0, r3
 477 004a FFF7FEFF 		bl	chSchGoSleepS
 478              	.L29:
 479              		.loc 2 203 0
 480 004e 034B     		ldr	r3, .L31
 481 0050 9B69     		ldr	r3, [r3, #24]
 482 0052 9B6A     		ldr	r3, [r3, #40]
 483              		.loc 2 204 0
 484 0054 1846     		mov	r0, r3
 485 0056 09B0     		add	sp, sp, #36
 486              		@ sp needed
 487 0058 5DF804FB 		ldr	pc, [sp], #4
 488              	.L32:
 489              		.align	2
 490              	.L31:
 491 005c 00000000 		.word	rlist
 492 0060 00000000 		.word	wakeup
 493              		.cfi_endproc
 494              	.LFE11:
ARM GAS  /home/pauba/tmp/ccQ2BtnS.s 			page 10


 495              		.size	chSchGoSleepTimeoutS, .-chSchGoSleepTimeoutS
 496 0064 AFF30080 		.section	.text.chSchWakeupS,"ax",%progbits
 496      AFF30080 
 496      AFF30080 
 497              		.align	2
 498              		.p2align 4,,15
 499              		.global	chSchWakeupS
 500              		.thumb
 501              		.thumb_func
 502              		.type	chSchWakeupS, %function
 503              	chSchWakeupS:
 504              	.LFB12:
 505              		.loc 2 225 0
 506              		.cfi_startproc
 507              		@ args = 0, pretend = 0, frame = 16
 508              		@ frame_needed = 0, uses_anonymous_args = 0
 509 0000 00B5     		push	{lr}
 510              		.cfi_def_cfa_offset 4
 511              		.cfi_offset 14, -4
 512 0002 85B0     		sub	sp, sp, #20
 513              		.cfi_def_cfa_offset 24
 514 0004 0190     		str	r0, [sp, #4]
 515 0006 0091     		str	r1, [sp]
 516              		.loc 2 227 0
 517 0008 FFF7FEFF 		bl	chDbgCheckClassS
 518              		.loc 2 229 0
 519 000c 019B     		ldr	r3, [sp, #4]
 520 000e 009A     		ldr	r2, [sp]
 521 0010 9A62     		str	r2, [r3, #40]
 522              		.loc 2 234 0
 523 0012 019B     		ldr	r3, [sp, #4]
 524 0014 9A68     		ldr	r2, [r3, #8]
 525 0016 154B     		ldr	r3, .L37
 526 0018 9B69     		ldr	r3, [r3, #24]
 527 001a 9B68     		ldr	r3, [r3, #8]
 528 001c 9A42     		cmp	r2, r3
 529 001e 03D8     		bhi	.L34
 530              		.loc 2 235 0
 531 0020 0198     		ldr	r0, [sp, #4]
 532 0022 FFF7FEFF 		bl	chSchReadyI
 533 0026 1DE0     		b	.L33
 534              	.L34:
 535              	.LBB7:
 536              		.loc 2 237 0
 537 0028 104B     		ldr	r3, .L37
 538 002a 9B69     		ldr	r3, [r3, #24]
 539 002c 1846     		mov	r0, r3
 540 002e FFF7FEFF 		bl	chSchReadyI
 541 0032 0390     		str	r0, [sp, #12]
 542              		.loc 2 238 0
 543 0034 0D4B     		ldr	r3, .L37
 544 0036 019A     		ldr	r2, [sp, #4]
 545 0038 9A61     		str	r2, [r3, #24]
 546              		.loc 2 239 0
 547 003a 019B     		ldr	r3, [sp, #4]
 548 003c 0122     		movs	r2, #1
 549 003e 83F82020 		strb	r2, [r3, #32]
ARM GAS  /home/pauba/tmp/ccQ2BtnS.s 			page 11


 550              		.loc 2 240 0
 551 0042 0398     		ldr	r0, [sp, #12]
 552 0044 FFF7FEFF 		bl	dbg_trace
 553              	.LBB8:
 554 0048 6B46     		mov	r3, sp
 555 004a A3F12402 		sub	r2, r3, #36
 556 004e 039B     		ldr	r3, [sp, #12]
 557 0050 DB69     		ldr	r3, [r3, #28]
 558 0052 9A42     		cmp	r2, r3
 559 0054 02D2     		bcs	.L36
 560              		.loc 2 240 0 is_stmt 0 discriminator 1
 561 0056 0648     		ldr	r0, .L37+4
 562 0058 FFF7FEFF 		bl	chDbgPanic
 563              	.L36:
 564              		.loc 2 240 0 discriminator 2
 565 005c 0198     		ldr	r0, [sp, #4]
 566 005e 0399     		ldr	r1, [sp, #12]
 567 0060 FFF7FEFF 		bl	_port_switch
 568              	.L33:
 569              	.LBE8:
 570              	.LBE7:
 571              		.loc 2 242 0 is_stmt 1
 572 0064 05B0     		add	sp, sp, #20
 573              		@ sp needed
 574 0066 5DF804FB 		ldr	pc, [sp], #4
 575              	.L38:
 576 006a 00BF     		.align	2
 577              	.L37:
 578 006c 00000000 		.word	rlist
 579 0070 14000000 		.word	.LC1
 580              		.cfi_endproc
 581              	.LFE12:
 582              		.size	chSchWakeupS, .-chSchWakeupS
 583 0074 AFF30080 		.section	.text.chSchRescheduleS,"ax",%progbits
 583      AFF30080 
 583      AFF30080 
 584              		.align	2
 585              		.p2align 4,,15
 586              		.global	chSchRescheduleS
 587              		.thumb
 588              		.thumb_func
 589              		.type	chSchRescheduleS, %function
 590              	chSchRescheduleS:
 591              	.LFB13:
 592              		.loc 2 253 0
 593              		.cfi_startproc
 594              		@ args = 0, pretend = 0, frame = 0
 595              		@ frame_needed = 0, uses_anonymous_args = 0
 596 0000 08B5     		push	{r3, lr}
 597              		.cfi_def_cfa_offset 8
 598              		.cfi_offset 3, -8
 599              		.cfi_offset 14, -4
 600              		.loc 2 255 0
 601 0002 FFF7FEFF 		bl	chDbgCheckClassS
 602              		.loc 2 257 0
 603 0006 054B     		ldr	r3, .L41
 604 0008 1B68     		ldr	r3, [r3]
ARM GAS  /home/pauba/tmp/ccQ2BtnS.s 			page 12


 605 000a 9A68     		ldr	r2, [r3, #8]
 606 000c 034B     		ldr	r3, .L41
 607 000e 9B69     		ldr	r3, [r3, #24]
 608 0010 9B68     		ldr	r3, [r3, #8]
 609 0012 9A42     		cmp	r2, r3
 610 0014 01D9     		bls	.L39
 611              		.loc 2 258 0
 612 0016 FFF7FEFF 		bl	chSchDoRescheduleAhead
 613              	.L39:
 614              		.loc 2 259 0
 615 001a 08BD     		pop	{r3, pc}
 616              	.L42:
 617              		.align	2
 618              	.L41:
 619 001c 00000000 		.word	rlist
 620              		.cfi_endproc
 621              	.LFE13:
 622              		.size	chSchRescheduleS, .-chSchRescheduleS
 623              		.section	.text.chSchDoRescheduleBehind,"ax",%progbits
 624              		.align	2
 625              		.p2align 4,,15
 626              		.global	chSchDoRescheduleBehind
 627              		.thumb
 628              		.thumb_func
 629              		.type	chSchDoRescheduleBehind, %function
 630              	chSchDoRescheduleBehind:
 631              	.LFB14:
 632              		.loc 2 304 0
 633              		.cfi_startproc
 634              		@ args = 0, pretend = 0, frame = 8
 635              		@ frame_needed = 0, uses_anonymous_args = 0
 636 0000 00B5     		push	{lr}
 637              		.cfi_def_cfa_offset 4
 638              		.cfi_offset 14, -4
 639 0002 83B0     		sub	sp, sp, #12
 640              		.cfi_def_cfa_offset 16
 641              		.loc 2 307 0
 642 0004 154B     		ldr	r3, .L45
 643 0006 9B69     		ldr	r3, [r3, #24]
 644 0008 0193     		str	r3, [sp, #4]
 645              		.loc 2 309 0
 646 000a 1448     		ldr	r0, .L45
 647 000c FFF7FEFF 		bl	fifo_remove
 648 0010 0246     		mov	r2, r0
 649 0012 124B     		ldr	r3, .L45
 650 0014 9A61     		str	r2, [r3, #24]
 651              		.loc 2 310 0
 652 0016 114B     		ldr	r3, .L45
 653 0018 9B69     		ldr	r3, [r3, #24]
 654 001a 0122     		movs	r2, #1
 655 001c 83F82020 		strb	r2, [r3, #32]
 656              		.loc 2 312 0
 657 0020 019B     		ldr	r3, [sp, #4]
 658 0022 1422     		movs	r2, #20
 659 0024 83F82320 		strb	r2, [r3, #35]
 660              		.loc 2 314 0
 661 0028 0198     		ldr	r0, [sp, #4]
ARM GAS  /home/pauba/tmp/ccQ2BtnS.s 			page 13


 662 002a FFF7FEFF 		bl	chSchReadyI
 663              		.loc 2 315 0
 664 002e 0198     		ldr	r0, [sp, #4]
 665 0030 FFF7FEFF 		bl	dbg_trace
 666              	.LBB9:
 667 0034 6B46     		mov	r3, sp
 668 0036 A3F12402 		sub	r2, r3, #36
 669 003a 019B     		ldr	r3, [sp, #4]
 670 003c DB69     		ldr	r3, [r3, #28]
 671 003e 9A42     		cmp	r2, r3
 672 0040 02D2     		bcs	.L44
 673              		.loc 2 315 0 is_stmt 0 discriminator 1
 674 0042 0748     		ldr	r0, .L45+4
 675 0044 FFF7FEFF 		bl	chDbgPanic
 676              	.L44:
 677              		.loc 2 315 0 discriminator 2
 678 0048 044B     		ldr	r3, .L45
 679 004a 9B69     		ldr	r3, [r3, #24]
 680 004c 1846     		mov	r0, r3
 681 004e 0199     		ldr	r1, [sp, #4]
 682 0050 FFF7FEFF 		bl	_port_switch
 683              	.LBE9:
 684              		.loc 2 316 0 is_stmt 1 discriminator 2
 685 0054 03B0     		add	sp, sp, #12
 686              		@ sp needed
 687 0056 5DF804FB 		ldr	pc, [sp], #4
 688              	.L46:
 689 005a 00BF     		.align	2
 690              	.L45:
 691 005c 00000000 		.word	rlist
 692 0060 14000000 		.word	.LC1
 693              		.cfi_endproc
 694              	.LFE14:
 695              		.size	chSchDoRescheduleBehind, .-chSchDoRescheduleBehind
 696 0064 AFF30080 		.section	.text.chSchDoRescheduleAhead,"ax",%progbits
 696      AFF30080 
 696      AFF30080 
 697              		.align	2
 698              		.p2align 4,,15
 699              		.global	chSchDoRescheduleAhead
 700              		.thumb
 701              		.thumb_func
 702              		.type	chSchDoRescheduleAhead, %function
 703              	chSchDoRescheduleAhead:
 704              	.LFB15:
 705              		.loc 2 329 0
 706              		.cfi_startproc
 707              		@ args = 0, pretend = 0, frame = 8
 708              		@ frame_needed = 0, uses_anonymous_args = 0
 709 0000 00B5     		push	{lr}
 710              		.cfi_def_cfa_offset 4
 711              		.cfi_offset 14, -4
 712 0002 83B0     		sub	sp, sp, #12
 713              		.cfi_def_cfa_offset 16
 714              		.loc 2 332 0
 715 0004 204B     		ldr	r3, .L50
 716 0006 9B69     		ldr	r3, [r3, #24]
ARM GAS  /home/pauba/tmp/ccQ2BtnS.s 			page 14


 717 0008 0093     		str	r3, [sp]
 718              		.loc 2 334 0
 719 000a 1F48     		ldr	r0, .L50
 720 000c FFF7FEFF 		bl	fifo_remove
 721 0010 0246     		mov	r2, r0
 722 0012 1D4B     		ldr	r3, .L50
 723 0014 9A61     		str	r2, [r3, #24]
 724              		.loc 2 335 0
 725 0016 1C4B     		ldr	r3, .L50
 726 0018 9B69     		ldr	r3, [r3, #24]
 727 001a 0122     		movs	r2, #1
 728 001c 83F82020 		strb	r2, [r3, #32]
 729              		.loc 2 337 0
 730 0020 009B     		ldr	r3, [sp]
 731 0022 0022     		movs	r2, #0
 732 0024 83F82020 		strb	r2, [r3, #32]
 733              		.loc 2 338 0
 734 0028 174B     		ldr	r3, .L50
 735 002a 0193     		str	r3, [sp, #4]
 736              	.L48:
 737              		.loc 2 340 0 discriminator 1
 738 002c 019B     		ldr	r3, [sp, #4]
 739 002e 1B68     		ldr	r3, [r3]
 740 0030 0193     		str	r3, [sp, #4]
 741              		.loc 2 341 0 discriminator 1
 742 0032 019B     		ldr	r3, [sp, #4]
 743 0034 9A68     		ldr	r2, [r3, #8]
 744 0036 009B     		ldr	r3, [sp]
 745 0038 9B68     		ldr	r3, [r3, #8]
 746 003a 9A42     		cmp	r2, r3
 747 003c F6D8     		bhi	.L48
 748              		.loc 2 343 0
 749 003e 009B     		ldr	r3, [sp]
 750 0040 019A     		ldr	r2, [sp, #4]
 751 0042 1A60     		str	r2, [r3]
 752              		.loc 2 344 0
 753 0044 019B     		ldr	r3, [sp, #4]
 754 0046 5A68     		ldr	r2, [r3, #4]
 755 0048 009B     		ldr	r3, [sp]
 756 004a 5A60     		str	r2, [r3, #4]
 757              		.loc 2 345 0
 758 004c 009B     		ldr	r3, [sp]
 759 004e 5B68     		ldr	r3, [r3, #4]
 760 0050 019A     		ldr	r2, [sp, #4]
 761 0052 0099     		ldr	r1, [sp]
 762 0054 5160     		str	r1, [r2, #4]
 763 0056 019A     		ldr	r2, [sp, #4]
 764 0058 5268     		ldr	r2, [r2, #4]
 765 005a 1A60     		str	r2, [r3]
 766              		.loc 2 347 0
 767 005c 0098     		ldr	r0, [sp]
 768 005e FFF7FEFF 		bl	dbg_trace
 769              	.LBB10:
 770 0062 6B46     		mov	r3, sp
 771 0064 A3F12402 		sub	r2, r3, #36
 772 0068 009B     		ldr	r3, [sp]
 773 006a DB69     		ldr	r3, [r3, #28]
ARM GAS  /home/pauba/tmp/ccQ2BtnS.s 			page 15


 774 006c 9A42     		cmp	r2, r3
 775 006e 02D2     		bcs	.L49
 776              		.loc 2 347 0 is_stmt 0 discriminator 1
 777 0070 0648     		ldr	r0, .L50+4
 778 0072 FFF7FEFF 		bl	chDbgPanic
 779              	.L49:
 780              		.loc 2 347 0 discriminator 2
 781 0076 044B     		ldr	r3, .L50
 782 0078 9B69     		ldr	r3, [r3, #24]
 783 007a 1846     		mov	r0, r3
 784 007c 0099     		ldr	r1, [sp]
 785 007e FFF7FEFF 		bl	_port_switch
 786              	.LBE10:
 787              		.loc 2 348 0 is_stmt 1 discriminator 2
 788 0082 03B0     		add	sp, sp, #12
 789              		@ sp needed
 790 0084 5DF804FB 		ldr	pc, [sp], #4
 791              	.L51:
 792              		.align	2
 793              	.L50:
 794 0088 00000000 		.word	rlist
 795 008c 14000000 		.word	.LC1
 796              		.cfi_endproc
 797              	.LFE15:
 798              		.size	chSchDoRescheduleAhead, .-chSchDoRescheduleAhead
 799              		.section	.text.chSchDoReschedule,"ax",%progbits
 800              		.align	2
 801              		.p2align 4,,15
 802              		.global	chSchDoReschedule
 803              		.thumb
 804              		.thumb_func
 805              		.type	chSchDoReschedule, %function
 806              	chSchDoReschedule:
 807              	.LFB16:
 808              		.loc 2 362 0
 809              		.cfi_startproc
 810              		@ args = 0, pretend = 0, frame = 0
 811              		@ frame_needed = 0, uses_anonymous_args = 0
 812 0000 08B5     		push	{r3, lr}
 813              		.cfi_def_cfa_offset 8
 814              		.cfi_offset 3, -8
 815              		.cfi_offset 14, -4
 816              		.loc 2 367 0
 817 0002 064B     		ldr	r3, .L55
 818 0004 9B69     		ldr	r3, [r3, #24]
 819 0006 93F82330 		ldrb	r3, [r3, #35]	@ zero_extendqisi2
 820 000a 002B     		cmp	r3, #0
 821 000c 02D1     		bne	.L53
 822              		.loc 2 370 0
 823 000e FFF7FEFF 		bl	chSchDoRescheduleBehind
 824 0012 01E0     		b	.L52
 825              	.L53:
 826              		.loc 2 375 0
 827 0014 FFF7FEFF 		bl	chSchDoRescheduleAhead
 828              	.L52:
 829              		.loc 2 382 0
 830 0018 08BD     		pop	{r3, pc}
ARM GAS  /home/pauba/tmp/ccQ2BtnS.s 			page 16


 831              	.L56:
 832 001a 00BF     		.align	2
 833              	.L55:
 834 001c 00000000 		.word	rlist
 835              		.cfi_endproc
 836              	.LFE16:
 837              		.size	chSchDoReschedule, .-chSchDoReschedule
 838              		.text
 839              	.Letext0:
 840              		.file 3 "/opt/gcc-arm-none-eabi-4_8-2014q1/arm-none-eabi/include/machine/_default_types.h"
 841              		.file 4 "/opt/gcc-arm-none-eabi-4_8-2014q1/arm-none-eabi/include/stdint.h"
 842              		.file 5 "/home/pauba/ChibiOS-RT/os/ports/GCC/ARMCMx/chtypes.h"
 843              		.file 6 "/home/pauba/ChibiOS-RT/os/kernel/include/chlists.h"
 844              		.file 7 "/home/pauba/ChibiOS-RT/os/kernel/include/chthreads.h"
 845              		.file 8 "/home/pauba/ChibiOS-RT/os/ports/GCC/ARMCMx/chcore_v7m.h"
 846              		.file 9 "/home/pauba/ChibiOS-RT/os/kernel/include/chvt.h"
 847              		.file 10 "/home/pauba/ChibiOS-RT/os/kernel/include/chschd.h"
 848              		.file 11 "/home/pauba/ChibiOS-RT/os/kernel/include/chsem.h"
 849              		.file 12 "/home/pauba/ChibiOS-RT/os/kernel/include/chmtx.h"