ARM GAS  /home/pauba/tmp/cc3GyDIs.s 			page 1


   1              		.syntax unified
   2              		.cpu cortex-m4
   3              		.fpu softvfp
   4              		.eabi_attribute 20, 1
   5              		.eabi_attribute 21, 1
   6              		.eabi_attribute 23, 3
   7              		.eabi_attribute 24, 1
   8              		.eabi_attribute 25, 1
   9              		.eabi_attribute 26, 1
  10              		.eabi_attribute 30, 6
  11              		.eabi_attribute 34, 1
  12              		.eabi_attribute 18, 4
  13              		.thumb
  14              		.file	"chsys.c"
  15              		.text
  16              	.Ltext0:
  17              		.cfi_sections	.debug_frame
  18              		.global	_idle_thread_wa
  19              		.section	.bss._idle_thread_wa,"aw",%nobits
  20              		.align	3
  21              		.type	_idle_thread_wa, %object
  22              		.size	_idle_thread_wa, 224
  23              	_idle_thread_wa:
  24 0000 00000000 		.space	224
  24      00000000 
  24      00000000 
  24      00000000 
  24      00000000 
  25              		.section	.rodata
  26              		.align	2
  27              	.LC0:
  28 0000 69646C65 		.ascii	"idle\000"
  28      00
  29 0005 000000   		.section	.text._idle_thread,"ax",%progbits
  30              		.align	2
  31              		.p2align 4,,15
  32              		.global	_idle_thread
  33              		.thumb
  34              		.thumb_func
  35              		.type	_idle_thread, %function
  36              	_idle_thread:
  37              	.LFB7:
  38              		.file 1 "/home/pauba/ChibiOS-RT/os/kernel/src/chsys.c"
  39              		.loc 1 61 0
  40              		.cfi_startproc
  41              		@ args = 0, pretend = 0, frame = 8
  42              		@ frame_needed = 0, uses_anonymous_args = 0
  43              		@ link register save eliminated.
  44 0000 82B0     		sub	sp, sp, #8
  45              		.cfi_def_cfa_offset 8
  46 0002 0190     		str	r0, [sp, #4]
  47              		.loc 1 64 0
  48 0004 024B     		ldr	r3, .L3
  49 0006 9B69     		ldr	r3, [r3, #24]
  50 0008 024A     		ldr	r2, .L3+4
  51 000a 9A61     		str	r2, [r3, #24]
  52              	.L2:
ARM GAS  /home/pauba/tmp/cc3GyDIs.s 			page 2


  53              		.loc 1 68 0 discriminator 1
  54 000c FEE7     		b	.L2
  55              	.L4:
  56 000e 00BF     		.align	2
  57              	.L3:
  58 0010 00000000 		.word	rlist
  59 0014 00000000 		.word	.LC0
  60              		.cfi_endproc
  61              	.LFE7:
  62              		.size	_idle_thread, .-_idle_thread
  63 0018 AFF30080 		.section	.text.chSysInit,"ax",%progbits
  63      AFF30080 
  64              		.align	2
  65              		.p2align 4,,15
  66              		.global	chSysInit
  67              		.thumb
  68              		.thumb_func
  69              		.type	chSysInit, %function
  70              	chSysInit:
  71              	.LFB8:
  72              		.loc 1 84 0
  73              		.cfi_startproc
  74              		@ args = 0, pretend = 0, frame = 0
  75              		@ frame_needed = 0, uses_anonymous_args = 0
  76 0000 00B5     		push	{lr}
  77              		.cfi_def_cfa_offset 4
  78              		.cfi_offset 14, -4
  79 0002 83B0     		sub	sp, sp, #12
  80              		.cfi_def_cfa_offset 16
  81              		.loc 1 90 0
  82 0004 FFF7FEFF 		bl	_port_init
  83              		.loc 1 91 0
  84 0008 FFF7FEFF 		bl	_scheduler_init
  85              		.loc 1 92 0
  86 000c FFF7FEFF 		bl	_vt_init
  87              		.loc 1 94 0
  88 0010 FFF7FEFF 		bl	_core_init
  89              		.loc 1 97 0
  90 0014 FFF7FEFF 		bl	_heap_init
  91              		.loc 1 100 0
  92 0018 FFF7FEFF 		bl	_trace_init
  93              		.loc 1 104 0
  94 001c 1248     		ldr	r0, .L6
  95 001e 4021     		movs	r1, #64
  96 0020 FFF7FEFF 		bl	_thread_init
  97 0024 0246     		mov	r2, r0
  98 0026 114B     		ldr	r3, .L6+4
  99 0028 9A61     		str	r2, [r3, #24]
 100              		.loc 1 105 0
 101 002a 104B     		ldr	r3, .L6+4
 102 002c 9B69     		ldr	r3, [r3, #24]
 103 002e 0122     		movs	r2, #1
 104 0030 83F82020 		strb	r2, [r3, #32]
 105              		.loc 1 109 0
 106 0034 0D4B     		ldr	r3, .L6+4
 107 0036 9B69     		ldr	r3, [r3, #24]
 108 0038 0D4A     		ldr	r2, .L6+8
ARM GAS  /home/pauba/tmp/cc3GyDIs.s 			page 3


 109 003a DA61     		str	r2, [r3, #28]
 110              		.loc 1 111 0
 111 003c FFF7FEFF 		bl	dbg_check_enable
 112              	.LBB2:
 113 0040 0023     		movs	r3, #0
 114              	@ 111 "/home/pauba/ChibiOS-RT/os/kernel/src/chsys.c" 1
 115 0042 83F31188 		msr     BASEPRI, r3                    
 116 0046 62B6     		cpsie   i
 117              	@ 0 "" 2
 118              		.thumb
 119              	.LBE2:
 120              		.loc 1 115 0
 121 0048 084B     		ldr	r3, .L6+4
 122 004a 9B69     		ldr	r3, [r3, #24]
 123 004c 094A     		ldr	r2, .L6+12
 124 004e 9A61     		str	r2, [r3, #24]
 125              		.loc 1 121 0
 126 0050 0023     		movs	r3, #0
 127 0052 0093     		str	r3, [sp]
 128 0054 0848     		ldr	r0, .L6+16
 129 0056 E021     		movs	r1, #224
 130 0058 0122     		movs	r2, #1
 131 005a 084B     		ldr	r3, .L6+20
 132 005c FFF7FEFF 		bl	chThdCreateStatic
 133              		.loc 1 124 0
 134 0060 03B0     		add	sp, sp, #12
 135              		@ sp needed
 136 0062 5DF804FB 		ldr	pc, [sp], #4
 137              	.L7:
 138 0066 00BF     		.align	2
 139              	.L6:
 140 0068 00000000 		.word	mainthread.4842
 141 006c 00000000 		.word	rlist
 142 0070 00000000 		.word	__main_thread_stack_base__
 143 0074 00000000 		.word	ch_debug
 144 0078 00000000 		.word	_idle_thread_wa
 145 007c 00000000 		.word	_idle_thread
 146              		.cfi_endproc
 147              	.LFE8:
 148              		.size	chSysInit, .-chSysInit
 149              		.section	.text.chSysTimerHandlerI,"ax",%progbits
 150              		.align	2
 151              		.p2align 4,,15
 152              		.global	chSysTimerHandlerI
 153              		.thumb
 154              		.thumb_func
 155              		.type	chSysTimerHandlerI, %function
 156              	chSysTimerHandlerI:
 157              	.LFB9:
 158              		.loc 1 137 0
 159              		.cfi_startproc
 160              		@ args = 0, pretend = 0, frame = 8
 161              		@ frame_needed = 0, uses_anonymous_args = 0
 162 0000 00B5     		push	{lr}
 163              		.cfi_def_cfa_offset 4
 164              		.cfi_offset 14, -4
 165 0002 83B0     		sub	sp, sp, #12
ARM GAS  /home/pauba/tmp/cc3GyDIs.s 			page 4


 166              		.cfi_def_cfa_offset 16
 167              		.loc 1 139 0
 168 0004 FFF7FEFF 		bl	chDbgCheckClassI
 169              		.loc 1 143 0
 170 0008 244B     		ldr	r3, .L13
 171 000a 9B69     		ldr	r3, [r3, #24]
 172 000c 93F82330 		ldrb	r3, [r3, #35]	@ zero_extendqisi2
 173 0010 002B     		cmp	r3, #0
 174 0012 07D0     		beq	.L9
 175              		.loc 1 145 0
 176 0014 214B     		ldr	r3, .L13
 177 0016 9B69     		ldr	r3, [r3, #24]
 178 0018 93F82320 		ldrb	r2, [r3, #35]	@ zero_extendqisi2
 179 001c 013A     		subs	r2, r2, #1
 180 001e D2B2     		uxtb	r2, r2
 181 0020 83F82320 		strb	r2, [r3, #35]
 182              	.L9:
 183              		.loc 1 148 0
 184 0024 1D4B     		ldr	r3, .L13
 185 0026 9B69     		ldr	r3, [r3, #24]
 186 0028 5A6A     		ldr	r2, [r3, #36]
 187 002a 0132     		adds	r2, r2, #1
 188 002c 5A62     		str	r2, [r3, #36]
 189              		.loc 1 150 0
 190 002e 1C4B     		ldr	r3, .L13+4
 191 0030 DB68     		ldr	r3, [r3, #12]
 192 0032 5A1C     		adds	r2, r3, #1
 193 0034 1A4B     		ldr	r3, .L13+4
 194 0036 DA60     		str	r2, [r3, #12]
 195 0038 194B     		ldr	r3, .L13+4
 196 003a 1A68     		ldr	r2, [r3]
 197 003c 184B     		ldr	r3, .L13+4
 198 003e 9A42     		cmp	r2, r3
 199 0040 29D0     		beq	.L8
 200              	.LBB3:
 201              		.loc 1 150 0 is_stmt 0 discriminator 1
 202 0042 174B     		ldr	r3, .L13+4
 203 0044 1B68     		ldr	r3, [r3]
 204 0046 9A68     		ldr	r2, [r3, #8]
 205 0048 013A     		subs	r2, r2, #1
 206 004a 9A60     		str	r2, [r3, #8]
 207 004c 1CE0     		b	.L11
 208              	.L12:
 209              	.LBB4:
 210              		.loc 1 150 0 discriminator 2
 211 004e 019B     		ldr	r3, [sp, #4]
 212 0050 DB68     		ldr	r3, [r3, #12]
 213 0052 0093     		str	r3, [sp]
 214 0054 019B     		ldr	r3, [sp, #4]
 215 0056 0022     		movs	r2, #0
 216 0058 DA60     		str	r2, [r3, #12]
 217 005a 019B     		ldr	r3, [sp, #4]
 218 005c 1B68     		ldr	r3, [r3]
 219 005e 104A     		ldr	r2, .L13+4
 220 0060 5A60     		str	r2, [r3, #4]
 221 0062 019B     		ldr	r3, [sp, #4]
 222 0064 1A68     		ldr	r2, [r3]
ARM GAS  /home/pauba/tmp/cc3GyDIs.s 			page 5


 223 0066 0E4B     		ldr	r3, .L13+4
 224 0068 1A60     		str	r2, [r3]
 225 006a FFF7FEFF 		bl	dbg_check_unlock_from_isr
 226              	.LBB5:
 227 006e 0023     		movs	r3, #0
 228              	@ 150 "/home/pauba/ChibiOS-RT/os/kernel/src/chsys.c" 1
 229 0070 83F31188 		msr     BASEPRI, r3
 230              	@ 0 "" 2
 231              		.thumb
 232              	.LBE5:
 233 0074 019B     		ldr	r3, [sp, #4]
 234 0076 1A69     		ldr	r2, [r3, #16]
 235 0078 009B     		ldr	r3, [sp]
 236 007a 1046     		mov	r0, r2
 237 007c 9847     		blx	r3
 238              	.LBB6:
 239 007e 2023     		movs	r3, #32
 240              	@ 150 "/home/pauba/ChibiOS-RT/os/kernel/src/chsys.c" 1
 241 0080 83F31188 		msr     BASEPRI, r3
 242              	@ 0 "" 2
 243              		.thumb
 244              	.LBE6:
 245 0084 FFF7FEFF 		bl	dbg_check_lock_from_isr
 246              	.L11:
 247              	.LBE4:
 248              		.loc 1 150 0 discriminator 1
 249 0088 054B     		ldr	r3, .L13+4
 250 008a 1B68     		ldr	r3, [r3]
 251 008c 0193     		str	r3, [sp, #4]
 252 008e 019B     		ldr	r3, [sp, #4]
 253 0090 9B68     		ldr	r3, [r3, #8]
 254 0092 002B     		cmp	r3, #0
 255 0094 DBD0     		beq	.L12
 256              	.L8:
 257              	.LBE3:
 258              		.loc 1 154 0 is_stmt 1
 259 0096 03B0     		add	sp, sp, #12
 260              		@ sp needed
 261 0098 5DF804FB 		ldr	pc, [sp], #4
 262              	.L14:
 263              		.align	2
 264              	.L13:
 265 009c 00000000 		.word	rlist
 266 00a0 00000000 		.word	vtlist
 267              		.cfi_endproc
 268              	.LFE9:
 269              		.size	chSysTimerHandlerI, .-chSysTimerHandlerI
 270 00a4 AFF30080 		.section	.bss.mainthread.4842,"aw",%nobits
 270      AFF30080 
 270      AFF30080 
 271              		.align	2
 272              		.type	mainthread.4842, %object
 273              		.size	mainthread.4842, 76
 274              	mainthread.4842:
 275 0000 00000000 		.space	76
 275      00000000 
 275      00000000 
ARM GAS  /home/pauba/tmp/cc3GyDIs.s 			page 6


 275      00000000 
 275      00000000 
 276              		.text
 277              	.Letext0:
 278              		.file 2 "/opt/gcc-arm-none-eabi-4_8-2014q1/arm-none-eabi/include/machine/_default_types.h"
 279              		.file 3 "/opt/gcc-arm-none-eabi-4_8-2014q1/arm-none-eabi/include/stdint.h"
 280              		.file 4 "/home/pauba/ChibiOS-RT/os/ports/GCC/ARMCMx/chtypes.h"
 281              		.file 5 "/home/pauba/ChibiOS-RT/os/kernel/include/chlists.h"
 282              		.file 6 "/home/pauba/ChibiOS-RT/os/kernel/include/chthreads.h"
 283              		.file 7 "/home/pauba/ChibiOS-RT/os/ports/GCC/ARMCMx/chcore_v7m.h"
 284              		.file 8 "/home/pauba/ChibiOS-RT/os/kernel/include/chvt.h"
 285              		.file 9 "/home/pauba/ChibiOS-RT/os/kernel/include/chschd.h"
 286              		.file 10 "/home/pauba/ChibiOS-RT/os/kernel/include/chmtx.h"
 287              		.file 11 "/home/pauba/ChibiOS-RT/os/kernel/include/chregistry.h"