ARM GAS  /home/pauba/tmp/ccsfdY4c.s 			page 1


   1              		.syntax unified
   2              		.cpu cortex-m4
   3              		.fpu softvfp
   4              		.eabi_attribute 20, 1
   5              		.eabi_attribute 21, 1
   6              		.eabi_attribute 23, 3
   7              		.eabi_attribute 24, 1
   8              		.eabi_attribute 25, 1
   9              		.eabi_attribute 26, 1
  10              		.eabi_attribute 30, 6
  11              		.eabi_attribute 34, 1
  12              		.eabi_attribute 18, 4
  13              		.thumb
  14              		.file	"crt0.c"
  15              		.text
  16              	.Ltext0:
  17              		.cfi_sections	.debug_frame
  18              		.section	.text.__early_init,"ax",%progbits
  19              		.align	2
  20              		.p2align 4,,15
  21              		.weak	__early_init
  22              		.thumb
  23              		.thumb_func
  24              		.type	__early_init, %function
  25              	__early_init:
  26              	.LFB0:
  27              		.file 1 "/home/pauba/ChibiOS-RT/os/ports/GCC/ARMCMx/crt0.c"
  28              		.loc 1 234 0
  29              		.cfi_startproc
  30              		@ args = 0, pretend = 0, frame = 0
  31              		@ frame_needed = 0, uses_anonymous_args = 0
  32              		@ link register save eliminated.
  33              		.loc 1 234 0
  34 0000 7047     		bx	lr
  35              		.cfi_endproc
  36              	.LFE0:
  37              		.size	__early_init, .-__early_init
  38 0002 00BFAFF3 		.section	.text.__late_init,"ax",%progbits
  38      0080AFF3 
  38      0080AFF3 
  38      0080
  39              		.align	2
  40              		.p2align 4,,15
  41              		.weak	__late_init
  42              		.thumb
  43              		.thumb_func
  44              		.type	__late_init, %function
  45              	__late_init:
  46              	.LFB1:
  47              		.loc 1 246 0
  48              		.cfi_startproc
  49              		@ args = 0, pretend = 0, frame = 0
  50              		@ frame_needed = 0, uses_anonymous_args = 0
  51              		@ link register save eliminated.
  52              		.loc 1 246 0
  53 0000 7047     		bx	lr
  54              		.cfi_endproc
ARM GAS  /home/pauba/tmp/ccsfdY4c.s 			page 2


  55              	.LFE1:
  56              		.size	__late_init, .-__late_init
  57 0002 00BFAFF3 		.section	.text._default_exit,"ax",%progbits
  57      0080AFF3 
  57      0080AFF3 
  57      0080
  58              		.align	2
  59              		.p2align 4,,15
  60              		.weak	_default_exit
  61              		.thumb
  62              		.thumb_func
  63              		.type	_default_exit, %function
  64              	_default_exit:
  65              	.LFB2:
  66              		.loc 1 257 0
  67              		.cfi_startproc
  68              		@ Naked Function: prologue and epilogue provided by programmer.
  69              		@ args = 0, pretend = 0, frame = 0
  70              		@ frame_needed = 0, uses_anonymous_args = 0
  71              	.L4:
  72              		.loc 1 259 0 discriminator 1
  73 0000 FEE7     		b	.L4
  74              		.cfi_endproc
  75              	.LFE2:
  76              		.size	_default_exit, .-_default_exit
  77 0002 00BFAFF3 		.section	.text.ResetHandler,"ax",%progbits
  77      0080AFF3 
  77      0080AFF3 
  77      0080
  78              		.align	2
  79              		.p2align 4,,15
  80              		.global	ResetHandler
  81              		.thumb
  82              		.thumb_func
  83              		.type	ResetHandler, %function
  84              	ResetHandler:
  85              	.LFB3:
  86              		.loc 1 268 0
  87              		.cfi_startproc
  88              		@ Naked Function: prologue and epilogue provided by programmer.
  89              		@ args = 0, pretend = 0, frame = 0
  90              		@ frame_needed = 0, uses_anonymous_args = 0
  91              		.loc 1 274 0
  92              	@ 274 "/home/pauba/ChibiOS-RT/os/ports/GCC/ARMCMx/crt0.c" 1
  93 0000 72B6     		cpsid   i
  94              	@ 0 "" 2
  95              		.loc 1 275 0
  96              		.thumb
  97 0002 244C     		ldr	r4, .L18
  98              		.loc 1 276 0
  99              	@ 276 "/home/pauba/ChibiOS-RT/os/ports/GCC/ARMCMx/crt0.c" 1
 100 0004 84F30988 		msr     PSP, r4
 101              	@ 0 "" 2
 102              		.loc 1 294 0
 103              		.thumb
 104 0008 0224     		movs	r4, #2
 105              		.loc 1 296 0
ARM GAS  /home/pauba/tmp/ccsfdY4c.s 			page 3


 106              	@ 296 "/home/pauba/ChibiOS-RT/os/ports/GCC/ARMCMx/crt0.c" 1
 107 000a 84F31488 		msr     CONTROL, r4
 108              	@ 0 "" 2
 109              		.loc 1 297 0
 110              	@ 297 "/home/pauba/ChibiOS-RT/os/ports/GCC/ARMCMx/crt0.c" 1
 111 000e BFF36F8F 		isb
 112              	@ 0 "" 2
 113              		.thumb
 114              	.LBB2:
 115              		.loc 1 301 0
 116 0012 214C     		ldr	r4, .L18+4
 117 0014 214D     		ldr	r5, .L18+8
 118 0016 04E0     		b	.L6
 119              	.L7:
 120              		.loc 1 301 0 is_stmt 0 discriminator 2
 121 0018 2346     		mov	r3, r4
 122 001a 1C1D     		adds	r4, r3, #4
 123 001c 4FF05532 		mov	r2, #1431655765
 124 0020 1A60     		str	r2, [r3]
 125              	.L6:
 126              		.loc 1 301 0 discriminator 1
 127 0022 AC42     		cmp	r4, r5
 128 0024 F8D3     		bcc	.L7
 129              	.LBE2:
 130              	.LBB3:
 131              		.loc 1 304 0 is_stmt 1
 132 0026 1E4C     		ldr	r4, .L18+12
 133 0028 1A4D     		ldr	r5, .L18
 134 002a 04E0     		b	.L8
 135              	.L9:
 136              		.loc 1 304 0 is_stmt 0 discriminator 2
 137 002c 2346     		mov	r3, r4
 138 002e 1C1D     		adds	r4, r3, #4
 139 0030 4FF05532 		mov	r2, #1431655765
 140 0034 1A60     		str	r2, [r3]
 141              	.L8:
 142              		.loc 1 304 0 discriminator 1
 143 0036 AC42     		cmp	r4, r5
 144 0038 F8D3     		bcc	.L9
 145              	.LBE3:
 146              		.loc 1 310 0 is_stmt 1
 147 003a FFF7FEFF 		bl	__early_init
 148              	.LBB4:
 149              		.loc 1 317 0
 150 003e 194D     		ldr	r5, .L18+16
 151              		.loc 1 318 0
 152 0040 194C     		ldr	r4, .L18+20
 153              		.loc 1 319 0
 154 0042 05E0     		b	.L10
 155              	.L11:
 156              		.loc 1 320 0
 157 0044 2346     		mov	r3, r4
 158 0046 1C1D     		adds	r4, r3, #4
 159 0048 2A46     		mov	r2, r5
 160 004a 151D     		adds	r5, r2, #4
 161 004c 1268     		ldr	r2, [r2]
 162 004e 1A60     		str	r2, [r3]
ARM GAS  /home/pauba/tmp/ccsfdY4c.s 			page 4


 163              	.L10:
 164              		.loc 1 319 0 discriminator 1
 165 0050 164B     		ldr	r3, .L18+24
 166 0052 9C42     		cmp	r4, r3
 167 0054 F6D3     		bcc	.L11
 168              	.LBE4:
 169              	.LBB5:
 170              		.loc 1 326 0
 171 0056 164C     		ldr	r4, .L18+28
 172 0058 164D     		ldr	r5, .L18+32
 173 005a 03E0     		b	.L12
 174              	.L13:
 175              		.loc 1 326 0 is_stmt 0 discriminator 2
 176 005c 2346     		mov	r3, r4
 177 005e 1C1D     		adds	r4, r3, #4
 178 0060 0022     		movs	r2, #0
 179 0062 1A60     		str	r2, [r3]
 180              	.L12:
 181              		.loc 1 326 0 discriminator 1
 182 0064 AC42     		cmp	r4, r5
 183 0066 F9D3     		bcc	.L13
 184              	.LBE5:
 185              		.loc 1 330 0 is_stmt 1
 186 0068 FFF7FEFF 		bl	__late_init
 187              	.LBB6:
 188              		.loc 1 335 0
 189 006c 124C     		ldr	r4, .L18+36
 190              		.loc 1 336 0
 191 006e 02E0     		b	.L14
 192              	.L15:
 193              		.loc 1 337 0
 194 0070 2368     		ldr	r3, [r4]
 195 0072 9847     		blx	r3
 196              		.loc 1 338 0
 197 0074 0434     		adds	r4, r4, #4
 198              	.L14:
 199              		.loc 1 336 0 discriminator 1
 200 0076 114B     		ldr	r3, .L18+40
 201 0078 9C42     		cmp	r4, r3
 202 007a F9D3     		bcc	.L15
 203              	.LBE6:
 204              		.loc 1 344 0
 205 007c FFF7FEFF 		bl	main
 206              	.LBB7:
 207              		.loc 1 349 0
 208 0080 0F4C     		ldr	r4, .L18+44
 209              		.loc 1 350 0
 210 0082 02E0     		b	.L16
 211              	.L17:
 212              		.loc 1 351 0
 213 0084 2368     		ldr	r3, [r4]
 214 0086 9847     		blx	r3
 215              		.loc 1 352 0
 216 0088 0434     		adds	r4, r4, #4
 217              	.L16:
 218              		.loc 1 350 0 discriminator 1
 219 008a 0E4B     		ldr	r3, .L18+48
ARM GAS  /home/pauba/tmp/ccsfdY4c.s 			page 5


 220 008c 9C42     		cmp	r4, r3
 221 008e F9D3     		bcc	.L17
 222              	.LBE7:
 223              		.loc 1 358 0
 224 0090 FFF7FEFF 		bl	_default_exit
 225              		.loc 1 359 0
 226              	.L19:
 227              		.align	2
 228              	.L18:
 229 0094 00000000 		.word	__process_stack_end__
 230 0098 00000000 		.word	__main_stack_base__
 231 009c 00000000 		.word	__main_stack_end__
 232 00a0 00000000 		.word	__process_stack_base__
 233 00a4 00000000 		.word	_textdata
 234 00a8 00000000 		.word	_data
 235 00ac 00000000 		.word	_edata
 236 00b0 00000000 		.word	_bss_start
 237 00b4 00000000 		.word	_bss_end
 238 00b8 00000000 		.word	__init_array_start
 239 00bc 00000000 		.word	__init_array_end
 240 00c0 00000000 		.word	__fini_array_start
 241 00c4 00000000 		.word	__fini_array_end
 242              		.cfi_endproc
 243              	.LFE3:
 244              		.size	ResetHandler, .-ResetHandler
 245 00c8 AFF30080 		.text
 245      AFF30080 
 246              	.Letext0:
 247              		.file 2 "/opt/gcc-arm-none-eabi-4_8-2014q1/arm-none-eabi/include/machine/_default_types.h"
 248              		.file 3 "/opt/gcc-arm-none-eabi-4_8-2014q1/arm-none-eabi/include/stdint.h"