ARM GAS  /home/pauba/tmp/ccDymCsd.s 			page 1


   1              		.syntax unified
   2              		.cpu cortex-m4
   3              		.fpu softvfp
   4              		.eabi_attribute 20, 1
   5              		.eabi_attribute 21, 1
   6              		.eabi_attribute 23, 3
   7              		.eabi_attribute 24, 1
   8              		.eabi_attribute 25, 1
   9              		.eabi_attribute 26, 1
  10              		.eabi_attribute 30, 6
  11              		.eabi_attribute 34, 1
  12              		.eabi_attribute 18, 4
  13              		.thumb
  14              		.file	"ext.c"
  15              		.text
  16              	.Ltext0:
  17              		.cfi_sections	.debug_frame
  18              		.section	.text.extInit,"ax",%progbits
  19              		.align	2
  20              		.p2align 4,,15
  21              		.global	extInit
  22              		.thumb
  23              		.thumb_func
  24              		.type	extInit, %function
  25              	extInit:
  26              	.LFB63:
  27              		.file 1 "/home/pauba/ChibiOS-RT/os/hal/src/ext.c"
  28              		.loc 1 68 0
  29              		.cfi_startproc
  30              		@ args = 0, pretend = 0, frame = 0
  31              		@ frame_needed = 0, uses_anonymous_args = 0
  32 0000 08B5     		push	{r3, lr}
  33              		.cfi_def_cfa_offset 8
  34              		.cfi_offset 3, -8
  35              		.cfi_offset 14, -4
  36              		.loc 1 70 0
  37 0002 FFF7FEFF 		bl	ext_lld_init
  38              		.loc 1 71 0
  39 0006 08BD     		pop	{r3, pc}
  40              		.cfi_endproc
  41              	.LFE63:
  42              		.size	extInit, .-extInit
  43 0008 AFF30080 		.section	.text.extObjectInit,"ax",%progbits
  43      AFF30080 
  44              		.align	2
  45              		.p2align 4,,15
  46              		.global	extObjectInit
  47              		.thumb
  48              		.thumb_func
  49              		.type	extObjectInit, %function
  50              	extObjectInit:
  51              	.LFB64:
  52              		.loc 1 80 0
  53              		.cfi_startproc
  54              		@ args = 0, pretend = 0, frame = 8
  55              		@ frame_needed = 0, uses_anonymous_args = 0
  56              		@ link register save eliminated.
ARM GAS  /home/pauba/tmp/ccDymCsd.s 			page 2


  57 0000 82B0     		sub	sp, sp, #8
  58              		.cfi_def_cfa_offset 8
  59 0002 0190     		str	r0, [sp, #4]
  60              		.loc 1 82 0
  61 0004 019B     		ldr	r3, [sp, #4]
  62 0006 0122     		movs	r2, #1
  63 0008 1A70     		strb	r2, [r3]
  64              		.loc 1 83 0
  65 000a 019B     		ldr	r3, [sp, #4]
  66 000c 0022     		movs	r2, #0
  67 000e 5A60     		str	r2, [r3, #4]
  68              		.loc 1 84 0
  69 0010 02B0     		add	sp, sp, #8
  70              		@ sp needed
  71 0012 7047     		bx	lr
  72              		.cfi_endproc
  73              	.LFE64:
  74              		.size	extObjectInit, .-extObjectInit
  75 0014 AFF30080 		.section	.rodata
  75      AFF30080 
  75      AFF30080 
  76              		.align	2
  77              	.LC0:
  78 0000 22657874 		.ascii	"\"extStart\"()\000"
  78      53746172 
  78      74222829 
  78      00
  79 000d 000000   		.align	2
  80              	.LC1:
  81 0010 65787453 		.ascii	"extStart(), #1\000"
  81      74617274 
  81      28292C20 
  81      233100
  82              		.section	.text.extStart,"ax",%progbits
  83              		.align	2
  84              		.p2align 4,,15
  85              		.global	extStart
  86              		.thumb
  87              		.thumb_func
  88              		.type	extStart, %function
  89              	extStart:
  90              	.LFB65:
  91              		.loc 1 96 0
  92              		.cfi_startproc
  93              		@ args = 0, pretend = 0, frame = 8
  94              		@ frame_needed = 0, uses_anonymous_args = 0
  95 0000 00B5     		push	{lr}
  96              		.cfi_def_cfa_offset 4
  97              		.cfi_offset 14, -4
  98 0002 83B0     		sub	sp, sp, #12
  99              		.cfi_def_cfa_offset 16
 100 0004 0190     		str	r0, [sp, #4]
 101 0006 0091     		str	r1, [sp]
 102              		.loc 1 98 0
 103 0008 019B     		ldr	r3, [sp, #4]
 104 000a 002B     		cmp	r3, #0
 105 000c 02D0     		beq	.L4
ARM GAS  /home/pauba/tmp/ccDymCsd.s 			page 3


 106              		.loc 1 98 0 is_stmt 0 discriminator 2
 107 000e 009B     		ldr	r3, [sp]
 108 0010 002B     		cmp	r3, #0
 109 0012 02D1     		bne	.L5
 110              	.L4:
 111              		.loc 1 98 0 discriminator 1
 112 0014 1148     		ldr	r0, .L7
 113 0016 FFF7FEFF 		bl	chDbgPanic
 114              	.L5:
 115              	.LBB2:
 116              		.loc 1 100 0 is_stmt 1
 117 001a 2023     		movs	r3, #32
 118              	@ 100 "/home/pauba/ChibiOS-RT/os/hal/src/ext.c" 1
 119 001c 83F31188 		msr     BASEPRI, r3
 120              	@ 0 "" 2
 121              		.thumb
 122              	.LBE2:
 123 0020 FFF7FEFF 		bl	dbg_check_lock
 124              		.loc 1 101 0
 125 0024 019B     		ldr	r3, [sp, #4]
 126 0026 1B78     		ldrb	r3, [r3]	@ zero_extendqisi2
 127 0028 012B     		cmp	r3, #1
 128 002a 06D0     		beq	.L6
 129              		.loc 1 101 0 is_stmt 0 discriminator 1
 130 002c 019B     		ldr	r3, [sp, #4]
 131 002e 1B78     		ldrb	r3, [r3]	@ zero_extendqisi2
 132 0030 022B     		cmp	r3, #2
 133 0032 02D0     		beq	.L6
 134 0034 0A48     		ldr	r0, .L7+4
 135 0036 FFF7FEFF 		bl	chDbgPanic
 136              	.L6:
 137              		.loc 1 103 0 is_stmt 1
 138 003a 019B     		ldr	r3, [sp, #4]
 139 003c 009A     		ldr	r2, [sp]
 140 003e 5A60     		str	r2, [r3, #4]
 141              		.loc 1 104 0
 142 0040 0198     		ldr	r0, [sp, #4]
 143 0042 FFF7FEFF 		bl	ext_lld_start
 144              		.loc 1 105 0
 145 0046 019B     		ldr	r3, [sp, #4]
 146 0048 0222     		movs	r2, #2
 147 004a 1A70     		strb	r2, [r3]
 148              		.loc 1 106 0
 149 004c FFF7FEFF 		bl	dbg_check_unlock
 150              	.LBB3:
 151 0050 0023     		movs	r3, #0
 152              	@ 106 "/home/pauba/ChibiOS-RT/os/hal/src/ext.c" 1
 153 0052 83F31188 		msr     BASEPRI, r3
 154              	@ 0 "" 2
 155              		.thumb
 156              	.LBE3:
 157              		.loc 1 107 0
 158 0056 03B0     		add	sp, sp, #12
 159              		@ sp needed
 160 0058 5DF804FB 		ldr	pc, [sp], #4
 161              	.L8:
 162              		.align	2
ARM GAS  /home/pauba/tmp/ccDymCsd.s 			page 4


 163              	.L7:
 164 005c 00000000 		.word	.LC0
 165 0060 10000000 		.word	.LC1
 166              		.cfi_endproc
 167              	.LFE65:
 168              		.size	extStart, .-extStart
 169 0064 AFF30080 		.section	.rodata
 169      AFF30080 
 169      AFF30080 
 170 001f 00       		.align	2
 171              	.LC2:
 172 0020 22657874 		.ascii	"\"extStop\"()\000"
 172      53746F70 
 172      22282900 
 173              		.align	2
 174              	.LC3:
 175 002c 65787453 		.ascii	"extStop(), #1\000"
 175      746F7028 
 175      292C2023 
 175      3100
 176              		.section	.text.extStop,"ax",%progbits
 177              		.align	2
 178              		.p2align 4,,15
 179              		.global	extStop
 180              		.thumb
 181              		.thumb_func
 182              		.type	extStop, %function
 183              	extStop:
 184              	.LFB66:
 185              		.loc 1 116 0
 186              		.cfi_startproc
 187              		@ args = 0, pretend = 0, frame = 8
 188              		@ frame_needed = 0, uses_anonymous_args = 0
 189 0000 00B5     		push	{lr}
 190              		.cfi_def_cfa_offset 4
 191              		.cfi_offset 14, -4
 192 0002 83B0     		sub	sp, sp, #12
 193              		.cfi_def_cfa_offset 16
 194 0004 0190     		str	r0, [sp, #4]
 195              		.loc 1 118 0
 196 0006 019B     		ldr	r3, [sp, #4]
 197 0008 002B     		cmp	r3, #0
 198 000a 02D1     		bne	.L10
 199              		.loc 1 118 0 is_stmt 0 discriminator 1
 200 000c 1048     		ldr	r0, .L12
 201 000e FFF7FEFF 		bl	chDbgPanic
 202              	.L10:
 203              	.LBB4:
 204              		.loc 1 120 0 is_stmt 1
 205 0012 2023     		movs	r3, #32
 206              	@ 120 "/home/pauba/ChibiOS-RT/os/hal/src/ext.c" 1
 207 0014 83F31188 		msr     BASEPRI, r3
 208              	@ 0 "" 2
 209              		.thumb
 210              	.LBE4:
 211 0018 FFF7FEFF 		bl	dbg_check_lock
 212              		.loc 1 121 0
ARM GAS  /home/pauba/tmp/ccDymCsd.s 			page 5


 213 001c 019B     		ldr	r3, [sp, #4]
 214 001e 1B78     		ldrb	r3, [r3]	@ zero_extendqisi2
 215 0020 012B     		cmp	r3, #1
 216 0022 06D0     		beq	.L11
 217              		.loc 1 121 0 is_stmt 0 discriminator 1
 218 0024 019B     		ldr	r3, [sp, #4]
 219 0026 1B78     		ldrb	r3, [r3]	@ zero_extendqisi2
 220 0028 022B     		cmp	r3, #2
 221 002a 02D0     		beq	.L11
 222 002c 0948     		ldr	r0, .L12+4
 223 002e FFF7FEFF 		bl	chDbgPanic
 224              	.L11:
 225              		.loc 1 123 0 is_stmt 1
 226 0032 0198     		ldr	r0, [sp, #4]
 227 0034 FFF7FEFF 		bl	ext_lld_stop
 228              		.loc 1 124 0
 229 0038 019B     		ldr	r3, [sp, #4]
 230 003a 0122     		movs	r2, #1
 231 003c 1A70     		strb	r2, [r3]
 232              		.loc 1 125 0
 233 003e FFF7FEFF 		bl	dbg_check_unlock
 234              	.LBB5:
 235 0042 0023     		movs	r3, #0
 236              	@ 125 "/home/pauba/ChibiOS-RT/os/hal/src/ext.c" 1
 237 0044 83F31188 		msr     BASEPRI, r3
 238              	@ 0 "" 2
 239              		.thumb
 240              	.LBE5:
 241              		.loc 1 126 0
 242 0048 03B0     		add	sp, sp, #12
 243              		@ sp needed
 244 004a 5DF804FB 		ldr	pc, [sp], #4
 245              	.L13:
 246 004e 00BF     		.align	2
 247              	.L12:
 248 0050 20000000 		.word	.LC2
 249 0054 2C000000 		.word	.LC3
 250              		.cfi_endproc
 251              	.LFE66:
 252              		.size	extStop, .-extStop
 253 0058 AFF30080 		.section	.rodata
 253      AFF30080 
 254 003a 0000     		.align	2
 255              	.LC4:
 256 003c 22657874 		.ascii	"\"extChannelEnable\"()\000"
 256      4368616E 
 256      6E656C45 
 256      6E61626C 
 256      65222829 
 257 0051 000000   		.align	2
 258              	.LC5:
 259 0054 65787443 		.ascii	"extChannelEnable(), #1\000"
 259      68616E6E 
 259      656C456E 
 259      61626C65 
 259      28292C20 
 260              		.section	.text.extChannelEnable,"ax",%progbits
ARM GAS  /home/pauba/tmp/ccDymCsd.s 			page 6


 261              		.align	2
 262              		.p2align 4,,15
 263              		.global	extChannelEnable
 264              		.thumb
 265              		.thumb_func
 266              		.type	extChannelEnable, %function
 267              	extChannelEnable:
 268              	.LFB67:
 269              		.loc 1 137 0
 270              		.cfi_startproc
 271              		@ args = 0, pretend = 0, frame = 8
 272              		@ frame_needed = 0, uses_anonymous_args = 0
 273 0000 00B5     		push	{lr}
 274              		.cfi_def_cfa_offset 4
 275              		.cfi_offset 14, -4
 276 0002 83B0     		sub	sp, sp, #12
 277              		.cfi_def_cfa_offset 16
 278 0004 0190     		str	r0, [sp, #4]
 279 0006 0091     		str	r1, [sp]
 280              		.loc 1 139 0
 281 0008 019B     		ldr	r3, [sp, #4]
 282 000a 002B     		cmp	r3, #0
 283 000c 02D0     		beq	.L15
 284              		.loc 1 139 0 is_stmt 0 discriminator 2
 285 000e 009B     		ldr	r3, [sp]
 286 0010 162B     		cmp	r3, #22
 287 0012 02D9     		bls	.L16
 288              	.L15:
 289              		.loc 1 139 0 discriminator 1
 290 0014 1148     		ldr	r0, .L19
 291 0016 FFF7FEFF 		bl	chDbgPanic
 292              	.L16:
 293              	.LBB6:
 294              		.loc 1 142 0 is_stmt 1
 295 001a 2023     		movs	r3, #32
 296              	@ 142 "/home/pauba/ChibiOS-RT/os/hal/src/ext.c" 1
 297 001c 83F31188 		msr     BASEPRI, r3
 298              	@ 0 "" 2
 299              		.thumb
 300              	.LBE6:
 301 0020 FFF7FEFF 		bl	dbg_check_lock
 302              		.loc 1 143 0
 303 0024 019B     		ldr	r3, [sp, #4]
 304 0026 1B78     		ldrb	r3, [r3]	@ zero_extendqisi2
 305 0028 022B     		cmp	r3, #2
 306 002a 08D1     		bne	.L17
 307              		.loc 1 143 0 is_stmt 0 discriminator 2
 308 002c 019B     		ldr	r3, [sp, #4]
 309 002e 5B68     		ldr	r3, [r3, #4]
 310 0030 009A     		ldr	r2, [sp]
 311 0032 53F83230 		ldr	r3, [r3, r2, lsl #3]
 312 0036 03F00303 		and	r3, r3, #3
 313 003a 002B     		cmp	r3, #0
 314 003c 02D1     		bne	.L18
 315              	.L17:
 316              		.loc 1 143 0 discriminator 1
 317 003e 0848     		ldr	r0, .L19+4
ARM GAS  /home/pauba/tmp/ccDymCsd.s 			page 7


 318 0040 FFF7FEFF 		bl	chDbgPanic
 319              	.L18:
 320              		.loc 1 147 0 is_stmt 1
 321 0044 0198     		ldr	r0, [sp, #4]
 322 0046 0099     		ldr	r1, [sp]
 323 0048 FFF7FEFF 		bl	ext_lld_channel_enable
 324              		.loc 1 148 0
 325 004c FFF7FEFF 		bl	dbg_check_unlock
 326              	.LBB7:
 327 0050 0023     		movs	r3, #0
 328              	@ 148 "/home/pauba/ChibiOS-RT/os/hal/src/ext.c" 1
 329 0052 83F31188 		msr     BASEPRI, r3
 330              	@ 0 "" 2
 331              		.thumb
 332              	.LBE7:
 333              		.loc 1 149 0
 334 0056 03B0     		add	sp, sp, #12
 335              		@ sp needed
 336 0058 5DF804FB 		ldr	pc, [sp], #4
 337              	.L20:
 338              		.align	2
 339              	.L19:
 340 005c 3C000000 		.word	.LC4
 341 0060 54000000 		.word	.LC5
 342              		.cfi_endproc
 343              	.LFE67:
 344              		.size	extChannelEnable, .-extChannelEnable
 345 0064 AFF30080 		.section	.rodata
 345      AFF30080 
 345      AFF30080 
 346 006b 00       		.align	2
 347              	.LC6:
 348 006c 22657874 		.ascii	"\"extChannelDisable\"()\000"
 348      4368616E 
 348      6E656C44 
 348      69736162 
 348      6C652228 
 349 0082 0000     		.align	2
 350              	.LC7:
 351 0084 65787443 		.ascii	"extChannelDisable(), #1\000"
 351      68616E6E 
 351      656C4469 
 351      7361626C 
 351      6528292C 
 352              		.section	.text.extChannelDisable,"ax",%progbits
 353              		.align	2
 354              		.p2align 4,,15
 355              		.global	extChannelDisable
 356              		.thumb
 357              		.thumb_func
 358              		.type	extChannelDisable, %function
 359              	extChannelDisable:
 360              	.LFB68:
 361              		.loc 1 160 0
 362              		.cfi_startproc
 363              		@ args = 0, pretend = 0, frame = 8
 364              		@ frame_needed = 0, uses_anonymous_args = 0
ARM GAS  /home/pauba/tmp/ccDymCsd.s 			page 8


 365 0000 00B5     		push	{lr}
 366              		.cfi_def_cfa_offset 4
 367              		.cfi_offset 14, -4
 368 0002 83B0     		sub	sp, sp, #12
 369              		.cfi_def_cfa_offset 16
 370 0004 0190     		str	r0, [sp, #4]
 371 0006 0091     		str	r1, [sp]
 372              		.loc 1 162 0
 373 0008 019B     		ldr	r3, [sp, #4]
 374 000a 002B     		cmp	r3, #0
 375 000c 02D0     		beq	.L22
 376              		.loc 1 162 0 is_stmt 0 discriminator 2
 377 000e 009B     		ldr	r3, [sp]
 378 0010 162B     		cmp	r3, #22
 379 0012 02D9     		bls	.L23
 380              	.L22:
 381              		.loc 1 162 0 discriminator 1
 382 0014 1148     		ldr	r0, .L26
 383 0016 FFF7FEFF 		bl	chDbgPanic
 384              	.L23:
 385              	.LBB8:
 386              		.loc 1 165 0 is_stmt 1
 387 001a 2023     		movs	r3, #32
 388              	@ 165 "/home/pauba/ChibiOS-RT/os/hal/src/ext.c" 1
 389 001c 83F31188 		msr     BASEPRI, r3
 390              	@ 0 "" 2
 391              		.thumb
 392              	.LBE8:
 393 0020 FFF7FEFF 		bl	dbg_check_lock
 394              		.loc 1 166 0
 395 0024 019B     		ldr	r3, [sp, #4]
 396 0026 1B78     		ldrb	r3, [r3]	@ zero_extendqisi2
 397 0028 022B     		cmp	r3, #2
 398 002a 08D1     		bne	.L24
 399              		.loc 1 166 0 is_stmt 0 discriminator 2
 400 002c 019B     		ldr	r3, [sp, #4]
 401 002e 5B68     		ldr	r3, [r3, #4]
 402 0030 009A     		ldr	r2, [sp]
 403 0032 53F83230 		ldr	r3, [r3, r2, lsl #3]
 404 0036 03F00303 		and	r3, r3, #3
 405 003a 002B     		cmp	r3, #0
 406 003c 02D1     		bne	.L25
 407              	.L24:
 408              		.loc 1 166 0 discriminator 1
 409 003e 0848     		ldr	r0, .L26+4
 410 0040 FFF7FEFF 		bl	chDbgPanic
 411              	.L25:
 412              		.loc 1 170 0 is_stmt 1
 413 0044 0198     		ldr	r0, [sp, #4]
 414 0046 0099     		ldr	r1, [sp]
 415 0048 FFF7FEFF 		bl	ext_lld_channel_disable
 416              		.loc 1 171 0
 417 004c FFF7FEFF 		bl	dbg_check_unlock
 418              	.LBB9:
 419 0050 0023     		movs	r3, #0
 420              	@ 171 "/home/pauba/ChibiOS-RT/os/hal/src/ext.c" 1
 421 0052 83F31188 		msr     BASEPRI, r3
ARM GAS  /home/pauba/tmp/ccDymCsd.s 			page 9


 422              	@ 0 "" 2
 423              		.thumb
 424              	.LBE9:
 425              		.loc 1 172 0
 426 0056 03B0     		add	sp, sp, #12
 427              		@ sp needed
 428 0058 5DF804FB 		ldr	pc, [sp], #4
 429              	.L27:
 430              		.align	2
 431              	.L26:
 432 005c 6C000000 		.word	.LC6
 433 0060 84000000 		.word	.LC7
 434              		.cfi_endproc
 435              	.LFE68:
 436              		.size	extChannelDisable, .-extChannelDisable
 437 0064 AFF30080 		.section	.rodata
 437      AFF30080 
 437      AFF30080 
 438              		.align	2
 439              	.LC8:
 440 009c 22657874 		.ascii	"\"extSetChannelModeI\"()\000"
 440      53657443 
 440      68616E6E 
 440      656C4D6F 
 440      64654922 
 441 00b3 00       		.align	2
 442              	.LC9:
 443 00b4 65787453 		.ascii	"extSetChannelModeI(), #1\000"
 443      65744368 
 443      616E6E65 
 443      6C4D6F64 
 443      65492829 
 444 00cd 000000   		.section	.text.extSetChannelModeI,"ax",%progbits
 445              		.align	2
 446              		.p2align 4,,15
 447              		.global	extSetChannelModeI
 448              		.thumb
 449              		.thumb_func
 450              		.type	extSetChannelModeI, %function
 451              	extSetChannelModeI:
 452              	.LFB69:
 453              		.loc 1 193 0
 454              		.cfi_startproc
 455              		@ args = 0, pretend = 0, frame = 24
 456              		@ frame_needed = 0, uses_anonymous_args = 0
 457 0000 00B5     		push	{lr}
 458              		.cfi_def_cfa_offset 4
 459              		.cfi_offset 14, -4
 460 0002 87B0     		sub	sp, sp, #28
 461              		.cfi_def_cfa_offset 32
 462 0004 0390     		str	r0, [sp, #12]
 463 0006 0291     		str	r1, [sp, #8]
 464 0008 0192     		str	r2, [sp, #4]
 465              		.loc 1 196 0
 466 000a 039B     		ldr	r3, [sp, #12]
 467 000c 002B     		cmp	r3, #0
 468 000e 05D0     		beq	.L29
ARM GAS  /home/pauba/tmp/ccDymCsd.s 			page 10


 469              		.loc 1 196 0 is_stmt 0 discriminator 2
 470 0010 029B     		ldr	r3, [sp, #8]
 471 0012 162B     		cmp	r3, #22
 472 0014 02D8     		bhi	.L29
 473              		.loc 1 196 0 discriminator 1
 474 0016 019B     		ldr	r3, [sp, #4]
 475 0018 002B     		cmp	r3, #0
 476 001a 02D1     		bne	.L30
 477              	.L29:
 478 001c 0E48     		ldr	r0, .L32
 479 001e FFF7FEFF 		bl	chDbgPanic
 480              	.L30:
 481              		.loc 1 199 0 is_stmt 1
 482 0022 039B     		ldr	r3, [sp, #12]
 483 0024 1B78     		ldrb	r3, [r3]	@ zero_extendqisi2
 484 0026 022B     		cmp	r3, #2
 485 0028 02D0     		beq	.L31
 486              		.loc 1 199 0 is_stmt 0 discriminator 1
 487 002a 0C48     		ldr	r0, .L32+4
 488 002c FFF7FEFF 		bl	chDbgPanic
 489              	.L31:
 490              		.loc 1 204 0 is_stmt 1
 491 0030 039B     		ldr	r3, [sp, #12]
 492 0032 5A68     		ldr	r2, [r3, #4]
 493 0034 029B     		ldr	r3, [sp, #8]
 494 0036 DB00     		lsls	r3, r3, #3
 495 0038 1344     		add	r3, r3, r2
 496 003a 0593     		str	r3, [sp, #20]
 497              		.loc 1 208 0
 498 003c 059B     		ldr	r3, [sp, #20]
 499 003e 019A     		ldr	r2, [sp, #4]
 500 0040 92E80300 		ldmia	r2, {r0, r1}
 501 0044 83E80300 		stmia	r3, {r0, r1}
 502              		.loc 1 209 0
 503 0048 0398     		ldr	r0, [sp, #12]
 504 004a 0299     		ldr	r1, [sp, #8]
 505 004c FFF7FEFF 		bl	ext_lld_channel_enable
 506              		.loc 1 210 0
 507 0050 07B0     		add	sp, sp, #28
 508              		@ sp needed
 509 0052 5DF804FB 		ldr	pc, [sp], #4
 510              	.L33:
 511 0056 00BF     		.align	2
 512              	.L32:
 513 0058 9C000000 		.word	.LC8
 514 005c B4000000 		.word	.LC9
 515              		.cfi_endproc
 516              	.LFE69:
 517              		.size	extSetChannelModeI, .-extSetChannelModeI
 518              		.text
 519              	.Letext0:
 520              		.file 2 "/opt/gcc-arm-none-eabi-4_8-2014q1/arm-none-eabi/include/machine/_default_types.h"
 521              		.file 3 "/opt/gcc-arm-none-eabi-4_8-2014q1/arm-none-eabi/include/stdint.h"
 522              		.file 4 "/home/pauba/ChibiOS-RT/os/hal/include/ext.h"
 523              		.file 5 "/home/pauba/ChibiOS-RT/os/hal/platforms/STM32/ext_lld.h"
 524              		.file 6 "/home/pauba/ChibiOS-RT/os/ports/common/ARMCMx/CMSIS/include/core_cm3.h"
 525              		.section	.debug_info,"",%progbits
ARM GAS  /home/pauba/tmp/ccDymCsd.s 			page 11


 526              	.Ldebug_info0:
 527 0000 BA030000 		.4byte	0x3ba
 528 0004 0400     		.2byte	0x4
 529 0006 00000000 		.4byte	.Ldebug_abbrev0
 530 000a 04       		.byte	0x4
 531 000b 01       		.uleb128 0x1
 532 000c 57010000 		.4byte	.LASF39
 533 0010 01       		.byte	0x1
 534 0011 0A000000 		.4byte	.LASF40
 535 0015 00000000 		.4byte	.Ldebug_ranges0+0
 536 0019 00000000 		.4byte	0
 537 001d 00000000 		.4byte	.Ldebug_line0
 538 0021 02       		.uleb128 0x2
 539 0022 04       		.byte	0x4
 540 0023 05       		.byte	0x5
 541 0024 696E7400 		.ascii	"int\000"
 542 0028 03       		.uleb128 0x3
 543 0029 04       		.byte	0x4
 544 002a 07       		.byte	0x7
 545 002b 2D010000 		.4byte	.LASF0
 546 002f 03       		.uleb128 0x3
 547 0030 01       		.byte	0x1
 548 0031 06       		.byte	0x6
 549 0032 A9020000 		.4byte	.LASF1
 550 0036 03       		.uleb128 0x3
 551 0037 01       		.byte	0x1
 552 0038 08       		.byte	0x8
 553 0039 C0000000 		.4byte	.LASF2
 554 003d 03       		.uleb128 0x3
 555 003e 02       		.byte	0x2
 556 003f 05       		.byte	0x5
 557 0040 7F020000 		.4byte	.LASF3
 558 0044 03       		.uleb128 0x3
 559 0045 02       		.byte	0x2
 560 0046 07       		.byte	0x7
 561 0047 E6000000 		.4byte	.LASF4
 562 004b 04       		.uleb128 0x4
 563 004c 67000000 		.4byte	.LASF6
 564 0050 02       		.byte	0x2
 565 0051 37       		.byte	0x37
 566 0052 56000000 		.4byte	0x56
 567 0056 03       		.uleb128 0x3
 568 0057 04       		.byte	0x4
 569 0058 05       		.byte	0x5
 570 0059 A0020000 		.4byte	.LASF5
 571 005d 04       		.uleb128 0x4
 572 005e 17010000 		.4byte	.LASF7
 573 0062 02       		.byte	0x2
 574 0063 38       		.byte	0x38
 575 0064 68000000 		.4byte	0x68
 576 0068 03       		.uleb128 0x3
 577 0069 04       		.byte	0x4
 578 006a 07       		.byte	0x7
 579 006b D4000000 		.4byte	.LASF8
 580 006f 03       		.uleb128 0x3
 581 0070 08       		.byte	0x8
 582 0071 05       		.byte	0x5
ARM GAS  /home/pauba/tmp/ccDymCsd.s 			page 12


 583 0072 57020000 		.4byte	.LASF9
 584 0076 03       		.uleb128 0x3
 585 0077 08       		.byte	0x8
 586 0078 07       		.byte	0x7
 587 0079 A9000000 		.4byte	.LASF10
 588 007d 04       		.uleb128 0x4
 589 007e 46020000 		.4byte	.LASF11
 590 0082 03       		.byte	0x3
 591 0083 41       		.byte	0x41
 592 0084 4B000000 		.4byte	0x4b
 593 0088 04       		.uleb128 0x4
 594 0089 97020000 		.4byte	.LASF12
 595 008d 03       		.byte	0x3
 596 008e 42       		.byte	0x42
 597 008f 5D000000 		.4byte	0x5d
 598 0093 03       		.uleb128 0x3
 599 0094 01       		.byte	0x1
 600 0095 02       		.byte	0x2
 601 0096 B5020000 		.4byte	.LASF13
 602 009a 03       		.uleb128 0x3
 603 009b 04       		.byte	0x4
 604 009c 07       		.byte	0x7
 605 009d 4E020000 		.4byte	.LASF14
 606 00a1 03       		.uleb128 0x3
 607 00a2 01       		.byte	0x1
 608 00a3 08       		.byte	0x8
 609 00a4 3F010000 		.4byte	.LASF15
 610 00a8 05       		.uleb128 0x5
 611 00a9 01       		.byte	0x1
 612 00aa 04       		.byte	0x4
 613 00ab 4A       		.byte	0x4a
 614 00ac C3000000 		.4byte	0xc3
 615 00b0 06       		.uleb128 0x6
 616 00b1 5C000000 		.4byte	.LASF16
 617 00b5 00       		.sleb128 0
 618 00b6 06       		.uleb128 0x6
 619 00b7 BB020000 		.4byte	.LASF17
 620 00bb 01       		.sleb128 1
 621 00bc 06       		.uleb128 0x6
 622 00bd 22010000 		.4byte	.LASF18
 623 00c1 02       		.sleb128 2
 624 00c2 00       		.byte	0
 625 00c3 04       		.uleb128 0x4
 626 00c4 40000000 		.4byte	.LASF19
 627 00c8 04       		.byte	0x4
 628 00c9 4E       		.byte	0x4e
 629 00ca A8000000 		.4byte	0xa8
 630 00ce 04       		.uleb128 0x4
 631 00cf 00000000 		.4byte	.LASF20
 632 00d3 04       		.byte	0x4
 633 00d4 53       		.byte	0x53
 634 00d5 D9000000 		.4byte	0xd9
 635 00d9 07       		.uleb128 0x7
 636 00da 00000000 		.4byte	.LASF20
 637 00de 08       		.byte	0x8
 638 00df 05       		.byte	0x5
 639 00e0 71       		.byte	0x71
ARM GAS  /home/pauba/tmp/ccDymCsd.s 			page 13


 640 00e1 FE000000 		.4byte	0xfe
 641 00e5 08       		.uleb128 0x8
 642 00e6 3A000000 		.4byte	.LASF21
 643 00ea 05       		.byte	0x5
 644 00eb 75       		.byte	0x75
 645 00ec C3000000 		.4byte	0xc3
 646 00f0 00       		.byte	0
 647 00f1 08       		.uleb128 0x8
 648 00f2 06010000 		.4byte	.LASF22
 649 00f6 05       		.byte	0x5
 650 00f7 79       		.byte	0x79
 651 00f8 8B010000 		.4byte	0x18b
 652 00fc 04       		.byte	0x4
 653 00fd 00       		.byte	0
 654 00fe 04       		.uleb128 0x4
 655 00ff 81000000 		.4byte	.LASF23
 656 0103 05       		.byte	0x5
 657 0104 47       		.byte	0x47
 658 0105 88000000 		.4byte	0x88
 659 0109 04       		.uleb128 0x4
 660 010a 44010000 		.4byte	.LASF24
 661 010e 05       		.byte	0x5
 662 010f 4F       		.byte	0x4f
 663 0110 14010000 		.4byte	0x114
 664 0114 09       		.uleb128 0x9
 665 0115 04       		.byte	0x4
 666 0116 1A010000 		.4byte	0x11a
 667 011a 0A       		.uleb128 0xa
 668 011b 2A010000 		.4byte	0x12a
 669 011f 0B       		.uleb128 0xb
 670 0120 2A010000 		.4byte	0x12a
 671 0124 0B       		.uleb128 0xb
 672 0125 FE000000 		.4byte	0xfe
 673 0129 00       		.byte	0
 674 012a 09       		.uleb128 0x9
 675 012b 04       		.byte	0x4
 676 012c CE000000 		.4byte	0xce
 677 0130 0C       		.uleb128 0xc
 678 0131 08       		.byte	0x8
 679 0132 05       		.byte	0x5
 680 0133 54       		.byte	0x54
 681 0134 50010000 		.4byte	0x150
 682 0138 08       		.uleb128 0x8
 683 0139 52010000 		.4byte	.LASF25
 684 013d 05       		.byte	0x5
 685 013e 58       		.byte	0x58
 686 013f 88000000 		.4byte	0x88
 687 0143 00       		.byte	0
 688 0144 0D       		.uleb128 0xd
 689 0145 636200   		.ascii	"cb\000"
 690 0148 05       		.byte	0x5
 691 0149 5F       		.byte	0x5f
 692 014a 09010000 		.4byte	0x109
 693 014e 04       		.byte	0x4
 694 014f 00       		.byte	0
 695 0150 04       		.uleb128 0x4
 696 0151 4B000000 		.4byte	.LASF26
ARM GAS  /home/pauba/tmp/ccDymCsd.s 			page 14


 697 0155 05       		.byte	0x5
 698 0156 60       		.byte	0x60
 699 0157 30010000 		.4byte	0x130
 700 015b 0C       		.uleb128 0xc
 701 015c B8       		.byte	0xb8
 702 015d 05       		.byte	0x5
 703 015e 66       		.byte	0x66
 704 015f 70010000 		.4byte	0x170
 705 0163 08       		.uleb128 0x8
 706 0164 65020000 		.4byte	.LASF27
 707 0168 05       		.byte	0x5
 708 0169 6A       		.byte	0x6a
 709 016a 70010000 		.4byte	0x170
 710 016e 00       		.byte	0
 711 016f 00       		.byte	0
 712 0170 0E       		.uleb128 0xe
 713 0171 50010000 		.4byte	0x150
 714 0175 80010000 		.4byte	0x180
 715 0179 0F       		.uleb128 0xf
 716 017a 9A000000 		.4byte	0x9a
 717 017e 16       		.byte	0x16
 718 017f 00       		.byte	0
 719 0180 04       		.uleb128 0x4
 720 0181 0D010000 		.4byte	.LASF28
 721 0185 05       		.byte	0x5
 722 0186 6C       		.byte	0x6c
 723 0187 5B010000 		.4byte	0x15b
 724 018b 09       		.uleb128 0x9
 725 018c 04       		.byte	0x4
 726 018d 91010000 		.4byte	0x191
 727 0191 10       		.uleb128 0x10
 728 0192 80010000 		.4byte	0x180
 729 0196 11       		.uleb128 0x11
 730 0197 79000000 		.4byte	.LASF41
 731 019b 01       		.byte	0x1
 732 019c 44       		.byte	0x44
 733 019d 00000000 		.4byte	.LFB63
 734 01a1 08000000 		.4byte	.LFE63-.LFB63
 735 01a5 01       		.uleb128 0x1
 736 01a6 9C       		.byte	0x9c
 737 01a7 12       		.uleb128 0x12
 738 01a8 89020000 		.4byte	.LASF29
 739 01ac 01       		.byte	0x1
 740 01ad 50       		.byte	0x50
 741 01ae 00000000 		.4byte	.LFB64
 742 01b2 14000000 		.4byte	.LFE64-.LFB64
 743 01b6 01       		.uleb128 0x1
 744 01b7 9C       		.byte	0x9c
 745 01b8 CB010000 		.4byte	0x1cb
 746 01bc 13       		.uleb128 0x13
 747 01bd 3A010000 		.4byte	.LASF31
 748 01c1 01       		.byte	0x1
 749 01c2 50       		.byte	0x50
 750 01c3 2A010000 		.4byte	0x12a
 751 01c7 02       		.uleb128 0x2
 752 01c8 91       		.byte	0x91
 753 01c9 7C       		.sleb128 -4
ARM GAS  /home/pauba/tmp/ccDymCsd.s 			page 15


 754 01ca 00       		.byte	0
 755 01cb 14       		.uleb128 0x14
 756 01cc 8E000000 		.4byte	.LASF30
 757 01d0 01       		.byte	0x1
 758 01d1 60       		.byte	0x60
 759 01d2 00000000 		.4byte	.LFB65
 760 01d6 64000000 		.4byte	.LFE65-.LFB65
 761 01da 01       		.uleb128 0x1
 762 01db 9C       		.byte	0x9c
 763 01dc 2F020000 		.4byte	0x22f
 764 01e0 13       		.uleb128 0x13
 765 01e1 3A010000 		.4byte	.LASF31
 766 01e5 01       		.byte	0x1
 767 01e6 60       		.byte	0x60
 768 01e7 2A010000 		.4byte	0x12a
 769 01eb 02       		.uleb128 0x2
 770 01ec 91       		.byte	0x91
 771 01ed 74       		.sleb128 -12
 772 01ee 13       		.uleb128 0x13
 773 01ef 06010000 		.4byte	.LASF22
 774 01f3 01       		.byte	0x1
 775 01f4 60       		.byte	0x60
 776 01f5 8B010000 		.4byte	0x18b
 777 01f9 02       		.uleb128 0x2
 778 01fa 91       		.byte	0x91
 779 01fb 70       		.sleb128 -16
 780 01fc 15       		.uleb128 0x15
 781 01fd 1A000000 		.4byte	.LBB2
 782 0201 06000000 		.4byte	.LBE2-.LBB2
 783 0205 17020000 		.4byte	0x217
 784 0209 16       		.uleb128 0x16
 785 020a 746D7000 		.ascii	"tmp\000"
 786 020e 01       		.byte	0x1
 787 020f 64       		.byte	0x64
 788 0210 88000000 		.4byte	0x88
 789 0214 01       		.uleb128 0x1
 790 0215 53       		.byte	0x53
 791 0216 00       		.byte	0
 792 0217 17       		.uleb128 0x17
 793 0218 50000000 		.4byte	.LBB3
 794 021c 06000000 		.4byte	.LBE3-.LBB3
 795 0220 16       		.uleb128 0x16
 796 0221 746D7000 		.ascii	"tmp\000"
 797 0225 01       		.byte	0x1
 798 0226 6A       		.byte	0x6a
 799 0227 88000000 		.4byte	0x88
 800 022b 01       		.uleb128 0x1
 801 022c 53       		.byte	0x53
 802 022d 00       		.byte	0
 803 022e 00       		.byte	0
 804 022f 14       		.uleb128 0x14
 805 0230 71000000 		.4byte	.LASF32
 806 0234 01       		.byte	0x1
 807 0235 74       		.byte	0x74
 808 0236 00000000 		.4byte	.LFB66
 809 023a 58000000 		.4byte	.LFE66-.LFB66
 810 023e 01       		.uleb128 0x1
ARM GAS  /home/pauba/tmp/ccDymCsd.s 			page 16


 811 023f 9C       		.byte	0x9c
 812 0240 85020000 		.4byte	0x285
 813 0244 13       		.uleb128 0x13
 814 0245 3A010000 		.4byte	.LASF31
 815 0249 01       		.byte	0x1
 816 024a 74       		.byte	0x74
 817 024b 2A010000 		.4byte	0x12a
 818 024f 02       		.uleb128 0x2
 819 0250 91       		.byte	0x91
 820 0251 74       		.sleb128 -12
 821 0252 15       		.uleb128 0x15
 822 0253 12000000 		.4byte	.LBB4
 823 0257 06000000 		.4byte	.LBE4-.LBB4
 824 025b 6D020000 		.4byte	0x26d
 825 025f 16       		.uleb128 0x16
 826 0260 746D7000 		.ascii	"tmp\000"
 827 0264 01       		.byte	0x1
 828 0265 78       		.byte	0x78
 829 0266 88000000 		.4byte	0x88
 830 026a 01       		.uleb128 0x1
 831 026b 53       		.byte	0x53
 832 026c 00       		.byte	0
 833 026d 17       		.uleb128 0x17
 834 026e 42000000 		.4byte	.LBB5
 835 0272 06000000 		.4byte	.LBE5-.LBB5
 836 0276 16       		.uleb128 0x16
 837 0277 746D7000 		.ascii	"tmp\000"
 838 027b 01       		.byte	0x1
 839 027c 7D       		.byte	0x7d
 840 027d 88000000 		.4byte	0x88
 841 0281 01       		.uleb128 0x1
 842 0282 53       		.byte	0x53
 843 0283 00       		.byte	0
 844 0284 00       		.byte	0
 845 0285 14       		.uleb128 0x14
 846 0286 6E020000 		.4byte	.LASF33
 847 028a 01       		.byte	0x1
 848 028b 89       		.byte	0x89
 849 028c 00000000 		.4byte	.LFB67
 850 0290 64000000 		.4byte	.LFE67-.LFB67
 851 0294 01       		.uleb128 0x1
 852 0295 9C       		.byte	0x9c
 853 0296 E9020000 		.4byte	0x2e9
 854 029a 13       		.uleb128 0x13
 855 029b 3A010000 		.4byte	.LASF31
 856 029f 01       		.byte	0x1
 857 02a0 89       		.byte	0x89
 858 02a1 2A010000 		.4byte	0x12a
 859 02a5 02       		.uleb128 0x2
 860 02a6 91       		.byte	0x91
 861 02a7 74       		.sleb128 -12
 862 02a8 13       		.uleb128 0x13
 863 02a9 32000000 		.4byte	.LASF34
 864 02ad 01       		.byte	0x1
 865 02ae 89       		.byte	0x89
 866 02af FE000000 		.4byte	0xfe
 867 02b3 02       		.uleb128 0x2
ARM GAS  /home/pauba/tmp/ccDymCsd.s 			page 17


 868 02b4 91       		.byte	0x91
 869 02b5 70       		.sleb128 -16
 870 02b6 15       		.uleb128 0x15
 871 02b7 1A000000 		.4byte	.LBB6
 872 02bb 06000000 		.4byte	.LBE6-.LBB6
 873 02bf D1020000 		.4byte	0x2d1
 874 02c3 16       		.uleb128 0x16
 875 02c4 746D7000 		.ascii	"tmp\000"
 876 02c8 01       		.byte	0x1
 877 02c9 8E       		.byte	0x8e
 878 02ca 88000000 		.4byte	0x88
 879 02ce 01       		.uleb128 0x1
 880 02cf 53       		.byte	0x53
 881 02d0 00       		.byte	0
 882 02d1 17       		.uleb128 0x17
 883 02d2 50000000 		.4byte	.LBB7
 884 02d6 06000000 		.4byte	.LBE7-.LBB7
 885 02da 16       		.uleb128 0x16
 886 02db 746D7000 		.ascii	"tmp\000"
 887 02df 01       		.byte	0x1
 888 02e0 94       		.byte	0x94
 889 02e1 88000000 		.4byte	0x88
 890 02e5 01       		.uleb128 0x1
 891 02e6 53       		.byte	0x53
 892 02e7 00       		.byte	0
 893 02e8 00       		.byte	0
 894 02e9 14       		.uleb128 0x14
 895 02ea 97000000 		.4byte	.LASF35
 896 02ee 01       		.byte	0x1
 897 02ef A0       		.byte	0xa0
 898 02f0 00000000 		.4byte	.LFB68
 899 02f4 64000000 		.4byte	.LFE68-.LFB68
 900 02f8 01       		.uleb128 0x1
 901 02f9 9C       		.byte	0x9c
 902 02fa 4D030000 		.4byte	0x34d
 903 02fe 13       		.uleb128 0x13
 904 02ff 3A010000 		.4byte	.LASF31
 905 0303 01       		.byte	0x1
 906 0304 A0       		.byte	0xa0
 907 0305 2A010000 		.4byte	0x12a
 908 0309 02       		.uleb128 0x2
 909 030a 91       		.byte	0x91
 910 030b 74       		.sleb128 -12
 911 030c 13       		.uleb128 0x13
 912 030d 32000000 		.4byte	.LASF34
 913 0311 01       		.byte	0x1
 914 0312 A0       		.byte	0xa0
 915 0313 FE000000 		.4byte	0xfe
 916 0317 02       		.uleb128 0x2
 917 0318 91       		.byte	0x91
 918 0319 70       		.sleb128 -16
 919 031a 15       		.uleb128 0x15
 920 031b 1A000000 		.4byte	.LBB8
 921 031f 06000000 		.4byte	.LBE8-.LBB8
 922 0323 35030000 		.4byte	0x335
 923 0327 16       		.uleb128 0x16
 924 0328 746D7000 		.ascii	"tmp\000"
ARM GAS  /home/pauba/tmp/ccDymCsd.s 			page 18


 925 032c 01       		.byte	0x1
 926 032d A5       		.byte	0xa5
 927 032e 88000000 		.4byte	0x88
 928 0332 01       		.uleb128 0x1
 929 0333 53       		.byte	0x53
 930 0334 00       		.byte	0
 931 0335 17       		.uleb128 0x17
 932 0336 50000000 		.4byte	.LBB9
 933 033a 06000000 		.4byte	.LBE9-.LBB9
 934 033e 16       		.uleb128 0x16
 935 033f 746D7000 		.ascii	"tmp\000"
 936 0343 01       		.byte	0x1
 937 0344 AB       		.byte	0xab
 938 0345 88000000 		.4byte	0x88
 939 0349 01       		.uleb128 0x1
 940 034a 53       		.byte	0x53
 941 034b 00       		.byte	0
 942 034c 00       		.byte	0
 943 034d 14       		.uleb128 0x14
 944 034e 2D020000 		.4byte	.LASF36
 945 0352 01       		.byte	0x1
 946 0353 BF       		.byte	0xbf
 947 0354 00000000 		.4byte	.LFB69
 948 0358 60000000 		.4byte	.LFE69-.LFB69
 949 035c 01       		.uleb128 0x1
 950 035d 9C       		.byte	0x9c
 951 035e 9B030000 		.4byte	0x39b
 952 0362 13       		.uleb128 0x13
 953 0363 3A010000 		.4byte	.LASF31
 954 0367 01       		.byte	0x1
 955 0368 BF       		.byte	0xbf
 956 0369 2A010000 		.4byte	0x12a
 957 036d 02       		.uleb128 0x2
 958 036e 91       		.byte	0x91
 959 036f 6C       		.sleb128 -20
 960 0370 13       		.uleb128 0x13
 961 0371 32000000 		.4byte	.LASF34
 962 0375 01       		.byte	0x1
 963 0376 C0       		.byte	0xc0
 964 0377 FE000000 		.4byte	0xfe
 965 037b 02       		.uleb128 0x2
 966 037c 91       		.byte	0x91
 967 037d 68       		.sleb128 -24
 968 037e 13       		.uleb128 0x13
 969 037f CE000000 		.4byte	.LASF37
 970 0383 01       		.byte	0x1
 971 0384 C1       		.byte	0xc1
 972 0385 9B030000 		.4byte	0x39b
 973 0389 02       		.uleb128 0x2
 974 038a 91       		.byte	0x91
 975 038b 64       		.sleb128 -28
 976 038c 18       		.uleb128 0x18
 977 038d 40020000 		.4byte	.LASF38
 978 0391 01       		.byte	0x1
 979 0392 C2       		.byte	0xc2
 980 0393 A6030000 		.4byte	0x3a6
 981 0397 02       		.uleb128 0x2
ARM GAS  /home/pauba/tmp/ccDymCsd.s 			page 19


 982 0398 91       		.byte	0x91
 983 0399 74       		.sleb128 -12
 984 039a 00       		.byte	0
 985 039b 09       		.uleb128 0x9
 986 039c 04       		.byte	0x4
 987 039d A1030000 		.4byte	0x3a1
 988 03a1 10       		.uleb128 0x10
 989 03a2 50010000 		.4byte	0x150
 990 03a6 09       		.uleb128 0x9
 991 03a7 04       		.byte	0x4
 992 03a8 50010000 		.4byte	0x150
 993 03ac 19       		.uleb128 0x19
 994 03ad F9000000 		.4byte	.LASF42
 995 03b1 06       		.byte	0x6
 996 03b2 0706     		.2byte	0x607
 997 03b4 B8030000 		.4byte	0x3b8
 998 03b8 1A       		.uleb128 0x1a
 999 03b9 7D000000 		.4byte	0x7d
 1000 03bd 00       		.byte	0
 1001              		.section	.debug_abbrev,"",%progbits
 1002              	.Ldebug_abbrev0:
 1003 0000 01       		.uleb128 0x1
 1004 0001 11       		.uleb128 0x11
 1005 0002 01       		.byte	0x1
 1006 0003 25       		.uleb128 0x25
 1007 0004 0E       		.uleb128 0xe
 1008 0005 13       		.uleb128 0x13
 1009 0006 0B       		.uleb128 0xb
 1010 0007 03       		.uleb128 0x3
 1011 0008 0E       		.uleb128 0xe
 1012 0009 55       		.uleb128 0x55
 1013 000a 17       		.uleb128 0x17
 1014 000b 11       		.uleb128 0x11
 1015 000c 01       		.uleb128 0x1
 1016 000d 10       		.uleb128 0x10
 1017 000e 17       		.uleb128 0x17
 1018 000f 00       		.byte	0
 1019 0010 00       		.byte	0
 1020 0011 02       		.uleb128 0x2
 1021 0012 24       		.uleb128 0x24
 1022 0013 00       		.byte	0
 1023 0014 0B       		.uleb128 0xb
 1024 0015 0B       		.uleb128 0xb
 1025 0016 3E       		.uleb128 0x3e
 1026 0017 0B       		.uleb128 0xb
 1027 0018 03       		.uleb128 0x3
 1028 0019 08       		.uleb128 0x8
 1029 001a 00       		.byte	0
 1030 001b 00       		.byte	0
 1031 001c 03       		.uleb128 0x3
 1032 001d 24       		.uleb128 0x24
 1033 001e 00       		.byte	0
 1034 001f 0B       		.uleb128 0xb
 1035 0020 0B       		.uleb128 0xb
 1036 0021 3E       		.uleb128 0x3e
 1037 0022 0B       		.uleb128 0xb
 1038 0023 03       		.uleb128 0x3
ARM GAS  /home/pauba/tmp/ccDymCsd.s 			page 20


 1039 0024 0E       		.uleb128 0xe
 1040 0025 00       		.byte	0
 1041 0026 00       		.byte	0
 1042 0027 04       		.uleb128 0x4
 1043 0028 16       		.uleb128 0x16
 1044 0029 00       		.byte	0
 1045 002a 03       		.uleb128 0x3
 1046 002b 0E       		.uleb128 0xe
 1047 002c 3A       		.uleb128 0x3a
 1048 002d 0B       		.uleb128 0xb
 1049 002e 3B       		.uleb128 0x3b
 1050 002f 0B       		.uleb128 0xb
 1051 0030 49       		.uleb128 0x49
 1052 0031 13       		.uleb128 0x13
 1053 0032 00       		.byte	0
 1054 0033 00       		.byte	0
 1055 0034 05       		.uleb128 0x5
 1056 0035 04       		.uleb128 0x4
 1057 0036 01       		.byte	0x1
 1058 0037 0B       		.uleb128 0xb
 1059 0038 0B       		.uleb128 0xb
 1060 0039 3A       		.uleb128 0x3a
 1061 003a 0B       		.uleb128 0xb
 1062 003b 3B       		.uleb128 0x3b
 1063 003c 0B       		.uleb128 0xb
 1064 003d 01       		.uleb128 0x1
 1065 003e 13       		.uleb128 0x13
 1066 003f 00       		.byte	0
 1067 0040 00       		.byte	0
 1068 0041 06       		.uleb128 0x6
 1069 0042 28       		.uleb128 0x28
 1070 0043 00       		.byte	0
 1071 0044 03       		.uleb128 0x3
 1072 0045 0E       		.uleb128 0xe
 1073 0046 1C       		.uleb128 0x1c
 1074 0047 0D       		.uleb128 0xd
 1075 0048 00       		.byte	0
 1076 0049 00       		.byte	0
 1077 004a 07       		.uleb128 0x7
 1078 004b 13       		.uleb128 0x13
 1079 004c 01       		.byte	0x1
 1080 004d 03       		.uleb128 0x3
 1081 004e 0E       		.uleb128 0xe
 1082 004f 0B       		.uleb128 0xb
 1083 0050 0B       		.uleb128 0xb
 1084 0051 3A       		.uleb128 0x3a
 1085 0052 0B       		.uleb128 0xb
 1086 0053 3B       		.uleb128 0x3b
 1087 0054 0B       		.uleb128 0xb
 1088 0055 01       		.uleb128 0x1
 1089 0056 13       		.uleb128 0x13
 1090 0057 00       		.byte	0
 1091 0058 00       		.byte	0
 1092 0059 08       		.uleb128 0x8
 1093 005a 0D       		.uleb128 0xd
 1094 005b 00       		.byte	0
 1095 005c 03       		.uleb128 0x3
ARM GAS  /home/pauba/tmp/ccDymCsd.s 			page 21


 1096 005d 0E       		.uleb128 0xe
 1097 005e 3A       		.uleb128 0x3a
 1098 005f 0B       		.uleb128 0xb
 1099 0060 3B       		.uleb128 0x3b
 1100 0061 0B       		.uleb128 0xb
 1101 0062 49       		.uleb128 0x49
 1102 0063 13       		.uleb128 0x13
 1103 0064 38       		.uleb128 0x38
 1104 0065 0B       		.uleb128 0xb
 1105 0066 00       		.byte	0
 1106 0067 00       		.byte	0
 1107 0068 09       		.uleb128 0x9
 1108 0069 0F       		.uleb128 0xf
 1109 006a 00       		.byte	0
 1110 006b 0B       		.uleb128 0xb
 1111 006c 0B       		.uleb128 0xb
 1112 006d 49       		.uleb128 0x49
 1113 006e 13       		.uleb128 0x13
 1114 006f 00       		.byte	0
 1115 0070 00       		.byte	0
 1116 0071 0A       		.uleb128 0xa
 1117 0072 15       		.uleb128 0x15
 1118 0073 01       		.byte	0x1
 1119 0074 27       		.uleb128 0x27
 1120 0075 19       		.uleb128 0x19
 1121 0076 01       		.uleb128 0x1
 1122 0077 13       		.uleb128 0x13
 1123 0078 00       		.byte	0
 1124 0079 00       		.byte	0
 1125 007a 0B       		.uleb128 0xb
 1126 007b 05       		.uleb128 0x5
 1127 007c 00       		.byte	0
 1128 007d 49       		.uleb128 0x49
 1129 007e 13       		.uleb128 0x13
 1130 007f 00       		.byte	0
 1131 0080 00       		.byte	0
 1132 0081 0C       		.uleb128 0xc
 1133 0082 13       		.uleb128 0x13
 1134 0083 01       		.byte	0x1
 1135 0084 0B       		.uleb128 0xb
 1136 0085 0B       		.uleb128 0xb
 1137 0086 3A       		.uleb128 0x3a
 1138 0087 0B       		.uleb128 0xb
 1139 0088 3B       		.uleb128 0x3b
 1140 0089 0B       		.uleb128 0xb
 1141 008a 01       		.uleb128 0x1
 1142 008b 13       		.uleb128 0x13
 1143 008c 00       		.byte	0
 1144 008d 00       		.byte	0
 1145 008e 0D       		.uleb128 0xd
 1146 008f 0D       		.uleb128 0xd
 1147 0090 00       		.byte	0
 1148 0091 03       		.uleb128 0x3
 1149 0092 08       		.uleb128 0x8
 1150 0093 3A       		.uleb128 0x3a
 1151 0094 0B       		.uleb128 0xb
 1152 0095 3B       		.uleb128 0x3b
ARM GAS  /home/pauba/tmp/ccDymCsd.s 			page 22


 1153 0096 0B       		.uleb128 0xb
 1154 0097 49       		.uleb128 0x49
 1155 0098 13       		.uleb128 0x13
 1156 0099 38       		.uleb128 0x38
 1157 009a 0B       		.uleb128 0xb
 1158 009b 00       		.byte	0
 1159 009c 00       		.byte	0
 1160 009d 0E       		.uleb128 0xe
 1161 009e 01       		.uleb128 0x1
 1162 009f 01       		.byte	0x1
 1163 00a0 49       		.uleb128 0x49
 1164 00a1 13       		.uleb128 0x13
 1165 00a2 01       		.uleb128 0x1
 1166 00a3 13       		.uleb128 0x13
 1167 00a4 00       		.byte	0
 1168 00a5 00       		.byte	0
 1169 00a6 0F       		.uleb128 0xf
 1170 00a7 21       		.uleb128 0x21
 1171 00a8 00       		.byte	0
 1172 00a9 49       		.uleb128 0x49
 1173 00aa 13       		.uleb128 0x13
 1174 00ab 2F       		.uleb128 0x2f
 1175 00ac 0B       		.uleb128 0xb
 1176 00ad 00       		.byte	0
 1177 00ae 00       		.byte	0
 1178 00af 10       		.uleb128 0x10
 1179 00b0 26       		.uleb128 0x26
 1180 00b1 00       		.byte	0
 1181 00b2 49       		.uleb128 0x49
 1182 00b3 13       		.uleb128 0x13
 1183 00b4 00       		.byte	0
 1184 00b5 00       		.byte	0
 1185 00b6 11       		.uleb128 0x11
 1186 00b7 2E       		.uleb128 0x2e
 1187 00b8 00       		.byte	0
 1188 00b9 3F       		.uleb128 0x3f
 1189 00ba 19       		.uleb128 0x19
 1190 00bb 03       		.uleb128 0x3
 1191 00bc 0E       		.uleb128 0xe
 1192 00bd 3A       		.uleb128 0x3a
 1193 00be 0B       		.uleb128 0xb
 1194 00bf 3B       		.uleb128 0x3b
 1195 00c0 0B       		.uleb128 0xb
 1196 00c1 27       		.uleb128 0x27
 1197 00c2 19       		.uleb128 0x19
 1198 00c3 11       		.uleb128 0x11
 1199 00c4 01       		.uleb128 0x1
 1200 00c5 12       		.uleb128 0x12
 1201 00c6 06       		.uleb128 0x6
 1202 00c7 40       		.uleb128 0x40
 1203 00c8 18       		.uleb128 0x18
 1204 00c9 9642     		.uleb128 0x2116
 1205 00cb 19       		.uleb128 0x19
 1206 00cc 00       		.byte	0
 1207 00cd 00       		.byte	0
 1208 00ce 12       		.uleb128 0x12
 1209 00cf 2E       		.uleb128 0x2e
ARM GAS  /home/pauba/tmp/ccDymCsd.s 			page 23


 1210 00d0 01       		.byte	0x1
 1211 00d1 3F       		.uleb128 0x3f
 1212 00d2 19       		.uleb128 0x19
 1213 00d3 03       		.uleb128 0x3
 1214 00d4 0E       		.uleb128 0xe
 1215 00d5 3A       		.uleb128 0x3a
 1216 00d6 0B       		.uleb128 0xb
 1217 00d7 3B       		.uleb128 0x3b
 1218 00d8 0B       		.uleb128 0xb
 1219 00d9 27       		.uleb128 0x27
 1220 00da 19       		.uleb128 0x19
 1221 00db 11       		.uleb128 0x11
 1222 00dc 01       		.uleb128 0x1
 1223 00dd 12       		.uleb128 0x12
 1224 00de 06       		.uleb128 0x6
 1225 00df 40       		.uleb128 0x40
 1226 00e0 18       		.uleb128 0x18
 1227 00e1 9742     		.uleb128 0x2117
 1228 00e3 19       		.uleb128 0x19
 1229 00e4 01       		.uleb128 0x1
 1230 00e5 13       		.uleb128 0x13
 1231 00e6 00       		.byte	0
 1232 00e7 00       		.byte	0
 1233 00e8 13       		.uleb128 0x13
 1234 00e9 05       		.uleb128 0x5
 1235 00ea 00       		.byte	0
 1236 00eb 03       		.uleb128 0x3
 1237 00ec 0E       		.uleb128 0xe
 1238 00ed 3A       		.uleb128 0x3a
 1239 00ee 0B       		.uleb128 0xb
 1240 00ef 3B       		.uleb128 0x3b
 1241 00f0 0B       		.uleb128 0xb
 1242 00f1 49       		.uleb128 0x49
 1243 00f2 13       		.uleb128 0x13
 1244 00f3 02       		.uleb128 0x2
 1245 00f4 18       		.uleb128 0x18
 1246 00f5 00       		.byte	0
 1247 00f6 00       		.byte	0
 1248 00f7 14       		.uleb128 0x14
 1249 00f8 2E       		.uleb128 0x2e
 1250 00f9 01       		.byte	0x1
 1251 00fa 3F       		.uleb128 0x3f
 1252 00fb 19       		.uleb128 0x19
 1253 00fc 03       		.uleb128 0x3
 1254 00fd 0E       		.uleb128 0xe
 1255 00fe 3A       		.uleb128 0x3a
 1256 00ff 0B       		.uleb128 0xb
 1257 0100 3B       		.uleb128 0x3b
 1258 0101 0B       		.uleb128 0xb
 1259 0102 27       		.uleb128 0x27
 1260 0103 19       		.uleb128 0x19
 1261 0104 11       		.uleb128 0x11
 1262 0105 01       		.uleb128 0x1
 1263 0106 12       		.uleb128 0x12
 1264 0107 06       		.uleb128 0x6
 1265 0108 40       		.uleb128 0x40
 1266 0109 18       		.uleb128 0x18
ARM GAS  /home/pauba/tmp/ccDymCsd.s 			page 24


 1267 010a 9642     		.uleb128 0x2116
 1268 010c 19       		.uleb128 0x19
 1269 010d 01       		.uleb128 0x1
 1270 010e 13       		.uleb128 0x13
 1271 010f 00       		.byte	0
 1272 0110 00       		.byte	0
 1273 0111 15       		.uleb128 0x15
 1274 0112 0B       		.uleb128 0xb
 1275 0113 01       		.byte	0x1
 1276 0114 11       		.uleb128 0x11
 1277 0115 01       		.uleb128 0x1
 1278 0116 12       		.uleb128 0x12
 1279 0117 06       		.uleb128 0x6
 1280 0118 01       		.uleb128 0x1
 1281 0119 13       		.uleb128 0x13
 1282 011a 00       		.byte	0
 1283 011b 00       		.byte	0
 1284 011c 16       		.uleb128 0x16
 1285 011d 34       		.uleb128 0x34
 1286 011e 00       		.byte	0
 1287 011f 03       		.uleb128 0x3
 1288 0120 08       		.uleb128 0x8
 1289 0121 3A       		.uleb128 0x3a
 1290 0122 0B       		.uleb128 0xb
 1291 0123 3B       		.uleb128 0x3b
 1292 0124 0B       		.uleb128 0xb
 1293 0125 49       		.uleb128 0x49
 1294 0126 13       		.uleb128 0x13
 1295 0127 02       		.uleb128 0x2
 1296 0128 18       		.uleb128 0x18
 1297 0129 00       		.byte	0
 1298 012a 00       		.byte	0
 1299 012b 17       		.uleb128 0x17
 1300 012c 0B       		.uleb128 0xb
 1301 012d 01       		.byte	0x1
 1302 012e 11       		.uleb128 0x11
 1303 012f 01       		.uleb128 0x1
 1304 0130 12       		.uleb128 0x12
 1305 0131 06       		.uleb128 0x6
 1306 0132 00       		.byte	0
 1307 0133 00       		.byte	0
 1308 0134 18       		.uleb128 0x18
 1309 0135 34       		.uleb128 0x34
 1310 0136 00       		.byte	0
 1311 0137 03       		.uleb128 0x3
 1312 0138 0E       		.uleb128 0xe
 1313 0139 3A       		.uleb128 0x3a
 1314 013a 0B       		.uleb128 0xb
 1315 013b 3B       		.uleb128 0x3b
 1316 013c 0B       		.uleb128 0xb
 1317 013d 49       		.uleb128 0x49
 1318 013e 13       		.uleb128 0x13
 1319 013f 02       		.uleb128 0x2
 1320 0140 18       		.uleb128 0x18
 1321 0141 00       		.byte	0
 1322 0142 00       		.byte	0
 1323 0143 19       		.uleb128 0x19
ARM GAS  /home/pauba/tmp/ccDymCsd.s 			page 25


 1324 0144 34       		.uleb128 0x34
 1325 0145 00       		.byte	0
 1326 0146 03       		.uleb128 0x3
 1327 0147 0E       		.uleb128 0xe
 1328 0148 3A       		.uleb128 0x3a
 1329 0149 0B       		.uleb128 0xb
 1330 014a 3B       		.uleb128 0x3b
 1331 014b 05       		.uleb128 0x5
 1332 014c 49       		.uleb128 0x49
 1333 014d 13       		.uleb128 0x13
 1334 014e 3F       		.uleb128 0x3f
 1335 014f 19       		.uleb128 0x19
 1336 0150 3C       		.uleb128 0x3c
 1337 0151 19       		.uleb128 0x19
 1338 0152 00       		.byte	0
 1339 0153 00       		.byte	0
 1340 0154 1A       		.uleb128 0x1a
 1341 0155 35       		.uleb128 0x35
 1342 0156 00       		.byte	0
 1343 0157 49       		.uleb128 0x49
 1344 0158 13       		.uleb128 0x13
 1345 0159 00       		.byte	0
 1346 015a 00       		.byte	0
 1347 015b 00       		.byte	0
 1348              		.section	.debug_aranges,"",%progbits
 1349 0000 4C000000 		.4byte	0x4c
 1350 0004 0200     		.2byte	0x2
 1351 0006 00000000 		.4byte	.Ldebug_info0
 1352 000a 04       		.byte	0x4
 1353 000b 00       		.byte	0
 1354 000c 0000     		.2byte	0
 1355 000e 0000     		.2byte	0
 1356 0010 00000000 		.4byte	.LFB63
 1357 0014 08000000 		.4byte	.LFE63-.LFB63
 1358 0018 00000000 		.4byte	.LFB64
 1359 001c 14000000 		.4byte	.LFE64-.LFB64
 1360 0020 00000000 		.4byte	.LFB65
 1361 0024 64000000 		.4byte	.LFE65-.LFB65
 1362 0028 00000000 		.4byte	.LFB66
 1363 002c 58000000 		.4byte	.LFE66-.LFB66
 1364 0030 00000000 		.4byte	.LFB67
 1365 0034 64000000 		.4byte	.LFE67-.LFB67
 1366 0038 00000000 		.4byte	.LFB68
 1367 003c 64000000 		.4byte	.LFE68-.LFB68
 1368 0040 00000000 		.4byte	.LFB69
 1369 0044 60000000 		.4byte	.LFE69-.LFB69
 1370 0048 00000000 		.4byte	0
 1371 004c 00000000 		.4byte	0
 1372              		.section	.debug_ranges,"",%progbits
 1373              	.Ldebug_ranges0:
 1374 0000 00000000 		.4byte	.LFB63
 1375 0004 08000000 		.4byte	.LFE63
 1376 0008 00000000 		.4byte	.LFB64
 1377 000c 14000000 		.4byte	.LFE64
 1378 0010 00000000 		.4byte	.LFB65
 1379 0014 64000000 		.4byte	.LFE65
 1380 0018 00000000 		.4byte	.LFB66
ARM GAS  /home/pauba/tmp/ccDymCsd.s 			page 26


 1381 001c 58000000 		.4byte	.LFE66
 1382 0020 00000000 		.4byte	.LFB67
 1383 0024 64000000 		.4byte	.LFE67
 1384 0028 00000000 		.4byte	.LFB68
 1385 002c 64000000 		.4byte	.LFE68
 1386 0030 00000000 		.4byte	.LFB69
 1387 0034 60000000 		.4byte	.LFE69
 1388 0038 00000000 		.4byte	0
 1389 003c 00000000 		.4byte	0
 1390              		.section	.debug_line,"",%progbits
 1391              	.Ldebug_line0:
 1392 0000 8A020000 		.section	.debug_str,"MS",%progbits,1
 1392      02008A01 
 1392      00000201 
 1392      FB0E0D00 
 1392      01010101 
 1393              	.LASF20:
 1394 0000 45585444 		.ascii	"EXTDriver\000"
 1394      72697665 
 1394      7200
 1395              	.LASF40:
 1396 000a 2F686F6D 		.ascii	"/home/pauba/ChibiOS-RT/os/hal/src/ext.c\000"
 1396      652F7061 
 1396      7562612F 
 1396      43686962 
 1396      694F532D 
 1397              	.LASF34:
 1398 0032 6368616E 		.ascii	"channel\000"
 1398      6E656C00 
 1399              	.LASF21:
 1400 003a 73746174 		.ascii	"state\000"
 1400      6500
 1401              	.LASF19:
 1402 0040 65787473 		.ascii	"extstate_t\000"
 1402      74617465 
 1402      5F7400
 1403              	.LASF26:
 1404 004b 45585443 		.ascii	"EXTChannelConfig\000"
 1404      68616E6E 
 1404      656C436F 
 1404      6E666967 
 1404      00
 1405              	.LASF16:
 1406 005c 4558545F 		.ascii	"EXT_UNINIT\000"
 1406      554E494E 
 1406      495400
 1407              	.LASF6:
 1408 0067 5F5F696E 		.ascii	"__int32_t\000"
 1408      7433325F 
 1408      7400
 1409              	.LASF32:
 1410 0071 65787453 		.ascii	"extStop\000"
 1410      746F7000 
 1411              	.LASF41:
 1412 0079 65787449 		.ascii	"extInit\000"
 1412      6E697400 
 1413              	.LASF23:
ARM GAS  /home/pauba/tmp/ccDymCsd.s 			page 27


 1414 0081 65787063 		.ascii	"expchannel_t\000"
 1414      68616E6E 
 1414      656C5F74 
 1414      00
 1415              	.LASF30:
 1416 008e 65787453 		.ascii	"extStart\000"
 1416      74617274 
 1416      00
 1417              	.LASF35:
 1418 0097 65787443 		.ascii	"extChannelDisable\000"
 1418      68616E6E 
 1418      656C4469 
 1418      7361626C 
 1418      6500
 1419              	.LASF10:
 1420 00a9 6C6F6E67 		.ascii	"long long unsigned int\000"
 1420      206C6F6E 
 1420      6720756E 
 1420      7369676E 
 1420      65642069 
 1421              	.LASF2:
 1422 00c0 756E7369 		.ascii	"unsigned char\000"
 1422      676E6564 
 1422      20636861 
 1422      7200
 1423              	.LASF37:
 1424 00ce 65787463 		.ascii	"extcp\000"
 1424      7000
 1425              	.LASF8:
 1426 00d4 6C6F6E67 		.ascii	"long unsigned int\000"
 1426      20756E73 
 1426      69676E65 
 1426      6420696E 
 1426      7400
 1427              	.LASF4:
 1428 00e6 73686F72 		.ascii	"short unsigned int\000"
 1428      7420756E 
 1428      7369676E 
 1428      65642069 
 1428      6E7400
 1429              	.LASF42:
 1430 00f9 49544D5F 		.ascii	"ITM_RxBuffer\000"
 1430      52784275 
 1430      66666572 
 1430      00
 1431              	.LASF22:
 1432 0106 636F6E66 		.ascii	"config\000"
 1432      696700
 1433              	.LASF28:
 1434 010d 45585443 		.ascii	"EXTConfig\000"
 1434      6F6E6669 
 1434      6700
 1435              	.LASF7:
 1436 0117 5F5F7569 		.ascii	"__uint32_t\000"
 1436      6E743332 
 1436      5F7400
 1437              	.LASF18:
ARM GAS  /home/pauba/tmp/ccDymCsd.s 			page 28


 1438 0122 4558545F 		.ascii	"EXT_ACTIVE\000"
 1438      41435449 
 1438      564500
 1439              	.LASF0:
 1440 012d 756E7369 		.ascii	"unsigned int\000"
 1440      676E6564 
 1440      20696E74 
 1440      00
 1441              	.LASF31:
 1442 013a 65787470 		.ascii	"extp\000"
 1442      00
 1443              	.LASF15:
 1444 013f 63686172 		.ascii	"char\000"
 1444      00
 1445              	.LASF24:
 1446 0144 65787463 		.ascii	"extcallback_t\000"
 1446      616C6C62 
 1446      61636B5F 
 1446      7400
 1447              	.LASF25:
 1448 0152 6D6F6465 		.ascii	"mode\000"
 1448      00
 1449              	.LASF39:
 1450 0157 474E5520 		.ascii	"GNU C 4.8.3 20140228 (release) [ARM/embedded-4_8-br"
 1450      4320342E 
 1450      382E3320 
 1450      32303134 
 1450      30323238 
 1451 018a 616E6368 		.ascii	"anch revision 208322] -mcpu=cortex-m4 -mno-thumb-in"
 1451      20726576 
 1451      6973696F 
 1451      6E203230 
 1451      38333232 
 1452 01bd 74657277 		.ascii	"terwork -mthumb -ggdb -fomit-frame-pointer -falign-"
 1452      6F726B20 
 1452      2D6D7468 
 1452      756D6220 
 1452      2D676764 
 1453 01f0 66756E63 		.ascii	"functions=16 -ffunction-sections -fdata-sections -f"
 1453      74696F6E 
 1453      733D3136 
 1453      202D6666 
 1453      756E6374 
 1454 0223 6E6F2D63 		.ascii	"no-common\000"
 1454      6F6D6D6F 
 1454      6E00
 1455              	.LASF36:
 1456 022d 65787453 		.ascii	"extSetChannelModeI\000"
 1456      65744368 
 1456      616E6E65 
 1456      6C4D6F64 
 1456      654900
 1457              	.LASF38:
 1458 0240 6F6C6463 		.ascii	"oldcp\000"
 1458      7000
 1459              	.LASF11:
 1460 0246 696E7433 		.ascii	"int32_t\000"
ARM GAS  /home/pauba/tmp/ccDymCsd.s 			page 29


 1460      325F7400 
 1461              	.LASF14:
 1462 024e 73697A65 		.ascii	"sizetype\000"
 1462      74797065 
 1462      00
 1463              	.LASF9:
 1464 0257 6C6F6E67 		.ascii	"long long int\000"
 1464      206C6F6E 
 1464      6720696E 
 1464      7400
 1465              	.LASF27:
 1466 0265 6368616E 		.ascii	"channels\000"
 1466      6E656C73 
 1466      00
 1467              	.LASF33:
 1468 026e 65787443 		.ascii	"extChannelEnable\000"
 1468      68616E6E 
 1468      656C456E 
 1468      61626C65 
 1468      00
 1469              	.LASF3:
 1470 027f 73686F72 		.ascii	"short int\000"
 1470      7420696E 
 1470      7400
 1471              	.LASF29:
 1472 0289 6578744F 		.ascii	"extObjectInit\000"
 1472      626A6563 
 1472      74496E69 
 1472      7400
 1473              	.LASF12:
 1474 0297 75696E74 		.ascii	"uint32_t\000"
 1474      33325F74 
 1474      00
 1475              	.LASF5:
 1476 02a0 6C6F6E67 		.ascii	"long int\000"
 1476      20696E74 
 1476      00
 1477              	.LASF1:
 1478 02a9 7369676E 		.ascii	"signed char\000"
 1478      65642063 
 1478      68617200 
 1479              	.LASF13:
 1480 02b5 5F426F6F 		.ascii	"_Bool\000"
 1480      6C00
 1481              	.LASF17:
 1482 02bb 4558545F 		.ascii	"EXT_STOP\000"
 1482      53544F50 
 1482      00
 1483              		.ident	"GCC: (GNU Tools for ARM Embedded Processors) 4.8.3 20140228 (release) [ARM/embedded-4_8-br
ARM GAS  /home/pauba/tmp/ccDymCsd.s 			page 30


DEFINED SYMBOLS
                            *ABS*:00000000 ext.c
/home/pauba/tmp/ccDymCsd.s:19     .text.extInit:00000000 $t
/home/pauba/tmp/ccDymCsd.s:25     .text.extInit:00000000 extInit
/home/pauba/tmp/ccDymCsd.s:44     .text.extObjectInit:00000000 $t
/home/pauba/tmp/ccDymCsd.s:50     .text.extObjectInit:00000000 extObjectInit
/home/pauba/tmp/ccDymCsd.s:76     .rodata:00000000 $d
/home/pauba/tmp/ccDymCsd.s:83     .text.extStart:00000000 $t
/home/pauba/tmp/ccDymCsd.s:89     .text.extStart:00000000 extStart
/home/pauba/tmp/ccDymCsd.s:164    .text.extStart:0000005c $d
/home/pauba/tmp/ccDymCsd.s:177    .text.extStop:00000000 $t
/home/pauba/tmp/ccDymCsd.s:183    .text.extStop:00000000 extStop
/home/pauba/tmp/ccDymCsd.s:248    .text.extStop:00000050 $d
/home/pauba/tmp/ccDymCsd.s:261    .text.extChannelEnable:00000000 $t
/home/pauba/tmp/ccDymCsd.s:267    .text.extChannelEnable:00000000 extChannelEnable
/home/pauba/tmp/ccDymCsd.s:340    .text.extChannelEnable:0000005c $d
/home/pauba/tmp/ccDymCsd.s:353    .text.extChannelDisable:00000000 $t
/home/pauba/tmp/ccDymCsd.s:359    .text.extChannelDisable:00000000 extChannelDisable
/home/pauba/tmp/ccDymCsd.s:432    .text.extChannelDisable:0000005c $d
/home/pauba/tmp/ccDymCsd.s:445    .text.extSetChannelModeI:00000000 $t
/home/pauba/tmp/ccDymCsd.s:451    .text.extSetChannelModeI:00000000 extSetChannelModeI
/home/pauba/tmp/ccDymCsd.s:513    .text.extSetChannelModeI:00000058 $d
                     .debug_frame:00000010 $d
/home/pauba/tmp/ccDymCsd.s:169    .text.extStart:00000064 $t
/home/pauba/tmp/ccDymCsd.s:253    .text.extStop:00000058 $t
/home/pauba/tmp/ccDymCsd.s:345    .text.extChannelEnable:00000064 $t
/home/pauba/tmp/ccDymCsd.s:437    .text.extChannelDisable:00000064 $t

UNDEFINED SYMBOLS
ext_lld_init
chDbgPanic
dbg_check_lock
ext_lld_start
dbg_check_unlock
ext_lld_stop
ext_lld_channel_enable
ext_lld_channel_disable
