ARM GAS  /home/pauba/tmp/ccDymCsd.s 			page 1


   1              		.syntax unified
   2              		.cpu cortex-m4
   3              		.fpu softvfp
   4              		.eabi_attribute 20, 1
   5              		.eabi_attribute 21, 1
   6              		.eabi_attribute 23, 3
   7              		.eabi_attribute 24, 1
   8              		.eabi_attribute 25, 1
   9              		.eabi_attribute 26, 1
  10              		.eabi_attribute 30, 6
  11              		.eabi_attribute 34, 1
  12              		.eabi_attribute 18, 4
  13              		.thumb
  14              		.file	"ext.c"
  15              		.text
  16              	.Ltext0:
  17              		.cfi_sections	.debug_frame
  18              		.section	.text.extInit,"ax",%progbits
  19              		.align	2
  20              		.p2align 4,,15
  21              		.global	extInit
  22              		.thumb
  23              		.thumb_func
  24              		.type	extInit, %function
  25              	extInit:
  26              	.LFB63:
  27              		.file 1 "/home/pauba/ChibiOS-RT/os/hal/src/ext.c"
  28              		.loc 1 68 0
  29              		.cfi_startproc
  30              		@ args = 0, pretend = 0, frame = 0
  31              		@ frame_needed = 0, uses_anonymous_args = 0
  32 0000 08B5     		push	{r3, lr}
  33              		.cfi_def_cfa_offset 8
  34              		.cfi_offset 3, -8
  35              		.cfi_offset 14, -4
  36              		.loc 1 70 0
  37 0002 FFF7FEFF 		bl	ext_lld_init
  38              		.loc 1 71 0
  39 0006 08BD     		pop	{r3, pc}
  40              		.cfi_endproc
  41              	.LFE63:
  42              		.size	extInit, .-extInit
  43 0008 AFF30080 		.section	.text.extObjectInit,"ax",%progbits
  43      AFF30080 
  44              		.align	2
  45              		.p2align 4,,15
  46              		.global	extObjectInit
  47              		.thumb
  48              		.thumb_func
  49              		.type	extObjectInit, %function
  50              	extObjectInit:
  51              	.LFB64:
  52              		.loc 1 80 0
  53              		.cfi_startproc
  54              		@ args = 0, pretend = 0, frame = 8
  55              		@ frame_needed = 0, uses_anonymous_args = 0
  56              		@ link register save eliminated.
ARM GAS  /home/pauba/tmp/ccDymCsd.s 			page 2


  57 0000 82B0     		sub	sp, sp, #8
  58              		.cfi_def_cfa_offset 8
  59 0002 0190     		str	r0, [sp, #4]
  60              		.loc 1 82 0
  61 0004 019B     		ldr	r3, [sp, #4]
  62 0006 0122     		movs	r2, #1
  63 0008 1A70     		strb	r2, [r3]
  64              		.loc 1 83 0
  65 000a 019B     		ldr	r3, [sp, #4]
  66 000c 0022     		movs	r2, #0
  67 000e 5A60     		str	r2, [r3, #4]
  68              		.loc 1 84 0
  69 0010 02B0     		add	sp, sp, #8
  70              		@ sp needed
  71 0012 7047     		bx	lr
  72              		.cfi_endproc
  73              	.LFE64:
  74              		.size	extObjectInit, .-extObjectInit
  75 0014 AFF30080 		.section	.rodata
  75      AFF30080 
  75      AFF30080 
  76              		.align	2
  77              	.LC0:
  78 0000 22657874 		.ascii	"\"extStart\"()\000"
  78      53746172 
  78      74222829 
  78      00
  79 000d 000000   		.align	2
  80              	.LC1:
  81 0010 65787453 		.ascii	"extStart(), #1\000"
  81      74617274 
  81      28292C20 
  81      233100
  82              		.section	.text.extStart,"ax",%progbits
  83              		.align	2
  84              		.p2align 4,,15
  85              		.global	extStart
  86              		.thumb
  87              		.thumb_func
  88              		.type	extStart, %function
  89              	extStart:
  90              	.LFB65:
  91              		.loc 1 96 0
  92              		.cfi_startproc
  93              		@ args = 0, pretend = 0, frame = 8
  94              		@ frame_needed = 0, uses_anonymous_args = 0
  95 0000 00B5     		push	{lr}
  96              		.cfi_def_cfa_offset 4
  97              		.cfi_offset 14, -4
  98 0002 83B0     		sub	sp, sp, #12
  99              		.cfi_def_cfa_offset 16
 100 0004 0190     		str	r0, [sp, #4]
 101 0006 0091     		str	r1, [sp]
 102              		.loc 1 98 0
 103 0008 019B     		ldr	r3, [sp, #4]
 104 000a 002B     		cmp	r3, #0
 105 000c 02D0     		beq	.L4
ARM GAS  /home/pauba/tmp/ccDymCsd.s 			page 3


 106              		.loc 1 98 0 is_stmt 0 discriminator 2
 107 000e 009B     		ldr	r3, [sp]
 108 0010 002B     		cmp	r3, #0
 109 0012 02D1     		bne	.L5
 110              	.L4:
 111              		.loc 1 98 0 discriminator 1
 112 0014 1148     		ldr	r0, .L7
 113 0016 FFF7FEFF 		bl	chDbgPanic
 114              	.L5:
 115              	.LBB2:
 116              		.loc 1 100 0 is_stmt 1
 117 001a 2023     		movs	r3, #32
 118              	@ 100 "/home/pauba/ChibiOS-RT/os/hal/src/ext.c" 1
 119 001c 83F31188 		msr     BASEPRI, r3
 120              	@ 0 "" 2
 121              		.thumb
 122              	.LBE2:
 123 0020 FFF7FEFF 		bl	dbg_check_lock
 124              		.loc 1 101 0
 125 0024 019B     		ldr	r3, [sp, #4]
 126 0026 1B78     		ldrb	r3, [r3]	@ zero_extendqisi2
 127 0028 012B     		cmp	r3, #1
 128 002a 06D0     		beq	.L6
 129              		.loc 1 101 0 is_stmt 0 discriminator 1
 130 002c 019B     		ldr	r3, [sp, #4]
 131 002e 1B78     		ldrb	r3, [r3]	@ zero_extendqisi2
 132 0030 022B     		cmp	r3, #2
 133 0032 02D0     		beq	.L6
 134 0034 0A48     		ldr	r0, .L7+4
 135 0036 FFF7FEFF 		bl	chDbgPanic
 136              	.L6:
 137              		.loc 1 103 0 is_stmt 1
 138 003a 019B     		ldr	r3, [sp, #4]
 139 003c 009A     		ldr	r2, [sp]
 140 003e 5A60     		str	r2, [r3, #4]
 141              		.loc 1 104 0
 142 0040 0198     		ldr	r0, [sp, #4]
 143 0042 FFF7FEFF 		bl	ext_lld_start
 144              		.loc 1 105 0
 145 0046 019B     		ldr	r3, [sp, #4]
 146 0048 0222     		movs	r2, #2
 147 004a 1A70     		strb	r2, [r3]
 148              		.loc 1 106 0
 149 004c FFF7FEFF 		bl	dbg_check_unlock
 150              	.LBB3:
 151 0050 0023     		movs	r3, #0
 152              	@ 106 "/home/pauba/ChibiOS-RT/os/hal/src/ext.c" 1
 153 0052 83F31188 		msr     BASEPRI, r3
 154              	@ 0 "" 2
 155              		.thumb
 156              	.LBE3:
 157              		.loc 1 107 0
 158 0056 03B0     		add	sp, sp, #12
 159              		@ sp needed
 160 0058 5DF804FB 		ldr	pc, [sp], #4
 161              	.L8:
 162              		.align	2
ARM GAS  /home/pauba/tmp/ccDymCsd.s 			page 4


 163              	.L7:
 164 005c 00000000 		.word	.LC0
 165 0060 10000000 		.word	.LC1
 166              		.cfi_endproc
 167              	.LFE65:
 168              		.size	extStart, .-extStart
 169 0064 AFF30080 		.section	.rodata
 169      AFF30080 
 169      AFF30080 
 170 001f 00       		.align	2
 171              	.LC2:
 172 0020 22657874 		.ascii	"\"extStop\"()\000"
 172      53746F70 
 172      22282900 
 173              		.align	2
 174              	.LC3:
 175 002c 65787453 		.ascii	"extStop(), #1\000"
 175      746F7028 
 175      292C2023 
 175      3100
 176              		.section	.text.extStop,"ax",%progbits
 177              		.align	2
 178              		.p2align 4,,15
 179              		.global	extStop
 180              		.thumb
 181              		.thumb_func
 182              		.type	extStop, %function
 183              	extStop:
 184              	.LFB66:
 185              		.loc 1 116 0
 186              		.cfi_startproc
 187              		@ args = 0, pretend = 0, frame = 8
 188              		@ frame_needed = 0, uses_anonymous_args = 0
 189 0000 00B5     		push	{lr}
 190              		.cfi_def_cfa_offset 4
 191              		.cfi_offset 14, -4
 192 0002 83B0     		sub	sp, sp, #12
 193              		.cfi_def_cfa_offset 16
 194 0004 0190     		str	r0, [sp, #4]
 195              		.loc 1 118 0
 196 0006 019B     		ldr	r3, [sp, #4]
 197 0008 002B     		cmp	r3, #0
 198 000a 02D1     		bne	.L10
 199              		.loc 1 118 0 is_stmt 0 discriminator 1
 200 000c 1048     		ldr	r0, .L12
 201 000e FFF7FEFF 		bl	chDbgPanic
 202              	.L10:
 203              	.LBB4:
 204              		.loc 1 120 0 is_stmt 1
 205 0012 2023     		movs	r3, #32
 206              	@ 120 "/home/pauba/ChibiOS-RT/os/hal/src/ext.c" 1
 207 0014 83F31188 		msr     BASEPRI, r3
 208              	@ 0 "" 2
 209              		.thumb
 210              	.LBE4:
 211 0018 FFF7FEFF 		bl	dbg_check_lock
 212              		.loc 1 121 0
ARM GAS  /home/pauba/tmp/ccDymCsd.s 			page 5


 213 001c 019B     		ldr	r3, [sp, #4]
 214 001e 1B78     		ldrb	r3, [r3]	@ zero_extendqisi2
 215 0020 012B     		cmp	r3, #1
 216 0022 06D0     		beq	.L11
 217              		.loc 1 121 0 is_stmt 0 discriminator 1
 218 0024 019B     		ldr	r3, [sp, #4]
 219 0026 1B78     		ldrb	r3, [r3]	@ zero_extendqisi2
 220 0028 022B     		cmp	r3, #2
 221 002a 02D0     		beq	.L11
 222 002c 0948     		ldr	r0, .L12+4
 223 002e FFF7FEFF 		bl	chDbgPanic
 224              	.L11:
 225              		.loc 1 123 0 is_stmt 1
 226 0032 0198     		ldr	r0, [sp, #4]
 227 0034 FFF7FEFF 		bl	ext_lld_stop
 228              		.loc 1 124 0
 229 0038 019B     		ldr	r3, [sp, #4]
 230 003a 0122     		movs	r2, #1
 231 003c 1A70     		strb	r2, [r3]
 232              		.loc 1 125 0
 233 003e FFF7FEFF 		bl	dbg_check_unlock
 234              	.LBB5:
 235 0042 0023     		movs	r3, #0
 236              	@ 125 "/home/pauba/ChibiOS-RT/os/hal/src/ext.c" 1
 237 0044 83F31188 		msr     BASEPRI, r3
 238              	@ 0 "" 2
 239              		.thumb
 240              	.LBE5:
 241              		.loc 1 126 0
 242 0048 03B0     		add	sp, sp, #12
 243              		@ sp needed
 244 004a 5DF804FB 		ldr	pc, [sp], #4
 245              	.L13:
 246 004e 00BF     		.align	2
 247              	.L12:
 248 0050 20000000 		.word	.LC2
 249 0054 2C000000 		.word	.LC3
 250              		.cfi_endproc
 251              	.LFE66:
 252              		.size	extStop, .-extStop
 253 0058 AFF30080 		.section	.rodata
 253      AFF30080 
 254 003a 0000     		.align	2
 255              	.LC4:
 256 003c 22657874 		.ascii	"\"extChannelEnable\"()\000"
 256      4368616E 
 256      6E656C45 
 256      6E61626C 
 256      65222829 
 257 0051 000000   		.align	2
 258              	.LC5:
 259 0054 65787443 		.ascii	"extChannelEnable(), #1\000"
 259      68616E6E 
 259      656C456E 
 259      61626C65 
 259      28292C20 
 260              		.section	.text.extChannelEnable,"ax",%progbits
ARM GAS  /home/pauba/tmp/ccDymCsd.s 			page 6


 261              		.align	2
 262              		.p2align 4,,15
 263              		.global	extChannelEnable
 264              		.thumb
 265              		.thumb_func
 266              		.type	extChannelEnable, %function
 267              	extChannelEnable:
 268              	.LFB67:
 269              		.loc 1 137 0
 270              		.cfi_startproc
 271              		@ args = 0, pretend = 0, frame = 8
 272              		@ frame_needed = 0, uses_anonymous_args = 0
 273 0000 00B5     		push	{lr}
 274              		.cfi_def_cfa_offset 4
 275              		.cfi_offset 14, -4
 276 0002 83B0     		sub	sp, sp, #12
 277              		.cfi_def_cfa_offset 16
 278 0004 0190     		str	r0, [sp, #4]
 279 0006 0091     		str	r1, [sp]
 280              		.loc 1 139 0
 281 0008 019B     		ldr	r3, [sp, #4]
 282 000a 002B     		cmp	r3, #0
 283 000c 02D0     		beq	.L15
 284              		.loc 1 139 0 is_stmt 0 discriminator 2
 285 000e 009B     		ldr	r3, [sp]
 286 0010 162B     		cmp	r3, #22
 287 0012 02D9     		bls	.L16
 288              	.L15:
 289              		.loc 1 139 0 discriminator 1
 290 0014 1148     		ldr	r0, .L19
 291 0016 FFF7FEFF 		bl	chDbgPanic
 292              	.L16:
 293              	.LBB6:
 294              		.loc 1 142 0 is_stmt 1
 295 001a 2023     		movs	r3, #32
 296              	@ 142 "/home/pauba/ChibiOS-RT/os/hal/src/ext.c" 1
 297 001c 83F31188 		msr     BASEPRI, r3
 298              	@ 0 "" 2
 299              		.thumb
 300              	.LBE6:
 301 0020 FFF7FEFF 		bl	dbg_check_lock
 302              		.loc 1 143 0
 303 0024 019B     		ldr	r3, [sp, #4]
 304 0026 1B78     		ldrb	r3, [r3]	@ zero_extendqisi2
 305 0028 022B     		cmp	r3, #2
 306 002a 08D1     		bne	.L17
 307              		.loc 1 143 0 is_stmt 0 discriminator 2
 308 002c 019B     		ldr	r3, [sp, #4]
 309 002e 5B68     		ldr	r3, [r3, #4]
 310 0030 009A     		ldr	r2, [sp]
 311 0032 53F83230 		ldr	r3, [r3, r2, lsl #3]
 312 0036 03F00303 		and	r3, r3, #3
 313 003a 002B     		cmp	r3, #0
 314 003c 02D1     		bne	.L18
 315              	.L17:
 316              		.loc 1 143 0 discriminator 1
 317 003e 0848     		ldr	r0, .L19+4
ARM GAS  /home/pauba/tmp/ccDymCsd.s 			page 7


 318 0040 FFF7FEFF 		bl	chDbgPanic
 319              	.L18:
 320              		.loc 1 147 0 is_stmt 1
 321 0044 0198     		ldr	r0, [sp, #4]
 322 0046 0099     		ldr	r1, [sp]
 323 0048 FFF7FEFF 		bl	ext_lld_channel_enable
 324              		.loc 1 148 0
 325 004c FFF7FEFF 		bl	dbg_check_unlock
 326              	.LBB7:
 327 0050 0023     		movs	r3, #0
 328              	@ 148 "/home/pauba/ChibiOS-RT/os/hal/src/ext.c" 1
 329 0052 83F31188 		msr     BASEPRI, r3
 330              	@ 0 "" 2
 331              		.thumb
 332              	.LBE7:
 333              		.loc 1 149 0
 334 0056 03B0     		add	sp, sp, #12
 335              		@ sp needed
 336 0058 5DF804FB 		ldr	pc, [sp], #4
 337              	.L20:
 338              		.align	2
 339              	.L19:
 340 005c 3C000000 		.word	.LC4
 341 0060 54000000 		.word	.LC5
 342              		.cfi_endproc
 343              	.LFE67:
 344              		.size	extChannelEnable, .-extChannelEnable
 345 0064 AFF30080 		.section	.rodata
 345      AFF30080 
 345      AFF30080 
 346 006b 00       		.align	2
 347              	.LC6:
 348 006c 22657874 		.ascii	"\"extChannelDisable\"()\000"
 348      4368616E 
 348      6E656C44 
 348      69736162 
 348      6C652228 
 349 0082 0000     		.align	2
 350              	.LC7:
 351 0084 65787443 		.ascii	"extChannelDisable(), #1\000"
 351      68616E6E 
 351      656C4469 
 351      7361626C 
 351      6528292C 
 352              		.section	.text.extChannelDisable,"ax",%progbits
 353              		.align	2
 354              		.p2align 4,,15
 355              		.global	extChannelDisable
 356              		.thumb
 357              		.thumb_func
 358              		.type	extChannelDisable, %function
 359              	extChannelDisable:
 360              	.LFB68:
 361              		.loc 1 160 0
 362              		.cfi_startproc
 363              		@ args = 0, pretend = 0, frame = 8
 364              		@ frame_needed = 0, uses_anonymous_args = 0
ARM GAS  /home/pauba/tmp/ccDymCsd.s 			page 8


 365 0000 00B5     		push	{lr}
 366              		.cfi_def_cfa_offset 4
 367              		.cfi_offset 14, -4
 368 0002 83B0     		sub	sp, sp, #12
 369              		.cfi_def_cfa_offset 16
 370 0004 0190     		str	r0, [sp, #4]
 371 0006 0091     		str	r1, [sp]
 372              		.loc 1 162 0
 373 0008 019B     		ldr	r3, [sp, #4]
 374 000a 002B     		cmp	r3, #0
 375 000c 02D0     		beq	.L22
 376              		.loc 1 162 0 is_stmt 0 discriminator 2
 377 000e 009B     		ldr	r3, [sp]
 378 0010 162B     		cmp	r3, #22
 379 0012 02D9     		bls	.L23
 380              	.L22:
 381              		.loc 1 162 0 discriminator 1
 382 0014 1148     		ldr	r0, .L26
 383 0016 FFF7FEFF 		bl	chDbgPanic
 384              	.L23:
 385              	.LBB8:
 386              		.loc 1 165 0 is_stmt 1
 387 001a 2023     		movs	r3, #32
 388              	@ 165 "/home/pauba/ChibiOS-RT/os/hal/src/ext.c" 1
 389 001c 83F31188 		msr     BASEPRI, r3
 390              	@ 0 "" 2
 391              		.thumb
 392              	.LBE8:
 393 0020 FFF7FEFF 		bl	dbg_check_lock
 394              		.loc 1 166 0
 395 0024 019B     		ldr	r3, [sp, #4]
 396 0026 1B78     		ldrb	r3, [r3]	@ zero_extendqisi2
 397 0028 022B     		cmp	r3, #2
 398 002a 08D1     		bne	.L24
 399              		.loc 1 166 0 is_stmt 0 discriminator 2
 400 002c 019B     		ldr	r3, [sp, #4]
 401 002e 5B68     		ldr	r3, [r3, #4]
 402 0030 009A     		ldr	r2, [sp]
 403 0032 53F83230 		ldr	r3, [r3, r2, lsl #3]
 404 0036 03F00303 		and	r3, r3, #3
 405 003a 002B     		cmp	r3, #0
 406 003c 02D1     		bne	.L25
 407              	.L24:
 408              		.loc 1 166 0 discriminator 1
 409 003e 0848     		ldr	r0, .L26+4
 410 0040 FFF7FEFF 		bl	chDbgPanic
 411              	.L25:
 412              		.loc 1 170 0 is_stmt 1
 413 0044 0198     		ldr	r0, [sp, #4]
 414 0046 0099     		ldr	r1, [sp]
 415 0048 FFF7FEFF 		bl	ext_lld_channel_disable
 416              		.loc 1 171 0
 417 004c FFF7FEFF 		bl	dbg_check_unlock
 418              	.LBB9:
 419 0050 0023     		movs	r3, #0
 420              	@ 171 "/home/pauba/ChibiOS-RT/os/hal/src/ext.c" 1
 421 0052 83F31188 		msr     BASEPRI, r3
ARM GAS  /home/pauba/tmp/ccDymCsd.s 			page 9


 422              	@ 0 "" 2
 423              		.thumb
 424              	.LBE9:
 425              		.loc 1 172 0
 426 0056 03B0     		add	sp, sp, #12
 427              		@ sp needed
 428 0058 5DF804FB 		ldr	pc, [sp], #4
 429              	.L27:
 430              		.align	2
 431              	.L26:
 432 005c 6C000000 		.word	.LC6
 433 0060 84000000 		.word	.LC7
 434              		.cfi_endproc
 435              	.LFE68:
 436              		.size	extChannelDisable, .-extChannelDisable
 437 0064 AFF30080 		.section	.rodata
 437      AFF30080 
 437      AFF30080 
 438              		.align	2
 439              	.LC8:
 440 009c 22657874 		.ascii	"\"extSetChannelModeI\"()\000"
 440      53657443 
 440      68616E6E 
 440      656C4D6F 
 440      64654922 
 441 00b3 00       		.align	2
 442              	.LC9:
 443 00b4 65787453 		.ascii	"extSetChannelModeI(), #1\000"
 443      65744368 
 443      616E6E65 
 443      6C4D6F64 
 443      65492829 
 444 00cd 000000   		.section	.text.extSetChannelModeI,"ax",%progbits
 445              		.align	2
 446              		.p2align 4,,15
 447              		.global	extSetChannelModeI
 448              		.thumb
 449              		.thumb_func
 450              		.type	extSetChannelModeI, %function
 451              	extSetChannelModeI:
 452              	.LFB69:
 453              		.loc 1 193 0
 454              		.cfi_startproc
 455              		@ args = 0, pretend = 0, frame = 24
 456              		@ frame_needed = 0, uses_anonymous_args = 0
 457 0000 00B5     		push	{lr}
 458              		.cfi_def_cfa_offset 4
 459              		.cfi_offset 14, -4
 460 0002 87B0     		sub	sp, sp, #28
 461              		.cfi_def_cfa_offset 32
 462 0004 0390     		str	r0, [sp, #12]
 463 0006 0291     		str	r1, [sp, #8]
 464 0008 0192     		str	r2, [sp, #4]
 465              		.loc 1 196 0
 466 000a 039B     		ldr	r3, [sp, #12]
 467 000c 002B     		cmp	r3, #0
 468 000e 05D0     		beq	.L29
ARM GAS  /home/pauba/tmp/ccDymCsd.s 			page 10


 469              		.loc 1 196 0 is_stmt 0 discriminator 2
 470 0010 029B     		ldr	r3, [sp, #8]
 471 0012 162B     		cmp	r3, #22
 472 0014 02D8     		bhi	.L29
 473              		.loc 1 196 0 discriminator 1
 474 0016 019B     		ldr	r3, [sp, #4]
 475 0018 002B     		cmp	r3, #0
 476 001a 02D1     		bne	.L30
 477              	.L29:
 478 001c 0E48     		ldr	r0, .L32
 479 001e FFF7FEFF 		bl	chDbgPanic
 480              	.L30:
 481              		.loc 1 199 0 is_stmt 1
 482 0022 039B     		ldr	r3, [sp, #12]
 483 0024 1B78     		ldrb	r3, [r3]	@ zero_extendqisi2
 484 0026 022B     		cmp	r3, #2
 485 0028 02D0     		beq	.L31
 486              		.loc 1 199 0 is_stmt 0 discriminator 1
 487 002a 0C48     		ldr	r0, .L32+4
 488 002c FFF7FEFF 		bl	chDbgPanic
 489              	.L31:
 490              		.loc 1 204 0 is_stmt 1
 491 0030 039B     		ldr	r3, [sp, #12]
 492 0032 5A68     		ldr	r2, [r3, #4]
 493 0034 029B     		ldr	r3, [sp, #8]
 494 0036 DB00     		lsls	r3, r3, #3
 495 0038 1344     		add	r3, r3, r2
 496 003a 0593     		str	r3, [sp, #20]
 497              		.loc 1 208 0
 498 003c 059B     		ldr	r3, [sp, #20]
 499 003e 019A     		ldr	r2, [sp, #4]
 500 0040 92E80300 		ldmia	r2, {r0, r1}
 501 0044 83E80300 		stmia	r3, {r0, r1}
 502              		.loc 1 209 0
 503 0048 0398     		ldr	r0, [sp, #12]
 504 004a 0299     		ldr	r1, [sp, #8]
 505 004c FFF7FEFF 		bl	ext_lld_channel_enable
 506              		.loc 1 210 0
 507 0050 07B0     		add	sp, sp, #28
 508              		@ sp needed
 509 0052 5DF804FB 		ldr	pc, [sp], #4
 510              	.L33:
 511 0056 00BF     		.align	2
 512              	.L32:
 513 0058 9C000000 		.word	.LC8
 514 005c B4000000 		.word	.LC9
 515              		.cfi_endproc
 516              	.LFE69:
 517              		.size	extSetChannelModeI, .-extSetChannelModeI
 518              		.text
 519              	.Letext0:
 520              		.file 2 "/opt/gcc-arm-none-eabi-4_8-2014q1/arm-none-eabi/include/machine/_default_types.h"
 521              		.file 3 "/opt/gcc-arm-none-eabi-4_8-2014q1/arm-none-eabi/include/stdint.h"
 522              		.file 4 "/home/pauba/ChibiOS-RT/os/hal/include/ext.h"
 523              		.file 5 "/home/pauba/ChibiOS-RT/os/hal/platforms/STM32/ext_lld.h"
 524              		.file 6 "/home/pauba/ChibiOS-RT/os/ports/common/ARMCMx/CMSIS/include/core_cm3.h"