ARM GAS  /home/pauba/tmp/ccwadrBH.s 			page 1


   1              		.syntax unified
   2              		.cpu cortex-m4
   3              		.fpu softvfp
   4              		.eabi_attribute 20, 1
   5              		.eabi_attribute 21, 1
   6              		.eabi_attribute 23, 3
   7              		.eabi_attribute 24, 1
   8              		.eabi_attribute 25, 1
   9              		.eabi_attribute 26, 1
  10              		.eabi_attribute 30, 6
  11              		.eabi_attribute 34, 1
  12              		.eabi_attribute 18, 4
  13              		.thumb
  14              		.file	"ext_lld_isr.c"
  15              		.text
  16              	.Ltext0:
  17              		.cfi_sections	.debug_frame
  18              		.section	.text.Vector58,"ax",%progbits
  19              		.align	2
  20              		.p2align 4,,15
  21              		.global	Vector58
  22              		.thumb
  23              		.thumb_func
  24              		.type	Vector58, %function
  25              	Vector58:
  26              	.LFB63:
  27              		.file 1 "/home/pauba/ChibiOS-RT/os/hal/platforms/STM32L1xx/ext_lld_isr.c"
  28              		.loc 1 57 0
  29              		.cfi_startproc
  30              		@ args = 0, pretend = 0, frame = 0
  31              		@ frame_needed = 0, uses_anonymous_args = 0
  32 0000 08B5     		push	{r3, lr}
  33              		.cfi_def_cfa_offset 8
  34              		.cfi_offset 3, -8
  35              		.cfi_offset 14, -4
  36              		.loc 1 59 0
  37 0002 FFF7FEFF 		bl	dbg_check_enter_isr
  38              		.loc 1 61 0
  39 0006 074B     		ldr	r3, .L2
  40 0008 0122     		movs	r2, #1
  41 000a 5A61     		str	r2, [r3, #20]
  42              		.loc 1 62 0
  43 000c 064B     		ldr	r3, .L2+4
  44 000e 5B68     		ldr	r3, [r3, #4]
  45 0010 5B68     		ldr	r3, [r3, #4]
  46 0012 0548     		ldr	r0, .L2+4
  47 0014 0021     		movs	r1, #0
  48 0016 9847     		blx	r3
  49              		.loc 1 64 0
  50 0018 FFF7FEFF 		bl	dbg_check_leave_isr
  51 001c FFF7FEFF 		bl	_port_irq_epilogue
  52              		.loc 1 65 0
  53 0020 08BD     		pop	{r3, pc}
  54              	.L3:
  55 0022 00BF     		.align	2
  56              	.L2:
  57 0024 00040140 		.word	1073808384
ARM GAS  /home/pauba/tmp/ccwadrBH.s 			page 2


  58 0028 00000000 		.word	EXTD1
  59              		.cfi_endproc
  60              	.LFE63:
  61              		.size	Vector58, .-Vector58
  62 002c AFF30080 		.section	.text.Vector5C,"ax",%progbits
  63              		.align	2
  64              		.p2align 4,,15
  65              		.global	Vector5C
  66              		.thumb
  67              		.thumb_func
  68              		.type	Vector5C, %function
  69              	Vector5C:
  70              	.LFB64:
  71              		.loc 1 72 0
  72              		.cfi_startproc
  73              		@ args = 0, pretend = 0, frame = 0
  74              		@ frame_needed = 0, uses_anonymous_args = 0
  75 0000 08B5     		push	{r3, lr}
  76              		.cfi_def_cfa_offset 8
  77              		.cfi_offset 3, -8
  78              		.cfi_offset 14, -4
  79              		.loc 1 74 0
  80 0002 FFF7FEFF 		bl	dbg_check_enter_isr
  81              		.loc 1 76 0
  82 0006 074B     		ldr	r3, .L5
  83 0008 0222     		movs	r2, #2
  84 000a 5A61     		str	r2, [r3, #20]
  85              		.loc 1 77 0
  86 000c 064B     		ldr	r3, .L5+4
  87 000e 5B68     		ldr	r3, [r3, #4]
  88 0010 DB68     		ldr	r3, [r3, #12]
  89 0012 0548     		ldr	r0, .L5+4
  90 0014 0121     		movs	r1, #1
  91 0016 9847     		blx	r3
  92              		.loc 1 79 0
  93 0018 FFF7FEFF 		bl	dbg_check_leave_isr
  94 001c FFF7FEFF 		bl	_port_irq_epilogue
  95              		.loc 1 80 0
  96 0020 08BD     		pop	{r3, pc}
  97              	.L6:
  98 0022 00BF     		.align	2
  99              	.L5:
 100 0024 00040140 		.word	1073808384
 101 0028 00000000 		.word	EXTD1
 102              		.cfi_endproc
 103              	.LFE64:
 104              		.size	Vector5C, .-Vector5C
 105 002c AFF30080 		.section	.text.Vector60,"ax",%progbits
 106              		.align	2
 107              		.p2align 4,,15
 108              		.global	Vector60
 109              		.thumb
 110              		.thumb_func
 111              		.type	Vector60, %function
 112              	Vector60:
 113              	.LFB65:
 114              		.loc 1 87 0
ARM GAS  /home/pauba/tmp/ccwadrBH.s 			page 3


 115              		.cfi_startproc
 116              		@ args = 0, pretend = 0, frame = 0
 117              		@ frame_needed = 0, uses_anonymous_args = 0
 118 0000 08B5     		push	{r3, lr}
 119              		.cfi_def_cfa_offset 8
 120              		.cfi_offset 3, -8
 121              		.cfi_offset 14, -4
 122              		.loc 1 89 0
 123 0002 FFF7FEFF 		bl	dbg_check_enter_isr
 124              		.loc 1 91 0
 125 0006 074B     		ldr	r3, .L8
 126 0008 0422     		movs	r2, #4
 127 000a 5A61     		str	r2, [r3, #20]
 128              		.loc 1 92 0
 129 000c 064B     		ldr	r3, .L8+4
 130 000e 5B68     		ldr	r3, [r3, #4]
 131 0010 5B69     		ldr	r3, [r3, #20]
 132 0012 0548     		ldr	r0, .L8+4
 133 0014 0221     		movs	r1, #2
 134 0016 9847     		blx	r3
 135              		.loc 1 94 0
 136 0018 FFF7FEFF 		bl	dbg_check_leave_isr
 137 001c FFF7FEFF 		bl	_port_irq_epilogue
 138              		.loc 1 95 0
 139 0020 08BD     		pop	{r3, pc}
 140              	.L9:
 141 0022 00BF     		.align	2
 142              	.L8:
 143 0024 00040140 		.word	1073808384
 144 0028 00000000 		.word	EXTD1
 145              		.cfi_endproc
 146              	.LFE65:
 147              		.size	Vector60, .-Vector60
 148 002c AFF30080 		.section	.text.Vector64,"ax",%progbits
 149              		.align	2
 150              		.p2align 4,,15
 151              		.global	Vector64
 152              		.thumb
 153              		.thumb_func
 154              		.type	Vector64, %function
 155              	Vector64:
 156              	.LFB66:
 157              		.loc 1 102 0
 158              		.cfi_startproc
 159              		@ args = 0, pretend = 0, frame = 0
 160              		@ frame_needed = 0, uses_anonymous_args = 0
 161 0000 08B5     		push	{r3, lr}
 162              		.cfi_def_cfa_offset 8
 163              		.cfi_offset 3, -8
 164              		.cfi_offset 14, -4
 165              		.loc 1 104 0
 166 0002 FFF7FEFF 		bl	dbg_check_enter_isr
 167              		.loc 1 106 0
 168 0006 074B     		ldr	r3, .L11
 169 0008 0822     		movs	r2, #8
 170 000a 5A61     		str	r2, [r3, #20]
 171              		.loc 1 107 0
ARM GAS  /home/pauba/tmp/ccwadrBH.s 			page 4


 172 000c 064B     		ldr	r3, .L11+4
 173 000e 5B68     		ldr	r3, [r3, #4]
 174 0010 DB69     		ldr	r3, [r3, #28]
 175 0012 0548     		ldr	r0, .L11+4
 176 0014 0321     		movs	r1, #3
 177 0016 9847     		blx	r3
 178              		.loc 1 109 0
 179 0018 FFF7FEFF 		bl	dbg_check_leave_isr
 180 001c FFF7FEFF 		bl	_port_irq_epilogue
 181              		.loc 1 110 0
 182 0020 08BD     		pop	{r3, pc}
 183              	.L12:
 184 0022 00BF     		.align	2
 185              	.L11:
 186 0024 00040140 		.word	1073808384
 187 0028 00000000 		.word	EXTD1
 188              		.cfi_endproc
 189              	.LFE66:
 190              		.size	Vector64, .-Vector64
 191 002c AFF30080 		.section	.text.Vector68,"ax",%progbits
 192              		.align	2
 193              		.p2align 4,,15
 194              		.global	Vector68
 195              		.thumb
 196              		.thumb_func
 197              		.type	Vector68, %function
 198              	Vector68:
 199              	.LFB67:
 200              		.loc 1 117 0
 201              		.cfi_startproc
 202              		@ args = 0, pretend = 0, frame = 0
 203              		@ frame_needed = 0, uses_anonymous_args = 0
 204 0000 08B5     		push	{r3, lr}
 205              		.cfi_def_cfa_offset 8
 206              		.cfi_offset 3, -8
 207              		.cfi_offset 14, -4
 208              		.loc 1 119 0
 209 0002 FFF7FEFF 		bl	dbg_check_enter_isr
 210              		.loc 1 121 0
 211 0006 074B     		ldr	r3, .L14
 212 0008 1022     		movs	r2, #16
 213 000a 5A61     		str	r2, [r3, #20]
 214              		.loc 1 122 0
 215 000c 064B     		ldr	r3, .L14+4
 216 000e 5B68     		ldr	r3, [r3, #4]
 217 0010 5B6A     		ldr	r3, [r3, #36]
 218 0012 0548     		ldr	r0, .L14+4
 219 0014 0421     		movs	r1, #4
 220 0016 9847     		blx	r3
 221              		.loc 1 124 0
 222 0018 FFF7FEFF 		bl	dbg_check_leave_isr
 223 001c FFF7FEFF 		bl	_port_irq_epilogue
 224              		.loc 1 125 0
 225 0020 08BD     		pop	{r3, pc}
 226              	.L15:
 227 0022 00BF     		.align	2
 228              	.L14:
ARM GAS  /home/pauba/tmp/ccwadrBH.s 			page 5


 229 0024 00040140 		.word	1073808384
 230 0028 00000000 		.word	EXTD1
 231              		.cfi_endproc
 232              	.LFE67:
 233              		.size	Vector68, .-Vector68
 234 002c AFF30080 		.section	.text.Vector9C,"ax",%progbits
 235              		.align	2
 236              		.p2align 4,,15
 237              		.global	Vector9C
 238              		.thumb
 239              		.thumb_func
 240              		.type	Vector9C, %function
 241              	Vector9C:
 242              	.LFB68:
 243              		.loc 1 132 0
 244              		.cfi_startproc
 245              		@ args = 0, pretend = 0, frame = 8
 246              		@ frame_needed = 0, uses_anonymous_args = 0
 247 0000 00B5     		push	{lr}
 248              		.cfi_def_cfa_offset 4
 249              		.cfi_offset 14, -4
 250 0002 83B0     		sub	sp, sp, #12
 251              		.cfi_def_cfa_offset 16
 252              		.loc 1 135 0
 253 0004 FFF7FEFF 		bl	dbg_check_enter_isr
 254              		.loc 1 137 0
 255 0008 224B     		ldr	r3, .L22
 256 000a 5B69     		ldr	r3, [r3, #20]
 257 000c 03F47873 		and	r3, r3, #992
 258 0010 0193     		str	r3, [sp, #4]
 259              		.loc 1 138 0
 260 0012 204B     		ldr	r3, .L22
 261 0014 019A     		ldr	r2, [sp, #4]
 262 0016 5A61     		str	r2, [r3, #20]
 263              		.loc 1 139 0
 264 0018 019B     		ldr	r3, [sp, #4]
 265 001a 03F02003 		and	r3, r3, #32
 266 001e 002B     		cmp	r3, #0
 267 0020 05D0     		beq	.L17
 268              		.loc 1 140 0
 269 0022 1D4B     		ldr	r3, .L22+4
 270 0024 5B68     		ldr	r3, [r3, #4]
 271 0026 DB6A     		ldr	r3, [r3, #44]
 272 0028 1B48     		ldr	r0, .L22+4
 273 002a 0521     		movs	r1, #5
 274 002c 9847     		blx	r3
 275              	.L17:
 276              		.loc 1 141 0
 277 002e 019B     		ldr	r3, [sp, #4]
 278 0030 03F04003 		and	r3, r3, #64
 279 0034 002B     		cmp	r3, #0
 280 0036 05D0     		beq	.L18
 281              		.loc 1 142 0
 282 0038 174B     		ldr	r3, .L22+4
 283 003a 5B68     		ldr	r3, [r3, #4]
 284 003c 5B6B     		ldr	r3, [r3, #52]
 285 003e 1648     		ldr	r0, .L22+4
ARM GAS  /home/pauba/tmp/ccwadrBH.s 			page 6


 286 0040 0621     		movs	r1, #6
 287 0042 9847     		blx	r3
 288              	.L18:
 289              		.loc 1 143 0
 290 0044 019B     		ldr	r3, [sp, #4]
 291 0046 03F08003 		and	r3, r3, #128
 292 004a 002B     		cmp	r3, #0
 293 004c 05D0     		beq	.L19
 294              		.loc 1 144 0
 295 004e 124B     		ldr	r3, .L22+4
 296 0050 5B68     		ldr	r3, [r3, #4]
 297 0052 DB6B     		ldr	r3, [r3, #60]
 298 0054 1048     		ldr	r0, .L22+4
 299 0056 0721     		movs	r1, #7
 300 0058 9847     		blx	r3
 301              	.L19:
 302              		.loc 1 145 0
 303 005a 019B     		ldr	r3, [sp, #4]
 304 005c 03F48073 		and	r3, r3, #256
 305 0060 002B     		cmp	r3, #0
 306 0062 05D0     		beq	.L20
 307              		.loc 1 146 0
 308 0064 0C4B     		ldr	r3, .L22+4
 309 0066 5B68     		ldr	r3, [r3, #4]
 310 0068 5B6C     		ldr	r3, [r3, #68]
 311 006a 0B48     		ldr	r0, .L22+4
 312 006c 0821     		movs	r1, #8
 313 006e 9847     		blx	r3
 314              	.L20:
 315              		.loc 1 147 0
 316 0070 019B     		ldr	r3, [sp, #4]
 317 0072 03F40073 		and	r3, r3, #512
 318 0076 002B     		cmp	r3, #0
 319 0078 05D0     		beq	.L21
 320              		.loc 1 148 0
 321 007a 074B     		ldr	r3, .L22+4
 322 007c 5B68     		ldr	r3, [r3, #4]
 323 007e DB6C     		ldr	r3, [r3, #76]
 324 0080 0548     		ldr	r0, .L22+4
 325 0082 0921     		movs	r1, #9
 326 0084 9847     		blx	r3
 327              	.L21:
 328              		.loc 1 150 0
 329 0086 FFF7FEFF 		bl	dbg_check_leave_isr
 330 008a FFF7FEFF 		bl	_port_irq_epilogue
 331              		.loc 1 151 0
 332 008e 03B0     		add	sp, sp, #12
 333              		@ sp needed
 334 0090 5DF804FB 		ldr	pc, [sp], #4
 335              	.L23:
 336              		.align	2
 337              	.L22:
 338 0094 00040140 		.word	1073808384
 339 0098 00000000 		.word	EXTD1
 340              		.cfi_endproc
 341              	.LFE68:
 342              		.size	Vector9C, .-Vector9C
ARM GAS  /home/pauba/tmp/ccwadrBH.s 			page 7


 343 009c AFF30080 		.section	.text.VectorE0,"ax",%progbits
 344              		.align	2
 345              		.p2align 4,,15
 346              		.global	VectorE0
 347              		.thumb
 348              		.thumb_func
 349              		.type	VectorE0, %function
 350              	VectorE0:
 351              	.LFB69:
 352              		.loc 1 158 0
 353              		.cfi_startproc
 354              		@ args = 0, pretend = 0, frame = 8
 355              		@ frame_needed = 0, uses_anonymous_args = 0
 356 0000 00B5     		push	{lr}
 357              		.cfi_def_cfa_offset 4
 358              		.cfi_offset 14, -4
 359 0002 83B0     		sub	sp, sp, #12
 360              		.cfi_def_cfa_offset 16
 361              		.loc 1 161 0
 362 0004 FFF7FEFF 		bl	dbg_check_enter_isr
 363              		.loc 1 163 0
 364 0008 284B     		ldr	r3, .L31
 365 000a 5B69     		ldr	r3, [r3, #20]
 366 000c 03F47C43 		and	r3, r3, #64512
 367 0010 0193     		str	r3, [sp, #4]
 368              		.loc 1 165 0
 369 0012 264B     		ldr	r3, .L31
 370 0014 019A     		ldr	r2, [sp, #4]
 371 0016 5A61     		str	r2, [r3, #20]
 372              		.loc 1 166 0
 373 0018 019B     		ldr	r3, [sp, #4]
 374 001a 03F48063 		and	r3, r3, #1024
 375 001e 002B     		cmp	r3, #0
 376 0020 05D0     		beq	.L25
 377              		.loc 1 167 0
 378 0022 234B     		ldr	r3, .L31+4
 379 0024 5B68     		ldr	r3, [r3, #4]
 380 0026 5B6D     		ldr	r3, [r3, #84]
 381 0028 2148     		ldr	r0, .L31+4
 382 002a 0A21     		movs	r1, #10
 383 002c 9847     		blx	r3
 384              	.L25:
 385              		.loc 1 168 0
 386 002e 019B     		ldr	r3, [sp, #4]
 387 0030 03F40063 		and	r3, r3, #2048
 388 0034 002B     		cmp	r3, #0
 389 0036 05D0     		beq	.L26
 390              		.loc 1 169 0
 391 0038 1D4B     		ldr	r3, .L31+4
 392 003a 5B68     		ldr	r3, [r3, #4]
 393 003c DB6D     		ldr	r3, [r3, #92]
 394 003e 1C48     		ldr	r0, .L31+4
 395 0040 0B21     		movs	r1, #11
 396 0042 9847     		blx	r3
 397              	.L26:
 398              		.loc 1 170 0
 399 0044 019B     		ldr	r3, [sp, #4]
ARM GAS  /home/pauba/tmp/ccwadrBH.s 			page 8


 400 0046 03F48053 		and	r3, r3, #4096
 401 004a 002B     		cmp	r3, #0
 402 004c 05D0     		beq	.L27
 403              		.loc 1 171 0
 404 004e 184B     		ldr	r3, .L31+4
 405 0050 5B68     		ldr	r3, [r3, #4]
 406 0052 5B6E     		ldr	r3, [r3, #100]
 407 0054 1648     		ldr	r0, .L31+4
 408 0056 0C21     		movs	r1, #12
 409 0058 9847     		blx	r3
 410              	.L27:
 411              		.loc 1 172 0
 412 005a 019B     		ldr	r3, [sp, #4]
 413 005c 03F40053 		and	r3, r3, #8192
 414 0060 002B     		cmp	r3, #0
 415 0062 05D0     		beq	.L28
 416              		.loc 1 173 0
 417 0064 124B     		ldr	r3, .L31+4
 418 0066 5B68     		ldr	r3, [r3, #4]
 419 0068 DB6E     		ldr	r3, [r3, #108]
 420 006a 1148     		ldr	r0, .L31+4
 421 006c 0D21     		movs	r1, #13
 422 006e 9847     		blx	r3
 423              	.L28:
 424              		.loc 1 174 0
 425 0070 019B     		ldr	r3, [sp, #4]
 426 0072 03F48043 		and	r3, r3, #16384
 427 0076 002B     		cmp	r3, #0
 428 0078 05D0     		beq	.L29
 429              		.loc 1 175 0
 430 007a 0D4B     		ldr	r3, .L31+4
 431 007c 5B68     		ldr	r3, [r3, #4]
 432 007e 5B6F     		ldr	r3, [r3, #116]
 433 0080 0B48     		ldr	r0, .L31+4
 434 0082 0E21     		movs	r1, #14
 435 0084 9847     		blx	r3
 436              	.L29:
 437              		.loc 1 176 0
 438 0086 019B     		ldr	r3, [sp, #4]
 439 0088 03F40043 		and	r3, r3, #32768
 440 008c 002B     		cmp	r3, #0
 441 008e 05D0     		beq	.L30
 442              		.loc 1 177 0
 443 0090 074B     		ldr	r3, .L31+4
 444 0092 5B68     		ldr	r3, [r3, #4]
 445 0094 DB6F     		ldr	r3, [r3, #124]
 446 0096 0648     		ldr	r0, .L31+4
 447 0098 0F21     		movs	r1, #15
 448 009a 9847     		blx	r3
 449              	.L30:
 450              		.loc 1 179 0
 451 009c FFF7FEFF 		bl	dbg_check_leave_isr
 452 00a0 FFF7FEFF 		bl	_port_irq_epilogue
 453              		.loc 1 180 0
 454 00a4 03B0     		add	sp, sp, #12
 455              		@ sp needed
 456 00a6 5DF804FB 		ldr	pc, [sp], #4
ARM GAS  /home/pauba/tmp/ccwadrBH.s 			page 9


 457              	.L32:
 458 00aa 00BF     		.align	2
 459              	.L31:
 460 00ac 00040140 		.word	1073808384
 461 00b0 00000000 		.word	EXTD1
 462              		.cfi_endproc
 463              	.LFE69:
 464              		.size	VectorE0, .-VectorE0
 465 00b4 AFF30080 		.section	.text.Vector44,"ax",%progbits
 465      AFF30080 
 465      AFF30080 
 466              		.align	2
 467              		.p2align 4,,15
 468              		.global	Vector44
 469              		.thumb
 470              		.thumb_func
 471              		.type	Vector44, %function
 472              	Vector44:
 473              	.LFB70:
 474              		.loc 1 187 0
 475              		.cfi_startproc
 476              		@ args = 0, pretend = 0, frame = 0
 477              		@ frame_needed = 0, uses_anonymous_args = 0
 478 0000 08B5     		push	{r3, lr}
 479              		.cfi_def_cfa_offset 8
 480              		.cfi_offset 3, -8
 481              		.cfi_offset 14, -4
 482              		.loc 1 189 0
 483 0002 FFF7FEFF 		bl	dbg_check_enter_isr
 484              		.loc 1 191 0
 485 0006 084B     		ldr	r3, .L34
 486 0008 4FF48032 		mov	r2, #65536
 487 000c 5A61     		str	r2, [r3, #20]
 488              		.loc 1 192 0
 489 000e 074B     		ldr	r3, .L34+4
 490 0010 5B68     		ldr	r3, [r3, #4]
 491 0012 D3F88430 		ldr	r3, [r3, #132]
 492 0016 0548     		ldr	r0, .L34+4
 493 0018 1021     		movs	r1, #16
 494 001a 9847     		blx	r3
 495              		.loc 1 194 0
 496 001c FFF7FEFF 		bl	dbg_check_leave_isr
 497 0020 FFF7FEFF 		bl	_port_irq_epilogue
 498              		.loc 1 195 0
 499 0024 08BD     		pop	{r3, pc}
 500              	.L35:
 501 0026 00BF     		.align	2
 502              	.L34:
 503 0028 00040140 		.word	1073808384
 504 002c 00000000 		.word	EXTD1
 505              		.cfi_endproc
 506              	.LFE70:
 507              		.size	Vector44, .-Vector44
 508              		.section	.text.VectorE4,"ax",%progbits
 509              		.align	2
 510              		.p2align 4,,15
 511              		.global	VectorE4
ARM GAS  /home/pauba/tmp/ccwadrBH.s 			page 10


 512              		.thumb
 513              		.thumb_func
 514              		.type	VectorE4, %function
 515              	VectorE4:
 516              	.LFB71:
 517              		.loc 1 202 0
 518              		.cfi_startproc
 519              		@ args = 0, pretend = 0, frame = 0
 520              		@ frame_needed = 0, uses_anonymous_args = 0
 521 0000 08B5     		push	{r3, lr}
 522              		.cfi_def_cfa_offset 8
 523              		.cfi_offset 3, -8
 524              		.cfi_offset 14, -4
 525              		.loc 1 204 0
 526 0002 FFF7FEFF 		bl	dbg_check_enter_isr
 527              		.loc 1 206 0
 528 0006 084B     		ldr	r3, .L37
 529 0008 4FF40032 		mov	r2, #131072
 530 000c 5A61     		str	r2, [r3, #20]
 531              		.loc 1 207 0
 532 000e 074B     		ldr	r3, .L37+4
 533 0010 5B68     		ldr	r3, [r3, #4]
 534 0012 D3F88C30 		ldr	r3, [r3, #140]
 535 0016 0548     		ldr	r0, .L37+4
 536 0018 1121     		movs	r1, #17
 537 001a 9847     		blx	r3
 538              		.loc 1 209 0
 539 001c FFF7FEFF 		bl	dbg_check_leave_isr
 540 0020 FFF7FEFF 		bl	_port_irq_epilogue
 541              		.loc 1 210 0
 542 0024 08BD     		pop	{r3, pc}
 543              	.L38:
 544 0026 00BF     		.align	2
 545              	.L37:
 546 0028 00040140 		.word	1073808384
 547 002c 00000000 		.word	EXTD1
 548              		.cfi_endproc
 549              	.LFE71:
 550              		.size	VectorE4, .-VectorE4
 551              		.section	.text.VectorE8,"ax",%progbits
 552              		.align	2
 553              		.p2align 4,,15
 554              		.global	VectorE8
 555              		.thumb
 556              		.thumb_func
 557              		.type	VectorE8, %function
 558              	VectorE8:
 559              	.LFB72:
 560              		.loc 1 216 0
 561              		.cfi_startproc
 562              		@ args = 0, pretend = 0, frame = 0
 563              		@ frame_needed = 0, uses_anonymous_args = 0
 564 0000 08B5     		push	{r3, lr}
 565              		.cfi_def_cfa_offset 8
 566              		.cfi_offset 3, -8
 567              		.cfi_offset 14, -4
 568              		.loc 1 218 0
ARM GAS  /home/pauba/tmp/ccwadrBH.s 			page 11


 569 0002 FFF7FEFF 		bl	dbg_check_enter_isr
 570              		.loc 1 220 0
 571 0006 084B     		ldr	r3, .L40
 572 0008 4FF48022 		mov	r2, #262144
 573 000c 5A61     		str	r2, [r3, #20]
 574              		.loc 1 221 0
 575 000e 074B     		ldr	r3, .L40+4
 576 0010 5B68     		ldr	r3, [r3, #4]
 577 0012 D3F89430 		ldr	r3, [r3, #148]
 578 0016 0548     		ldr	r0, .L40+4
 579 0018 1221     		movs	r1, #18
 580 001a 9847     		blx	r3
 581              		.loc 1 223 0
 582 001c FFF7FEFF 		bl	dbg_check_leave_isr
 583 0020 FFF7FEFF 		bl	_port_irq_epilogue
 584              		.loc 1 224 0
 585 0024 08BD     		pop	{r3, pc}
 586              	.L41:
 587 0026 00BF     		.align	2
 588              	.L40:
 589 0028 00040140 		.word	1073808384
 590 002c 00000000 		.word	EXTD1
 591              		.cfi_endproc
 592              	.LFE72:
 593              		.size	VectorE8, .-VectorE8
 594              		.section	.text.Vector48,"ax",%progbits
 595              		.align	2
 596              		.p2align 4,,15
 597              		.global	Vector48
 598              		.thumb
 599              		.thumb_func
 600              		.type	Vector48, %function
 601              	Vector48:
 602              	.LFB73:
 603              		.loc 1 231 0
 604              		.cfi_startproc
 605              		@ args = 0, pretend = 0, frame = 0
 606              		@ frame_needed = 0, uses_anonymous_args = 0
 607 0000 08B5     		push	{r3, lr}
 608              		.cfi_def_cfa_offset 8
 609              		.cfi_offset 3, -8
 610              		.cfi_offset 14, -4
 611              		.loc 1 233 0
 612 0002 FFF7FEFF 		bl	dbg_check_enter_isr
 613              		.loc 1 235 0
 614 0006 084B     		ldr	r3, .L43
 615 0008 4FF40022 		mov	r2, #524288
 616 000c 5A61     		str	r2, [r3, #20]
 617              		.loc 1 236 0
 618 000e 074B     		ldr	r3, .L43+4
 619 0010 5B68     		ldr	r3, [r3, #4]
 620 0012 D3F89C30 		ldr	r3, [r3, #156]
 621 0016 0548     		ldr	r0, .L43+4
 622 0018 1321     		movs	r1, #19
 623 001a 9847     		blx	r3
 624              		.loc 1 238 0
 625 001c FFF7FEFF 		bl	dbg_check_leave_isr
ARM GAS  /home/pauba/tmp/ccwadrBH.s 			page 12


 626 0020 FFF7FEFF 		bl	_port_irq_epilogue
 627              		.loc 1 239 0
 628 0024 08BD     		pop	{r3, pc}
 629              	.L44:
 630 0026 00BF     		.align	2
 631              	.L43:
 632 0028 00040140 		.word	1073808384
 633 002c 00000000 		.word	EXTD1
 634              		.cfi_endproc
 635              	.LFE73:
 636              		.size	Vector48, .-Vector48
 637              		.section	.text.Vector4C,"ax",%progbits
 638              		.align	2
 639              		.p2align 4,,15
 640              		.global	Vector4C
 641              		.thumb
 642              		.thumb_func
 643              		.type	Vector4C, %function
 644              	Vector4C:
 645              	.LFB74:
 646              		.loc 1 246 0
 647              		.cfi_startproc
 648              		@ args = 0, pretend = 0, frame = 0
 649              		@ frame_needed = 0, uses_anonymous_args = 0
 650 0000 08B5     		push	{r3, lr}
 651              		.cfi_def_cfa_offset 8
 652              		.cfi_offset 3, -8
 653              		.cfi_offset 14, -4
 654              		.loc 1 248 0
 655 0002 FFF7FEFF 		bl	dbg_check_enter_isr
 656              		.loc 1 250 0
 657 0006 084B     		ldr	r3, .L46
 658 0008 4FF48012 		mov	r2, #1048576
 659 000c 5A61     		str	r2, [r3, #20]
 660              		.loc 1 251 0
 661 000e 074B     		ldr	r3, .L46+4
 662 0010 5B68     		ldr	r3, [r3, #4]
 663 0012 D3F8A430 		ldr	r3, [r3, #164]
 664 0016 0548     		ldr	r0, .L46+4
 665 0018 1421     		movs	r1, #20
 666 001a 9847     		blx	r3
 667              		.loc 1 253 0
 668 001c FFF7FEFF 		bl	dbg_check_leave_isr
 669 0020 FFF7FEFF 		bl	_port_irq_epilogue
 670              		.loc 1 254 0
 671 0024 08BD     		pop	{r3, pc}
 672              	.L47:
 673 0026 00BF     		.align	2
 674              	.L46:
 675 0028 00040140 		.word	1073808384
 676 002c 00000000 		.word	EXTD1
 677              		.cfi_endproc
 678              	.LFE74:
 679              		.size	Vector4C, .-Vector4C
 680              		.section	.text.Vector98,"ax",%progbits
 681              		.align	2
 682              		.p2align 4,,15
ARM GAS  /home/pauba/tmp/ccwadrBH.s 			page 13


 683              		.global	Vector98
 684              		.thumb
 685              		.thumb_func
 686              		.type	Vector98, %function
 687              	Vector98:
 688              	.LFB75:
 689              		.loc 1 261 0
 690              		.cfi_startproc
 691              		@ args = 0, pretend = 0, frame = 8
 692              		@ frame_needed = 0, uses_anonymous_args = 0
 693 0000 00B5     		push	{lr}
 694              		.cfi_def_cfa_offset 4
 695              		.cfi_offset 14, -4
 696 0002 83B0     		sub	sp, sp, #12
 697              		.cfi_def_cfa_offset 16
 698              		.loc 1 264 0
 699 0004 FFF7FEFF 		bl	dbg_check_enter_isr
 700              		.loc 1 266 0
 701 0008 134B     		ldr	r3, .L51
 702 000a 5B69     		ldr	r3, [r3, #20]
 703 000c 03F4C003 		and	r3, r3, #6291456
 704 0010 0193     		str	r3, [sp, #4]
 705              		.loc 1 267 0
 706 0012 114B     		ldr	r3, .L51
 707 0014 019A     		ldr	r2, [sp, #4]
 708 0016 5A61     		str	r2, [r3, #20]
 709              		.loc 1 268 0
 710 0018 019B     		ldr	r3, [sp, #4]
 711 001a 03F40013 		and	r3, r3, #2097152
 712 001e 002B     		cmp	r3, #0
 713 0020 06D0     		beq	.L49
 714              		.loc 1 269 0
 715 0022 0E4B     		ldr	r3, .L51+4
 716 0024 5B68     		ldr	r3, [r3, #4]
 717 0026 D3F8AC30 		ldr	r3, [r3, #172]
 718 002a 0C48     		ldr	r0, .L51+4
 719 002c 1521     		movs	r1, #21
 720 002e 9847     		blx	r3
 721              	.L49:
 722              		.loc 1 270 0
 723 0030 019B     		ldr	r3, [sp, #4]
 724 0032 03F48003 		and	r3, r3, #4194304
 725 0036 002B     		cmp	r3, #0
 726 0038 06D0     		beq	.L50
 727              		.loc 1 271 0
 728 003a 084B     		ldr	r3, .L51+4
 729 003c 5B68     		ldr	r3, [r3, #4]
 730 003e D3F8B430 		ldr	r3, [r3, #180]
 731 0042 0648     		ldr	r0, .L51+4
 732 0044 1621     		movs	r1, #22
 733 0046 9847     		blx	r3
 734              	.L50:
 735              		.loc 1 273 0
 736 0048 FFF7FEFF 		bl	dbg_check_leave_isr
 737 004c FFF7FEFF 		bl	_port_irq_epilogue
 738              		.loc 1 274 0
 739 0050 03B0     		add	sp, sp, #12
ARM GAS  /home/pauba/tmp/ccwadrBH.s 			page 14


 740              		@ sp needed
 741 0052 5DF804FB 		ldr	pc, [sp], #4
 742              	.L52:
 743 0056 00BF     		.align	2
 744              	.L51:
 745 0058 00040140 		.word	1073808384
 746 005c 00000000 		.word	EXTD1
 747              		.cfi_endproc
 748              	.LFE75:
 749              		.size	Vector98, .-Vector98
 750              		.section	.text.ext_lld_exti_irq_enable,"ax",%progbits
 751              		.align	2
 752              		.p2align 4,,15
 753              		.global	ext_lld_exti_irq_enable
 754              		.thumb
 755              		.thumb_func
 756              		.type	ext_lld_exti_irq_enable, %function
 757              	ext_lld_exti_irq_enable:
 758              	.LFB76:
 759              		.loc 1 285 0
 760              		.cfi_startproc
 761              		@ args = 0, pretend = 0, frame = 0
 762              		@ frame_needed = 0, uses_anonymous_args = 0
 763 0000 08B5     		push	{r3, lr}
 764              		.cfi_def_cfa_offset 8
 765              		.cfi_offset 3, -8
 766              		.cfi_offset 14, -4
 767              		.loc 1 287 0
 768 0002 0620     		movs	r0, #6
 769 0004 6021     		movs	r1, #96
 770 0006 FFF7FEFF 		bl	nvicEnableVector
 771              		.loc 1 289 0
 772 000a 0720     		movs	r0, #7
 773 000c 6021     		movs	r1, #96
 774 000e FFF7FEFF 		bl	nvicEnableVector
 775              		.loc 1 291 0
 776 0012 0820     		movs	r0, #8
 777 0014 6021     		movs	r1, #96
 778 0016 FFF7FEFF 		bl	nvicEnableVector
 779              		.loc 1 293 0
 780 001a 0920     		movs	r0, #9
 781 001c 6021     		movs	r1, #96
 782 001e FFF7FEFF 		bl	nvicEnableVector
 783              		.loc 1 295 0
 784 0022 0A20     		movs	r0, #10
 785 0024 6021     		movs	r1, #96
 786 0026 FFF7FEFF 		bl	nvicEnableVector
 787              		.loc 1 297 0
 788 002a 1720     		movs	r0, #23
 789 002c 6021     		movs	r1, #96
 790 002e FFF7FEFF 		bl	nvicEnableVector
 791              		.loc 1 299 0
 792 0032 2820     		movs	r0, #40
 793 0034 6021     		movs	r1, #96
 794 0036 FFF7FEFF 		bl	nvicEnableVector
 795              		.loc 1 301 0
 796 003a 0120     		movs	r0, #1
ARM GAS  /home/pauba/tmp/ccwadrBH.s 			page 15


 797 003c 6021     		movs	r1, #96
 798 003e FFF7FEFF 		bl	nvicEnableVector
 799              		.loc 1 303 0
 800 0042 2920     		movs	r0, #41
 801 0044 6021     		movs	r1, #96
 802 0046 FFF7FEFF 		bl	nvicEnableVector
 803              		.loc 1 305 0
 804 004a 2A20     		movs	r0, #42
 805 004c 6021     		movs	r1, #96
 806 004e FFF7FEFF 		bl	nvicEnableVector
 807              		.loc 1 307 0
 808 0052 0220     		movs	r0, #2
 809 0054 6021     		movs	r1, #96
 810 0056 FFF7FEFF 		bl	nvicEnableVector
 811              		.loc 1 309 0
 812 005a 0320     		movs	r0, #3
 813 005c 6021     		movs	r1, #96
 814 005e FFF7FEFF 		bl	nvicEnableVector
 815              		.loc 1 311 0
 816 0062 1620     		movs	r0, #22
 817 0064 6021     		movs	r1, #96
 818 0066 FFF7FEFF 		bl	nvicEnableVector
 819              		.loc 1 313 0
 820 006a 08BD     		pop	{r3, pc}
 821              		.cfi_endproc
 822              	.LFE76:
 823              		.size	ext_lld_exti_irq_enable, .-ext_lld_exti_irq_enable
 824 006c AFF30080 		.section	.text.ext_lld_exti_irq_disable,"ax",%progbits
 825              		.align	2
 826              		.p2align 4,,15
 827              		.global	ext_lld_exti_irq_disable
 828              		.thumb
 829              		.thumb_func
 830              		.type	ext_lld_exti_irq_disable, %function
 831              	ext_lld_exti_irq_disable:
 832              	.LFB77:
 833              		.loc 1 320 0
 834              		.cfi_startproc
 835              		@ args = 0, pretend = 0, frame = 0
 836              		@ frame_needed = 0, uses_anonymous_args = 0
 837 0000 08B5     		push	{r3, lr}
 838              		.cfi_def_cfa_offset 8
 839              		.cfi_offset 3, -8
 840              		.cfi_offset 14, -4
 841              		.loc 1 322 0
 842 0002 0620     		movs	r0, #6
 843 0004 FFF7FEFF 		bl	nvicDisableVector
 844              		.loc 1 323 0
 845 0008 0720     		movs	r0, #7
 846 000a FFF7FEFF 		bl	nvicDisableVector
 847              		.loc 1 324 0
 848 000e 0820     		movs	r0, #8
 849 0010 FFF7FEFF 		bl	nvicDisableVector
 850              		.loc 1 325 0
 851 0014 0920     		movs	r0, #9
 852 0016 FFF7FEFF 		bl	nvicDisableVector
 853              		.loc 1 326 0
ARM GAS  /home/pauba/tmp/ccwadrBH.s 			page 16


 854 001a 0A20     		movs	r0, #10
 855 001c FFF7FEFF 		bl	nvicDisableVector
 856              		.loc 1 327 0
 857 0020 1720     		movs	r0, #23
 858 0022 FFF7FEFF 		bl	nvicDisableVector
 859              		.loc 1 328 0
 860 0026 2820     		movs	r0, #40
 861 0028 FFF7FEFF 		bl	nvicDisableVector
 862              		.loc 1 329 0
 863 002c 0120     		movs	r0, #1
 864 002e FFF7FEFF 		bl	nvicDisableVector
 865              		.loc 1 330 0
 866 0032 2920     		movs	r0, #41
 867 0034 FFF7FEFF 		bl	nvicDisableVector
 868              		.loc 1 331 0
 869 0038 2A20     		movs	r0, #42
 870 003a FFF7FEFF 		bl	nvicDisableVector
 871              		.loc 1 332 0
 872 003e 0220     		movs	r0, #2
 873 0040 FFF7FEFF 		bl	nvicDisableVector
 874              		.loc 1 333 0
 875 0044 0320     		movs	r0, #3
 876 0046 FFF7FEFF 		bl	nvicDisableVector
 877              		.loc 1 334 0
 878 004a 1620     		movs	r0, #22
 879 004c FFF7FEFF 		bl	nvicDisableVector
 880              		.loc 1 335 0
 881 0050 08BD     		pop	{r3, pc}
 882              		.cfi_endproc
 883              	.LFE77:
 884              		.size	ext_lld_exti_irq_disable, .-ext_lld_exti_irq_disable
 885 0052 00BFAFF3 		.text
 885      0080AFF3 
 885      0080AFF3 
 885      0080
 886              	.Letext0:
 887              		.file 2 "/opt/gcc-arm-none-eabi-4_8-2014q1/arm-none-eabi/include/machine/_default_types.h"
 888              		.file 3 "/opt/gcc-arm-none-eabi-4_8-2014q1/arm-none-eabi/include/stdint.h"
 889              		.file 4 "/home/pauba/ChibiOS-RT/os/hal/platforms/STM32L1xx/stm32l1xx.h"
 890              		.file 5 "/home/pauba/ChibiOS-RT/os/hal/include/ext.h"
 891              		.file 6 "/home/pauba/ChibiOS-RT/os/hal/platforms/STM32/ext_lld.h"
 892              		.file 7 "/home/pauba/ChibiOS-RT/os/ports/common/ARMCMx/CMSIS/include/core_cm3.h"