ARM GAS  /home/pauba/tmp/ccTWhIAm.s 			page 1


   1              		.syntax unified
   2              		.cpu cortex-m4
   3              		.fpu softvfp
   4              		.eabi_attribute 20, 1
   5              		.eabi_attribute 21, 1
   6              		.eabi_attribute 23, 3
   7              		.eabi_attribute 24, 1
   8              		.eabi_attribute 25, 1
   9              		.eabi_attribute 26, 1
  10              		.eabi_attribute 30, 6
  11              		.eabi_attribute 34, 1
  12              		.eabi_attribute 18, 4
  13              		.thumb
  14              		.file	"gpt.c"
  15              		.text
  16              	.Ltext0:
  17              		.cfi_sections	.debug_frame
  18              		.section	.text.gptInit,"ax",%progbits
  19              		.align	2
  20              		.p2align 4,,15
  21              		.global	gptInit
  22              		.thumb
  23              		.thumb_func
  24              		.type	gptInit, %function
  25              	gptInit:
  26              	.LFB63:
  27              		.file 1 "/home/pauba/ChibiOS-RT/os/hal/src/gpt.c"
  28              		.loc 1 68 0
  29              		.cfi_startproc
  30              		@ args = 0, pretend = 0, frame = 0
  31              		@ frame_needed = 0, uses_anonymous_args = 0
  32 0000 08B5     		push	{r3, lr}
  33              		.cfi_def_cfa_offset 8
  34              		.cfi_offset 3, -8
  35              		.cfi_offset 14, -4
  36              		.loc 1 70 0
  37 0002 FFF7FEFF 		bl	gpt_lld_init
  38              		.loc 1 71 0
  39 0006 08BD     		pop	{r3, pc}
  40              		.cfi_endproc
  41              	.LFE63:
  42              		.size	gptInit, .-gptInit
  43 0008 AFF30080 		.section	.text.gptObjectInit,"ax",%progbits
  43      AFF30080 
  44              		.align	2
  45              		.p2align 4,,15
  46              		.global	gptObjectInit
  47              		.thumb
  48              		.thumb_func
  49              		.type	gptObjectInit, %function
  50              	gptObjectInit:
  51              	.LFB64:
  52              		.loc 1 80 0
  53              		.cfi_startproc
  54              		@ args = 0, pretend = 0, frame = 8
  55              		@ frame_needed = 0, uses_anonymous_args = 0
  56              		@ link register save eliminated.
ARM GAS  /home/pauba/tmp/ccTWhIAm.s 			page 2


  57 0000 82B0     		sub	sp, sp, #8
  58              		.cfi_def_cfa_offset 8
  59 0002 0190     		str	r0, [sp, #4]
  60              		.loc 1 82 0
  61 0004 019B     		ldr	r3, [sp, #4]
  62 0006 0122     		movs	r2, #1
  63 0008 1A70     		strb	r2, [r3]
  64              		.loc 1 83 0
  65 000a 019B     		ldr	r3, [sp, #4]
  66 000c 0022     		movs	r2, #0
  67 000e 5A60     		str	r2, [r3, #4]
  68              		.loc 1 84 0
  69 0010 02B0     		add	sp, sp, #8
  70              		@ sp needed
  71 0012 7047     		bx	lr
  72              		.cfi_endproc
  73              	.LFE64:
  74              		.size	gptObjectInit, .-gptObjectInit
  75 0014 AFF30080 		.section	.rodata
  75      AFF30080 
  75      AFF30080 
  76              		.align	2
  77              	.LC0:
  78 0000 22677074 		.ascii	"\"gptStart\"()\000"
  78      53746172 
  78      74222829 
  78      00
  79 000d 000000   		.align	2
  80              	.LC1:
  81 0010 67707453 		.ascii	"gptStart(), #1\000"
  81      74617274 
  81      28292C20 
  81      233100
  82              		.section	.text.gptStart,"ax",%progbits
  83              		.align	2
  84              		.p2align 4,,15
  85              		.global	gptStart
  86              		.thumb
  87              		.thumb_func
  88              		.type	gptStart, %function
  89              	gptStart:
  90              	.LFB65:
  91              		.loc 1 94 0
  92              		.cfi_startproc
  93              		@ args = 0, pretend = 0, frame = 8
  94              		@ frame_needed = 0, uses_anonymous_args = 0
  95 0000 00B5     		push	{lr}
  96              		.cfi_def_cfa_offset 4
  97              		.cfi_offset 14, -4
  98 0002 83B0     		sub	sp, sp, #12
  99              		.cfi_def_cfa_offset 16
 100 0004 0190     		str	r0, [sp, #4]
 101 0006 0091     		str	r1, [sp]
 102              		.loc 1 96 0
 103 0008 019B     		ldr	r3, [sp, #4]
 104 000a 002B     		cmp	r3, #0
 105 000c 02D0     		beq	.L4
ARM GAS  /home/pauba/tmp/ccTWhIAm.s 			page 3


 106              		.loc 1 96 0 is_stmt 0 discriminator 2
 107 000e 009B     		ldr	r3, [sp]
 108 0010 002B     		cmp	r3, #0
 109 0012 02D1     		bne	.L5
 110              	.L4:
 111              		.loc 1 96 0 discriminator 1
 112 0014 1148     		ldr	r0, .L7
 113 0016 FFF7FEFF 		bl	chDbgPanic
 114              	.L5:
 115              	.LBB2:
 116              		.loc 1 98 0 is_stmt 1
 117 001a 2023     		movs	r3, #32
 118              	@ 98 "/home/pauba/ChibiOS-RT/os/hal/src/gpt.c" 1
 119 001c 83F31188 		msr     BASEPRI, r3
 120              	@ 0 "" 2
 121              		.thumb
 122              	.LBE2:
 123 0020 FFF7FEFF 		bl	dbg_check_lock
 124              		.loc 1 99 0
 125 0024 019B     		ldr	r3, [sp, #4]
 126 0026 1B78     		ldrb	r3, [r3]	@ zero_extendqisi2
 127 0028 012B     		cmp	r3, #1
 128 002a 06D0     		beq	.L6
 129              		.loc 1 99 0 is_stmt 0 discriminator 1
 130 002c 019B     		ldr	r3, [sp, #4]
 131 002e 1B78     		ldrb	r3, [r3]	@ zero_extendqisi2
 132 0030 022B     		cmp	r3, #2
 133 0032 02D0     		beq	.L6
 134 0034 0A48     		ldr	r0, .L7+4
 135 0036 FFF7FEFF 		bl	chDbgPanic
 136              	.L6:
 137              		.loc 1 101 0 is_stmt 1
 138 003a 019B     		ldr	r3, [sp, #4]
 139 003c 009A     		ldr	r2, [sp]
 140 003e 5A60     		str	r2, [r3, #4]
 141              		.loc 1 102 0
 142 0040 0198     		ldr	r0, [sp, #4]
 143 0042 FFF7FEFF 		bl	gpt_lld_start
 144              		.loc 1 103 0
 145 0046 019B     		ldr	r3, [sp, #4]
 146 0048 0222     		movs	r2, #2
 147 004a 1A70     		strb	r2, [r3]
 148              		.loc 1 104 0
 149 004c FFF7FEFF 		bl	dbg_check_unlock
 150              	.LBB3:
 151 0050 0023     		movs	r3, #0
 152              	@ 104 "/home/pauba/ChibiOS-RT/os/hal/src/gpt.c" 1
 153 0052 83F31188 		msr     BASEPRI, r3
 154              	@ 0 "" 2
 155              		.thumb
 156              	.LBE3:
 157              		.loc 1 105 0
 158 0056 03B0     		add	sp, sp, #12
 159              		@ sp needed
 160 0058 5DF804FB 		ldr	pc, [sp], #4
 161              	.L8:
 162              		.align	2
ARM GAS  /home/pauba/tmp/ccTWhIAm.s 			page 4


 163              	.L7:
 164 005c 00000000 		.word	.LC0
 165 0060 10000000 		.word	.LC1
 166              		.cfi_endproc
 167              	.LFE65:
 168              		.size	gptStart, .-gptStart
 169 0064 AFF30080 		.section	.rodata
 169      AFF30080 
 169      AFF30080 
 170 001f 00       		.align	2
 171              	.LC2:
 172 0020 22677074 		.ascii	"\"gptStop\"()\000"
 172      53746F70 
 172      22282900 
 173              		.align	2
 174              	.LC3:
 175 002c 67707453 		.ascii	"gptStop(), #1\000"
 175      746F7028 
 175      292C2023 
 175      3100
 176              		.section	.text.gptStop,"ax",%progbits
 177              		.align	2
 178              		.p2align 4,,15
 179              		.global	gptStop
 180              		.thumb
 181              		.thumb_func
 182              		.type	gptStop, %function
 183              	gptStop:
 184              	.LFB66:
 185              		.loc 1 114 0
 186              		.cfi_startproc
 187              		@ args = 0, pretend = 0, frame = 8
 188              		@ frame_needed = 0, uses_anonymous_args = 0
 189 0000 00B5     		push	{lr}
 190              		.cfi_def_cfa_offset 4
 191              		.cfi_offset 14, -4
 192 0002 83B0     		sub	sp, sp, #12
 193              		.cfi_def_cfa_offset 16
 194 0004 0190     		str	r0, [sp, #4]
 195              		.loc 1 116 0
 196 0006 019B     		ldr	r3, [sp, #4]
 197 0008 002B     		cmp	r3, #0
 198 000a 02D1     		bne	.L10
 199              		.loc 1 116 0 is_stmt 0 discriminator 1
 200 000c 1048     		ldr	r0, .L12
 201 000e FFF7FEFF 		bl	chDbgPanic
 202              	.L10:
 203              	.LBB4:
 204              		.loc 1 118 0 is_stmt 1
 205 0012 2023     		movs	r3, #32
 206              	@ 118 "/home/pauba/ChibiOS-RT/os/hal/src/gpt.c" 1
 207 0014 83F31188 		msr     BASEPRI, r3
 208              	@ 0 "" 2
 209              		.thumb
 210              	.LBE4:
 211 0018 FFF7FEFF 		bl	dbg_check_lock
 212              		.loc 1 119 0
ARM GAS  /home/pauba/tmp/ccTWhIAm.s 			page 5


 213 001c 019B     		ldr	r3, [sp, #4]
 214 001e 1B78     		ldrb	r3, [r3]	@ zero_extendqisi2
 215 0020 012B     		cmp	r3, #1
 216 0022 06D0     		beq	.L11
 217              		.loc 1 119 0 is_stmt 0 discriminator 1
 218 0024 019B     		ldr	r3, [sp, #4]
 219 0026 1B78     		ldrb	r3, [r3]	@ zero_extendqisi2
 220 0028 022B     		cmp	r3, #2
 221 002a 02D0     		beq	.L11
 222 002c 0948     		ldr	r0, .L12+4
 223 002e FFF7FEFF 		bl	chDbgPanic
 224              	.L11:
 225              		.loc 1 121 0 is_stmt 1
 226 0032 0198     		ldr	r0, [sp, #4]
 227 0034 FFF7FEFF 		bl	gpt_lld_stop
 228              		.loc 1 122 0
 229 0038 019B     		ldr	r3, [sp, #4]
 230 003a 0122     		movs	r2, #1
 231 003c 1A70     		strb	r2, [r3]
 232              		.loc 1 123 0
 233 003e FFF7FEFF 		bl	dbg_check_unlock
 234              	.LBB5:
 235 0042 0023     		movs	r3, #0
 236              	@ 123 "/home/pauba/ChibiOS-RT/os/hal/src/gpt.c" 1
 237 0044 83F31188 		msr     BASEPRI, r3
 238              	@ 0 "" 2
 239              		.thumb
 240              	.LBE5:
 241              		.loc 1 124 0
 242 0048 03B0     		add	sp, sp, #12
 243              		@ sp needed
 244 004a 5DF804FB 		ldr	pc, [sp], #4
 245              	.L13:
 246 004e 00BF     		.align	2
 247              	.L12:
 248 0050 20000000 		.word	.LC2
 249 0054 2C000000 		.word	.LC3
 250              		.cfi_endproc
 251              	.LFE66:
 252              		.size	gptStop, .-gptStop
 253 0058 AFF30080 		.section	.rodata
 253      AFF30080 
 254 003a 0000     		.align	2
 255              	.LC4:
 256 003c 22677074 		.ascii	"\"gptChangeInterval\"()\000"
 256      4368616E 
 256      6765496E 
 256      74657276 
 256      616C2228 
 257 0052 0000     		.align	2
 258              	.LC5:
 259 0054 67707443 		.ascii	"gptChangeInterval(), #1\000"
 259      68616E67 
 259      65496E74 
 259      65727661 
 259      6C28292C 
 260              		.section	.text.gptChangeInterval,"ax",%progbits
ARM GAS  /home/pauba/tmp/ccTWhIAm.s 			page 6


 261              		.align	2
 262              		.p2align 4,,15
 263              		.global	gptChangeInterval
 264              		.thumb
 265              		.thumb_func
 266              		.type	gptChangeInterval, %function
 267              	gptChangeInterval:
 268              	.LFB67:
 269              		.loc 1 139 0
 270              		.cfi_startproc
 271              		@ args = 0, pretend = 0, frame = 8
 272              		@ frame_needed = 0, uses_anonymous_args = 0
 273 0000 00B5     		push	{lr}
 274              		.cfi_def_cfa_offset 4
 275              		.cfi_offset 14, -4
 276 0002 83B0     		sub	sp, sp, #12
 277              		.cfi_def_cfa_offset 16
 278 0004 0190     		str	r0, [sp, #4]
 279 0006 0091     		str	r1, [sp]
 280              		.loc 1 141 0
 281 0008 019B     		ldr	r3, [sp, #4]
 282 000a 002B     		cmp	r3, #0
 283 000c 02D1     		bne	.L15
 284              		.loc 1 141 0 is_stmt 0 discriminator 1
 285 000e 0E48     		ldr	r0, .L17
 286 0010 FFF7FEFF 		bl	chDbgPanic
 287              	.L15:
 288              	.LBB6:
 289              		.loc 1 143 0 is_stmt 1
 290 0014 2023     		movs	r3, #32
 291              	@ 143 "/home/pauba/ChibiOS-RT/os/hal/src/gpt.c" 1
 292 0016 83F31188 		msr     BASEPRI, r3
 293              	@ 0 "" 2
 294              		.thumb
 295              	.LBE6:
 296 001a FFF7FEFF 		bl	dbg_check_lock
 297              		.loc 1 144 0
 298 001e 019B     		ldr	r3, [sp, #4]
 299 0020 1B78     		ldrb	r3, [r3]	@ zero_extendqisi2
 300 0022 032B     		cmp	r3, #3
 301 0024 02D0     		beq	.L16
 302              		.loc 1 144 0 is_stmt 0 discriminator 1
 303 0026 0948     		ldr	r0, .L17+4
 304 0028 FFF7FEFF 		bl	chDbgPanic
 305              	.L16:
 306              		.loc 1 146 0 is_stmt 1
 307 002c 019B     		ldr	r3, [sp, #4]
 308 002e DB68     		ldr	r3, [r3, #12]
 309 0030 009A     		ldr	r2, [sp]
 310 0032 013A     		subs	r2, r2, #1
 311 0034 DA62     		str	r2, [r3, #44]
 312              		.loc 1 147 0
 313 0036 FFF7FEFF 		bl	dbg_check_unlock
 314              	.LBB7:
 315 003a 0023     		movs	r3, #0
 316              	@ 147 "/home/pauba/ChibiOS-RT/os/hal/src/gpt.c" 1
 317 003c 83F31188 		msr     BASEPRI, r3
ARM GAS  /home/pauba/tmp/ccTWhIAm.s 			page 7


 318              	@ 0 "" 2
 319              		.thumb
 320              	.LBE7:
 321              		.loc 1 148 0
 322 0040 03B0     		add	sp, sp, #12
 323              		@ sp needed
 324 0042 5DF804FB 		ldr	pc, [sp], #4
 325              	.L18:
 326 0046 00BF     		.align	2
 327              	.L17:
 328 0048 3C000000 		.word	.LC4
 329 004c 54000000 		.word	.LC5
 330              		.cfi_endproc
 331              	.LFE67:
 332              		.size	gptChangeInterval, .-gptChangeInterval
 333              		.section	.text.gptStartContinuous,"ax",%progbits
 334              		.align	2
 335              		.p2align 4,,15
 336              		.global	gptStartContinuous
 337              		.thumb
 338              		.thumb_func
 339              		.type	gptStartContinuous, %function
 340              	gptStartContinuous:
 341              	.LFB68:
 342              		.loc 1 158 0
 343              		.cfi_startproc
 344              		@ args = 0, pretend = 0, frame = 8
 345              		@ frame_needed = 0, uses_anonymous_args = 0
 346 0000 00B5     		push	{lr}
 347              		.cfi_def_cfa_offset 4
 348              		.cfi_offset 14, -4
 349 0002 83B0     		sub	sp, sp, #12
 350              		.cfi_def_cfa_offset 16
 351 0004 0190     		str	r0, [sp, #4]
 352 0006 0091     		str	r1, [sp]
 353              	.LBB8:
 354              		.loc 1 160 0
 355 0008 2023     		movs	r3, #32
 356              	@ 160 "/home/pauba/ChibiOS-RT/os/hal/src/gpt.c" 1
 357 000a 83F31188 		msr     BASEPRI, r3
 358              	@ 0 "" 2
 359              		.thumb
 360              	.LBE8:
 361 000e FFF7FEFF 		bl	dbg_check_lock
 362              		.loc 1 161 0
 363 0012 0198     		ldr	r0, [sp, #4]
 364 0014 0099     		ldr	r1, [sp]
 365 0016 FFF7FEFF 		bl	gptStartContinuousI
 366              		.loc 1 162 0
 367 001a FFF7FEFF 		bl	dbg_check_unlock
 368              	.LBB9:
 369 001e 0023     		movs	r3, #0
 370              	@ 162 "/home/pauba/ChibiOS-RT/os/hal/src/gpt.c" 1
 371 0020 83F31188 		msr     BASEPRI, r3
 372              	@ 0 "" 2
 373              		.thumb
 374              	.LBE9:
ARM GAS  /home/pauba/tmp/ccTWhIAm.s 			page 8


 375              		.loc 1 163 0
 376 0024 03B0     		add	sp, sp, #12
 377              		@ sp needed
 378 0026 5DF804FB 		ldr	pc, [sp], #4
 379              		.cfi_endproc
 380              	.LFE68:
 381              		.size	gptStartContinuous, .-gptStartContinuous
 382 002a 00BFAFF3 		.section	.rodata
 382      0080
 383              		.align	2
 384              	.LC6:
 385 006c 22677074 		.ascii	"\"gptStartContinuousI\"()\000"
 385      53746172 
 385      74436F6E 
 385      74696E75 
 385      6F757349 
 386              		.align	2
 387              	.LC7:
 388 0084 67707453 		.ascii	"gptStartContinuousI(), #1\000"
 388      74617274 
 388      436F6E74 
 388      696E756F 
 388      75734928 
 389              		.section	.text.gptStartContinuousI,"ax",%progbits
 390              		.align	2
 391              		.p2align 4,,15
 392              		.global	gptStartContinuousI
 393              		.thumb
 394              		.thumb_func
 395              		.type	gptStartContinuousI, %function
 396              	gptStartContinuousI:
 397              	.LFB69:
 398              		.loc 1 173 0
 399              		.cfi_startproc
 400              		@ args = 0, pretend = 0, frame = 8
 401              		@ frame_needed = 0, uses_anonymous_args = 0
 402 0000 00B5     		push	{lr}
 403              		.cfi_def_cfa_offset 4
 404              		.cfi_offset 14, -4
 405 0002 83B0     		sub	sp, sp, #12
 406              		.cfi_def_cfa_offset 16
 407 0004 0190     		str	r0, [sp, #4]
 408 0006 0091     		str	r1, [sp]
 409              		.loc 1 175 0
 410 0008 FFF7FEFF 		bl	chDbgCheckClassI
 411              		.loc 1 176 0
 412 000c 019B     		ldr	r3, [sp, #4]
 413 000e 002B     		cmp	r3, #0
 414 0010 02D1     		bne	.L21
 415              		.loc 1 176 0 is_stmt 0 discriminator 1
 416 0012 0A48     		ldr	r0, .L23
 417 0014 FFF7FEFF 		bl	chDbgPanic
 418              	.L21:
 419              		.loc 1 177 0 is_stmt 1
 420 0018 019B     		ldr	r3, [sp, #4]
 421 001a 1B78     		ldrb	r3, [r3]	@ zero_extendqisi2
 422 001c 022B     		cmp	r3, #2
ARM GAS  /home/pauba/tmp/ccTWhIAm.s 			page 9


 423 001e 02D0     		beq	.L22
 424              		.loc 1 177 0 is_stmt 0 discriminator 1
 425 0020 0748     		ldr	r0, .L23+4
 426 0022 FFF7FEFF 		bl	chDbgPanic
 427              	.L22:
 428              		.loc 1 180 0 is_stmt 1
 429 0026 019B     		ldr	r3, [sp, #4]
 430 0028 0322     		movs	r2, #3
 431 002a 1A70     		strb	r2, [r3]
 432              		.loc 1 181 0
 433 002c 0198     		ldr	r0, [sp, #4]
 434 002e 0099     		ldr	r1, [sp]
 435 0030 FFF7FEFF 		bl	gpt_lld_start_timer
 436              		.loc 1 182 0
 437 0034 03B0     		add	sp, sp, #12
 438              		@ sp needed
 439 0036 5DF804FB 		ldr	pc, [sp], #4
 440              	.L24:
 441 003a 00BF     		.align	2
 442              	.L23:
 443 003c 6C000000 		.word	.LC6
 444 0040 84000000 		.word	.LC7
 445              		.cfi_endproc
 446              	.LFE69:
 447              		.size	gptStartContinuousI, .-gptStartContinuousI
 448 0044 AFF30080 		.section	.text.gptStartOneShot,"ax",%progbits
 448      AFF30080 
 448      AFF30080 
 449              		.align	2
 450              		.p2align 4,,15
 451              		.global	gptStartOneShot
 452              		.thumb
 453              		.thumb_func
 454              		.type	gptStartOneShot, %function
 455              	gptStartOneShot:
 456              	.LFB70:
 457              		.loc 1 192 0
 458              		.cfi_startproc
 459              		@ args = 0, pretend = 0, frame = 8
 460              		@ frame_needed = 0, uses_anonymous_args = 0
 461 0000 00B5     		push	{lr}
 462              		.cfi_def_cfa_offset 4
 463              		.cfi_offset 14, -4
 464 0002 83B0     		sub	sp, sp, #12
 465              		.cfi_def_cfa_offset 16
 466 0004 0190     		str	r0, [sp, #4]
 467 0006 0091     		str	r1, [sp]
 468              	.LBB10:
 469              		.loc 1 194 0
 470 0008 2023     		movs	r3, #32
 471              	@ 194 "/home/pauba/ChibiOS-RT/os/hal/src/gpt.c" 1
 472 000a 83F31188 		msr     BASEPRI, r3
 473              	@ 0 "" 2
 474              		.thumb
 475              	.LBE10:
 476 000e FFF7FEFF 		bl	dbg_check_lock
 477              		.loc 1 195 0
ARM GAS  /home/pauba/tmp/ccTWhIAm.s 			page 10


 478 0012 0198     		ldr	r0, [sp, #4]
 479 0014 0099     		ldr	r1, [sp]
 480 0016 FFF7FEFF 		bl	gptStartOneShotI
 481              		.loc 1 196 0
 482 001a FFF7FEFF 		bl	dbg_check_unlock
 483              	.LBB11:
 484 001e 0023     		movs	r3, #0
 485              	@ 196 "/home/pauba/ChibiOS-RT/os/hal/src/gpt.c" 1
 486 0020 83F31188 		msr     BASEPRI, r3
 487              	@ 0 "" 2
 488              		.thumb
 489              	.LBE11:
 490              		.loc 1 197 0
 491 0024 03B0     		add	sp, sp, #12
 492              		@ sp needed
 493 0026 5DF804FB 		ldr	pc, [sp], #4
 494              		.cfi_endproc
 495              	.LFE70:
 496              		.size	gptStartOneShot, .-gptStartOneShot
 497 002a 00BFAFF3 		.section	.rodata
 497      0080
 498 009e 0000     		.align	2
 499              	.LC8:
 500 00a0 22677074 		.ascii	"\"gptStartOneShotI\"()\000"
 500      53746172 
 500      744F6E65 
 500      53686F74 
 500      49222829 
 501 00b5 000000   		.align	2
 502              	.LC9:
 503 00b8 67707453 		.ascii	"gptStartOneShotI(), #1\000"
 503      74617274 
 503      4F6E6553 
 503      686F7449 
 503      28292C20 
 504              		.section	.text.gptStartOneShotI,"ax",%progbits
 505              		.align	2
 506              		.p2align 4,,15
 507              		.global	gptStartOneShotI
 508              		.thumb
 509              		.thumb_func
 510              		.type	gptStartOneShotI, %function
 511              	gptStartOneShotI:
 512              	.LFB71:
 513              		.loc 1 207 0
 514              		.cfi_startproc
 515              		@ args = 0, pretend = 0, frame = 8
 516              		@ frame_needed = 0, uses_anonymous_args = 0
 517 0000 00B5     		push	{lr}
 518              		.cfi_def_cfa_offset 4
 519              		.cfi_offset 14, -4
 520 0002 83B0     		sub	sp, sp, #12
 521              		.cfi_def_cfa_offset 16
 522 0004 0190     		str	r0, [sp, #4]
 523 0006 0091     		str	r1, [sp]
 524              		.loc 1 209 0
 525 0008 FFF7FEFF 		bl	chDbgCheckClassI
ARM GAS  /home/pauba/tmp/ccTWhIAm.s 			page 11


 526              		.loc 1 210 0
 527 000c 019B     		ldr	r3, [sp, #4]
 528 000e 002B     		cmp	r3, #0
 529 0010 02D1     		bne	.L27
 530              		.loc 1 210 0 is_stmt 0 discriminator 1
 531 0012 0A48     		ldr	r0, .L29
 532 0014 FFF7FEFF 		bl	chDbgPanic
 533              	.L27:
 534              		.loc 1 211 0 is_stmt 1
 535 0018 019B     		ldr	r3, [sp, #4]
 536 001a 1B78     		ldrb	r3, [r3]	@ zero_extendqisi2
 537 001c 022B     		cmp	r3, #2
 538 001e 02D0     		beq	.L28
 539              		.loc 1 211 0 is_stmt 0 discriminator 1
 540 0020 0748     		ldr	r0, .L29+4
 541 0022 FFF7FEFF 		bl	chDbgPanic
 542              	.L28:
 543              		.loc 1 214 0 is_stmt 1
 544 0026 019B     		ldr	r3, [sp, #4]
 545 0028 0422     		movs	r2, #4
 546 002a 1A70     		strb	r2, [r3]
 547              		.loc 1 215 0
 548 002c 0198     		ldr	r0, [sp, #4]
 549 002e 0099     		ldr	r1, [sp]
 550 0030 FFF7FEFF 		bl	gpt_lld_start_timer
 551              		.loc 1 216 0
 552 0034 03B0     		add	sp, sp, #12
 553              		@ sp needed
 554 0036 5DF804FB 		ldr	pc, [sp], #4
 555              	.L30:
 556 003a 00BF     		.align	2
 557              	.L29:
 558 003c A0000000 		.word	.LC8
 559 0040 B8000000 		.word	.LC9
 560              		.cfi_endproc
 561              	.LFE71:
 562              		.size	gptStartOneShotI, .-gptStartOneShotI
 563 0044 AFF30080 		.section	.text.gptStopTimer,"ax",%progbits
 563      AFF30080 
 563      AFF30080 
 564              		.align	2
 565              		.p2align 4,,15
 566              		.global	gptStopTimer
 567              		.thumb
 568              		.thumb_func
 569              		.type	gptStopTimer, %function
 570              	gptStopTimer:
 571              	.LFB72:
 572              		.loc 1 225 0
 573              		.cfi_startproc
 574              		@ args = 0, pretend = 0, frame = 8
 575              		@ frame_needed = 0, uses_anonymous_args = 0
 576 0000 00B5     		push	{lr}
 577              		.cfi_def_cfa_offset 4
 578              		.cfi_offset 14, -4
 579 0002 83B0     		sub	sp, sp, #12
 580              		.cfi_def_cfa_offset 16
ARM GAS  /home/pauba/tmp/ccTWhIAm.s 			page 12


 581 0004 0190     		str	r0, [sp, #4]
 582              	.LBB12:
 583              		.loc 1 227 0
 584 0006 2023     		movs	r3, #32
 585              	@ 227 "/home/pauba/ChibiOS-RT/os/hal/src/gpt.c" 1
 586 0008 83F31188 		msr     BASEPRI, r3
 587              	@ 0 "" 2
 588              		.thumb
 589              	.LBE12:
 590 000c FFF7FEFF 		bl	dbg_check_lock
 591              		.loc 1 228 0
 592 0010 0198     		ldr	r0, [sp, #4]
 593 0012 FFF7FEFF 		bl	gptStopTimerI
 594              		.loc 1 229 0
 595 0016 FFF7FEFF 		bl	dbg_check_unlock
 596              	.LBB13:
 597 001a 0023     		movs	r3, #0
 598              	@ 229 "/home/pauba/ChibiOS-RT/os/hal/src/gpt.c" 1
 599 001c 83F31188 		msr     BASEPRI, r3
 600              	@ 0 "" 2
 601              		.thumb
 602              	.LBE13:
 603              		.loc 1 230 0
 604 0020 03B0     		add	sp, sp, #12
 605              		@ sp needed
 606 0022 5DF804FB 		ldr	pc, [sp], #4
 607              		.cfi_endproc
 608              	.LFE72:
 609              		.size	gptStopTimer, .-gptStopTimer
 610 0026 00BFAFF3 		.section	.rodata
 610      0080AFF3 
 610      0080
 611 00cf 00       		.align	2
 612              	.LC10:
 613 00d0 22677074 		.ascii	"\"gptStopTimerI\"()\000"
 613      53746F70 
 613      54696D65 
 613      72492228 
 613      2900
 614 00e2 0000     		.align	2
 615              	.LC11:
 616 00e4 67707453 		.ascii	"gptStopTimerI(), #1\000"
 616      746F7054 
 616      696D6572 
 616      4928292C 
 616      20233100 
 617              		.section	.text.gptStopTimerI,"ax",%progbits
 618              		.align	2
 619              		.p2align 4,,15
 620              		.global	gptStopTimerI
 621              		.thumb
 622              		.thumb_func
 623              		.type	gptStopTimerI, %function
 624              	gptStopTimerI:
 625              	.LFB73:
 626              		.loc 1 239 0
 627              		.cfi_startproc
ARM GAS  /home/pauba/tmp/ccTWhIAm.s 			page 13


 628              		@ args = 0, pretend = 0, frame = 8
 629              		@ frame_needed = 0, uses_anonymous_args = 0
 630 0000 00B5     		push	{lr}
 631              		.cfi_def_cfa_offset 4
 632              		.cfi_offset 14, -4
 633 0002 83B0     		sub	sp, sp, #12
 634              		.cfi_def_cfa_offset 16
 635 0004 0190     		str	r0, [sp, #4]
 636              		.loc 1 241 0
 637 0006 FFF7FEFF 		bl	chDbgCheckClassI
 638              		.loc 1 242 0
 639 000a 019B     		ldr	r3, [sp, #4]
 640 000c 002B     		cmp	r3, #0
 641 000e 02D1     		bne	.L33
 642              		.loc 1 242 0 is_stmt 0 discriminator 1
 643 0010 0D48     		ldr	r0, .L35
 644 0012 FFF7FEFF 		bl	chDbgPanic
 645              	.L33:
 646              		.loc 1 243 0 is_stmt 1
 647 0016 019B     		ldr	r3, [sp, #4]
 648 0018 1B78     		ldrb	r3, [r3]	@ zero_extendqisi2
 649 001a 022B     		cmp	r3, #2
 650 001c 0AD0     		beq	.L34
 651              		.loc 1 243 0 is_stmt 0 discriminator 1
 652 001e 019B     		ldr	r3, [sp, #4]
 653 0020 1B78     		ldrb	r3, [r3]	@ zero_extendqisi2
 654 0022 032B     		cmp	r3, #3
 655 0024 06D0     		beq	.L34
 656 0026 019B     		ldr	r3, [sp, #4]
 657 0028 1B78     		ldrb	r3, [r3]	@ zero_extendqisi2
 658 002a 042B     		cmp	r3, #4
 659 002c 02D0     		beq	.L34
 660 002e 0748     		ldr	r0, .L35+4
 661 0030 FFF7FEFF 		bl	chDbgPanic
 662              	.L34:
 663              		.loc 1 247 0 is_stmt 1
 664 0034 019B     		ldr	r3, [sp, #4]
 665 0036 0222     		movs	r2, #2
 666 0038 1A70     		strb	r2, [r3]
 667              		.loc 1 248 0
 668 003a 0198     		ldr	r0, [sp, #4]
 669 003c FFF7FEFF 		bl	gpt_lld_stop_timer
 670              		.loc 1 249 0
 671 0040 03B0     		add	sp, sp, #12
 672              		@ sp needed
 673 0042 5DF804FB 		ldr	pc, [sp], #4
 674              	.L36:
 675 0046 00BF     		.align	2
 676              	.L35:
 677 0048 D0000000 		.word	.LC10
 678 004c E4000000 		.word	.LC11
 679              		.cfi_endproc
 680              	.LFE73:
 681              		.size	gptStopTimerI, .-gptStopTimerI
 682              		.section	.rodata
 683              		.align	2
 684              	.LC12:
ARM GAS  /home/pauba/tmp/ccTWhIAm.s 			page 14


 685 00f8 67707450 		.ascii	"gptPolledDelay(), #1\000"
 685      6F6C6C65 
 685      6444656C 
 685      61792829 
 685      2C202331 
 686 010d 000000   		.section	.text.gptPolledDelay,"ax",%progbits
 687              		.align	2
 688              		.p2align 4,,15
 689              		.global	gptPolledDelay
 690              		.thumb
 691              		.thumb_func
 692              		.type	gptPolledDelay, %function
 693              	gptPolledDelay:
 694              	.LFB74:
 695              		.loc 1 263 0
 696              		.cfi_startproc
 697              		@ args = 0, pretend = 0, frame = 8
 698              		@ frame_needed = 0, uses_anonymous_args = 0
 699 0000 00B5     		push	{lr}
 700              		.cfi_def_cfa_offset 4
 701              		.cfi_offset 14, -4
 702 0002 83B0     		sub	sp, sp, #12
 703              		.cfi_def_cfa_offset 16
 704 0004 0190     		str	r0, [sp, #4]
 705 0006 0091     		str	r1, [sp]
 706              		.loc 1 265 0
 707 0008 019B     		ldr	r3, [sp, #4]
 708 000a 1B78     		ldrb	r3, [r3]	@ zero_extendqisi2
 709 000c 022B     		cmp	r3, #2
 710 000e 02D0     		beq	.L38
 711              		.loc 1 265 0 is_stmt 0 discriminator 1
 712 0010 0748     		ldr	r0, .L39
 713 0012 FFF7FEFF 		bl	chDbgPanic
 714              	.L38:
 715              		.loc 1 268 0 is_stmt 1
 716 0016 019B     		ldr	r3, [sp, #4]
 717 0018 0422     		movs	r2, #4
 718 001a 1A70     		strb	r2, [r3]
 719              		.loc 1 269 0
 720 001c 0198     		ldr	r0, [sp, #4]
 721 001e 0099     		ldr	r1, [sp]
 722 0020 FFF7FEFF 		bl	gpt_lld_polled_delay
 723              		.loc 1 270 0
 724 0024 019B     		ldr	r3, [sp, #4]
 725 0026 0222     		movs	r2, #2
 726 0028 1A70     		strb	r2, [r3]
 727              		.loc 1 271 0
 728 002a 03B0     		add	sp, sp, #12
 729              		@ sp needed
 730 002c 5DF804FB 		ldr	pc, [sp], #4
 731              	.L40:
 732              		.align	2
 733              	.L39:
 734 0030 F8000000 		.word	.LC12
 735              		.cfi_endproc
 736              	.LFE74:
 737              		.size	gptPolledDelay, .-gptPolledDelay
ARM GAS  /home/pauba/tmp/ccTWhIAm.s 			page 15


 738 0034 AFF30080 		.text
 738      AFF30080 
 738      AFF30080 
 739              	.Letext0:
 740              		.file 2 "/opt/gcc-arm-none-eabi-4_8-2014q1/arm-none-eabi/include/machine/_default_types.h"
 741              		.file 3 "/opt/gcc-arm-none-eabi-4_8-2014q1/arm-none-eabi/include/stdint.h"
 742              		.file 4 "/home/pauba/ChibiOS-RT/os/hal/include/gpt.h"
 743              		.file 5 "/home/pauba/ChibiOS-RT/os/hal/platforms/STM32/TIMv1/gpt_lld.h"
 744              		.file 6 "/home/pauba/ChibiOS-RT/os/hal/platforms/STM32/TIMv1/stm32_tim.h"
 745              		.file 7 "/home/pauba/ChibiOS-RT/os/ports/common/ARMCMx/CMSIS/include/core_cm3.h"