ARM GAS  /home/pauba/tmp/ccTWhIAm.s 			page 1


   1              		.syntax unified
   2              		.cpu cortex-m4
   3              		.fpu softvfp
   4              		.eabi_attribute 20, 1
   5              		.eabi_attribute 21, 1
   6              		.eabi_attribute 23, 3
   7              		.eabi_attribute 24, 1
   8              		.eabi_attribute 25, 1
   9              		.eabi_attribute 26, 1
  10              		.eabi_attribute 30, 6
  11              		.eabi_attribute 34, 1
  12              		.eabi_attribute 18, 4
  13              		.thumb
  14              		.file	"gpt.c"
  15              		.text
  16              	.Ltext0:
  17              		.cfi_sections	.debug_frame
  18              		.section	.text.gptInit,"ax",%progbits
  19              		.align	2
  20              		.p2align 4,,15
  21              		.global	gptInit
  22              		.thumb
  23              		.thumb_func
  24              		.type	gptInit, %function
  25              	gptInit:
  26              	.LFB63:
  27              		.file 1 "/home/pauba/ChibiOS-RT/os/hal/src/gpt.c"
  28              		.loc 1 68 0
  29              		.cfi_startproc
  30              		@ args = 0, pretend = 0, frame = 0
  31              		@ frame_needed = 0, uses_anonymous_args = 0
  32 0000 08B5     		push	{r3, lr}
  33              		.cfi_def_cfa_offset 8
  34              		.cfi_offset 3, -8
  35              		.cfi_offset 14, -4
  36              		.loc 1 70 0
  37 0002 FFF7FEFF 		bl	gpt_lld_init
  38              		.loc 1 71 0
  39 0006 08BD     		pop	{r3, pc}
  40              		.cfi_endproc
  41              	.LFE63:
  42              		.size	gptInit, .-gptInit
  43 0008 AFF30080 		.section	.text.gptObjectInit,"ax",%progbits
  43      AFF30080 
  44              		.align	2
  45              		.p2align 4,,15
  46              		.global	gptObjectInit
  47              		.thumb
  48              		.thumb_func
  49              		.type	gptObjectInit, %function
  50              	gptObjectInit:
  51              	.LFB64:
  52              		.loc 1 80 0
  53              		.cfi_startproc
  54              		@ args = 0, pretend = 0, frame = 8
  55              		@ frame_needed = 0, uses_anonymous_args = 0
  56              		@ link register save eliminated.
ARM GAS  /home/pauba/tmp/ccTWhIAm.s 			page 2


  57 0000 82B0     		sub	sp, sp, #8
  58              		.cfi_def_cfa_offset 8
  59 0002 0190     		str	r0, [sp, #4]
  60              		.loc 1 82 0
  61 0004 019B     		ldr	r3, [sp, #4]
  62 0006 0122     		movs	r2, #1
  63 0008 1A70     		strb	r2, [r3]
  64              		.loc 1 83 0
  65 000a 019B     		ldr	r3, [sp, #4]
  66 000c 0022     		movs	r2, #0
  67 000e 5A60     		str	r2, [r3, #4]
  68              		.loc 1 84 0
  69 0010 02B0     		add	sp, sp, #8
  70              		@ sp needed
  71 0012 7047     		bx	lr
  72              		.cfi_endproc
  73              	.LFE64:
  74              		.size	gptObjectInit, .-gptObjectInit
  75 0014 AFF30080 		.section	.rodata
  75      AFF30080 
  75      AFF30080 
  76              		.align	2
  77              	.LC0:
  78 0000 22677074 		.ascii	"\"gptStart\"()\000"
  78      53746172 
  78      74222829 
  78      00
  79 000d 000000   		.align	2
  80              	.LC1:
  81 0010 67707453 		.ascii	"gptStart(), #1\000"
  81      74617274 
  81      28292C20 
  81      233100
  82              		.section	.text.gptStart,"ax",%progbits
  83              		.align	2
  84              		.p2align 4,,15
  85              		.global	gptStart
  86              		.thumb
  87              		.thumb_func
  88              		.type	gptStart, %function
  89              	gptStart:
  90              	.LFB65:
  91              		.loc 1 94 0
  92              		.cfi_startproc
  93              		@ args = 0, pretend = 0, frame = 8
  94              		@ frame_needed = 0, uses_anonymous_args = 0
  95 0000 00B5     		push	{lr}
  96              		.cfi_def_cfa_offset 4
  97              		.cfi_offset 14, -4
  98 0002 83B0     		sub	sp, sp, #12
  99              		.cfi_def_cfa_offset 16
 100 0004 0190     		str	r0, [sp, #4]
 101 0006 0091     		str	r1, [sp]
 102              		.loc 1 96 0
 103 0008 019B     		ldr	r3, [sp, #4]
 104 000a 002B     		cmp	r3, #0
 105 000c 02D0     		beq	.L4
ARM GAS  /home/pauba/tmp/ccTWhIAm.s 			page 3


 106              		.loc 1 96 0 is_stmt 0 discriminator 2
 107 000e 009B     		ldr	r3, [sp]
 108 0010 002B     		cmp	r3, #0
 109 0012 02D1     		bne	.L5
 110              	.L4:
 111              		.loc 1 96 0 discriminator 1
 112 0014 1148     		ldr	r0, .L7
 113 0016 FFF7FEFF 		bl	chDbgPanic
 114              	.L5:
 115              	.LBB2:
 116              		.loc 1 98 0 is_stmt 1
 117 001a 2023     		movs	r3, #32
 118              	@ 98 "/home/pauba/ChibiOS-RT/os/hal/src/gpt.c" 1
 119 001c 83F31188 		msr     BASEPRI, r3
 120              	@ 0 "" 2
 121              		.thumb
 122              	.LBE2:
 123 0020 FFF7FEFF 		bl	dbg_check_lock
 124              		.loc 1 99 0
 125 0024 019B     		ldr	r3, [sp, #4]
 126 0026 1B78     		ldrb	r3, [r3]	@ zero_extendqisi2
 127 0028 012B     		cmp	r3, #1
 128 002a 06D0     		beq	.L6
 129              		.loc 1 99 0 is_stmt 0 discriminator 1
 130 002c 019B     		ldr	r3, [sp, #4]
 131 002e 1B78     		ldrb	r3, [r3]	@ zero_extendqisi2
 132 0030 022B     		cmp	r3, #2
 133 0032 02D0     		beq	.L6
 134 0034 0A48     		ldr	r0, .L7+4
 135 0036 FFF7FEFF 		bl	chDbgPanic
 136              	.L6:
 137              		.loc 1 101 0 is_stmt 1
 138 003a 019B     		ldr	r3, [sp, #4]
 139 003c 009A     		ldr	r2, [sp]
 140 003e 5A60     		str	r2, [r3, #4]
 141              		.loc 1 102 0
 142 0040 0198     		ldr	r0, [sp, #4]
 143 0042 FFF7FEFF 		bl	gpt_lld_start
 144              		.loc 1 103 0
 145 0046 019B     		ldr	r3, [sp, #4]
 146 0048 0222     		movs	r2, #2
 147 004a 1A70     		strb	r2, [r3]
 148              		.loc 1 104 0
 149 004c FFF7FEFF 		bl	dbg_check_unlock
 150              	.LBB3:
 151 0050 0023     		movs	r3, #0
 152              	@ 104 "/home/pauba/ChibiOS-RT/os/hal/src/gpt.c" 1
 153 0052 83F31188 		msr     BASEPRI, r3
 154              	@ 0 "" 2
 155              		.thumb
 156              	.LBE3:
 157              		.loc 1 105 0
 158 0056 03B0     		add	sp, sp, #12
 159              		@ sp needed
 160 0058 5DF804FB 		ldr	pc, [sp], #4
 161              	.L8:
 162              		.align	2
ARM GAS  /home/pauba/tmp/ccTWhIAm.s 			page 4


 163              	.L7:
 164 005c 00000000 		.word	.LC0
 165 0060 10000000 		.word	.LC1
 166              		.cfi_endproc
 167              	.LFE65:
 168              		.size	gptStart, .-gptStart
 169 0064 AFF30080 		.section	.rodata
 169      AFF30080 
 169      AFF30080 
 170 001f 00       		.align	2
 171              	.LC2:
 172 0020 22677074 		.ascii	"\"gptStop\"()\000"
 172      53746F70 
 172      22282900 
 173              		.align	2
 174              	.LC3:
 175 002c 67707453 		.ascii	"gptStop(), #1\000"
 175      746F7028 
 175      292C2023 
 175      3100
 176              		.section	.text.gptStop,"ax",%progbits
 177              		.align	2
 178              		.p2align 4,,15
 179              		.global	gptStop
 180              		.thumb
 181              		.thumb_func
 182              		.type	gptStop, %function
 183              	gptStop:
 184              	.LFB66:
 185              		.loc 1 114 0
 186              		.cfi_startproc
 187              		@ args = 0, pretend = 0, frame = 8
 188              		@ frame_needed = 0, uses_anonymous_args = 0
 189 0000 00B5     		push	{lr}
 190              		.cfi_def_cfa_offset 4
 191              		.cfi_offset 14, -4
 192 0002 83B0     		sub	sp, sp, #12
 193              		.cfi_def_cfa_offset 16
 194 0004 0190     		str	r0, [sp, #4]
 195              		.loc 1 116 0
 196 0006 019B     		ldr	r3, [sp, #4]
 197 0008 002B     		cmp	r3, #0
 198 000a 02D1     		bne	.L10
 199              		.loc 1 116 0 is_stmt 0 discriminator 1
 200 000c 1048     		ldr	r0, .L12
 201 000e FFF7FEFF 		bl	chDbgPanic
 202              	.L10:
 203              	.LBB4:
 204              		.loc 1 118 0 is_stmt 1
 205 0012 2023     		movs	r3, #32
 206              	@ 118 "/home/pauba/ChibiOS-RT/os/hal/src/gpt.c" 1
 207 0014 83F31188 		msr     BASEPRI, r3
 208              	@ 0 "" 2
 209              		.thumb
 210              	.LBE4:
 211 0018 FFF7FEFF 		bl	dbg_check_lock
 212              		.loc 1 119 0
ARM GAS  /home/pauba/tmp/ccTWhIAm.s 			page 5


 213 001c 019B     		ldr	r3, [sp, #4]
 214 001e 1B78     		ldrb	r3, [r3]	@ zero_extendqisi2
 215 0020 012B     		cmp	r3, #1
 216 0022 06D0     		beq	.L11
 217              		.loc 1 119 0 is_stmt 0 discriminator 1
 218 0024 019B     		ldr	r3, [sp, #4]
 219 0026 1B78     		ldrb	r3, [r3]	@ zero_extendqisi2
 220 0028 022B     		cmp	r3, #2
 221 002a 02D0     		beq	.L11
 222 002c 0948     		ldr	r0, .L12+4
 223 002e FFF7FEFF 		bl	chDbgPanic
 224              	.L11:
 225              		.loc 1 121 0 is_stmt 1
 226 0032 0198     		ldr	r0, [sp, #4]
 227 0034 FFF7FEFF 		bl	gpt_lld_stop
 228              		.loc 1 122 0
 229 0038 019B     		ldr	r3, [sp, #4]
 230 003a 0122     		movs	r2, #1
 231 003c 1A70     		strb	r2, [r3]
 232              		.loc 1 123 0
 233 003e FFF7FEFF 		bl	dbg_check_unlock
 234              	.LBB5:
 235 0042 0023     		movs	r3, #0
 236              	@ 123 "/home/pauba/ChibiOS-RT/os/hal/src/gpt.c" 1
 237 0044 83F31188 		msr     BASEPRI, r3
 238              	@ 0 "" 2
 239              		.thumb
 240              	.LBE5:
 241              		.loc 1 124 0
 242 0048 03B0     		add	sp, sp, #12
 243              		@ sp needed
 244 004a 5DF804FB 		ldr	pc, [sp], #4
 245              	.L13:
 246 004e 00BF     		.align	2
 247              	.L12:
 248 0050 20000000 		.word	.LC2
 249 0054 2C000000 		.word	.LC3
 250              		.cfi_endproc
 251              	.LFE66:
 252              		.size	gptStop, .-gptStop
 253 0058 AFF30080 		.section	.rodata
 253      AFF30080 
 254 003a 0000     		.align	2
 255              	.LC4:
 256 003c 22677074 		.ascii	"\"gptChangeInterval\"()\000"
 256      4368616E 
 256      6765496E 
 256      74657276 
 256      616C2228 
 257 0052 0000     		.align	2
 258              	.LC5:
 259 0054 67707443 		.ascii	"gptChangeInterval(), #1\000"
 259      68616E67 
 259      65496E74 
 259      65727661 
 259      6C28292C 
 260              		.section	.text.gptChangeInterval,"ax",%progbits
ARM GAS  /home/pauba/tmp/ccTWhIAm.s 			page 6


 261              		.align	2
 262              		.p2align 4,,15
 263              		.global	gptChangeInterval
 264              		.thumb
 265              		.thumb_func
 266              		.type	gptChangeInterval, %function
 267              	gptChangeInterval:
 268              	.LFB67:
 269              		.loc 1 139 0
 270              		.cfi_startproc
 271              		@ args = 0, pretend = 0, frame = 8
 272              		@ frame_needed = 0, uses_anonymous_args = 0
 273 0000 00B5     		push	{lr}
 274              		.cfi_def_cfa_offset 4
 275              		.cfi_offset 14, -4
 276 0002 83B0     		sub	sp, sp, #12
 277              		.cfi_def_cfa_offset 16
 278 0004 0190     		str	r0, [sp, #4]
 279 0006 0091     		str	r1, [sp]
 280              		.loc 1 141 0
 281 0008 019B     		ldr	r3, [sp, #4]
 282 000a 002B     		cmp	r3, #0
 283 000c 02D1     		bne	.L15
 284              		.loc 1 141 0 is_stmt 0 discriminator 1
 285 000e 0E48     		ldr	r0, .L17
 286 0010 FFF7FEFF 		bl	chDbgPanic
 287              	.L15:
 288              	.LBB6:
 289              		.loc 1 143 0 is_stmt 1
 290 0014 2023     		movs	r3, #32
 291              	@ 143 "/home/pauba/ChibiOS-RT/os/hal/src/gpt.c" 1
 292 0016 83F31188 		msr     BASEPRI, r3
 293              	@ 0 "" 2
 294              		.thumb
 295              	.LBE6:
 296 001a FFF7FEFF 		bl	dbg_check_lock
 297              		.loc 1 144 0
 298 001e 019B     		ldr	r3, [sp, #4]
 299 0020 1B78     		ldrb	r3, [r3]	@ zero_extendqisi2
 300 0022 032B     		cmp	r3, #3
 301 0024 02D0     		beq	.L16
 302              		.loc 1 144 0 is_stmt 0 discriminator 1
 303 0026 0948     		ldr	r0, .L17+4
 304 0028 FFF7FEFF 		bl	chDbgPanic
 305              	.L16:
 306              		.loc 1 146 0 is_stmt 1
 307 002c 019B     		ldr	r3, [sp, #4]
 308 002e DB68     		ldr	r3, [r3, #12]
 309 0030 009A     		ldr	r2, [sp]
 310 0032 013A     		subs	r2, r2, #1
 311 0034 DA62     		str	r2, [r3, #44]
 312              		.loc 1 147 0
 313 0036 FFF7FEFF 		bl	dbg_check_unlock
 314              	.LBB7:
 315 003a 0023     		movs	r3, #0
 316              	@ 147 "/home/pauba/ChibiOS-RT/os/hal/src/gpt.c" 1
 317 003c 83F31188 		msr     BASEPRI, r3
ARM GAS  /home/pauba/tmp/ccTWhIAm.s 			page 7


 318              	@ 0 "" 2
 319              		.thumb
 320              	.LBE7:
 321              		.loc 1 148 0
 322 0040 03B0     		add	sp, sp, #12
 323              		@ sp needed
 324 0042 5DF804FB 		ldr	pc, [sp], #4
 325              	.L18:
 326 0046 00BF     		.align	2
 327              	.L17:
 328 0048 3C000000 		.word	.LC4
 329 004c 54000000 		.word	.LC5
 330              		.cfi_endproc
 331              	.LFE67:
 332              		.size	gptChangeInterval, .-gptChangeInterval
 333              		.section	.text.gptStartContinuous,"ax",%progbits
 334              		.align	2
 335              		.p2align 4,,15
 336              		.global	gptStartContinuous
 337              		.thumb
 338              		.thumb_func
 339              		.type	gptStartContinuous, %function
 340              	gptStartContinuous:
 341              	.LFB68:
 342              		.loc 1 158 0
 343              		.cfi_startproc
 344              		@ args = 0, pretend = 0, frame = 8
 345              		@ frame_needed = 0, uses_anonymous_args = 0
 346 0000 00B5     		push	{lr}
 347              		.cfi_def_cfa_offset 4
 348              		.cfi_offset 14, -4
 349 0002 83B0     		sub	sp, sp, #12
 350              		.cfi_def_cfa_offset 16
 351 0004 0190     		str	r0, [sp, #4]
 352 0006 0091     		str	r1, [sp]
 353              	.LBB8:
 354              		.loc 1 160 0
 355 0008 2023     		movs	r3, #32
 356              	@ 160 "/home/pauba/ChibiOS-RT/os/hal/src/gpt.c" 1
 357 000a 83F31188 		msr     BASEPRI, r3
 358              	@ 0 "" 2
 359              		.thumb
 360              	.LBE8:
 361 000e FFF7FEFF 		bl	dbg_check_lock
 362              		.loc 1 161 0
 363 0012 0198     		ldr	r0, [sp, #4]
 364 0014 0099     		ldr	r1, [sp]
 365 0016 FFF7FEFF 		bl	gptStartContinuousI
 366              		.loc 1 162 0
 367 001a FFF7FEFF 		bl	dbg_check_unlock
 368              	.LBB9:
 369 001e 0023     		movs	r3, #0
 370              	@ 162 "/home/pauba/ChibiOS-RT/os/hal/src/gpt.c" 1
 371 0020 83F31188 		msr     BASEPRI, r3
 372              	@ 0 "" 2
 373              		.thumb
 374              	.LBE9:
ARM GAS  /home/pauba/tmp/ccTWhIAm.s 			page 8


 375              		.loc 1 163 0
 376 0024 03B0     		add	sp, sp, #12
 377              		@ sp needed
 378 0026 5DF804FB 		ldr	pc, [sp], #4
 379              		.cfi_endproc
 380              	.LFE68:
 381              		.size	gptStartContinuous, .-gptStartContinuous
 382 002a 00BFAFF3 		.section	.rodata
 382      0080
 383              		.align	2
 384              	.LC6:
 385 006c 22677074 		.ascii	"\"gptStartContinuousI\"()\000"
 385      53746172 
 385      74436F6E 
 385      74696E75 
 385      6F757349 
 386              		.align	2
 387              	.LC7:
 388 0084 67707453 		.ascii	"gptStartContinuousI(), #1\000"
 388      74617274 
 388      436F6E74 
 388      696E756F 
 388      75734928 
 389              		.section	.text.gptStartContinuousI,"ax",%progbits
 390              		.align	2
 391              		.p2align 4,,15
 392              		.global	gptStartContinuousI
 393              		.thumb
 394              		.thumb_func
 395              		.type	gptStartContinuousI, %function
 396              	gptStartContinuousI:
 397              	.LFB69:
 398              		.loc 1 173 0
 399              		.cfi_startproc
 400              		@ args = 0, pretend = 0, frame = 8
 401              		@ frame_needed = 0, uses_anonymous_args = 0
 402 0000 00B5     		push	{lr}
 403              		.cfi_def_cfa_offset 4
 404              		.cfi_offset 14, -4
 405 0002 83B0     		sub	sp, sp, #12
 406              		.cfi_def_cfa_offset 16
 407 0004 0190     		str	r0, [sp, #4]
 408 0006 0091     		str	r1, [sp]
 409              		.loc 1 175 0
 410 0008 FFF7FEFF 		bl	chDbgCheckClassI
 411              		.loc 1 176 0
 412 000c 019B     		ldr	r3, [sp, #4]
 413 000e 002B     		cmp	r3, #0
 414 0010 02D1     		bne	.L21
 415              		.loc 1 176 0 is_stmt 0 discriminator 1
 416 0012 0A48     		ldr	r0, .L23
 417 0014 FFF7FEFF 		bl	chDbgPanic
 418              	.L21:
 419              		.loc 1 177 0 is_stmt 1
 420 0018 019B     		ldr	r3, [sp, #4]
 421 001a 1B78     		ldrb	r3, [r3]	@ zero_extendqisi2
 422 001c 022B     		cmp	r3, #2
ARM GAS  /home/pauba/tmp/ccTWhIAm.s 			page 9


 423 001e 02D0     		beq	.L22
 424              		.loc 1 177 0 is_stmt 0 discriminator 1
 425 0020 0748     		ldr	r0, .L23+4
 426 0022 FFF7FEFF 		bl	chDbgPanic
 427              	.L22:
 428              		.loc 1 180 0 is_stmt 1
 429 0026 019B     		ldr	r3, [sp, #4]
 430 0028 0322     		movs	r2, #3
 431 002a 1A70     		strb	r2, [r3]
 432              		.loc 1 181 0
 433 002c 0198     		ldr	r0, [sp, #4]
 434 002e 0099     		ldr	r1, [sp]
 435 0030 FFF7FEFF 		bl	gpt_lld_start_timer
 436              		.loc 1 182 0
 437 0034 03B0     		add	sp, sp, #12
 438              		@ sp needed
 439 0036 5DF804FB 		ldr	pc, [sp], #4
 440              	.L24:
 441 003a 00BF     		.align	2
 442              	.L23:
 443 003c 6C000000 		.word	.LC6
 444 0040 84000000 		.word	.LC7
 445              		.cfi_endproc
 446              	.LFE69:
 447              		.size	gptStartContinuousI, .-gptStartContinuousI
 448 0044 AFF30080 		.section	.text.gptStartOneShot,"ax",%progbits
 448      AFF30080 
 448      AFF30080 
 449              		.align	2
 450              		.p2align 4,,15
 451              		.global	gptStartOneShot
 452              		.thumb
 453              		.thumb_func
 454              		.type	gptStartOneShot, %function
 455              	gptStartOneShot:
 456              	.LFB70:
 457              		.loc 1 192 0
 458              		.cfi_startproc
 459              		@ args = 0, pretend = 0, frame = 8
 460              		@ frame_needed = 0, uses_anonymous_args = 0
 461 0000 00B5     		push	{lr}
 462              		.cfi_def_cfa_offset 4
 463              		.cfi_offset 14, -4
 464 0002 83B0     		sub	sp, sp, #12
 465              		.cfi_def_cfa_offset 16
 466 0004 0190     		str	r0, [sp, #4]
 467 0006 0091     		str	r1, [sp]
 468              	.LBB10:
 469              		.loc 1 194 0
 470 0008 2023     		movs	r3, #32
 471              	@ 194 "/home/pauba/ChibiOS-RT/os/hal/src/gpt.c" 1
 472 000a 83F31188 		msr     BASEPRI, r3
 473              	@ 0 "" 2
 474              		.thumb
 475              	.LBE10:
 476 000e FFF7FEFF 		bl	dbg_check_lock
 477              		.loc 1 195 0
ARM GAS  /home/pauba/tmp/ccTWhIAm.s 			page 10


 478 0012 0198     		ldr	r0, [sp, #4]
 479 0014 0099     		ldr	r1, [sp]
 480 0016 FFF7FEFF 		bl	gptStartOneShotI
 481              		.loc 1 196 0
 482 001a FFF7FEFF 		bl	dbg_check_unlock
 483              	.LBB11:
 484 001e 0023     		movs	r3, #0
 485              	@ 196 "/home/pauba/ChibiOS-RT/os/hal/src/gpt.c" 1
 486 0020 83F31188 		msr     BASEPRI, r3
 487              	@ 0 "" 2
 488              		.thumb
 489              	.LBE11:
 490              		.loc 1 197 0
 491 0024 03B0     		add	sp, sp, #12
 492              		@ sp needed
 493 0026 5DF804FB 		ldr	pc, [sp], #4
 494              		.cfi_endproc
 495              	.LFE70:
 496              		.size	gptStartOneShot, .-gptStartOneShot
 497 002a 00BFAFF3 		.section	.rodata
 497      0080
 498 009e 0000     		.align	2
 499              	.LC8:
 500 00a0 22677074 		.ascii	"\"gptStartOneShotI\"()\000"
 500      53746172 
 500      744F6E65 
 500      53686F74 
 500      49222829 
 501 00b5 000000   		.align	2
 502              	.LC9:
 503 00b8 67707453 		.ascii	"gptStartOneShotI(), #1\000"
 503      74617274 
 503      4F6E6553 
 503      686F7449 
 503      28292C20 
 504              		.section	.text.gptStartOneShotI,"ax",%progbits
 505              		.align	2
 506              		.p2align 4,,15
 507              		.global	gptStartOneShotI
 508              		.thumb
 509              		.thumb_func
 510              		.type	gptStartOneShotI, %function
 511              	gptStartOneShotI:
 512              	.LFB71:
 513              		.loc 1 207 0
 514              		.cfi_startproc
 515              		@ args = 0, pretend = 0, frame = 8
 516              		@ frame_needed = 0, uses_anonymous_args = 0
 517 0000 00B5     		push	{lr}
 518              		.cfi_def_cfa_offset 4
 519              		.cfi_offset 14, -4
 520 0002 83B0     		sub	sp, sp, #12
 521              		.cfi_def_cfa_offset 16
 522 0004 0190     		str	r0, [sp, #4]
 523 0006 0091     		str	r1, [sp]
 524              		.loc 1 209 0
 525 0008 FFF7FEFF 		bl	chDbgCheckClassI
ARM GAS  /home/pauba/tmp/ccTWhIAm.s 			page 11


 526              		.loc 1 210 0
 527 000c 019B     		ldr	r3, [sp, #4]
 528 000e 002B     		cmp	r3, #0
 529 0010 02D1     		bne	.L27
 530              		.loc 1 210 0 is_stmt 0 discriminator 1
 531 0012 0A48     		ldr	r0, .L29
 532 0014 FFF7FEFF 		bl	chDbgPanic
 533              	.L27:
 534              		.loc 1 211 0 is_stmt 1
 535 0018 019B     		ldr	r3, [sp, #4]
 536 001a 1B78     		ldrb	r3, [r3]	@ zero_extendqisi2
 537 001c 022B     		cmp	r3, #2
 538 001e 02D0     		beq	.L28
 539              		.loc 1 211 0 is_stmt 0 discriminator 1
 540 0020 0748     		ldr	r0, .L29+4
 541 0022 FFF7FEFF 		bl	chDbgPanic
 542              	.L28:
 543              		.loc 1 214 0 is_stmt 1
 544 0026 019B     		ldr	r3, [sp, #4]
 545 0028 0422     		movs	r2, #4
 546 002a 1A70     		strb	r2, [r3]
 547              		.loc 1 215 0
 548 002c 0198     		ldr	r0, [sp, #4]
 549 002e 0099     		ldr	r1, [sp]
 550 0030 FFF7FEFF 		bl	gpt_lld_start_timer
 551              		.loc 1 216 0
 552 0034 03B0     		add	sp, sp, #12
 553              		@ sp needed
 554 0036 5DF804FB 		ldr	pc, [sp], #4
 555              	.L30:
 556 003a 00BF     		.align	2
 557              	.L29:
 558 003c A0000000 		.word	.LC8
 559 0040 B8000000 		.word	.LC9
 560              		.cfi_endproc
 561              	.LFE71:
 562              		.size	gptStartOneShotI, .-gptStartOneShotI
 563 0044 AFF30080 		.section	.text.gptStopTimer,"ax",%progbits
 563      AFF30080 
 563      AFF30080 
 564              		.align	2
 565              		.p2align 4,,15
 566              		.global	gptStopTimer
 567              		.thumb
 568              		.thumb_func
 569              		.type	gptStopTimer, %function
 570              	gptStopTimer:
 571              	.LFB72:
 572              		.loc 1 225 0
 573              		.cfi_startproc
 574              		@ args = 0, pretend = 0, frame = 8
 575              		@ frame_needed = 0, uses_anonymous_args = 0
 576 0000 00B5     		push	{lr}
 577              		.cfi_def_cfa_offset 4
 578              		.cfi_offset 14, -4
 579 0002 83B0     		sub	sp, sp, #12
 580              		.cfi_def_cfa_offset 16
ARM GAS  /home/pauba/tmp/ccTWhIAm.s 			page 12


 581 0004 0190     		str	r0, [sp, #4]
 582              	.LBB12:
 583              		.loc 1 227 0
 584 0006 2023     		movs	r3, #32
 585              	@ 227 "/home/pauba/ChibiOS-RT/os/hal/src/gpt.c" 1
 586 0008 83F31188 		msr     BASEPRI, r3
 587              	@ 0 "" 2
 588              		.thumb
 589              	.LBE12:
 590 000c FFF7FEFF 		bl	dbg_check_lock
 591              		.loc 1 228 0
 592 0010 0198     		ldr	r0, [sp, #4]
 593 0012 FFF7FEFF 		bl	gptStopTimerI
 594              		.loc 1 229 0
 595 0016 FFF7FEFF 		bl	dbg_check_unlock
 596              	.LBB13:
 597 001a 0023     		movs	r3, #0
 598              	@ 229 "/home/pauba/ChibiOS-RT/os/hal/src/gpt.c" 1
 599 001c 83F31188 		msr     BASEPRI, r3
 600              	@ 0 "" 2
 601              		.thumb
 602              	.LBE13:
 603              		.loc 1 230 0
 604 0020 03B0     		add	sp, sp, #12
 605              		@ sp needed
 606 0022 5DF804FB 		ldr	pc, [sp], #4
 607              		.cfi_endproc
 608              	.LFE72:
 609              		.size	gptStopTimer, .-gptStopTimer
 610 0026 00BFAFF3 		.section	.rodata
 610      0080AFF3 
 610      0080
 611 00cf 00       		.align	2
 612              	.LC10:
 613 00d0 22677074 		.ascii	"\"gptStopTimerI\"()\000"
 613      53746F70 
 613      54696D65 
 613      72492228 
 613      2900
 614 00e2 0000     		.align	2
 615              	.LC11:
 616 00e4 67707453 		.ascii	"gptStopTimerI(), #1\000"
 616      746F7054 
 616      696D6572 
 616      4928292C 
 616      20233100 
 617              		.section	.text.gptStopTimerI,"ax",%progbits
 618              		.align	2
 619              		.p2align 4,,15
 620              		.global	gptStopTimerI
 621              		.thumb
 622              		.thumb_func
 623              		.type	gptStopTimerI, %function
 624              	gptStopTimerI:
 625              	.LFB73:
 626              		.loc 1 239 0
 627              		.cfi_startproc
ARM GAS  /home/pauba/tmp/ccTWhIAm.s 			page 13


 628              		@ args = 0, pretend = 0, frame = 8
 629              		@ frame_needed = 0, uses_anonymous_args = 0
 630 0000 00B5     		push	{lr}
 631              		.cfi_def_cfa_offset 4
 632              		.cfi_offset 14, -4
 633 0002 83B0     		sub	sp, sp, #12
 634              		.cfi_def_cfa_offset 16
 635 0004 0190     		str	r0, [sp, #4]
 636              		.loc 1 241 0
 637 0006 FFF7FEFF 		bl	chDbgCheckClassI
 638              		.loc 1 242 0
 639 000a 019B     		ldr	r3, [sp, #4]
 640 000c 002B     		cmp	r3, #0
 641 000e 02D1     		bne	.L33
 642              		.loc 1 242 0 is_stmt 0 discriminator 1
 643 0010 0D48     		ldr	r0, .L35
 644 0012 FFF7FEFF 		bl	chDbgPanic
 645              	.L33:
 646              		.loc 1 243 0 is_stmt 1
 647 0016 019B     		ldr	r3, [sp, #4]
 648 0018 1B78     		ldrb	r3, [r3]	@ zero_extendqisi2
 649 001a 022B     		cmp	r3, #2
 650 001c 0AD0     		beq	.L34
 651              		.loc 1 243 0 is_stmt 0 discriminator 1
 652 001e 019B     		ldr	r3, [sp, #4]
 653 0020 1B78     		ldrb	r3, [r3]	@ zero_extendqisi2
 654 0022 032B     		cmp	r3, #3
 655 0024 06D0     		beq	.L34
 656 0026 019B     		ldr	r3, [sp, #4]
 657 0028 1B78     		ldrb	r3, [r3]	@ zero_extendqisi2
 658 002a 042B     		cmp	r3, #4
 659 002c 02D0     		beq	.L34
 660 002e 0748     		ldr	r0, .L35+4
 661 0030 FFF7FEFF 		bl	chDbgPanic
 662              	.L34:
 663              		.loc 1 247 0 is_stmt 1
 664 0034 019B     		ldr	r3, [sp, #4]
 665 0036 0222     		movs	r2, #2
 666 0038 1A70     		strb	r2, [r3]
 667              		.loc 1 248 0
 668 003a 0198     		ldr	r0, [sp, #4]
 669 003c FFF7FEFF 		bl	gpt_lld_stop_timer
 670              		.loc 1 249 0
 671 0040 03B0     		add	sp, sp, #12
 672              		@ sp needed
 673 0042 5DF804FB 		ldr	pc, [sp], #4
 674              	.L36:
 675 0046 00BF     		.align	2
 676              	.L35:
 677 0048 D0000000 		.word	.LC10
 678 004c E4000000 		.word	.LC11
 679              		.cfi_endproc
 680              	.LFE73:
 681              		.size	gptStopTimerI, .-gptStopTimerI
 682              		.section	.rodata
 683              		.align	2
 684              	.LC12:
ARM GAS  /home/pauba/tmp/ccTWhIAm.s 			page 14


 685 00f8 67707450 		.ascii	"gptPolledDelay(), #1\000"
 685      6F6C6C65 
 685      6444656C 
 685      61792829 
 685      2C202331 
 686 010d 000000   		.section	.text.gptPolledDelay,"ax",%progbits
 687              		.align	2
 688              		.p2align 4,,15
 689              		.global	gptPolledDelay
 690              		.thumb
 691              		.thumb_func
 692              		.type	gptPolledDelay, %function
 693              	gptPolledDelay:
 694              	.LFB74:
 695              		.loc 1 263 0
 696              		.cfi_startproc
 697              		@ args = 0, pretend = 0, frame = 8
 698              		@ frame_needed = 0, uses_anonymous_args = 0
 699 0000 00B5     		push	{lr}
 700              		.cfi_def_cfa_offset 4
 701              		.cfi_offset 14, -4
 702 0002 83B0     		sub	sp, sp, #12
 703              		.cfi_def_cfa_offset 16
 704 0004 0190     		str	r0, [sp, #4]
 705 0006 0091     		str	r1, [sp]
 706              		.loc 1 265 0
 707 0008 019B     		ldr	r3, [sp, #4]
 708 000a 1B78     		ldrb	r3, [r3]	@ zero_extendqisi2
 709 000c 022B     		cmp	r3, #2
 710 000e 02D0     		beq	.L38
 711              		.loc 1 265 0 is_stmt 0 discriminator 1
 712 0010 0748     		ldr	r0, .L39
 713 0012 FFF7FEFF 		bl	chDbgPanic
 714              	.L38:
 715              		.loc 1 268 0 is_stmt 1
 716 0016 019B     		ldr	r3, [sp, #4]
 717 0018 0422     		movs	r2, #4
 718 001a 1A70     		strb	r2, [r3]
 719              		.loc 1 269 0
 720 001c 0198     		ldr	r0, [sp, #4]
 721 001e 0099     		ldr	r1, [sp]
 722 0020 FFF7FEFF 		bl	gpt_lld_polled_delay
 723              		.loc 1 270 0
 724 0024 019B     		ldr	r3, [sp, #4]
 725 0026 0222     		movs	r2, #2
 726 0028 1A70     		strb	r2, [r3]
 727              		.loc 1 271 0
 728 002a 03B0     		add	sp, sp, #12
 729              		@ sp needed
 730 002c 5DF804FB 		ldr	pc, [sp], #4
 731              	.L40:
 732              		.align	2
 733              	.L39:
 734 0030 F8000000 		.word	.LC12
 735              		.cfi_endproc
 736              	.LFE74:
 737              		.size	gptPolledDelay, .-gptPolledDelay
ARM GAS  /home/pauba/tmp/ccTWhIAm.s 			page 15


 738 0034 AFF30080 		.text
 738      AFF30080 
 738      AFF30080 
 739              	.Letext0:
 740              		.file 2 "/opt/gcc-arm-none-eabi-4_8-2014q1/arm-none-eabi/include/machine/_default_types.h"
 741              		.file 3 "/opt/gcc-arm-none-eabi-4_8-2014q1/arm-none-eabi/include/stdint.h"
 742              		.file 4 "/home/pauba/ChibiOS-RT/os/hal/include/gpt.h"
 743              		.file 5 "/home/pauba/ChibiOS-RT/os/hal/platforms/STM32/TIMv1/gpt_lld.h"
 744              		.file 6 "/home/pauba/ChibiOS-RT/os/hal/platforms/STM32/TIMv1/stm32_tim.h"
 745              		.file 7 "/home/pauba/ChibiOS-RT/os/ports/common/ARMCMx/CMSIS/include/core_cm3.h"
 746              		.section	.debug_info,"",%progbits
 747              	.Ldebug_info0:
 748 0000 2A060000 		.4byte	0x62a
 749 0004 0400     		.2byte	0x4
 750 0006 00000000 		.4byte	.Ldebug_abbrev0
 751 000a 04       		.byte	0x4
 752 000b 01       		.uleb128 0x1
 753 000c 5A010000 		.4byte	.LASF57
 754 0010 01       		.byte	0x1
 755 0011 8A020000 		.4byte	.LASF58
 756 0015 00000000 		.4byte	.Ldebug_ranges0+0
 757 0019 00000000 		.4byte	0
 758 001d 00000000 		.4byte	.Ldebug_line0
 759 0021 02       		.uleb128 0x2
 760 0022 04       		.byte	0x4
 761 0023 05       		.byte	0x5
 762 0024 696E7400 		.ascii	"int\000"
 763 0028 03       		.uleb128 0x3
 764 0029 04       		.byte	0x4
 765 002a 07       		.byte	0x7
 766 002b 48010000 		.4byte	.LASF0
 767 002f 03       		.uleb128 0x3
 768 0030 01       		.byte	0x1
 769 0031 06       		.byte	0x6
 770 0032 1C010000 		.4byte	.LASF1
 771 0036 03       		.uleb128 0x3
 772 0037 01       		.byte	0x1
 773 0038 08       		.byte	0x8
 774 0039 EE000000 		.4byte	.LASF2
 775 003d 03       		.uleb128 0x3
 776 003e 02       		.byte	0x2
 777 003f 05       		.byte	0x5
 778 0040 27000000 		.4byte	.LASF3
 779 0044 03       		.uleb128 0x3
 780 0045 02       		.byte	0x2
 781 0046 07       		.byte	0x7
 782 0047 30020000 		.4byte	.LASF4
 783 004b 04       		.uleb128 0x4
 784 004c F0020000 		.4byte	.LASF6
 785 0050 02       		.byte	0x2
 786 0051 37       		.byte	0x37
 787 0052 56000000 		.4byte	0x56
 788 0056 03       		.uleb128 0x3
 789 0057 04       		.byte	0x4
 790 0058 05       		.byte	0x5
 791 0059 CC000000 		.4byte	.LASF5
 792 005d 04       		.uleb128 0x4
ARM GAS  /home/pauba/tmp/ccTWhIAm.s 			page 16


 793 005e 5A000000 		.4byte	.LASF7
 794 0062 02       		.byte	0x2
 795 0063 38       		.byte	0x38
 796 0064 68000000 		.4byte	0x68
 797 0068 03       		.uleb128 0x3
 798 0069 04       		.byte	0x4
 799 006a 07       		.byte	0x7
 800 006b B2020000 		.4byte	.LASF8
 801 006f 03       		.uleb128 0x3
 802 0070 08       		.byte	0x8
 803 0071 05       		.byte	0x5
 804 0072 9A000000 		.4byte	.LASF9
 805 0076 03       		.uleb128 0x3
 806 0077 08       		.byte	0x8
 807 0078 07       		.byte	0x7
 808 0079 28010000 		.4byte	.LASF10
 809 007d 04       		.uleb128 0x4
 810 007e 59020000 		.4byte	.LASF11
 811 0082 03       		.byte	0x3
 812 0083 41       		.byte	0x41
 813 0084 4B000000 		.4byte	0x4b
 814 0088 04       		.uleb128 0x4
 815 0089 3F010000 		.4byte	.LASF12
 816 008d 03       		.byte	0x3
 817 008e 42       		.byte	0x42
 818 008f 5D000000 		.4byte	0x5d
 819 0093 03       		.uleb128 0x3
 820 0094 01       		.byte	0x1
 821 0095 02       		.byte	0x2
 822 0096 61020000 		.4byte	.LASF13
 823 009a 05       		.uleb128 0x5
 824 009b 88000000 		.4byte	0x88
 825 009f 03       		.uleb128 0x3
 826 00a0 04       		.byte	0x4
 827 00a1 07       		.byte	0x7
 828 00a2 43000000 		.4byte	.LASF14
 829 00a6 03       		.uleb128 0x3
 830 00a7 01       		.byte	0x1
 831 00a8 08       		.byte	0x8
 832 00a9 43020000 		.4byte	.LASF15
 833 00ad 06       		.uleb128 0x6
 834 00ae 88000000 		.4byte	0x88
 835 00b2 BD000000 		.4byte	0xbd
 836 00b6 07       		.uleb128 0x7
 837 00b7 9F000000 		.4byte	0x9f
 838 00bb 03       		.byte	0x3
 839 00bc 00       		.byte	0
 840 00bd 08       		.uleb128 0x8
 841 00be 01       		.byte	0x1
 842 00bf 04       		.byte	0x4
 843 00c0 3C       		.byte	0x3c
 844 00c1 E4000000 		.4byte	0xe4
 845 00c5 09       		.uleb128 0x9
 846 00c6 05000000 		.4byte	.LASF16
 847 00ca 00       		.sleb128 0
 848 00cb 09       		.uleb128 0x9
 849 00cc E2020000 		.4byte	.LASF17
ARM GAS  /home/pauba/tmp/ccTWhIAm.s 			page 17


 850 00d0 01       		.sleb128 1
 851 00d1 09       		.uleb128 0x9
 852 00d2 76020000 		.4byte	.LASF18
 853 00d6 02       		.sleb128 2
 854 00d7 09       		.uleb128 0x9
 855 00d8 67020000 		.4byte	.LASF19
 856 00dc 03       		.sleb128 3
 857 00dd 09       		.uleb128 0x9
 858 00de 83000000 		.4byte	.LASF20
 859 00e2 04       		.sleb128 4
 860 00e3 00       		.byte	0
 861 00e4 04       		.uleb128 0x4
 862 00e5 8F000000 		.4byte	.LASF21
 863 00e9 04       		.byte	0x4
 864 00ea 42       		.byte	0x42
 865 00eb BD000000 		.4byte	0xbd
 866 00ef 04       		.uleb128 0x4
 867 00f0 80020000 		.4byte	.LASF22
 868 00f4 04       		.byte	0x4
 869 00f5 47       		.byte	0x47
 870 00f6 FA000000 		.4byte	0xfa
 871 00fa 0A       		.uleb128 0xa
 872 00fb 80020000 		.4byte	.LASF22
 873 00ff 10       		.byte	0x10
 874 0100 05       		.byte	0x5
 875 0101 9001     		.2byte	0x190
 876 0103 3C010000 		.4byte	0x13c
 877 0107 0B       		.uleb128 0xb
 878 0108 15000000 		.4byte	.LASF23
 879 010c 05       		.byte	0x5
 880 010d 9401     		.2byte	0x194
 881 010f E4000000 		.4byte	0xe4
 882 0113 00       		.byte	0
 883 0114 0B       		.uleb128 0xb
 884 0115 7C000000 		.4byte	.LASF24
 885 0119 05       		.byte	0x5
 886 011a 9801     		.2byte	0x198
 887 011c DD020000 		.4byte	0x2dd
 888 0120 04       		.byte	0x4
 889 0121 0B       		.uleb128 0xb
 890 0122 C4020000 		.4byte	.LASF25
 891 0126 05       		.byte	0x5
 892 0127 A001     		.2byte	0x1a0
 893 0129 88000000 		.4byte	0x88
 894 012d 08       		.byte	0x8
 895 012e 0C       		.uleb128 0xc
 896 012f 74696D00 		.ascii	"tim\000"
 897 0133 05       		.byte	0x5
 898 0134 A401     		.2byte	0x1a4
 899 0136 E8020000 		.4byte	0x2e8
 900 013a 0C       		.byte	0xc
 901 013b 00       		.byte	0
 902 013c 04       		.uleb128 0x4
 903 013d 4C000000 		.4byte	.LASF26
 904 0141 04       		.byte	0x4
 905 0142 4E       		.byte	0x4e
 906 0143 47010000 		.4byte	0x147
ARM GAS  /home/pauba/tmp/ccTWhIAm.s 			page 18


 907 0147 0D       		.uleb128 0xd
 908 0148 04       		.byte	0x4
 909 0149 4D010000 		.4byte	0x14d
 910 014d 0E       		.uleb128 0xe
 911 014e 58010000 		.4byte	0x158
 912 0152 0F       		.uleb128 0xf
 913 0153 58010000 		.4byte	0x158
 914 0157 00       		.byte	0
 915 0158 0D       		.uleb128 0xd
 916 0159 04       		.byte	0x4
 917 015a EF000000 		.4byte	0xef
 918 015e 10       		.uleb128 0x10
 919 015f 60       		.byte	0x60
 920 0160 06       		.byte	0x6
 921 0161 9E01     		.2byte	0x19e
 922 0163 77020000 		.4byte	0x277
 923 0167 0C       		.uleb128 0xc
 924 0168 43523100 		.ascii	"CR1\000"
 925 016c 06       		.byte	0x6
 926 016d 9F01     		.2byte	0x19f
 927 016f 9A000000 		.4byte	0x9a
 928 0173 00       		.byte	0
 929 0174 0C       		.uleb128 0xc
 930 0175 43523200 		.ascii	"CR2\000"
 931 0179 06       		.byte	0x6
 932 017a A001     		.2byte	0x1a0
 933 017c 9A000000 		.4byte	0x9a
 934 0180 04       		.byte	0x4
 935 0181 0B       		.uleb128 0xb
 936 0182 E9000000 		.4byte	.LASF27
 937 0186 06       		.byte	0x6
 938 0187 A101     		.2byte	0x1a1
 939 0189 9A000000 		.4byte	0x9a
 940 018d 08       		.byte	0x8
 941 018e 0B       		.uleb128 0xb
 942 018f 55010000 		.4byte	.LASF28
 943 0193 06       		.byte	0x6
 944 0194 A201     		.2byte	0x1a2
 945 0196 9A000000 		.4byte	0x9a
 946 019a 0C       		.byte	0xc
 947 019b 0C       		.uleb128 0xc
 948 019c 535200   		.ascii	"SR\000"
 949 019f 06       		.byte	0x6
 950 01a0 A301     		.2byte	0x1a3
 951 01a2 9A000000 		.4byte	0x9a
 952 01a6 10       		.byte	0x10
 953 01a7 0C       		.uleb128 0xc
 954 01a8 45475200 		.ascii	"EGR\000"
 955 01ac 06       		.byte	0x6
 956 01ad A401     		.2byte	0x1a4
 957 01af 9A000000 		.4byte	0x9a
 958 01b3 14       		.byte	0x14
 959 01b4 0B       		.uleb128 0xb
 960 01b5 E3000000 		.4byte	.LASF29
 961 01b9 06       		.byte	0x6
 962 01ba A501     		.2byte	0x1a5
 963 01bc 9A000000 		.4byte	0x9a
ARM GAS  /home/pauba/tmp/ccTWhIAm.s 			page 19


 964 01c0 18       		.byte	0x18
 965 01c1 0B       		.uleb128 0xb
 966 01c2 1B000000 		.4byte	.LASF30
 967 01c6 06       		.byte	0x6
 968 01c7 A601     		.2byte	0x1a6
 969 01c9 9A000000 		.4byte	0x9a
 970 01cd 1C       		.byte	0x1c
 971 01ce 0B       		.uleb128 0xb
 972 01cf 00000000 		.4byte	.LASF31
 973 01d3 06       		.byte	0x6
 974 01d4 A701     		.2byte	0x1a7
 975 01d6 9A000000 		.4byte	0x9a
 976 01da 20       		.byte	0x20
 977 01db 0C       		.uleb128 0xc
 978 01dc 434E5400 		.ascii	"CNT\000"
 979 01e0 06       		.byte	0x6
 980 01e1 A801     		.2byte	0x1a8
 981 01e3 9A000000 		.4byte	0x9a
 982 01e7 24       		.byte	0x24
 983 01e8 0C       		.uleb128 0xc
 984 01e9 50534300 		.ascii	"PSC\000"
 985 01ed 06       		.byte	0x6
 986 01ee A901     		.2byte	0x1a9
 987 01f0 9A000000 		.4byte	0x9a
 988 01f4 28       		.byte	0x28
 989 01f5 0C       		.uleb128 0xc
 990 01f6 41525200 		.ascii	"ARR\000"
 991 01fa 06       		.byte	0x6
 992 01fb AA01     		.2byte	0x1aa
 993 01fd 9A000000 		.4byte	0x9a
 994 0201 2C       		.byte	0x2c
 995 0202 0C       		.uleb128 0xc
 996 0203 52435200 		.ascii	"RCR\000"
 997 0207 06       		.byte	0x6
 998 0208 AB01     		.2byte	0x1ab
 999 020a 9A000000 		.4byte	0x9a
 1000 020e 30       		.byte	0x30
 1001 020f 0C       		.uleb128 0xc
 1002 0210 43435200 		.ascii	"CCR\000"
 1003 0214 06       		.byte	0x6
 1004 0215 AC01     		.2byte	0x1ac
 1005 0217 77020000 		.4byte	0x277
 1006 021b 34       		.byte	0x34
 1007 021c 0B       		.uleb128 0xb
 1008 021d 54020000 		.4byte	.LASF32
 1009 0221 06       		.byte	0x6
 1010 0222 AD01     		.2byte	0x1ad
 1011 0224 9A000000 		.4byte	0x9a
 1012 0228 44       		.byte	0x44
 1013 0229 0C       		.uleb128 0xc
 1014 022a 44435200 		.ascii	"DCR\000"
 1015 022e 06       		.byte	0x6
 1016 022f AE01     		.2byte	0x1ae
 1017 0231 9A000000 		.4byte	0x9a
 1018 0235 48       		.byte	0x48
 1019 0236 0B       		.uleb128 0xb
 1020 0237 10000000 		.4byte	.LASF33
ARM GAS  /home/pauba/tmp/ccTWhIAm.s 			page 20


 1021 023b 06       		.byte	0x6
 1022 023c AF01     		.2byte	0x1af
 1023 023e 9A000000 		.4byte	0x9a
 1024 0242 4C       		.byte	0x4c
 1025 0243 0C       		.uleb128 0xc
 1026 0244 4F5200   		.ascii	"OR\000"
 1027 0247 06       		.byte	0x6
 1028 0248 B001     		.2byte	0x1b0
 1029 024a 9A000000 		.4byte	0x9a
 1030 024e 50       		.byte	0x50
 1031 024f 0B       		.uleb128 0xb
 1032 0250 21000000 		.4byte	.LASF34
 1033 0254 06       		.byte	0x6
 1034 0255 B101     		.2byte	0x1b1
 1035 0257 9A000000 		.4byte	0x9a
 1036 025b 54       		.byte	0x54
 1037 025c 0B       		.uleb128 0xb
 1038 025d 04010000 		.4byte	.LASF35
 1039 0261 06       		.byte	0x6
 1040 0262 B201     		.2byte	0x1b2
 1041 0264 9A000000 		.4byte	0x9a
 1042 0268 58       		.byte	0x58
 1043 0269 0B       		.uleb128 0xb
 1044 026a DE000000 		.4byte	.LASF36
 1045 026e 06       		.byte	0x6
 1046 026f B301     		.2byte	0x1b3
 1047 0271 9A000000 		.4byte	0x9a
 1048 0275 5C       		.byte	0x5c
 1049 0276 00       		.byte	0
 1050 0277 05       		.uleb128 0x5
 1051 0278 AD000000 		.4byte	0xad
 1052 027c 11       		.uleb128 0x11
 1053 027d 48020000 		.4byte	.LASF37
 1054 0281 06       		.byte	0x6
 1055 0282 B401     		.2byte	0x1b4
 1056 0284 5E010000 		.4byte	0x15e
 1057 0288 11       		.uleb128 0x11
 1058 0289 4C030000 		.4byte	.LASF38
 1059 028d 05       		.byte	0x5
 1060 028e 6D01     		.2byte	0x16d
 1061 0290 88000000 		.4byte	0x88
 1062 0294 11       		.uleb128 0x11
 1063 0295 65000000 		.4byte	.LASF39
 1064 0299 05       		.byte	0x5
 1065 029a 7201     		.2byte	0x172
 1066 029c 88000000 		.4byte	0x88
 1067 02a0 10       		.uleb128 0x10
 1068 02a1 0C       		.byte	0xc
 1069 02a2 05       		.byte	0x5
 1070 02a3 7801     		.2byte	0x178
 1071 02a5 D1020000 		.4byte	0x2d1
 1072 02a9 0B       		.uleb128 0xb
 1073 02aa 27030000 		.4byte	.LASF40
 1074 02ae 05       		.byte	0x5
 1075 02af 7E01     		.2byte	0x17e
 1076 02b1 88020000 		.4byte	0x288
 1077 02b5 00       		.byte	0
ARM GAS  /home/pauba/tmp/ccTWhIAm.s 			page 21


 1078 02b6 0B       		.uleb128 0xb
 1079 02b7 5E030000 		.4byte	.LASF41
 1080 02bb 05       		.byte	0x5
 1081 02bc 8301     		.2byte	0x183
 1082 02be 3C010000 		.4byte	0x13c
 1083 02c2 04       		.byte	0x4
 1084 02c3 0B       		.uleb128 0xb
 1085 02c4 15030000 		.4byte	.LASF42
 1086 02c8 05       		.byte	0x5
 1087 02c9 8A01     		.2byte	0x18a
 1088 02cb 88000000 		.4byte	0x88
 1089 02cf 08       		.byte	0x8
 1090 02d0 00       		.byte	0
 1091 02d1 11       		.uleb128 0x11
 1092 02d2 FA020000 		.4byte	.LASF43
 1093 02d6 05       		.byte	0x5
 1094 02d7 8B01     		.2byte	0x18b
 1095 02d9 A0020000 		.4byte	0x2a0
 1096 02dd 0D       		.uleb128 0xd
 1097 02de 04       		.byte	0x4
 1098 02df E3020000 		.4byte	0x2e3
 1099 02e3 12       		.uleb128 0x12
 1100 02e4 D1020000 		.4byte	0x2d1
 1101 02e8 0D       		.uleb128 0xd
 1102 02e9 04       		.byte	0x4
 1103 02ea 7C020000 		.4byte	0x27c
 1104 02ee 13       		.uleb128 0x13
 1105 02ef FC000000 		.4byte	.LASF59
 1106 02f3 01       		.byte	0x1
 1107 02f4 44       		.byte	0x44
 1108 02f5 00000000 		.4byte	.LFB63
 1109 02f9 08000000 		.4byte	.LFE63-.LFB63
 1110 02fd 01       		.uleb128 0x1
 1111 02fe 9C       		.byte	0x9c
 1112 02ff 14       		.uleb128 0x14
 1113 0300 31030000 		.4byte	.LASF44
 1114 0304 01       		.byte	0x1
 1115 0305 50       		.byte	0x50
 1116 0306 00000000 		.4byte	.LFB64
 1117 030a 14000000 		.4byte	.LFE64-.LFB64
 1118 030e 01       		.uleb128 0x1
 1119 030f 9C       		.byte	0x9c
 1120 0310 23030000 		.4byte	0x323
 1121 0314 15       		.uleb128 0x15
 1122 0315 EB020000 		.4byte	.LASF46
 1123 0319 01       		.byte	0x1
 1124 031a 50       		.byte	0x50
 1125 031b 58010000 		.4byte	0x158
 1126 031f 02       		.uleb128 0x2
 1127 0320 91       		.byte	0x91
 1128 0321 7C       		.sleb128 -4
 1129 0322 00       		.byte	0
 1130 0323 16       		.uleb128 0x16
 1131 0324 D5000000 		.4byte	.LASF45
 1132 0328 01       		.byte	0x1
 1133 0329 5E       		.byte	0x5e
 1134 032a 00000000 		.4byte	.LFB65
ARM GAS  /home/pauba/tmp/ccTWhIAm.s 			page 22


 1135 032e 64000000 		.4byte	.LFE65-.LFB65
 1136 0332 01       		.uleb128 0x1
 1137 0333 9C       		.byte	0x9c
 1138 0334 87030000 		.4byte	0x387
 1139 0338 15       		.uleb128 0x15
 1140 0339 EB020000 		.4byte	.LASF46
 1141 033d 01       		.byte	0x1
 1142 033e 5E       		.byte	0x5e
 1143 033f 58010000 		.4byte	0x158
 1144 0343 02       		.uleb128 0x2
 1145 0344 91       		.byte	0x91
 1146 0345 74       		.sleb128 -12
 1147 0346 15       		.uleb128 0x15
 1148 0347 7C000000 		.4byte	.LASF24
 1149 034b 01       		.byte	0x1
 1150 034c 5E       		.byte	0x5e
 1151 034d DD020000 		.4byte	0x2dd
 1152 0351 02       		.uleb128 0x2
 1153 0352 91       		.byte	0x91
 1154 0353 70       		.sleb128 -16
 1155 0354 17       		.uleb128 0x17
 1156 0355 1A000000 		.4byte	.LBB2
 1157 0359 06000000 		.4byte	.LBE2-.LBB2
 1158 035d 6F030000 		.4byte	0x36f
 1159 0361 18       		.uleb128 0x18
 1160 0362 746D7000 		.ascii	"tmp\000"
 1161 0366 01       		.byte	0x1
 1162 0367 62       		.byte	0x62
 1163 0368 88000000 		.4byte	0x88
 1164 036c 01       		.uleb128 0x1
 1165 036d 53       		.byte	0x53
 1166 036e 00       		.byte	0
 1167 036f 19       		.uleb128 0x19
 1168 0370 50000000 		.4byte	.LBB3
 1169 0374 06000000 		.4byte	.LBE3-.LBB3
 1170 0378 18       		.uleb128 0x18
 1171 0379 746D7000 		.ascii	"tmp\000"
 1172 037d 01       		.byte	0x1
 1173 037e 68       		.byte	0x68
 1174 037f 88000000 		.4byte	0x88
 1175 0383 01       		.uleb128 0x1
 1176 0384 53       		.byte	0x53
 1177 0385 00       		.byte	0
 1178 0386 00       		.byte	0
 1179 0387 16       		.uleb128 0x16
 1180 0388 56030000 		.4byte	.LASF47
 1181 038c 01       		.byte	0x1
 1182 038d 72       		.byte	0x72
 1183 038e 00000000 		.4byte	.LFB66
 1184 0392 58000000 		.4byte	.LFE66-.LFB66
 1185 0396 01       		.uleb128 0x1
 1186 0397 9C       		.byte	0x9c
 1187 0398 DD030000 		.4byte	0x3dd
 1188 039c 15       		.uleb128 0x15
 1189 039d EB020000 		.4byte	.LASF46
 1190 03a1 01       		.byte	0x1
 1191 03a2 72       		.byte	0x72
ARM GAS  /home/pauba/tmp/ccTWhIAm.s 			page 23


 1192 03a3 58010000 		.4byte	0x158
 1193 03a7 02       		.uleb128 0x2
 1194 03a8 91       		.byte	0x91
 1195 03a9 74       		.sleb128 -12
 1196 03aa 17       		.uleb128 0x17
 1197 03ab 12000000 		.4byte	.LBB4
 1198 03af 06000000 		.4byte	.LBE4-.LBB4
 1199 03b3 C5030000 		.4byte	0x3c5
 1200 03b7 18       		.uleb128 0x18
 1201 03b8 746D7000 		.ascii	"tmp\000"
 1202 03bc 01       		.byte	0x1
 1203 03bd 76       		.byte	0x76
 1204 03be 88000000 		.4byte	0x88
 1205 03c2 01       		.uleb128 0x1
 1206 03c3 53       		.byte	0x53
 1207 03c4 00       		.byte	0
 1208 03c5 19       		.uleb128 0x19
 1209 03c6 42000000 		.4byte	.LBB5
 1210 03ca 06000000 		.4byte	.LBE5-.LBB5
 1211 03ce 18       		.uleb128 0x18
 1212 03cf 746D7000 		.ascii	"tmp\000"
 1213 03d3 01       		.byte	0x1
 1214 03d4 7B       		.byte	0x7b
 1215 03d5 88000000 		.4byte	0x88
 1216 03d9 01       		.uleb128 0x1
 1217 03da 53       		.byte	0x53
 1218 03db 00       		.byte	0
 1219 03dc 00       		.byte	0
 1220 03dd 16       		.uleb128 0x16
 1221 03de 31000000 		.4byte	.LASF48
 1222 03e2 01       		.byte	0x1
 1223 03e3 8B       		.byte	0x8b
 1224 03e4 00000000 		.4byte	.LFB67
 1225 03e8 50000000 		.4byte	.LFE67-.LFB67
 1226 03ec 01       		.uleb128 0x1
 1227 03ed 9C       		.byte	0x9c
 1228 03ee 41040000 		.4byte	0x441
 1229 03f2 15       		.uleb128 0x15
 1230 03f3 EB020000 		.4byte	.LASF46
 1231 03f7 01       		.byte	0x1
 1232 03f8 8B       		.byte	0x8b
 1233 03f9 58010000 		.4byte	0x158
 1234 03fd 02       		.uleb128 0x2
 1235 03fe 91       		.byte	0x91
 1236 03ff 74       		.sleb128 -12
 1237 0400 15       		.uleb128 0x15
 1238 0401 CA020000 		.4byte	.LASF49
 1239 0405 01       		.byte	0x1
 1240 0406 8B       		.byte	0x8b
 1241 0407 94020000 		.4byte	0x294
 1242 040b 02       		.uleb128 0x2
 1243 040c 91       		.byte	0x91
 1244 040d 70       		.sleb128 -16
 1245 040e 17       		.uleb128 0x17
 1246 040f 14000000 		.4byte	.LBB6
 1247 0413 06000000 		.4byte	.LBE6-.LBB6
 1248 0417 29040000 		.4byte	0x429
ARM GAS  /home/pauba/tmp/ccTWhIAm.s 			page 24


 1249 041b 18       		.uleb128 0x18
 1250 041c 746D7000 		.ascii	"tmp\000"
 1251 0420 01       		.byte	0x1
 1252 0421 8F       		.byte	0x8f
 1253 0422 88000000 		.4byte	0x88
 1254 0426 01       		.uleb128 0x1
 1255 0427 53       		.byte	0x53
 1256 0428 00       		.byte	0
 1257 0429 19       		.uleb128 0x19
 1258 042a 3A000000 		.4byte	.LBB7
 1259 042e 06000000 		.4byte	.LBE7-.LBB7
 1260 0432 18       		.uleb128 0x18
 1261 0433 746D7000 		.ascii	"tmp\000"
 1262 0437 01       		.byte	0x1
 1263 0438 93       		.byte	0x93
 1264 0439 88000000 		.4byte	0x88
 1265 043d 01       		.uleb128 0x1
 1266 043e 53       		.byte	0x53
 1267 043f 00       		.byte	0
 1268 0440 00       		.byte	0
 1269 0441 16       		.uleb128 0x16
 1270 0442 09010000 		.4byte	.LASF50
 1271 0446 01       		.byte	0x1
 1272 0447 9E       		.byte	0x9e
 1273 0448 00000000 		.4byte	.LFB68
 1274 044c 2A000000 		.4byte	.LFE68-.LFB68
 1275 0450 01       		.uleb128 0x1
 1276 0451 9C       		.byte	0x9c
 1277 0452 A5040000 		.4byte	0x4a5
 1278 0456 15       		.uleb128 0x15
 1279 0457 EB020000 		.4byte	.LASF46
 1280 045b 01       		.byte	0x1
 1281 045c 9E       		.byte	0x9e
 1282 045d 58010000 		.4byte	0x158
 1283 0461 02       		.uleb128 0x2
 1284 0462 91       		.byte	0x91
 1285 0463 74       		.sleb128 -12
 1286 0464 15       		.uleb128 0x15
 1287 0465 CA020000 		.4byte	.LASF49
 1288 0469 01       		.byte	0x1
 1289 046a 9E       		.byte	0x9e
 1290 046b 94020000 		.4byte	0x294
 1291 046f 02       		.uleb128 0x2
 1292 0470 91       		.byte	0x91
 1293 0471 70       		.sleb128 -16
 1294 0472 17       		.uleb128 0x17
 1295 0473 08000000 		.4byte	.LBB8
 1296 0477 06000000 		.4byte	.LBE8-.LBB8
 1297 047b 8D040000 		.4byte	0x48d
 1298 047f 18       		.uleb128 0x18
 1299 0480 746D7000 		.ascii	"tmp\000"
 1300 0484 01       		.byte	0x1
 1301 0485 A0       		.byte	0xa0
 1302 0486 88000000 		.4byte	0x88
 1303 048a 01       		.uleb128 0x1
 1304 048b 53       		.byte	0x53
 1305 048c 00       		.byte	0
ARM GAS  /home/pauba/tmp/ccTWhIAm.s 			page 25


 1306 048d 19       		.uleb128 0x19
 1307 048e 1E000000 		.4byte	.LBB9
 1308 0492 06000000 		.4byte	.LBE9-.LBB9
 1309 0496 18       		.uleb128 0x18
 1310 0497 746D7000 		.ascii	"tmp\000"
 1311 049b 01       		.byte	0x1
 1312 049c A2       		.byte	0xa2
 1313 049d 88000000 		.4byte	0x88
 1314 04a1 01       		.uleb128 0x1
 1315 04a2 53       		.byte	0x53
 1316 04a3 00       		.byte	0
 1317 04a4 00       		.byte	0
 1318 04a5 16       		.uleb128 0x16
 1319 04a6 B8000000 		.4byte	.LASF51
 1320 04aa 01       		.byte	0x1
 1321 04ab AD       		.byte	0xad
 1322 04ac 00000000 		.4byte	.LFB69
 1323 04b0 44000000 		.4byte	.LFE69-.LFB69
 1324 04b4 01       		.uleb128 0x1
 1325 04b5 9C       		.byte	0x9c
 1326 04b6 D7040000 		.4byte	0x4d7
 1327 04ba 15       		.uleb128 0x15
 1328 04bb EB020000 		.4byte	.LASF46
 1329 04bf 01       		.byte	0x1
 1330 04c0 AD       		.byte	0xad
 1331 04c1 58010000 		.4byte	0x158
 1332 04c5 02       		.uleb128 0x2
 1333 04c6 91       		.byte	0x91
 1334 04c7 74       		.sleb128 -12
 1335 04c8 15       		.uleb128 0x15
 1336 04c9 CA020000 		.4byte	.LASF49
 1337 04cd 01       		.byte	0x1
 1338 04ce AD       		.byte	0xad
 1339 04cf 94020000 		.4byte	0x294
 1340 04d3 02       		.uleb128 0x2
 1341 04d4 91       		.byte	0x91
 1342 04d5 70       		.sleb128 -16
 1343 04d6 00       		.byte	0
 1344 04d7 16       		.uleb128 0x16
 1345 04d8 A8000000 		.4byte	.LASF52
 1346 04dc 01       		.byte	0x1
 1347 04dd C0       		.byte	0xc0
 1348 04de 00000000 		.4byte	.LFB70
 1349 04e2 2A000000 		.4byte	.LFE70-.LFB70
 1350 04e6 01       		.uleb128 0x1
 1351 04e7 9C       		.byte	0x9c
 1352 04e8 3B050000 		.4byte	0x53b
 1353 04ec 15       		.uleb128 0x15
 1354 04ed EB020000 		.4byte	.LASF46
 1355 04f1 01       		.byte	0x1
 1356 04f2 C0       		.byte	0xc0
 1357 04f3 58010000 		.4byte	0x158
 1358 04f7 02       		.uleb128 0x2
 1359 04f8 91       		.byte	0x91
 1360 04f9 74       		.sleb128 -12
 1361 04fa 15       		.uleb128 0x15
 1362 04fb CA020000 		.4byte	.LASF49
ARM GAS  /home/pauba/tmp/ccTWhIAm.s 			page 26


 1363 04ff 01       		.byte	0x1
 1364 0500 C0       		.byte	0xc0
 1365 0501 94020000 		.4byte	0x294
 1366 0505 02       		.uleb128 0x2
 1367 0506 91       		.byte	0x91
 1368 0507 70       		.sleb128 -16
 1369 0508 17       		.uleb128 0x17
 1370 0509 08000000 		.4byte	.LBB10
 1371 050d 06000000 		.4byte	.LBE10-.LBB10
 1372 0511 23050000 		.4byte	0x523
 1373 0515 18       		.uleb128 0x18
 1374 0516 746D7000 		.ascii	"tmp\000"
 1375 051a 01       		.byte	0x1
 1376 051b C2       		.byte	0xc2
 1377 051c 88000000 		.4byte	0x88
 1378 0520 01       		.uleb128 0x1
 1379 0521 53       		.byte	0x53
 1380 0522 00       		.byte	0
 1381 0523 19       		.uleb128 0x19
 1382 0524 1E000000 		.4byte	.LBB11
 1383 0528 06000000 		.4byte	.LBE11-.LBB11
 1384 052c 18       		.uleb128 0x18
 1385 052d 746D7000 		.ascii	"tmp\000"
 1386 0531 01       		.byte	0x1
 1387 0532 C4       		.byte	0xc4
 1388 0533 88000000 		.4byte	0x88
 1389 0537 01       		.uleb128 0x1
 1390 0538 53       		.byte	0x53
 1391 0539 00       		.byte	0
 1392 053a 00       		.byte	0
 1393 053b 16       		.uleb128 0x16
 1394 053c 04030000 		.4byte	.LASF53
 1395 0540 01       		.byte	0x1
 1396 0541 CF       		.byte	0xcf
 1397 0542 00000000 		.4byte	.LFB71
 1398 0546 44000000 		.4byte	.LFE71-.LFB71
 1399 054a 01       		.uleb128 0x1
 1400 054b 9C       		.byte	0x9c
 1401 054c 6D050000 		.4byte	0x56d
 1402 0550 15       		.uleb128 0x15
 1403 0551 EB020000 		.4byte	.LASF46
 1404 0555 01       		.byte	0x1
 1405 0556 CF       		.byte	0xcf
 1406 0557 58010000 		.4byte	0x158
 1407 055b 02       		.uleb128 0x2
 1408 055c 91       		.byte	0x91
 1409 055d 74       		.sleb128 -12
 1410 055e 15       		.uleb128 0x15
 1411 055f CA020000 		.4byte	.LASF49
 1412 0563 01       		.byte	0x1
 1413 0564 CF       		.byte	0xcf
 1414 0565 94020000 		.4byte	0x294
 1415 0569 02       		.uleb128 0x2
 1416 056a 91       		.byte	0x91
 1417 056b 70       		.sleb128 -16
 1418 056c 00       		.byte	0
 1419 056d 16       		.uleb128 0x16
ARM GAS  /home/pauba/tmp/ccTWhIAm.s 			page 27


 1420 056e 1A030000 		.4byte	.LASF54
 1421 0572 01       		.byte	0x1
 1422 0573 E1       		.byte	0xe1
 1423 0574 00000000 		.4byte	.LFB72
 1424 0578 26000000 		.4byte	.LFE72-.LFB72
 1425 057c 01       		.uleb128 0x1
 1426 057d 9C       		.byte	0x9c
 1427 057e C3050000 		.4byte	0x5c3
 1428 0582 15       		.uleb128 0x15
 1429 0583 EB020000 		.4byte	.LASF46
 1430 0587 01       		.byte	0x1
 1431 0588 E1       		.byte	0xe1
 1432 0589 58010000 		.4byte	0x158
 1433 058d 02       		.uleb128 0x2
 1434 058e 91       		.byte	0x91
 1435 058f 74       		.sleb128 -12
 1436 0590 17       		.uleb128 0x17
 1437 0591 06000000 		.4byte	.LBB12
 1438 0595 06000000 		.4byte	.LBE12-.LBB12
 1439 0599 AB050000 		.4byte	0x5ab
 1440 059d 18       		.uleb128 0x18
 1441 059e 746D7000 		.ascii	"tmp\000"
 1442 05a2 01       		.byte	0x1
 1443 05a3 E3       		.byte	0xe3
 1444 05a4 88000000 		.4byte	0x88
 1445 05a8 01       		.uleb128 0x1
 1446 05a9 53       		.byte	0x53
 1447 05aa 00       		.byte	0
 1448 05ab 19       		.uleb128 0x19
 1449 05ac 1A000000 		.4byte	.LBB13
 1450 05b0 06000000 		.4byte	.LBE13-.LBB13
 1451 05b4 18       		.uleb128 0x18
 1452 05b5 746D7000 		.ascii	"tmp\000"
 1453 05b9 01       		.byte	0x1
 1454 05ba E5       		.byte	0xe5
 1455 05bb 88000000 		.4byte	0x88
 1456 05bf 01       		.uleb128 0x1
 1457 05c0 53       		.byte	0x53
 1458 05c1 00       		.byte	0
 1459 05c2 00       		.byte	0
 1460 05c3 16       		.uleb128 0x16
 1461 05c4 6E000000 		.4byte	.LASF55
 1462 05c8 01       		.byte	0x1
 1463 05c9 EF       		.byte	0xef
 1464 05ca 00000000 		.4byte	.LFB73
 1465 05ce 50000000 		.4byte	.LFE73-.LFB73
 1466 05d2 01       		.uleb128 0x1
 1467 05d3 9C       		.byte	0x9c
 1468 05d4 E7050000 		.4byte	0x5e7
 1469 05d8 15       		.uleb128 0x15
 1470 05d9 EB020000 		.4byte	.LASF46
 1471 05dd 01       		.byte	0x1
 1472 05de EF       		.byte	0xef
 1473 05df 58010000 		.4byte	0x158
 1474 05e3 02       		.uleb128 0x2
 1475 05e4 91       		.byte	0x91
 1476 05e5 74       		.sleb128 -12
ARM GAS  /home/pauba/tmp/ccTWhIAm.s 			page 28


 1477 05e6 00       		.byte	0
 1478 05e7 1A       		.uleb128 0x1a
 1479 05e8 D3020000 		.4byte	.LASF56
 1480 05ec 01       		.byte	0x1
 1481 05ed 0701     		.2byte	0x107
 1482 05ef 00000000 		.4byte	.LFB74
 1483 05f3 34000000 		.4byte	.LFE74-.LFB74
 1484 05f7 01       		.uleb128 0x1
 1485 05f8 9C       		.byte	0x9c
 1486 05f9 1C060000 		.4byte	0x61c
 1487 05fd 1B       		.uleb128 0x1b
 1488 05fe EB020000 		.4byte	.LASF46
 1489 0602 01       		.byte	0x1
 1490 0603 0701     		.2byte	0x107
 1491 0605 58010000 		.4byte	0x158
 1492 0609 02       		.uleb128 0x2
 1493 060a 91       		.byte	0x91
 1494 060b 74       		.sleb128 -12
 1495 060c 1B       		.uleb128 0x1b
 1496 060d CA020000 		.4byte	.LASF49
 1497 0611 01       		.byte	0x1
 1498 0612 0701     		.2byte	0x107
 1499 0614 94020000 		.4byte	0x294
 1500 0618 02       		.uleb128 0x2
 1501 0619 91       		.byte	0x91
 1502 061a 70       		.sleb128 -16
 1503 061b 00       		.byte	0
 1504 061c 1C       		.uleb128 0x1c
 1505 061d 3F030000 		.4byte	.LASF60
 1506 0621 07       		.byte	0x7
 1507 0622 0706     		.2byte	0x607
 1508 0624 28060000 		.4byte	0x628
 1509 0628 05       		.uleb128 0x5
 1510 0629 7D000000 		.4byte	0x7d
 1511 062d 00       		.byte	0
 1512              		.section	.debug_abbrev,"",%progbits
 1513              	.Ldebug_abbrev0:
 1514 0000 01       		.uleb128 0x1
 1515 0001 11       		.uleb128 0x11
 1516 0002 01       		.byte	0x1
 1517 0003 25       		.uleb128 0x25
 1518 0004 0E       		.uleb128 0xe
 1519 0005 13       		.uleb128 0x13
 1520 0006 0B       		.uleb128 0xb
 1521 0007 03       		.uleb128 0x3
 1522 0008 0E       		.uleb128 0xe
 1523 0009 55       		.uleb128 0x55
 1524 000a 17       		.uleb128 0x17
 1525 000b 11       		.uleb128 0x11
 1526 000c 01       		.uleb128 0x1
 1527 000d 10       		.uleb128 0x10
 1528 000e 17       		.uleb128 0x17
 1529 000f 00       		.byte	0
 1530 0010 00       		.byte	0
 1531 0011 02       		.uleb128 0x2
 1532 0012 24       		.uleb128 0x24
 1533 0013 00       		.byte	0
ARM GAS  /home/pauba/tmp/ccTWhIAm.s 			page 29


 1534 0014 0B       		.uleb128 0xb
 1535 0015 0B       		.uleb128 0xb
 1536 0016 3E       		.uleb128 0x3e
 1537 0017 0B       		.uleb128 0xb
 1538 0018 03       		.uleb128 0x3
 1539 0019 08       		.uleb128 0x8
 1540 001a 00       		.byte	0
 1541 001b 00       		.byte	0
 1542 001c 03       		.uleb128 0x3
 1543 001d 24       		.uleb128 0x24
 1544 001e 00       		.byte	0
 1545 001f 0B       		.uleb128 0xb
 1546 0020 0B       		.uleb128 0xb
 1547 0021 3E       		.uleb128 0x3e
 1548 0022 0B       		.uleb128 0xb
 1549 0023 03       		.uleb128 0x3
 1550 0024 0E       		.uleb128 0xe
 1551 0025 00       		.byte	0
 1552 0026 00       		.byte	0
 1553 0027 04       		.uleb128 0x4
 1554 0028 16       		.uleb128 0x16
 1555 0029 00       		.byte	0
 1556 002a 03       		.uleb128 0x3
 1557 002b 0E       		.uleb128 0xe
 1558 002c 3A       		.uleb128 0x3a
 1559 002d 0B       		.uleb128 0xb
 1560 002e 3B       		.uleb128 0x3b
 1561 002f 0B       		.uleb128 0xb
 1562 0030 49       		.uleb128 0x49
 1563 0031 13       		.uleb128 0x13
 1564 0032 00       		.byte	0
 1565 0033 00       		.byte	0
 1566 0034 05       		.uleb128 0x5
 1567 0035 35       		.uleb128 0x35
 1568 0036 00       		.byte	0
 1569 0037 49       		.uleb128 0x49
 1570 0038 13       		.uleb128 0x13
 1571 0039 00       		.byte	0
 1572 003a 00       		.byte	0
 1573 003b 06       		.uleb128 0x6
 1574 003c 01       		.uleb128 0x1
 1575 003d 01       		.byte	0x1
 1576 003e 49       		.uleb128 0x49
 1577 003f 13       		.uleb128 0x13
 1578 0040 01       		.uleb128 0x1
 1579 0041 13       		.uleb128 0x13
 1580 0042 00       		.byte	0
 1581 0043 00       		.byte	0
 1582 0044 07       		.uleb128 0x7
 1583 0045 21       		.uleb128 0x21
 1584 0046 00       		.byte	0
 1585 0047 49       		.uleb128 0x49
 1586 0048 13       		.uleb128 0x13
 1587 0049 2F       		.uleb128 0x2f
 1588 004a 0B       		.uleb128 0xb
 1589 004b 00       		.byte	0
 1590 004c 00       		.byte	0
ARM GAS  /home/pauba/tmp/ccTWhIAm.s 			page 30


 1591 004d 08       		.uleb128 0x8
 1592 004e 04       		.uleb128 0x4
 1593 004f 01       		.byte	0x1
 1594 0050 0B       		.uleb128 0xb
 1595 0051 0B       		.uleb128 0xb
 1596 0052 3A       		.uleb128 0x3a
 1597 0053 0B       		.uleb128 0xb
 1598 0054 3B       		.uleb128 0x3b
 1599 0055 0B       		.uleb128 0xb
 1600 0056 01       		.uleb128 0x1
 1601 0057 13       		.uleb128 0x13
 1602 0058 00       		.byte	0
 1603 0059 00       		.byte	0
 1604 005a 09       		.uleb128 0x9
 1605 005b 28       		.uleb128 0x28
 1606 005c 00       		.byte	0
 1607 005d 03       		.uleb128 0x3
 1608 005e 0E       		.uleb128 0xe
 1609 005f 1C       		.uleb128 0x1c
 1610 0060 0D       		.uleb128 0xd
 1611 0061 00       		.byte	0
 1612 0062 00       		.byte	0
 1613 0063 0A       		.uleb128 0xa
 1614 0064 13       		.uleb128 0x13
 1615 0065 01       		.byte	0x1
 1616 0066 03       		.uleb128 0x3
 1617 0067 0E       		.uleb128 0xe
 1618 0068 0B       		.uleb128 0xb
 1619 0069 0B       		.uleb128 0xb
 1620 006a 3A       		.uleb128 0x3a
 1621 006b 0B       		.uleb128 0xb
 1622 006c 3B       		.uleb128 0x3b
 1623 006d 05       		.uleb128 0x5
 1624 006e 01       		.uleb128 0x1
 1625 006f 13       		.uleb128 0x13
 1626 0070 00       		.byte	0
 1627 0071 00       		.byte	0
 1628 0072 0B       		.uleb128 0xb
 1629 0073 0D       		.uleb128 0xd
 1630 0074 00       		.byte	0
 1631 0075 03       		.uleb128 0x3
 1632 0076 0E       		.uleb128 0xe
 1633 0077 3A       		.uleb128 0x3a
 1634 0078 0B       		.uleb128 0xb
 1635 0079 3B       		.uleb128 0x3b
 1636 007a 05       		.uleb128 0x5
 1637 007b 49       		.uleb128 0x49
 1638 007c 13       		.uleb128 0x13
 1639 007d 38       		.uleb128 0x38
 1640 007e 0B       		.uleb128 0xb
 1641 007f 00       		.byte	0
 1642 0080 00       		.byte	0
 1643 0081 0C       		.uleb128 0xc
 1644 0082 0D       		.uleb128 0xd
 1645 0083 00       		.byte	0
 1646 0084 03       		.uleb128 0x3
 1647 0085 08       		.uleb128 0x8
ARM GAS  /home/pauba/tmp/ccTWhIAm.s 			page 31


 1648 0086 3A       		.uleb128 0x3a
 1649 0087 0B       		.uleb128 0xb
 1650 0088 3B       		.uleb128 0x3b
 1651 0089 05       		.uleb128 0x5
 1652 008a 49       		.uleb128 0x49
 1653 008b 13       		.uleb128 0x13
 1654 008c 38       		.uleb128 0x38
 1655 008d 0B       		.uleb128 0xb
 1656 008e 00       		.byte	0
 1657 008f 00       		.byte	0
 1658 0090 0D       		.uleb128 0xd
 1659 0091 0F       		.uleb128 0xf
 1660 0092 00       		.byte	0
 1661 0093 0B       		.uleb128 0xb
 1662 0094 0B       		.uleb128 0xb
 1663 0095 49       		.uleb128 0x49
 1664 0096 13       		.uleb128 0x13
 1665 0097 00       		.byte	0
 1666 0098 00       		.byte	0
 1667 0099 0E       		.uleb128 0xe
 1668 009a 15       		.uleb128 0x15
 1669 009b 01       		.byte	0x1
 1670 009c 27       		.uleb128 0x27
 1671 009d 19       		.uleb128 0x19
 1672 009e 01       		.uleb128 0x1
 1673 009f 13       		.uleb128 0x13
 1674 00a0 00       		.byte	0
 1675 00a1 00       		.byte	0
 1676 00a2 0F       		.uleb128 0xf
 1677 00a3 05       		.uleb128 0x5
 1678 00a4 00       		.byte	0
 1679 00a5 49       		.uleb128 0x49
 1680 00a6 13       		.uleb128 0x13
 1681 00a7 00       		.byte	0
 1682 00a8 00       		.byte	0
 1683 00a9 10       		.uleb128 0x10
 1684 00aa 13       		.uleb128 0x13
 1685 00ab 01       		.byte	0x1
 1686 00ac 0B       		.uleb128 0xb
 1687 00ad 0B       		.uleb128 0xb
 1688 00ae 3A       		.uleb128 0x3a
 1689 00af 0B       		.uleb128 0xb
 1690 00b0 3B       		.uleb128 0x3b
 1691 00b1 05       		.uleb128 0x5
 1692 00b2 01       		.uleb128 0x1
 1693 00b3 13       		.uleb128 0x13
 1694 00b4 00       		.byte	0
 1695 00b5 00       		.byte	0
 1696 00b6 11       		.uleb128 0x11
 1697 00b7 16       		.uleb128 0x16
 1698 00b8 00       		.byte	0
 1699 00b9 03       		.uleb128 0x3
 1700 00ba 0E       		.uleb128 0xe
 1701 00bb 3A       		.uleb128 0x3a
 1702 00bc 0B       		.uleb128 0xb
 1703 00bd 3B       		.uleb128 0x3b
 1704 00be 05       		.uleb128 0x5
ARM GAS  /home/pauba/tmp/ccTWhIAm.s 			page 32


 1705 00bf 49       		.uleb128 0x49
 1706 00c0 13       		.uleb128 0x13
 1707 00c1 00       		.byte	0
 1708 00c2 00       		.byte	0
 1709 00c3 12       		.uleb128 0x12
 1710 00c4 26       		.uleb128 0x26
 1711 00c5 00       		.byte	0
 1712 00c6 49       		.uleb128 0x49
 1713 00c7 13       		.uleb128 0x13
 1714 00c8 00       		.byte	0
 1715 00c9 00       		.byte	0
 1716 00ca 13       		.uleb128 0x13
 1717 00cb 2E       		.uleb128 0x2e
 1718 00cc 00       		.byte	0
 1719 00cd 3F       		.uleb128 0x3f
 1720 00ce 19       		.uleb128 0x19
 1721 00cf 03       		.uleb128 0x3
 1722 00d0 0E       		.uleb128 0xe
 1723 00d1 3A       		.uleb128 0x3a
 1724 00d2 0B       		.uleb128 0xb
 1725 00d3 3B       		.uleb128 0x3b
 1726 00d4 0B       		.uleb128 0xb
 1727 00d5 27       		.uleb128 0x27
 1728 00d6 19       		.uleb128 0x19
 1729 00d7 11       		.uleb128 0x11
 1730 00d8 01       		.uleb128 0x1
 1731 00d9 12       		.uleb128 0x12
 1732 00da 06       		.uleb128 0x6
 1733 00db 40       		.uleb128 0x40
 1734 00dc 18       		.uleb128 0x18
 1735 00dd 9642     		.uleb128 0x2116
 1736 00df 19       		.uleb128 0x19
 1737 00e0 00       		.byte	0
 1738 00e1 00       		.byte	0
 1739 00e2 14       		.uleb128 0x14
 1740 00e3 2E       		.uleb128 0x2e
 1741 00e4 01       		.byte	0x1
 1742 00e5 3F       		.uleb128 0x3f
 1743 00e6 19       		.uleb128 0x19
 1744 00e7 03       		.uleb128 0x3
 1745 00e8 0E       		.uleb128 0xe
 1746 00e9 3A       		.uleb128 0x3a
 1747 00ea 0B       		.uleb128 0xb
 1748 00eb 3B       		.uleb128 0x3b
 1749 00ec 0B       		.uleb128 0xb
 1750 00ed 27       		.uleb128 0x27
 1751 00ee 19       		.uleb128 0x19
 1752 00ef 11       		.uleb128 0x11
 1753 00f0 01       		.uleb128 0x1
 1754 00f1 12       		.uleb128 0x12
 1755 00f2 06       		.uleb128 0x6
 1756 00f3 40       		.uleb128 0x40
 1757 00f4 18       		.uleb128 0x18
 1758 00f5 9742     		.uleb128 0x2117
 1759 00f7 19       		.uleb128 0x19
 1760 00f8 01       		.uleb128 0x1
 1761 00f9 13       		.uleb128 0x13
ARM GAS  /home/pauba/tmp/ccTWhIAm.s 			page 33


 1762 00fa 00       		.byte	0
 1763 00fb 00       		.byte	0
 1764 00fc 15       		.uleb128 0x15
 1765 00fd 05       		.uleb128 0x5
 1766 00fe 00       		.byte	0
 1767 00ff 03       		.uleb128 0x3
 1768 0100 0E       		.uleb128 0xe
 1769 0101 3A       		.uleb128 0x3a
 1770 0102 0B       		.uleb128 0xb
 1771 0103 3B       		.uleb128 0x3b
 1772 0104 0B       		.uleb128 0xb
 1773 0105 49       		.uleb128 0x49
 1774 0106 13       		.uleb128 0x13
 1775 0107 02       		.uleb128 0x2
 1776 0108 18       		.uleb128 0x18
 1777 0109 00       		.byte	0
 1778 010a 00       		.byte	0
 1779 010b 16       		.uleb128 0x16
 1780 010c 2E       		.uleb128 0x2e
 1781 010d 01       		.byte	0x1
 1782 010e 3F       		.uleb128 0x3f
 1783 010f 19       		.uleb128 0x19
 1784 0110 03       		.uleb128 0x3
 1785 0111 0E       		.uleb128 0xe
 1786 0112 3A       		.uleb128 0x3a
 1787 0113 0B       		.uleb128 0xb
 1788 0114 3B       		.uleb128 0x3b
 1789 0115 0B       		.uleb128 0xb
 1790 0116 27       		.uleb128 0x27
 1791 0117 19       		.uleb128 0x19
 1792 0118 11       		.uleb128 0x11
 1793 0119 01       		.uleb128 0x1
 1794 011a 12       		.uleb128 0x12
 1795 011b 06       		.uleb128 0x6
 1796 011c 40       		.uleb128 0x40
 1797 011d 18       		.uleb128 0x18
 1798 011e 9642     		.uleb128 0x2116
 1799 0120 19       		.uleb128 0x19
 1800 0121 01       		.uleb128 0x1
 1801 0122 13       		.uleb128 0x13
 1802 0123 00       		.byte	0
 1803 0124 00       		.byte	0
 1804 0125 17       		.uleb128 0x17
 1805 0126 0B       		.uleb128 0xb
 1806 0127 01       		.byte	0x1
 1807 0128 11       		.uleb128 0x11
 1808 0129 01       		.uleb128 0x1
 1809 012a 12       		.uleb128 0x12
 1810 012b 06       		.uleb128 0x6
 1811 012c 01       		.uleb128 0x1
 1812 012d 13       		.uleb128 0x13
 1813 012e 00       		.byte	0
 1814 012f 00       		.byte	0
 1815 0130 18       		.uleb128 0x18
 1816 0131 34       		.uleb128 0x34
 1817 0132 00       		.byte	0
 1818 0133 03       		.uleb128 0x3
ARM GAS  /home/pauba/tmp/ccTWhIAm.s 			page 34


 1819 0134 08       		.uleb128 0x8
 1820 0135 3A       		.uleb128 0x3a
 1821 0136 0B       		.uleb128 0xb
 1822 0137 3B       		.uleb128 0x3b
 1823 0138 0B       		.uleb128 0xb
 1824 0139 49       		.uleb128 0x49
 1825 013a 13       		.uleb128 0x13
 1826 013b 02       		.uleb128 0x2
 1827 013c 18       		.uleb128 0x18
 1828 013d 00       		.byte	0
 1829 013e 00       		.byte	0
 1830 013f 19       		.uleb128 0x19
 1831 0140 0B       		.uleb128 0xb
 1832 0141 01       		.byte	0x1
 1833 0142 11       		.uleb128 0x11
 1834 0143 01       		.uleb128 0x1
 1835 0144 12       		.uleb128 0x12
 1836 0145 06       		.uleb128 0x6
 1837 0146 00       		.byte	0
 1838 0147 00       		.byte	0
 1839 0148 1A       		.uleb128 0x1a
 1840 0149 2E       		.uleb128 0x2e
 1841 014a 01       		.byte	0x1
 1842 014b 3F       		.uleb128 0x3f
 1843 014c 19       		.uleb128 0x19
 1844 014d 03       		.uleb128 0x3
 1845 014e 0E       		.uleb128 0xe
 1846 014f 3A       		.uleb128 0x3a
 1847 0150 0B       		.uleb128 0xb
 1848 0151 3B       		.uleb128 0x3b
 1849 0152 05       		.uleb128 0x5
 1850 0153 27       		.uleb128 0x27
 1851 0154 19       		.uleb128 0x19
 1852 0155 11       		.uleb128 0x11
 1853 0156 01       		.uleb128 0x1
 1854 0157 12       		.uleb128 0x12
 1855 0158 06       		.uleb128 0x6
 1856 0159 40       		.uleb128 0x40
 1857 015a 18       		.uleb128 0x18
 1858 015b 9642     		.uleb128 0x2116
 1859 015d 19       		.uleb128 0x19
 1860 015e 01       		.uleb128 0x1
 1861 015f 13       		.uleb128 0x13
 1862 0160 00       		.byte	0
 1863 0161 00       		.byte	0
 1864 0162 1B       		.uleb128 0x1b
 1865 0163 05       		.uleb128 0x5
 1866 0164 00       		.byte	0
 1867 0165 03       		.uleb128 0x3
 1868 0166 0E       		.uleb128 0xe
 1869 0167 3A       		.uleb128 0x3a
 1870 0168 0B       		.uleb128 0xb
 1871 0169 3B       		.uleb128 0x3b
 1872 016a 05       		.uleb128 0x5
 1873 016b 49       		.uleb128 0x49
 1874 016c 13       		.uleb128 0x13
 1875 016d 02       		.uleb128 0x2
ARM GAS  /home/pauba/tmp/ccTWhIAm.s 			page 35


 1876 016e 18       		.uleb128 0x18
 1877 016f 00       		.byte	0
 1878 0170 00       		.byte	0
 1879 0171 1C       		.uleb128 0x1c
 1880 0172 34       		.uleb128 0x34
 1881 0173 00       		.byte	0
 1882 0174 03       		.uleb128 0x3
 1883 0175 0E       		.uleb128 0xe
 1884 0176 3A       		.uleb128 0x3a
 1885 0177 0B       		.uleb128 0xb
 1886 0178 3B       		.uleb128 0x3b
 1887 0179 05       		.uleb128 0x5
 1888 017a 49       		.uleb128 0x49
 1889 017b 13       		.uleb128 0x13
 1890 017c 3F       		.uleb128 0x3f
 1891 017d 19       		.uleb128 0x19
 1892 017e 3C       		.uleb128 0x3c
 1893 017f 19       		.uleb128 0x19
 1894 0180 00       		.byte	0
 1895 0181 00       		.byte	0
 1896 0182 00       		.byte	0
 1897              		.section	.debug_aranges,"",%progbits
 1898 0000 74000000 		.4byte	0x74
 1899 0004 0200     		.2byte	0x2
 1900 0006 00000000 		.4byte	.Ldebug_info0
 1901 000a 04       		.byte	0x4
 1902 000b 00       		.byte	0
 1903 000c 0000     		.2byte	0
 1904 000e 0000     		.2byte	0
 1905 0010 00000000 		.4byte	.LFB63
 1906 0014 08000000 		.4byte	.LFE63-.LFB63
 1907 0018 00000000 		.4byte	.LFB64
 1908 001c 14000000 		.4byte	.LFE64-.LFB64
 1909 0020 00000000 		.4byte	.LFB65
 1910 0024 64000000 		.4byte	.LFE65-.LFB65
 1911 0028 00000000 		.4byte	.LFB66
 1912 002c 58000000 		.4byte	.LFE66-.LFB66
 1913 0030 00000000 		.4byte	.LFB67
 1914 0034 50000000 		.4byte	.LFE67-.LFB67
 1915 0038 00000000 		.4byte	.LFB68
 1916 003c 2A000000 		.4byte	.LFE68-.LFB68
 1917 0040 00000000 		.4byte	.LFB69
 1918 0044 44000000 		.4byte	.LFE69-.LFB69
 1919 0048 00000000 		.4byte	.LFB70
 1920 004c 2A000000 		.4byte	.LFE70-.LFB70
 1921 0050 00000000 		.4byte	.LFB71
 1922 0054 44000000 		.4byte	.LFE71-.LFB71
 1923 0058 00000000 		.4byte	.LFB72
 1924 005c 26000000 		.4byte	.LFE72-.LFB72
 1925 0060 00000000 		.4byte	.LFB73
 1926 0064 50000000 		.4byte	.LFE73-.LFB73
 1927 0068 00000000 		.4byte	.LFB74
 1928 006c 34000000 		.4byte	.LFE74-.LFB74
 1929 0070 00000000 		.4byte	0
 1930 0074 00000000 		.4byte	0
 1931              		.section	.debug_ranges,"",%progbits
 1932              	.Ldebug_ranges0:
ARM GAS  /home/pauba/tmp/ccTWhIAm.s 			page 36


 1933 0000 00000000 		.4byte	.LFB63
 1934 0004 08000000 		.4byte	.LFE63
 1935 0008 00000000 		.4byte	.LFB64
 1936 000c 14000000 		.4byte	.LFE64
 1937 0010 00000000 		.4byte	.LFB65
 1938 0014 64000000 		.4byte	.LFE65
 1939 0018 00000000 		.4byte	.LFB66
 1940 001c 58000000 		.4byte	.LFE66
 1941 0020 00000000 		.4byte	.LFB67
 1942 0024 50000000 		.4byte	.LFE67
 1943 0028 00000000 		.4byte	.LFB68
 1944 002c 2A000000 		.4byte	.LFE68
 1945 0030 00000000 		.4byte	.LFB69
 1946 0034 44000000 		.4byte	.LFE69
 1947 0038 00000000 		.4byte	.LFB70
 1948 003c 2A000000 		.4byte	.LFE70
 1949 0040 00000000 		.4byte	.LFB71
 1950 0044 44000000 		.4byte	.LFE71
 1951 0048 00000000 		.4byte	.LFB72
 1952 004c 26000000 		.4byte	.LFE72
 1953 0050 00000000 		.4byte	.LFB73
 1954 0054 50000000 		.4byte	.LFE73
 1955 0058 00000000 		.4byte	.LFB74
 1956 005c 34000000 		.4byte	.LFE74
 1957 0060 00000000 		.4byte	0
 1958 0064 00000000 		.4byte	0
 1959              		.section	.debug_line,"",%progbits
 1960              	.Ldebug_line0:
 1961 0000 02030000 		.section	.debug_str,"MS",%progbits,1
 1961      02009F01 
 1961      00000201 
 1961      FB0E0D00 
 1961      01010101 
 1962              	.LASF31:
 1963 0000 43434552 		.ascii	"CCER\000"
 1963      00
 1964              	.LASF16:
 1965 0005 4750545F 		.ascii	"GPT_UNINIT\000"
 1965      554E494E 
 1965      495400
 1966              	.LASF33:
 1967 0010 444D4152 		.ascii	"DMAR\000"
 1967      00
 1968              	.LASF23:
 1969 0015 73746174 		.ascii	"state\000"
 1969      6500
 1970              	.LASF30:
 1971 001b 43434D52 		.ascii	"CCMR2\000"
 1971      3200
 1972              	.LASF34:
 1973 0021 43434D52 		.ascii	"CCMR3\000"
 1973      3300
 1974              	.LASF3:
 1975 0027 73686F72 		.ascii	"short int\000"
 1975      7420696E 
 1975      7400
 1976              	.LASF48:
ARM GAS  /home/pauba/tmp/ccTWhIAm.s 			page 37


 1977 0031 67707443 		.ascii	"gptChangeInterval\000"
 1977      68616E67 
 1977      65496E74 
 1977      65727661 
 1977      6C00
 1978              	.LASF14:
 1979 0043 73697A65 		.ascii	"sizetype\000"
 1979      74797065 
 1979      00
 1980              	.LASF26:
 1981 004c 67707463 		.ascii	"gptcallback_t\000"
 1981      616C6C62 
 1981      61636B5F 
 1981      7400
 1982              	.LASF7:
 1983 005a 5F5F7569 		.ascii	"__uint32_t\000"
 1983      6E743332 
 1983      5F7400
 1984              	.LASF39:
 1985 0065 67707463 		.ascii	"gptcnt_t\000"
 1985      6E745F74 
 1985      00
 1986              	.LASF55:
 1987 006e 67707453 		.ascii	"gptStopTimerI\000"
 1987      746F7054 
 1987      696D6572 
 1987      4900
 1988              	.LASF24:
 1989 007c 636F6E66 		.ascii	"config\000"
 1989      696700
 1990              	.LASF20:
 1991 0083 4750545F 		.ascii	"GPT_ONESHOT\000"
 1991      4F4E4553 
 1991      484F5400 
 1992              	.LASF21:
 1993 008f 67707473 		.ascii	"gptstate_t\000"
 1993      74617465 
 1993      5F7400
 1994              	.LASF9:
 1995 009a 6C6F6E67 		.ascii	"long long int\000"
 1995      206C6F6E 
 1995      6720696E 
 1995      7400
 1996              	.LASF52:
 1997 00a8 67707453 		.ascii	"gptStartOneShot\000"
 1997      74617274 
 1997      4F6E6553 
 1997      686F7400 
 1998              	.LASF51:
 1999 00b8 67707453 		.ascii	"gptStartContinuousI\000"
 1999      74617274 
 1999      436F6E74 
 1999      696E756F 
 1999      75734900 
 2000              	.LASF5:
 2001 00cc 6C6F6E67 		.ascii	"long int\000"
 2001      20696E74 
ARM GAS  /home/pauba/tmp/ccTWhIAm.s 			page 38


 2001      00
 2002              	.LASF45:
 2003 00d5 67707453 		.ascii	"gptStart\000"
 2003      74617274 
 2003      00
 2004              	.LASF36:
 2005 00de 43435236 		.ascii	"CCR6\000"
 2005      00
 2006              	.LASF29:
 2007 00e3 43434D52 		.ascii	"CCMR1\000"
 2007      3100
 2008              	.LASF27:
 2009 00e9 534D4352 		.ascii	"SMCR\000"
 2009      00
 2010              	.LASF2:
 2011 00ee 756E7369 		.ascii	"unsigned char\000"
 2011      676E6564 
 2011      20636861 
 2011      7200
 2012              	.LASF59:
 2013 00fc 67707449 		.ascii	"gptInit\000"
 2013      6E697400 
 2014              	.LASF35:
 2015 0104 43435235 		.ascii	"CCR5\000"
 2015      00
 2016              	.LASF50:
 2017 0109 67707453 		.ascii	"gptStartContinuous\000"
 2017      74617274 
 2017      436F6E74 
 2017      696E756F 
 2017      757300
 2018              	.LASF1:
 2019 011c 7369676E 		.ascii	"signed char\000"
 2019      65642063 
 2019      68617200 
 2020              	.LASF10:
 2021 0128 6C6F6E67 		.ascii	"long long unsigned int\000"
 2021      206C6F6E 
 2021      6720756E 
 2021      7369676E 
 2021      65642069 
 2022              	.LASF12:
 2023 013f 75696E74 		.ascii	"uint32_t\000"
 2023      33325F74 
 2023      00
 2024              	.LASF0:
 2025 0148 756E7369 		.ascii	"unsigned int\000"
 2025      676E6564 
 2025      20696E74 
 2025      00
 2026              	.LASF28:
 2027 0155 44494552 		.ascii	"DIER\000"
 2027      00
 2028              	.LASF57:
 2029 015a 474E5520 		.ascii	"GNU C 4.8.3 20140228 (release) [ARM/embedded-4_8-br"
 2029      4320342E 
 2029      382E3320 
ARM GAS  /home/pauba/tmp/ccTWhIAm.s 			page 39


 2029      32303134 
 2029      30323238 
 2030 018d 616E6368 		.ascii	"anch revision 208322] -mcpu=cortex-m4 -mno-thumb-in"
 2030      20726576 
 2030      6973696F 
 2030      6E203230 
 2030      38333232 
 2031 01c0 74657277 		.ascii	"terwork -mthumb -ggdb -fomit-frame-pointer -falign-"
 2031      6F726B20 
 2031      2D6D7468 
 2031      756D6220 
 2031      2D676764 
 2032 01f3 66756E63 		.ascii	"functions=16 -ffunction-sections -fdata-sections -f"
 2032      74696F6E 
 2032      733D3136 
 2032      202D6666 
 2032      756E6374 
 2033 0226 6E6F2D63 		.ascii	"no-common\000"
 2033      6F6D6D6F 
 2033      6E00
 2034              	.LASF4:
 2035 0230 73686F72 		.ascii	"short unsigned int\000"
 2035      7420756E 
 2035      7369676E 
 2035      65642069 
 2035      6E7400
 2036              	.LASF15:
 2037 0243 63686172 		.ascii	"char\000"
 2037      00
 2038              	.LASF37:
 2039 0248 73746D33 		.ascii	"stm32_tim_t\000"
 2039      325F7469 
 2039      6D5F7400 
 2040              	.LASF32:
 2041 0254 42445452 		.ascii	"BDTR\000"
 2041      00
 2042              	.LASF11:
 2043 0259 696E7433 		.ascii	"int32_t\000"
 2043      325F7400 
 2044              	.LASF13:
 2045 0261 5F426F6F 		.ascii	"_Bool\000"
 2045      6C00
 2046              	.LASF19:
 2047 0267 4750545F 		.ascii	"GPT_CONTINUOUS\000"
 2047      434F4E54 
 2047      494E554F 
 2047      555300
 2048              	.LASF18:
 2049 0276 4750545F 		.ascii	"GPT_READY\000"
 2049      52454144 
 2049      5900
 2050              	.LASF22:
 2051 0280 47505444 		.ascii	"GPTDriver\000"
 2051      72697665 
 2051      7200
 2052              	.LASF58:
 2053 028a 2F686F6D 		.ascii	"/home/pauba/ChibiOS-RT/os/hal/src/gpt.c\000"
ARM GAS  /home/pauba/tmp/ccTWhIAm.s 			page 40


 2053      652F7061 
 2053      7562612F 
 2053      43686962 
 2053      694F532D 
 2054              	.LASF8:
 2055 02b2 6C6F6E67 		.ascii	"long unsigned int\000"
 2055      20756E73 
 2055      69676E65 
 2055      6420696E 
 2055      7400
 2056              	.LASF25:
 2057 02c4 636C6F63 		.ascii	"clock\000"
 2057      6B00
 2058              	.LASF49:
 2059 02ca 696E7465 		.ascii	"interval\000"
 2059      7276616C 
 2059      00
 2060              	.LASF56:
 2061 02d3 67707450 		.ascii	"gptPolledDelay\000"
 2061      6F6C6C65 
 2061      6444656C 
 2061      617900
 2062              	.LASF17:
 2063 02e2 4750545F 		.ascii	"GPT_STOP\000"
 2063      53544F50 
 2063      00
 2064              	.LASF46:
 2065 02eb 67707470 		.ascii	"gptp\000"
 2065      00
 2066              	.LASF6:
 2067 02f0 5F5F696E 		.ascii	"__int32_t\000"
 2067      7433325F 
 2067      7400
 2068              	.LASF43:
 2069 02fa 47505443 		.ascii	"GPTConfig\000"
 2069      6F6E6669 
 2069      6700
 2070              	.LASF53:
 2071 0304 67707453 		.ascii	"gptStartOneShotI\000"
 2071      74617274 
 2071      4F6E6553 
 2071      686F7449 
 2071      00
 2072              	.LASF42:
 2073 0315 64696572 		.ascii	"dier\000"
 2073      00
 2074              	.LASF54:
 2075 031a 67707453 		.ascii	"gptStopTimer\000"
 2075      746F7054 
 2075      696D6572 
 2075      00
 2076              	.LASF40:
 2077 0327 66726571 		.ascii	"frequency\000"
 2077      75656E63 
 2077      7900
 2078              	.LASF44:
 2079 0331 6770744F 		.ascii	"gptObjectInit\000"
ARM GAS  /home/pauba/tmp/ccTWhIAm.s 			page 41


 2079      626A6563 
 2079      74496E69 
 2079      7400
 2080              	.LASF60:
 2081 033f 49544D5F 		.ascii	"ITM_RxBuffer\000"
 2081      52784275 
 2081      66666572 
 2081      00
 2082              	.LASF38:
 2083 034c 67707466 		.ascii	"gptfreq_t\000"
 2083      7265715F 
 2083      7400
 2084              	.LASF47:
 2085 0356 67707453 		.ascii	"gptStop\000"
 2085      746F7000 
 2086              	.LASF41:
 2087 035e 63616C6C 		.ascii	"callback\000"
 2087      6261636B 
 2087      00
 2088              		.ident	"GCC: (GNU Tools for ARM Embedded Processors) 4.8.3 20140228 (release) [ARM/embedded-4_8-br
ARM GAS  /home/pauba/tmp/ccTWhIAm.s 			page 42


DEFINED SYMBOLS
                            *ABS*:00000000 gpt.c
/home/pauba/tmp/ccTWhIAm.s:19     .text.gptInit:00000000 $t
/home/pauba/tmp/ccTWhIAm.s:25     .text.gptInit:00000000 gptInit
/home/pauba/tmp/ccTWhIAm.s:44     .text.gptObjectInit:00000000 $t
/home/pauba/tmp/ccTWhIAm.s:50     .text.gptObjectInit:00000000 gptObjectInit
/home/pauba/tmp/ccTWhIAm.s:76     .rodata:00000000 $d
/home/pauba/tmp/ccTWhIAm.s:83     .text.gptStart:00000000 $t
/home/pauba/tmp/ccTWhIAm.s:89     .text.gptStart:00000000 gptStart
/home/pauba/tmp/ccTWhIAm.s:164    .text.gptStart:0000005c $d
/home/pauba/tmp/ccTWhIAm.s:177    .text.gptStop:00000000 $t
/home/pauba/tmp/ccTWhIAm.s:183    .text.gptStop:00000000 gptStop
/home/pauba/tmp/ccTWhIAm.s:248    .text.gptStop:00000050 $d
/home/pauba/tmp/ccTWhIAm.s:261    .text.gptChangeInterval:00000000 $t
/home/pauba/tmp/ccTWhIAm.s:267    .text.gptChangeInterval:00000000 gptChangeInterval
/home/pauba/tmp/ccTWhIAm.s:328    .text.gptChangeInterval:00000048 $d
/home/pauba/tmp/ccTWhIAm.s:334    .text.gptStartContinuous:00000000 $t
/home/pauba/tmp/ccTWhIAm.s:340    .text.gptStartContinuous:00000000 gptStartContinuous
/home/pauba/tmp/ccTWhIAm.s:396    .text.gptStartContinuousI:00000000 gptStartContinuousI
/home/pauba/tmp/ccTWhIAm.s:390    .text.gptStartContinuousI:00000000 $t
/home/pauba/tmp/ccTWhIAm.s:443    .text.gptStartContinuousI:0000003c $d
/home/pauba/tmp/ccTWhIAm.s:449    .text.gptStartOneShot:00000000 $t
/home/pauba/tmp/ccTWhIAm.s:455    .text.gptStartOneShot:00000000 gptStartOneShot
/home/pauba/tmp/ccTWhIAm.s:511    .text.gptStartOneShotI:00000000 gptStartOneShotI
/home/pauba/tmp/ccTWhIAm.s:505    .text.gptStartOneShotI:00000000 $t
/home/pauba/tmp/ccTWhIAm.s:558    .text.gptStartOneShotI:0000003c $d
/home/pauba/tmp/ccTWhIAm.s:564    .text.gptStopTimer:00000000 $t
/home/pauba/tmp/ccTWhIAm.s:570    .text.gptStopTimer:00000000 gptStopTimer
/home/pauba/tmp/ccTWhIAm.s:624    .text.gptStopTimerI:00000000 gptStopTimerI
/home/pauba/tmp/ccTWhIAm.s:618    .text.gptStopTimerI:00000000 $t
/home/pauba/tmp/ccTWhIAm.s:677    .text.gptStopTimerI:00000048 $d
/home/pauba/tmp/ccTWhIAm.s:687    .text.gptPolledDelay:00000000 $t
/home/pauba/tmp/ccTWhIAm.s:693    .text.gptPolledDelay:00000000 gptPolledDelay
/home/pauba/tmp/ccTWhIAm.s:734    .text.gptPolledDelay:00000030 $d
                     .debug_frame:00000010 $d
/home/pauba/tmp/ccTWhIAm.s:169    .text.gptStart:00000064 $t
/home/pauba/tmp/ccTWhIAm.s:253    .text.gptStop:00000058 $t
/home/pauba/tmp/ccTWhIAm.s:448    .text.gptStartContinuousI:00000044 $t
/home/pauba/tmp/ccTWhIAm.s:563    .text.gptStartOneShotI:00000044 $t
/home/pauba/tmp/ccTWhIAm.s:738    .text.gptPolledDelay:00000034 $t

UNDEFINED SYMBOLS
gpt_lld_init
chDbgPanic
dbg_check_lock
gpt_lld_start
dbg_check_unlock
gpt_lld_stop
chDbgCheckClassI
gpt_lld_start_timer
gpt_lld_stop_timer
gpt_lld_polled_delay
