ARM GAS  /home/pauba/tmp/ccKPD1nV.s 			page 1


   1              		.syntax unified
   2              		.cpu cortex-m4
   3              		.fpu softvfp
   4              		.eabi_attribute 20, 1
   5              		.eabi_attribute 21, 1
   6              		.eabi_attribute 23, 3
   7              		.eabi_attribute 24, 1
   8              		.eabi_attribute 25, 1
   9              		.eabi_attribute 26, 1
  10              		.eabi_attribute 30, 6
  11              		.eabi_attribute 34, 1
  12              		.eabi_attribute 18, 4
  13              		.thumb
  14              		.file	"hal.c"
  15              		.text
  16              	.Ltext0:
  17              		.cfi_sections	.debug_frame
  18              		.section	.text.halInit,"ax",%progbits
  19              		.align	2
  20              		.p2align 4,,15
  21              		.global	halInit
  22              		.thumb
  23              		.thumb_func
  24              		.type	halInit, %function
  25              	halInit:
  26              	.LFB63:
  27              		.file 1 "/home/pauba/ChibiOS-RT/os/hal/src/hal.c"
  28              		.loc 1 68 0
  29              		.cfi_startproc
  30              		@ args = 0, pretend = 0, frame = 0
  31              		@ frame_needed = 0, uses_anonymous_args = 0
  32 0000 08B5     		push	{r3, lr}
  33              		.cfi_def_cfa_offset 8
  34              		.cfi_offset 3, -8
  35              		.cfi_offset 14, -4
  36              		.loc 1 70 0
  37 0002 FFF7FEFF 		bl	hal_lld_init
  38              		.loc 1 76 0
  39 0006 0748     		ldr	r0, .L2
  40 0008 FFF7FEFF 		bl	_pal_lld_init
  41              		.loc 1 79 0
  42 000c FFF7FEFF 		bl	adcInit
  43              		.loc 1 85 0
  44 0010 FFF7FEFF 		bl	extInit
  45              		.loc 1 88 0
  46 0014 FFF7FEFF 		bl	gptInit
  47              		.loc 1 103 0
  48 0018 FFF7FEFF 		bl	sdInit
  49              		.loc 1 127 0
  50 001c FFF7FEFF 		bl	boardInit
  51              		.loc 1 128 0
  52 0020 08BD     		pop	{r3, pc}
  53              	.L3:
  54 0022 00BF     		.align	2
  55              	.L2:
  56 0024 00000000 		.word	pal_default_config
  57              		.cfi_endproc
ARM GAS  /home/pauba/tmp/ccKPD1nV.s 			page 2


  58              	.LFE63:
  59              		.size	halInit, .-halInit
  60 0028 AFF30080 		.section	.text.halIsCounterWithin,"ax",%progbits
  60      AFF30080 
  61              		.align	2
  62              		.p2align 4,,15
  63              		.global	halIsCounterWithin
  64              		.thumb
  65              		.thumb_func
  66              		.type	halIsCounterWithin, %function
  67              	halIsCounterWithin:
  68              	.LFB64:
  69              		.loc 1 174 0
  70              		.cfi_startproc
  71              		@ args = 0, pretend = 0, frame = 16
  72              		@ frame_needed = 0, uses_anonymous_args = 0
  73              		@ link register save eliminated.
  74 0000 84B0     		sub	sp, sp, #16
  75              		.cfi_def_cfa_offset 16
  76 0002 0190     		str	r0, [sp, #4]
  77 0004 0091     		str	r1, [sp]
  78              		.loc 1 175 0
  79 0006 134B     		ldr	r3, .L13
  80 0008 5B68     		ldr	r3, [r3, #4]
  81 000a 0393     		str	r3, [sp, #12]
  82              		.loc 1 177 0
  83 000c 009A     		ldr	r2, [sp]
  84 000e 019B     		ldr	r3, [sp, #4]
  85 0010 9A42     		cmp	r2, r3
  86 0012 0ED9     		bls	.L5
  87              		.loc 1 177 0 is_stmt 0 discriminator 1
  88 0014 039A     		ldr	r2, [sp, #12]
  89 0016 019B     		ldr	r3, [sp, #4]
  90 0018 9A42     		cmp	r2, r3
  91 001a 05D3     		bcc	.L6
  92 001c 039A     		ldr	r2, [sp, #12]
  93 001e 009B     		ldr	r3, [sp]
  94 0020 9A42     		cmp	r2, r3
  95 0022 01D2     		bcs	.L6
  96              		.loc 1 177 0 discriminator 3
  97 0024 0123     		movs	r3, #1
  98 0026 00E0     		b	.L7
  99              	.L6:
 100              		.loc 1 177 0 discriminator 2
 101 0028 0023     		movs	r3, #0
 102              	.L7:
 103              		.loc 1 177 0 discriminator 4
 104 002a 03F00103 		and	r3, r3, #1
 105 002e DBB2     		uxtb	r3, r3
 106 0030 0DE0     		b	.L8
 107              	.L5:
 108              		.loc 1 178 0 is_stmt 1
 109 0032 039A     		ldr	r2, [sp, #12]
 110 0034 019B     		ldr	r3, [sp, #4]
 111 0036 9A42     		cmp	r2, r3
 112 0038 03D2     		bcs	.L9
 113              		.loc 1 178 0 is_stmt 0 discriminator 2
ARM GAS  /home/pauba/tmp/ccKPD1nV.s 			page 3


 114 003a 039A     		ldr	r2, [sp, #12]
 115 003c 009B     		ldr	r3, [sp]
 116 003e 9A42     		cmp	r2, r3
 117 0040 01D2     		bcs	.L10
 118              	.L9:
 119              		.loc 1 178 0 discriminator 1
 120 0042 0123     		movs	r3, #1
 121 0044 00E0     		b	.L11
 122              	.L10:
 123              		.loc 1 178 0 discriminator 3
 124 0046 0023     		movs	r3, #0
 125              	.L11:
 126              		.loc 1 177 0 is_stmt 1
 127 0048 03F00103 		and	r3, r3, #1
 128 004c DBB2     		uxtb	r3, r3
 129              	.L8:
 130              		.loc 1 179 0 discriminator 2
 131 004e 1846     		mov	r0, r3
 132 0050 04B0     		add	sp, sp, #16
 133              		@ sp needed
 134 0052 7047     		bx	lr
 135              	.L14:
 136              		.align	2
 137              	.L13:
 138 0054 001000E0 		.word	-536866816
 139              		.cfi_endproc
 140              	.LFE64:
 141              		.size	halIsCounterWithin, .-halIsCounterWithin
 142 0058 AFF30080 		.section	.text.halPolledDelay,"ax",%progbits
 142      AFF30080 
 143              		.align	2
 144              		.p2align 4,,15
 145              		.global	halPolledDelay
 146              		.thumb
 147              		.thumb_func
 148              		.type	halPolledDelay, %function
 149              	halPolledDelay:
 150              	.LFB65:
 151              		.loc 1 193 0
 152              		.cfi_startproc
 153              		@ args = 0, pretend = 0, frame = 16
 154              		@ frame_needed = 0, uses_anonymous_args = 0
 155 0000 00B5     		push	{lr}
 156              		.cfi_def_cfa_offset 4
 157              		.cfi_offset 14, -4
 158 0002 85B0     		sub	sp, sp, #20
 159              		.cfi_def_cfa_offset 24
 160 0004 0190     		str	r0, [sp, #4]
 161              		.loc 1 194 0
 162 0006 094B     		ldr	r3, .L17
 163 0008 5B68     		ldr	r3, [r3, #4]
 164 000a 0393     		str	r3, [sp, #12]
 165              		.loc 1 195 0
 166 000c 039A     		ldr	r2, [sp, #12]
 167 000e 019B     		ldr	r3, [sp, #4]
 168 0010 1344     		add	r3, r3, r2
 169 0012 0293     		str	r3, [sp, #8]
ARM GAS  /home/pauba/tmp/ccKPD1nV.s 			page 4


 170              		.loc 1 196 0
 171 0014 00BF     		nop
 172              	.L16:
 173              		.loc 1 196 0 is_stmt 0 discriminator 1
 174 0016 0398     		ldr	r0, [sp, #12]
 175 0018 0299     		ldr	r1, [sp, #8]
 176 001a FFF7FEFF 		bl	halIsCounterWithin
 177 001e 0346     		mov	r3, r0
 178 0020 002B     		cmp	r3, #0
 179 0022 F8D1     		bne	.L16
 180              		.loc 1 198 0 is_stmt 1
 181 0024 05B0     		add	sp, sp, #20
 182              		@ sp needed
 183 0026 5DF804FB 		ldr	pc, [sp], #4
 184              	.L18:
 185 002a 00BF     		.align	2
 186              	.L17:
 187 002c 001000E0 		.word	-536866816
 188              		.cfi_endproc
 189              	.LFE65:
 190              		.size	halPolledDelay, .-halPolledDelay
 191              		.text
 192              	.Letext0:
 193              		.file 2 "/opt/gcc-arm-none-eabi-4_8-2014q1/arm-none-eabi/include/machine/_default_types.h"
 194              		.file 3 "/opt/gcc-arm-none-eabi-4_8-2014q1/arm-none-eabi/include/stdint.h"
 195              		.file 4 "/home/pauba/ChibiOS-RT/os/ports/GCC/ARMCMx/chtypes.h"
 196              		.file 5 "/home/pauba/ChibiOS-RT/os/ports/common/ARMCMx/nvic.h"
 197              		.file 6 "/home/pauba/ChibiOS-RT/os/hal/platforms/STM32L1xx/hal_lld.h"
 198              		.file 7 "/home/pauba/ChibiOS-RT/os/hal/platforms/STM32/GPIOv2/pal_lld.h"
 199              		.file 8 "/home/pauba/ChibiOS-RT/os/ports/common/ARMCMx/CMSIS/include/core_cm3.h"