ARM GAS  /home/pauba/tmp/ccRJ7Dzn.s 			page 1


   1              		.syntax unified
   2              		.cpu cortex-m4
   3              		.fpu softvfp
   4              		.eabi_attribute 20, 1
   5              		.eabi_attribute 21, 1
   6              		.eabi_attribute 23, 3
   7              		.eabi_attribute 24, 1
   8              		.eabi_attribute 25, 1
   9              		.eabi_attribute 26, 1
  10              		.eabi_attribute 30, 6
  11              		.eabi_attribute 34, 1
  12              		.eabi_attribute 18, 4
  13              		.thumb
  14              		.file	"led.c"
  15              		.text
  16              	.Ltext0:
  17              		.cfi_sections	.debug_frame
  18              		.section	.bss.ledcommINTR,"aw",%nobits
  19              		.align	2
  20              		.type	ledcommINTR, %object
  21              		.size	ledcommINTR, 12
  22              	ledcommINTR:
  23 0000 00000000 		.space	12
  23      00000000 
  23      00000000 
  24              		.section	.text.ledCommOn,"ax",%progbits
  25              		.align	2
  26              		.p2align 4,,15
  27              		.global	ledCommOn
  28              		.thumb
  29              		.thumb_func
  30              		.type	ledCommOn, %function
  31              	ledCommOn:
  32              	.LFB63:
  33              		.file 1 "/home/pauba/ChibiOS-RT/ext/LEDComm/led.c"
  34              		.loc 1 9 0
  35              		.cfi_startproc
  36              		@ args = 0, pretend = 0, frame = 8
  37              		@ frame_needed = 0, uses_anonymous_args = 0
  38              		@ link register save eliminated.
  39 0000 82B0     		sub	sp, sp, #8
  40              		.cfi_def_cfa_offset 8
  41 0002 0190     		str	r0, [sp, #4]
  42              		.loc 1 10 0
  43 0004 019B     		ldr	r3, [sp, #4]
  44 0006 5B6F     		ldr	r3, [r3, #116]
  45 0008 019A     		ldr	r2, [sp, #4]
  46 000a 926F     		ldr	r2, [r2, #120]
  47 000c 0121     		movs	r1, #1
  48 000e 01FA02F2 		lsl	r2, r1, r2
  49 0012 92B2     		uxth	r2, r2
  50 0014 1A83     		strh	r2, [r3, #24]	@ movhi
  51              		.loc 1 11 0
  52 0016 019B     		ldr	r3, [sp, #4]
  53 0018 DB6F     		ldr	r3, [r3, #124]
  54 001a 019A     		ldr	r2, [sp, #4]
  55 001c D2F88020 		ldr	r2, [r2, #128]
ARM GAS  /home/pauba/tmp/ccRJ7Dzn.s 			page 2


  56 0020 0121     		movs	r1, #1
  57 0022 01FA02F2 		lsl	r2, r1, r2
  58 0026 92B2     		uxth	r2, r2
  59 0028 5A83     		strh	r2, [r3, #26]	@ movhi
  60              		.loc 1 12 0
  61 002a 02B0     		add	sp, sp, #8
  62              		@ sp needed
  63 002c 7047     		bx	lr
  64              		.cfi_endproc
  65              	.LFE63:
  66              		.size	ledCommOn, .-ledCommOn
  67 002e 00BF     		.section	.text.ledCommOff,"ax",%progbits
  68              		.align	2
  69              		.p2align 4,,15
  70              		.global	ledCommOff
  71              		.thumb
  72              		.thumb_func
  73              		.type	ledCommOff, %function
  74              	ledCommOff:
  75              	.LFB64:
  76              		.loc 1 14 0
  77              		.cfi_startproc
  78              		@ args = 0, pretend = 0, frame = 8
  79              		@ frame_needed = 0, uses_anonymous_args = 0
  80              		@ link register save eliminated.
  81 0000 82B0     		sub	sp, sp, #8
  82              		.cfi_def_cfa_offset 8
  83 0002 0190     		str	r0, [sp, #4]
  84              		.loc 1 15 0
  85 0004 019B     		ldr	r3, [sp, #4]
  86 0006 5B6F     		ldr	r3, [r3, #116]
  87 0008 019A     		ldr	r2, [sp, #4]
  88 000a 926F     		ldr	r2, [r2, #120]
  89 000c 0121     		movs	r1, #1
  90 000e 01FA02F2 		lsl	r2, r1, r2
  91 0012 92B2     		uxth	r2, r2
  92 0014 5A83     		strh	r2, [r3, #26]	@ movhi
  93              		.loc 1 16 0
  94 0016 019B     		ldr	r3, [sp, #4]
  95 0018 DB6F     		ldr	r3, [r3, #124]
  96 001a 019A     		ldr	r2, [sp, #4]
  97 001c D2F88020 		ldr	r2, [r2, #128]
  98 0020 0121     		movs	r1, #1
  99 0022 01FA02F2 		lsl	r2, r1, r2
 100 0026 92B2     		uxth	r2, r2
 101 0028 5A83     		strh	r2, [r3, #26]	@ movhi
 102              		.loc 1 17 0
 103 002a 02B0     		add	sp, sp, #8
 104              		@ sp needed
 105 002c 7047     		bx	lr
 106              		.cfi_endproc
 107              	.LFE64:
 108              		.size	ledCommOff, .-ledCommOff
 109 002e 00BF     		.section	.text.ledCommReverse,"ax",%progbits
 110              		.align	2
 111              		.p2align 4,,15
 112              		.thumb
ARM GAS  /home/pauba/tmp/ccRJ7Dzn.s 			page 3


 113              		.thumb_func
 114              		.type	ledCommReverse, %function
 115              	ledCommReverse:
 116              	.LFB65:
 117              		.loc 1 19 0
 118              		.cfi_startproc
 119              		@ args = 0, pretend = 0, frame = 8
 120              		@ frame_needed = 0, uses_anonymous_args = 0
 121              		@ link register save eliminated.
 122 0000 82B0     		sub	sp, sp, #8
 123              		.cfi_def_cfa_offset 8
 124 0002 0190     		str	r0, [sp, #4]
 125              		.loc 1 20 0
 126 0004 019B     		ldr	r3, [sp, #4]
 127 0006 5B6F     		ldr	r3, [r3, #116]
 128 0008 019A     		ldr	r2, [sp, #4]
 129 000a 926F     		ldr	r2, [r2, #120]
 130 000c 0121     		movs	r1, #1
 131 000e 01FA02F2 		lsl	r2, r1, r2
 132 0012 92B2     		uxth	r2, r2
 133 0014 5A83     		strh	r2, [r3, #26]	@ movhi
 134              		.loc 1 21 0
 135 0016 019B     		ldr	r3, [sp, #4]
 136 0018 DB6F     		ldr	r3, [r3, #124]
 137 001a 019A     		ldr	r2, [sp, #4]
 138 001c D2F88020 		ldr	r2, [r2, #128]
 139 0020 0121     		movs	r1, #1
 140 0022 01FA02F2 		lsl	r2, r1, r2
 141 0026 92B2     		uxth	r2, r2
 142 0028 1A83     		strh	r2, [r3, #24]	@ movhi
 143              		.loc 1 22 0
 144 002a 02B0     		add	sp, sp, #8
 145              		@ sp needed
 146 002c 7047     		bx	lr
 147              		.cfi_endproc
 148              	.LFE65:
 149              		.size	ledCommReverse, .-ledCommReverse
 150 002e 00BF     		.section	.text.ledCommInitPad,"ax",%progbits
 151              		.align	2
 152              		.p2align 4,,15
 153              		.global	ledCommInitPad
 154              		.thumb
 155              		.thumb_func
 156              		.type	ledCommInitPad, %function
 157              	ledCommInitPad:
 158              	.LFB66:
 159              		.loc 1 24 0
 160              		.cfi_startproc
 161              		@ args = 0, pretend = 0, frame = 8
 162              		@ frame_needed = 0, uses_anonymous_args = 0
 163 0000 00B5     		push	{lr}
 164              		.cfi_def_cfa_offset 4
 165              		.cfi_offset 14, -4
 166 0002 83B0     		sub	sp, sp, #12
 167              		.cfi_def_cfa_offset 16
 168 0004 0190     		str	r0, [sp, #4]
 169              		.loc 1 25 0
ARM GAS  /home/pauba/tmp/ccRJ7Dzn.s 			page 4


 170 0006 019B     		ldr	r3, [sp, #4]
 171 0008 5A6F     		ldr	r2, [r3, #116]
 172 000a 019B     		ldr	r3, [sp, #4]
 173 000c 9B6F     		ldr	r3, [r3, #120]
 174 000e 0121     		movs	r1, #1
 175 0010 01FA03F3 		lsl	r3, r1, r3
 176 0014 1046     		mov	r0, r2
 177 0016 1946     		mov	r1, r3
 178 0018 0122     		movs	r2, #1
 179 001a FFF7FEFF 		bl	_pal_lld_setgroupmode
 180              		.loc 1 26 0
 181 001e 019B     		ldr	r3, [sp, #4]
 182 0020 DA6F     		ldr	r2, [r3, #124]
 183 0022 019B     		ldr	r3, [sp, #4]
 184 0024 D3F88030 		ldr	r3, [r3, #128]
 185 0028 0121     		movs	r1, #1
 186 002a 01FA03F3 		lsl	r3, r1, r3
 187 002e 1046     		mov	r0, r2
 188 0030 1946     		mov	r1, r3
 189 0032 0122     		movs	r2, #1
 190 0034 FFF7FEFF 		bl	_pal_lld_setgroupmode
 191              		.loc 1 27 0
 192 0038 03B0     		add	sp, sp, #12
 193              		@ sp needed
 194 003a 5DF804FB 		ldr	pc, [sp], #4
 195              		.cfi_endproc
 196              	.LFE66:
 197              		.size	ledCommInitPad, .-ledCommInitPad
 198 003e 00BF     		.section	.text.ledCommCountTrailingHighBits,"ax",%progbits
 199              		.align	2
 200              		.p2align 4,,15
 201              		.thumb
 202              		.thumb_func
 203              		.type	ledCommCountTrailingHighBits, %function
 204              	ledCommCountTrailingHighBits:
 205              	.LFB67:
 206              		.loc 1 34 0
 207              		.cfi_startproc
 208              		@ args = 0, pretend = 0, frame = 16
 209              		@ frame_needed = 0, uses_anonymous_args = 0
 210              		@ link register save eliminated.
 211 0000 84B0     		sub	sp, sp, #16
 212              		.cfi_def_cfa_offset 16
 213 0002 0346     		mov	r3, r0
 214 0004 ADF80630 		strh	r3, [sp, #6]	@ movhi
 215              		.loc 1 35 0
 216 0008 BDF80620 		ldrh	r2, [sp, #6]
 217 000c 4FF6FF73 		movw	r3, #65535
 218 0010 9A42     		cmp	r2, r3
 219 0012 01D1     		bne	.L6
 220              		.loc 1 37 0
 221 0014 1023     		movs	r3, #16
 222 0016 65E0     		b	.L7
 223              	.L6:
 224              	.LBB12:
 225              		.loc 1 39 0
 226 0018 0023     		movs	r3, #0
ARM GAS  /home/pauba/tmp/ccRJ7Dzn.s 			page 5


 227 001a 8DF80F30 		strb	r3, [sp, #15]
 228              		.loc 1 41 0
 229 001e BDF80630 		ldrh	r3, [sp, #6]
 230 0022 C3F30B02 		ubfx	r2, r3, #0, #12
 231 0026 40F6FF73 		movw	r3, #4095
 232 002a 9A42     		cmp	r2, r3
 233 002c 09D1     		bne	.L8
 234              		.loc 1 42 0
 235 002e BDF80630 		ldrh	r3, [sp, #6]
 236 0032 1B0B     		lsrs	r3, r3, #12
 237 0034 ADF80630 		strh	r3, [sp, #6]	@ movhi
 238              		.loc 1 43 0
 239 0038 9DF80F30 		ldrb	r3, [sp, #15]
 240 003c 0C33     		adds	r3, r3, #12
 241 003e 8DF80F30 		strb	r3, [sp, #15]
 242              	.L8:
 243              		.loc 1 45 0
 244 0042 BDF80630 		ldrh	r3, [sp, #6]
 245 0046 DBB2     		uxtb	r3, r3
 246 0048 FF2B     		cmp	r3, #255
 247 004a 09D1     		bne	.L9
 248              		.loc 1 46 0
 249 004c BDF80630 		ldrh	r3, [sp, #6]
 250 0050 1B0A     		lsrs	r3, r3, #8
 251 0052 ADF80630 		strh	r3, [sp, #6]	@ movhi
 252              		.loc 1 47 0
 253 0056 9DF80F30 		ldrb	r3, [sp, #15]
 254 005a 0833     		adds	r3, r3, #8
 255 005c 8DF80F30 		strb	r3, [sp, #15]
 256              	.L9:
 257              		.loc 1 49 0
 258 0060 BDF80630 		ldrh	r3, [sp, #6]
 259 0064 03F00F03 		and	r3, r3, #15
 260 0068 0F2B     		cmp	r3, #15
 261 006a 09D1     		bne	.L10
 262              		.loc 1 50 0
 263 006c BDF80630 		ldrh	r3, [sp, #6]
 264 0070 1B09     		lsrs	r3, r3, #4
 265 0072 ADF80630 		strh	r3, [sp, #6]	@ movhi
 266              		.loc 1 51 0
 267 0076 9DF80F30 		ldrb	r3, [sp, #15]
 268 007a 0433     		adds	r3, r3, #4
 269 007c 8DF80F30 		strb	r3, [sp, #15]
 270              	.L10:
 271              		.loc 1 53 0
 272 0080 BDF80630 		ldrh	r3, [sp, #6]
 273 0084 03F00703 		and	r3, r3, #7
 274 0088 072B     		cmp	r3, #7
 275 008a 09D1     		bne	.L11
 276              		.loc 1 54 0
 277 008c BDF80630 		ldrh	r3, [sp, #6]
 278 0090 DB08     		lsrs	r3, r3, #3
 279 0092 ADF80630 		strh	r3, [sp, #6]	@ movhi
 280              		.loc 1 55 0
 281 0096 9DF80F30 		ldrb	r3, [sp, #15]
 282 009a 0333     		adds	r3, r3, #3
 283 009c 8DF80F30 		strb	r3, [sp, #15]
ARM GAS  /home/pauba/tmp/ccRJ7Dzn.s 			page 6


 284              	.L11:
 285              		.loc 1 57 0
 286 00a0 BDF80630 		ldrh	r3, [sp, #6]
 287 00a4 03F00303 		and	r3, r3, #3
 288 00a8 032B     		cmp	r3, #3
 289 00aa 09D1     		bne	.L12
 290              		.loc 1 58 0
 291 00ac BDF80630 		ldrh	r3, [sp, #6]
 292 00b0 9B08     		lsrs	r3, r3, #2
 293 00b2 ADF80630 		strh	r3, [sp, #6]	@ movhi
 294              		.loc 1 59 0
 295 00b6 9DF80F30 		ldrb	r3, [sp, #15]
 296 00ba 0233     		adds	r3, r3, #2
 297 00bc 8DF80F30 		strb	r3, [sp, #15]
 298              	.L12:
 299              		.loc 1 61 0
 300 00c0 BDF80630 		ldrh	r3, [sp, #6]
 301 00c4 03F00103 		and	r3, r3, #1
 302 00c8 002B     		cmp	r3, #0
 303 00ca 09D0     		beq	.L13
 304              		.loc 1 62 0
 305 00cc BDF80630 		ldrh	r3, [sp, #6]
 306 00d0 5B08     		lsrs	r3, r3, #1
 307 00d2 ADF80630 		strh	r3, [sp, #6]	@ movhi
 308              		.loc 1 63 0
 309 00d6 9DF80F30 		ldrb	r3, [sp, #15]
 310 00da 0133     		adds	r3, r3, #1
 311 00dc 8DF80F30 		strb	r3, [sp, #15]
 312              	.L13:
 313              		.loc 1 66 0
 314 00e0 9DF80F30 		ldrb	r3, [sp, #15]	@ zero_extendqisi2
 315              	.L7:
 316              	.LBE12:
 317              		.loc 1 68 0
 318 00e4 1846     		mov	r0, r3
 319 00e6 04B0     		add	sp, sp, #16
 320              		@ sp needed
 321 00e8 7047     		bx	lr
 322              		.cfi_endproc
 323              	.LFE67:
 324              		.size	ledCommCountTrailingHighBits, .-ledCommCountTrailingHighBits
 325 00ea 00BFAFF3 		.section	.text.ledCommClassify,"ax",%progbits
 325      0080
 326              		.align	2
 327              		.p2align 4,,15
 328              		.global	ledCommClassify
 329              		.thumb
 330              		.thumb_func
 331              		.type	ledCommClassify, %function
 332              	ledCommClassify:
 333              	.LFB68:
 334              		.loc 1 71 0
 335              		.cfi_startproc
 336              		@ args = 0, pretend = 0, frame = 8
 337              		@ frame_needed = 0, uses_anonymous_args = 0
 338 0000 00B5     		push	{lr}
 339              		.cfi_def_cfa_offset 4
ARM GAS  /home/pauba/tmp/ccRJ7Dzn.s 			page 7


 340              		.cfi_offset 14, -4
 341 0002 83B0     		sub	sp, sp, #12
 342              		.cfi_def_cfa_offset 16
 343 0004 0346     		mov	r3, r0
 344 0006 ADF80630 		strh	r3, [sp, #6]	@ movhi
 345              		.loc 1 72 0
 346 000a BDF80630 		ldrh	r3, [sp, #6]
 347 000e 1846     		mov	r0, r3
 348 0010 FFF7FEFF 		bl	ledCommCountTrailingHighBits
 349 0014 0346     		mov	r3, r0
 350 0016 033B     		subs	r3, r3, #3
 351 0018 0B2B     		cmp	r3, #11
 352 001a 21D8     		bhi	.L15
 353 001c 01A2     		adr	r2, .L17
 354 001e 52F823F0 		ldr	pc, [r2, r3, lsl #2]
 355 0022 00BF     		.p2align 2
 356              	.L17:
 357 0024 55000000 		.word	.L16+1
 358 0028 55000000 		.word	.L16+1
 359 002c 55000000 		.word	.L16+1
 360 0030 55000000 		.word	.L16+1
 361 0034 59000000 		.word	.L18+1
 362 0038 59000000 		.word	.L18+1
 363 003c 59000000 		.word	.L18+1
 364 0040 59000000 		.word	.L18+1
 365 0044 5D000000 		.word	.L19+1
 366 0048 5D000000 		.word	.L19+1
 367 004c 5D000000 		.word	.L19+1
 368 0050 5D000000 		.word	.L19+1
 369              	.L16:
 370              		.loc 1 77 0
 371 0054 0123     		movs	r3, #1
 372 0056 04E0     		b	.L20
 373              	.L18:
 374              		.loc 1 84 0
 375 0058 0023     		movs	r3, #0
 376 005a 02E0     		b	.L20
 377              	.L19:
 378              		.loc 1 91 0
 379 005c 0223     		movs	r3, #2
 380 005e 00E0     		b	.L20
 381              	.L15:
 382              		.loc 1 95 0
 383 0060 0323     		movs	r3, #3
 384              	.L20:
 385              		.loc 1 98 0
 386 0062 1846     		mov	r0, r3
 387 0064 03B0     		add	sp, sp, #12
 388              		@ sp needed
 389 0066 5DF804FB 		ldr	pc, [sp], #4
 390              		.cfi_endproc
 391              	.LFE68:
 392              		.size	ledCommClassify, .-ledCommClassify
 393 006a 00BFAFF3 		.section	.text.ledCommSaveBit,"ax",%progbits
 393      0080
 394              		.align	2
 395              		.p2align 4,,15
ARM GAS  /home/pauba/tmp/ccRJ7Dzn.s 			page 8


 396              		.thumb
 397              		.thumb_func
 398              		.type	ledCommSaveBit, %function
 399              	ledCommSaveBit:
 400              	.LFB69:
 401              		.loc 1 101 0
 402              		.cfi_startproc
 403              		@ args = 0, pretend = 0, frame = 16
 404              		@ frame_needed = 0, uses_anonymous_args = 0
 405 0000 00B5     		push	{lr}
 406              		.cfi_def_cfa_offset 4
 407              		.cfi_offset 14, -4
 408 0002 85B0     		sub	sp, sp, #20
 409              		.cfi_def_cfa_offset 24
 410 0004 0190     		str	r0, [sp, #4]
 411              		.loc 1 103 0
 412 0006 019B     		ldr	r3, [sp, #4]
 413 0008 B3F88C30 		ldrh	r3, [r3, #140]
 414 000c 9B08     		lsrs	r3, r3, #2
 415 000e 9BB2     		uxth	r3, r3
 416 0010 1846     		mov	r0, r3
 417 0012 FFF7FEFF 		bl	ledCommClassify
 418 0016 0346     		mov	r3, r0
 419 0018 8DF80F30 		strb	r3, [sp, #15]
 420              		.loc 1 104 0
 421 001c 0198     		ldr	r0, [sp, #4]
 422 001e FFF7FEFF 		bl	isLinkUp
 423 0022 0346     		mov	r3, r0
 424 0024 002B     		cmp	r3, #0
 425 0026 55D0     		beq	.L22
 426              		.loc 1 105 0
 427 0028 9DF80F30 		ldrb	r3, [sp, #15]	@ zero_extendqisi2
 428 002c 032B     		cmp	r3, #3
 429 002e 03D1     		bne	.L23
 430              		.loc 1 106 0
 431 0030 0198     		ldr	r0, [sp, #4]
 432 0032 FFF7FEFF 		bl	linkDown
 433 0036 8CE0     		b	.L21
 434              	.L23:
 435              		.loc 1 107 0
 436 0038 9DF80F30 		ldrb	r3, [sp, #15]	@ zero_extendqisi2
 437 003c 022B     		cmp	r3, #2
 438 003e 34D1     		bne	.L25
 439              		.loc 1 109 0
 440 0040 019B     		ldr	r3, [sp, #4]
 441 0042 93F88B30 		ldrb	r3, [r3, #139]	@ zero_extendqisi2
 442 0046 DAB2     		uxtb	r2, r3
 443 0048 019B     		ldr	r3, [sp, #4]
 444 004a 93F88630 		ldrb	r3, [r3, #134]
 445 004e C3F34013 		ubfx	r3, r3, #5, #1
 446 0052 DBB2     		uxtb	r3, r3
 447 0054 012B     		cmp	r3, #1
 448 0056 01D1     		bne	.L26
 449              		.loc 1 109 0 is_stmt 0 discriminator 1
 450 0058 7F23     		movs	r3, #127
 451 005a 00E0     		b	.L27
 452              	.L26:
ARM GAS  /home/pauba/tmp/ccRJ7Dzn.s 			page 9


 453              		.loc 1 109 0 discriminator 2
 454 005c FF23     		movs	r3, #255
 455              	.L27:
 456 005e 1340     		ands	r3, r3, r2
 457 0060 DBB2     		uxtb	r3, r3
 458 0062 DAB2     		uxtb	r2, r3
 459 0064 019B     		ldr	r3, [sp, #4]
 460 0066 83F88B20 		strb	r2, [r3, #139]
 461              	.LBB13:
 462              		.loc 1 111 0 is_stmt 1 discriminator 2
 463 006a 2023     		movs	r3, #32
 464              	@ 111 "/home/pauba/ChibiOS-RT/ext/LEDComm/led.c" 1
 465 006c 83F31188 		msr     BASEPRI, r3
 466              	@ 0 "" 2
 467              		.thumb
 468              	.LBE13:
 469 0070 FFF7FEFF 		bl	dbg_check_lock
 470              		.loc 1 115 0 discriminator 2
 471 0074 019B     		ldr	r3, [sp, #4]
 472 0076 93F88B30 		ldrb	r3, [r3, #139]	@ zero_extendqisi2
 473 007a 0198     		ldr	r0, [sp, #4]
 474 007c 1946     		mov	r1, r3
 475 007e FFF7FEFF 		bl	ldIncomingDataI
 476              		.loc 1 117 0 discriminator 2
 477 0082 FFF7FEFF 		bl	dbg_check_unlock
 478              	.LBB14:
 479 0086 0023     		movs	r3, #0
 480              	@ 117 "/home/pauba/ChibiOS-RT/ext/LEDComm/led.c" 1
 481 0088 83F31188 		msr     BASEPRI, r3
 482              	@ 0 "" 2
 483              		.thumb
 484              	.LBE14:
 485              		.loc 1 121 0 discriminator 2
 486 008c 019A     		ldr	r2, [sp, #4]
 487 008e 92F88730 		ldrb	r3, [r2, #135]
 488 0092 43F04003 		orr	r3, r3, #64
 489 0096 82F88730 		strb	r3, [r2, #135]
 490              		.loc 1 122 0 discriminator 2
 491 009a 019A     		ldr	r2, [sp, #4]
 492 009c 92F88930 		ldrb	r3, [r2, #137]
 493 00a0 6FF30303 		bfc	r3, #0, #4
 494 00a4 82F88930 		strb	r3, [r2, #137]
 495 00a8 53E0     		b	.L21
 496              	.L25:
 497              		.loc 1 124 0
 498 00aa 019B     		ldr	r3, [sp, #4]
 499 00ac 93F88B30 		ldrb	r3, [r3, #139]	@ zero_extendqisi2
 500 00b0 5B00     		lsls	r3, r3, #1
 501 00b2 DAB2     		uxtb	r2, r3
 502 00b4 019B     		ldr	r3, [sp, #4]
 503 00b6 83F88B20 		strb	r2, [r3, #139]
 504              		.loc 1 125 0
 505 00ba 9DF80F30 		ldrb	r3, [sp, #15]	@ zero_extendqisi2
 506 00be 012B     		cmp	r3, #1
 507 00c0 47D1     		bne	.L21
 508              		.loc 1 126 0
 509 00c2 019B     		ldr	r3, [sp, #4]
ARM GAS  /home/pauba/tmp/ccRJ7Dzn.s 			page 10


 510 00c4 93F88B30 		ldrb	r3, [r3, #139]	@ zero_extendqisi2
 511 00c8 0133     		adds	r3, r3, #1
 512 00ca DAB2     		uxtb	r2, r3
 513 00cc 019B     		ldr	r3, [sp, #4]
 514 00ce 83F88B20 		strb	r2, [r3, #139]
 515 00d2 3EE0     		b	.L21
 516              	.L22:
 517              		.loc 1 129 0
 518 00d4 9DF80F30 		ldrb	r3, [sp, #15]	@ zero_extendqisi2
 519 00d8 002B     		cmp	r3, #0
 520 00da 3AD1     		bne	.L21
 521              		.loc 1 132 0
 522 00dc 019B     		ldr	r3, [sp, #4]
 523 00de B3F88C30 		ldrh	r3, [r3, #140]
 524 00e2 5B00     		lsls	r3, r3, #1
 525 00e4 9AB2     		uxth	r2, r3
 526 00e6 019B     		ldr	r3, [sp, #4]
 527 00e8 A3F88C20 		strh	r2, [r3, #140]	@ movhi
 528              		.loc 1 133 0
 529 00ec 019B     		ldr	r3, [sp, #4]
 530 00ee 93F88630 		ldrb	r3, [r3, #134]
 531 00f2 C3F30403 		ubfx	r3, r3, #0, #5
 532 00f6 DBB2     		uxtb	r3, r3
 533 00f8 013B     		subs	r3, r3, #1
 534 00fa DBB2     		uxtb	r3, r3
 535 00fc 03F01F03 		and	r3, r3, #31
 536 0100 D9B2     		uxtb	r1, r3
 537 0102 019A     		ldr	r2, [sp, #4]
 538 0104 92F88630 		ldrb	r3, [r2, #134]
 539 0108 61F30403 		bfi	r3, r1, #0, #5
 540 010c 82F88630 		strb	r3, [r2, #134]
 541              		.loc 1 134 0
 542 0110 019B     		ldr	r3, [sp, #4]
 543 0112 93F88630 		ldrb	r3, [r3, #134]
 544 0116 C3F30403 		ubfx	r3, r3, #0, #5
 545 011a DBB2     		uxtb	r3, r3
 546 011c 002B     		cmp	r3, #0
 547 011e 18DC     		bgt	.L21
 548              		.loc 1 136 0
 549 0120 019B     		ldr	r3, [sp, #4]
 550 0122 0022     		movs	r2, #0
 551 0124 83F88B20 		strb	r2, [r3, #139]
 552              		.loc 1 137 0
 553 0128 019B     		ldr	r3, [sp, #4]
 554 012a 93F88630 		ldrb	r3, [r3, #134]
 555 012e C3F34013 		ubfx	r3, r3, #5, #1
 556 0132 DBB2     		uxtb	r3, r3
 557 0134 012B     		cmp	r3, #1
 558 0136 01D1     		bne	.L29
 559              		.loc 1 137 0 is_stmt 0 discriminator 1
 560 0138 0721     		movs	r1, #7
 561 013a 00E0     		b	.L30
 562              	.L29:
 563              		.loc 1 137 0 discriminator 2
 564 013c 0821     		movs	r1, #8
 565              	.L30:
 566              		.loc 1 137 0 discriminator 3
ARM GAS  /home/pauba/tmp/ccRJ7Dzn.s 			page 11


 567 013e 019A     		ldr	r2, [sp, #4]
 568 0140 92F88930 		ldrb	r3, [r2, #137]
 569 0144 61F30303 		bfi	r3, r1, #0, #4
 570 0148 82F88930 		strb	r3, [r2, #137]
 571              		.loc 1 138 0 is_stmt 1 discriminator 3
 572 014c 0198     		ldr	r0, [sp, #4]
 573 014e FFF7FEFF 		bl	linkUp
 574              	.L21:
 575              		.loc 1 141 0
 576 0152 05B0     		add	sp, sp, #20
 577              		@ sp needed
 578 0154 5DF804FB 		ldr	pc, [sp], #4
 579              		.cfi_endproc
 580              	.LFE69:
 581              		.size	ledCommSaveBit, .-ledCommSaveBit
 582 0158 AFF30080 		.section	.text.ledCommDetect,"ax",%progbits
 582      AFF30080 
 583              		.align	2
 584              		.p2align 4,,15
 585              		.global	ledCommDetect
 586              		.thumb
 587              		.thumb_func
 588              		.type	ledCommDetect, %function
 589              	ledCommDetect:
 590              	.LFB70:
 591              		.loc 1 144 0
 592              		.cfi_startproc
 593              		@ args = 0, pretend = 0, frame = 8
 594              		@ frame_needed = 0, uses_anonymous_args = 0
 595 0000 00B5     		push	{lr}
 596              		.cfi_def_cfa_offset 4
 597              		.cfi_offset 14, -4
 598 0002 83B0     		sub	sp, sp, #12
 599              		.cfi_def_cfa_offset 16
 600 0004 0190     		str	r0, [sp, #4]
 601              		.loc 1 145 0
 602 0006 019B     		ldr	r3, [sp, #4]
 603 0008 DB6F     		ldr	r3, [r3, #124]
 604 000a 019A     		ldr	r2, [sp, #4]
 605 000c D2F88020 		ldr	r2, [r2, #128]
 606 0010 0121     		movs	r1, #1
 607 0012 01FA02F2 		lsl	r2, r1, r2
 608 0016 92B2     		uxth	r2, r2
 609 0018 5A83     		strh	r2, [r3, #26]	@ movhi
 610              		.loc 1 146 0
 611 001a 019B     		ldr	r3, [sp, #4]
 612 001c DA6F     		ldr	r2, [r3, #124]
 613 001e 019B     		ldr	r3, [sp, #4]
 614 0020 D3F88030 		ldr	r3, [r3, #128]
 615 0024 0121     		movs	r1, #1
 616 0026 01FA03F3 		lsl	r3, r1, r3
 617 002a 1046     		mov	r0, r2
 618 002c 1946     		mov	r1, r3
 619 002e 0122     		movs	r2, #1
 620 0030 FFF7FEFF 		bl	_pal_lld_setgroupmode
 621              		.loc 1 148 0
 622 0034 019B     		ldr	r3, [sp, #4]
ARM GAS  /home/pauba/tmp/ccRJ7Dzn.s 			page 12


 623 0036 B3F88C30 		ldrh	r3, [r3, #140]
 624 003a 03F01F03 		and	r3, r3, #31
 625 003e 1C2B     		cmp	r3, #28
 626 0040 0BD1     		bne	.L32
 627              		.loc 1 150 0
 628 0042 019B     		ldr	r3, [sp, #4]
 629 0044 0022     		movs	r2, #0
 630 0046 83F89420 		strb	r2, [r3, #148]
 631              		.loc 1 151 0
 632 004a 0198     		ldr	r0, [sp, #4]
 633 004c FFF7FEFF 		bl	ledCommSaveBit
 634              		.loc 1 152 0
 635 0050 019B     		ldr	r3, [sp, #4]
 636 0052 0022     		movs	r2, #0
 637 0054 A3F88C20 		strh	r2, [r3, #140]	@ movhi
 638 0058 07E0     		b	.L31
 639              	.L32:
 640              		.loc 1 154 0
 641 005a 019B     		ldr	r3, [sp, #4]
 642 005c B3F88C30 		ldrh	r3, [r3, #140]
 643 0060 5B00     		lsls	r3, r3, #1
 644 0062 9AB2     		uxth	r2, r3
 645 0064 019B     		ldr	r3, [sp, #4]
 646 0066 A3F88C20 		strh	r2, [r3, #140]	@ movhi
 647              	.L31:
 648              		.loc 1 156 0
 649 006a 03B0     		add	sp, sp, #12
 650              		@ sp needed
 651 006c 5DF804FB 		ldr	pc, [sp], #4
 652              		.cfi_endproc
 653              	.LFE70:
 654              		.size	ledCommDetect, .-ledCommDetect
 655              		.section	.text.ledCommPrepare,"ax",%progbits
 656              		.align	2
 657              		.p2align 4,,15
 658              		.global	ledCommPrepare
 659              		.thumb
 660              		.thumb_func
 661              		.type	ledCommPrepare, %function
 662              	ledCommPrepare:
 663              	.LFB71:
 664              		.loc 1 159 0
 665              		.cfi_startproc
 666              		@ args = 0, pretend = 0, frame = 16
 667              		@ frame_needed = 0, uses_anonymous_args = 0
 668 0000 00B5     		push	{lr}
 669              		.cfi_def_cfa_offset 4
 670              		.cfi_offset 14, -4
 671 0002 85B0     		sub	sp, sp, #20
 672              		.cfi_def_cfa_offset 24
 673 0004 0190     		str	r0, [sp, #4]
 674              		.loc 1 165 0
 675 0006 0023     		movs	r3, #0
 676 0008 8DF80F30 		strb	r3, [sp, #15]
 677              		.loc 1 168 0
 678 000c 0198     		ldr	r0, [sp, #4]
 679 000e FFF7FEFF 		bl	ledCommOn
ARM GAS  /home/pauba/tmp/ccRJ7Dzn.s 			page 13


 680              		.loc 1 169 0
 681 0012 0023     		movs	r3, #0
 682 0014 8DF80F30 		strb	r3, [sp, #15]
 683 0018 05E0     		b	.L35
 684              	.L36:
 685              	.LBB15:
 686              	.LBB16:
 687              		.file 2 "/home/pauba/ChibiOS-RT/os/ports/common/ARMCMx/CMSIS/include/core_cmInstr.h"
 688              		.loc 2 288 0 discriminator 2
 689              	@ 288 "/home/pauba/ChibiOS-RT/os/ports/common/ARMCMx/CMSIS/include/core_cmInstr.h" 1
 690 001a 00BF     		nop
 691              	@ 0 "" 2
 692              		.thumb
 693              	.LBE16:
 694              	.LBE15:
 695              		.loc 1 169 0 discriminator 2
 696 001c 9DF80F30 		ldrb	r3, [sp, #15]	@ zero_extendqisi2
 697 0020 0133     		adds	r3, r3, #1
 698 0022 8DF80F30 		strb	r3, [sp, #15]
 699              	.L35:
 700              		.loc 1 169 0 is_stmt 0 discriminator 1
 701 0026 9DF80F30 		ldrb	r3, [sp, #15]	@ zero_extendqisi2
 702 002a 012B     		cmp	r3, #1
 703 002c F5D9     		bls	.L36
 704              		.loc 1 174 0 is_stmt 1
 705 002e 0198     		ldr	r0, [sp, #4]
 706 0030 FFF7FEFF 		bl	ledCommReverse
 707              		.loc 1 175 0
 708 0034 0023     		movs	r3, #0
 709 0036 8DF80F30 		strb	r3, [sp, #15]
 710 003a 08E0     		b	.L37
 711              	.L38:
 712              	.LBB17:
 713              	.LBB18:
 714              		.loc 2 288 0 discriminator 2
 715              	@ 288 "/home/pauba/ChibiOS-RT/os/ports/common/ARMCMx/CMSIS/include/core_cmInstr.h" 1
 716 003c 00BF     		nop
 717              	@ 0 "" 2
 718              		.thumb
 719              	.LBE18:
 720              	.LBE17:
 721              	.LBB19:
 722              	.LBB20:
 723              	@ 288 "/home/pauba/ChibiOS-RT/os/ports/common/ARMCMx/CMSIS/include/core_cmInstr.h" 1
 724 003e 00BF     		nop
 725              	@ 0 "" 2
 726              		.thumb
 727              	.LBE20:
 728              	.LBE19:
 729              	.LBB21:
 730              	.LBB22:
 731              	@ 288 "/home/pauba/ChibiOS-RT/os/ports/common/ARMCMx/CMSIS/include/core_cmInstr.h" 1
 732 0040 00BF     		nop
 733              	@ 0 "" 2
 734              		.thumb
 735              	.LBE22:
 736              	.LBE21:
ARM GAS  /home/pauba/tmp/ccRJ7Dzn.s 			page 14


 737              	.LBB23:
 738              	.LBB24:
 739              	@ 288 "/home/pauba/ChibiOS-RT/os/ports/common/ARMCMx/CMSIS/include/core_cmInstr.h" 1
 740 0042 00BF     		nop
 741              	@ 0 "" 2
 742              		.thumb
 743              	.LBE24:
 744              	.LBE23:
 745              		.loc 1 175 0 discriminator 2
 746 0044 9DF80F30 		ldrb	r3, [sp, #15]	@ zero_extendqisi2
 747 0048 0133     		adds	r3, r3, #1
 748 004a 8DF80F30 		strb	r3, [sp, #15]
 749              	.L37:
 750              		.loc 1 175 0 is_stmt 0 discriminator 1
 751 004e 9DF80F30 		ldrb	r3, [sp, #15]	@ zero_extendqisi2
 752 0052 012B     		cmp	r3, #1
 753 0054 F2D9     		bls	.L38
 754              		.loc 1 182 0 is_stmt 1
 755 0056 0E4B     		ldr	r3, .L39
 756 0058 5A68     		ldr	r2, [r3, #4]
 757 005a 019B     		ldr	r3, [sp, #4]
 758 005c C3F89020 		str	r2, [r3, #144]
 759              		.loc 1 183 0
 760 0060 019B     		ldr	r3, [sp, #4]
 761 0062 D3F88030 		ldr	r3, [r3, #128]
 762 0066 0B48     		ldr	r0, .L39+4
 763 0068 1946     		mov	r1, r3
 764 006a FFF7FEFF 		bl	ext_lld_channel_enable
 765              		.loc 1 184 0
 766 006e 019B     		ldr	r3, [sp, #4]
 767 0070 DA6F     		ldr	r2, [r3, #124]
 768 0072 019B     		ldr	r3, [sp, #4]
 769 0074 D3F88030 		ldr	r3, [r3, #128]
 770 0078 0121     		movs	r1, #1
 771 007a 01FA03F3 		lsl	r3, r1, r3
 772 007e 1046     		mov	r0, r2
 773 0080 1946     		mov	r1, r3
 774 0082 0022     		movs	r2, #0
 775 0084 FFF7FEFF 		bl	_pal_lld_setgroupmode
 776              		.loc 1 185 0
 777 0088 05B0     		add	sp, sp, #20
 778              		@ sp needed
 779 008a 5DF804FB 		ldr	pc, [sp], #4
 780              	.L40:
 781 008e 00BF     		.align	2
 782              	.L39:
 783 0090 001000E0 		.word	-536866816
 784 0094 00000000 		.word	EXTD1
 785              		.cfi_endproc
 786              	.LFE71:
 787              		.size	ledCommPrepare, .-ledCommPrepare
 788 0098 AFF30080 		.section	.text.ledCommDispatch,"ax",%progbits
 788      AFF30080 
 789              		.align	2
 790              		.p2align 4,,15
 791              		.thumb
 792              		.thumb_func
ARM GAS  /home/pauba/tmp/ccRJ7Dzn.s 			page 15


 793              		.type	ledCommDispatch, %function
 794              	ledCommDispatch:
 795              	.LFB72:
 796              		.loc 1 189 0
 797              		.cfi_startproc
 798              		@ args = 0, pretend = 0, frame = 8
 799              		@ frame_needed = 0, uses_anonymous_args = 0
 800 0000 00B5     		push	{lr}
 801              		.cfi_def_cfa_offset 4
 802              		.cfi_offset 14, -4
 803 0002 83B0     		sub	sp, sp, #12
 804              		.cfi_def_cfa_offset 16
 805 0004 0190     		str	r0, [sp, #4]
 806              	.LBB25:
 807              		.loc 1 194 0
 808 0006 2023     		movs	r3, #32
 809              	@ 194 "/home/pauba/ChibiOS-RT/ext/LEDComm/led.c" 1
 810 0008 83F31188 		msr     BASEPRI, r3
 811              	@ 0 "" 2
 812              		.thumb
 813              	.LBE25:
 814 000c FFF7FEFF 		bl	dbg_check_lock_from_isr
 815              		.loc 1 195 0
 816 0010 0548     		ldr	r0, .L42
 817 0012 0121     		movs	r1, #1
 818 0014 FFF7FEFF 		bl	chSemResetI
 819              		.loc 1 196 0
 820 0018 FFF7FEFF 		bl	dbg_check_unlock_from_isr
 821              	.LBB26:
 822 001c 0023     		movs	r3, #0
 823              	@ 196 "/home/pauba/ChibiOS-RT/ext/LEDComm/led.c" 1
 824 001e 83F31188 		msr     BASEPRI, r3
 825              	@ 0 "" 2
 826              		.thumb
 827              	.LBE26:
 828              		.loc 1 215 0
 829 0022 03B0     		add	sp, sp, #12
 830              		@ sp needed
 831 0024 5DF804FB 		ldr	pc, [sp], #4
 832              	.L43:
 833              		.align	2
 834              	.L42:
 835 0028 00000000 		.word	ledcommINTR
 836              		.cfi_endproc
 837              	.LFE72:
 838              		.size	ledCommDispatch, .-ledCommDispatch
 839              		.global	GPTC_LEDComm
 840 002c AFF30080 		.section	.rodata.GPTC_LEDComm,"a",%progbits
 841              		.align	2
 842              		.type	GPTC_LEDComm, %object
 843              		.size	GPTC_LEDComm, 12
 844              	GPTC_LEDComm:
 845 0000 10270000 		.word	10000
 846 0004 00000000 		.word	ledCommDispatch
 847 0008 00000000 		.word	0
 848              		.section	.text.extcb1,"ax",%progbits
 849              		.align	2
ARM GAS  /home/pauba/tmp/ccRJ7Dzn.s 			page 16


 850              		.p2align 4,,15
 851              		.global	extcb1
 852              		.thumb
 853              		.thumb_func
 854              		.type	extcb1, %function
 855              	extcb1:
 856              	.LFB73:
 857              		.loc 1 224 0
 858              		.cfi_startproc
 859              		@ args = 0, pretend = 0, frame = 16
 860              		@ frame_needed = 0, uses_anonymous_args = 0
 861 0000 00B5     		push	{lr}
 862              		.cfi_def_cfa_offset 4
 863              		.cfi_offset 14, -4
 864 0002 85B0     		sub	sp, sp, #20
 865              		.cfi_def_cfa_offset 24
 866 0004 0190     		str	r0, [sp, #4]
 867 0006 0B46     		mov	r3, r1
 868 0008 8DF80330 		strb	r3, [sp, #3]
 869              		.loc 1 234 0
 870 000c 9DF80320 		ldrb	r2, [sp, #3]	@ zero_extendqisi2
 871 0010 164B     		ldr	r3, .L47
 872 0012 D3F88030 		ldr	r3, [r3, #128]
 873 0016 9A42     		cmp	r2, r3
 874 0018 01D1     		bne	.L45
 875              		.loc 1 235 0
 876 001a 144B     		ldr	r3, .L47
 877 001c 0393     		str	r3, [sp, #12]
 878              	.L45:
 879              		.loc 1 239 0
 880 001e 9DF80330 		ldrb	r3, [sp, #3]	@ zero_extendqisi2
 881 0022 0198     		ldr	r0, [sp, #4]
 882 0024 1946     		mov	r1, r3
 883 0026 FFF7FEFF 		bl	ext_lld_channel_disable
 884              		.loc 1 241 0
 885 002a 114B     		ldr	r3, .L47+4
 886 002c 5A68     		ldr	r2, [r3, #4]
 887 002e 039B     		ldr	r3, [sp, #12]
 888 0030 D3F89030 		ldr	r3, [r3, #144]
 889 0034 D21A     		subs	r2, r2, r3
 890 0036 039B     		ldr	r3, [sp, #12]
 891 0038 C3F89020 		str	r2, [r3, #144]
 892              		.loc 1 242 0
 893 003c 039B     		ldr	r3, [sp, #12]
 894 003e D3F89020 		ldr	r2, [r3, #144]
 895 0042 039B     		ldr	r3, [sp, #12]
 896 0044 B3F88430 		ldrh	r3, [r3, #132]
 897 0048 1A44     		add	r2, r2, r3
 898 004a 039B     		ldr	r3, [sp, #12]
 899 004c B3F88430 		ldrh	r3, [r3, #132]
 900 0050 5B00     		lsls	r3, r3, #1
 901 0052 9A42     		cmp	r2, r3
 902 0054 07D8     		bhi	.L44
 903              		.loc 1 244 0
 904 0056 039B     		ldr	r3, [sp, #12]
 905 0058 B3F88C30 		ldrh	r3, [r3, #140]
 906 005c 0133     		adds	r3, r3, #1
ARM GAS  /home/pauba/tmp/ccRJ7Dzn.s 			page 17


 907 005e 9AB2     		uxth	r2, r3
 908 0060 039B     		ldr	r3, [sp, #12]
 909 0062 A3F88C20 		strh	r2, [r3, #140]	@ movhi
 910              	.L44:
 911              		.loc 1 246 0
 912 0066 05B0     		add	sp, sp, #20
 913              		@ sp needed
 914 0068 5DF804FB 		ldr	pc, [sp], #4
 915              	.L48:
 916              		.align	2
 917              	.L47:
 918 006c 00000000 		.word	LCOM2
 919 0070 001000E0 		.word	-536866816
 920              		.cfi_endproc
 921              	.LFE73:
 922              		.size	extcb1, .-extcb1
 923              		.global	extcfg
 924 0074 AFF30080 		.section	.bss.extcfg,"aw",%nobits
 924      AFF30080 
 924      AFF30080 
 925              		.align	2
 926              		.type	extcfg, %object
 927              		.size	extcfg, 184
 928              	extcfg:
 929 0000 00000000 		.space	184
 929      00000000 
 929      00000000 
 929      00000000 
 929      00000000 
 930              		.global	waLEDCommThread
 931              		.section	.bss.waLEDCommThread,"aw",%nobits
 932              		.align	3
 933              		.type	waLEDCommThread, %object
 934              		.size	waLEDCommThread, 720
 935              	waLEDCommThread:
 936 0000 00000000 		.space	720
 936      00000000 
 936      00000000 
 936      00000000 
 936      00000000 
 937              		.section	.rodata
 938              		.align	2
 939              	.LC0:
 940 0000 4C454443 		.ascii	"LEDComm\000"
 940      6F6D6D00 
 941              		.section	.text.LEDCommThread,"ax",%progbits
 942              		.align	2
 943              		.p2align 4,,15
 944              		.global	LEDCommThread
 945              		.thumb
 946              		.thumb_func
 947              		.type	LEDCommThread, %function
 948              	LEDCommThread:
 949              	.LFB74:
 950              		.loc 1 278 0
 951              		.cfi_startproc
 952              		@ args = 0, pretend = 0, frame = 8
ARM GAS  /home/pauba/tmp/ccRJ7Dzn.s 			page 18


 953              		@ frame_needed = 0, uses_anonymous_args = 0
 954 0000 00B5     		push	{lr}
 955              		.cfi_def_cfa_offset 4
 956              		.cfi_offset 14, -4
 957 0002 83B0     		sub	sp, sp, #12
 958              		.cfi_def_cfa_offset 16
 959 0004 0190     		str	r0, [sp, #4]
 960              		.loc 1 281 0
 961 0006 114B     		ldr	r3, .L51
 962 0008 9B69     		ldr	r3, [r3, #24]
 963 000a 114A     		ldr	r2, .L51+4
 964 000c 9A61     		str	r2, [r3, #24]
 965              		.loc 1 283 0
 966 000e 1148     		ldr	r0, .L51+8
 967 0010 1149     		ldr	r1, .L51+12
 968 0012 FFF7FEFF 		bl	extStart
 969              		.loc 1 285 0
 970 0016 1148     		ldr	r0, .L51+16
 971 0018 FFF7FEFF 		bl	gptObjectInit
 972              		.loc 1 286 0
 973 001c 0F48     		ldr	r0, .L51+16
 974 001e 1049     		ldr	r1, .L51+20
 975 0020 FFF7FEFF 		bl	gptStart
 976              		.loc 1 287 0
 977 0024 0D48     		ldr	r0, .L51+16
 978 0026 0221     		movs	r1, #2
 979 0028 FFF7FEFF 		bl	gptStartContinuous
 980              		.loc 1 289 0
 981 002c 0D48     		ldr	r0, .L51+24
 982 002e 0021     		movs	r1, #0
 983 0030 FFF7FEFF 		bl	chSemInit
 984              	.L50:
 985              		.loc 1 291 0 discriminator 1
 986 0034 0B48     		ldr	r0, .L51+24
 987 0036 FFF7FEFF 		bl	chSemWait
 988              		.loc 1 292 0 discriminator 1
 989 003a 0A48     		ldr	r0, .L51+24
 990 003c 0021     		movs	r1, #0
 991 003e FFF7FEFF 		bl	chSemReset
 992              		.loc 1 297 0 discriminator 1
 993 0042 0948     		ldr	r0, .L51+28
 994 0044 FFF7FEFF 		bl	ledCommSerialHandler
 995              		.loc 1 306 0 discriminator 1
 996 0048 F4E7     		b	.L50
 997              	.L52:
 998 004a 00BF     		.align	2
 999              	.L51:
 1000 004c 00000000 		.word	rlist
 1001 0050 00000000 		.word	.LC0
 1002 0054 00000000 		.word	EXTD1
 1003 0058 00000000 		.word	extcfg
 1004 005c 00000000 		.word	GPTD2
 1005 0060 00000000 		.word	GPTC_LEDComm
 1006 0064 00000000 		.word	ledcommINTR
 1007 0068 00000000 		.word	LCOM2
 1008              		.cfi_endproc
 1009              	.LFE74:
ARM GAS  /home/pauba/tmp/ccRJ7Dzn.s 			page 19


 1010              		.size	LEDCommThread, .-LEDCommThread
 1011 006c AFF30080 		.section	.rodata
 1012              		.align	2
 1013              	.LC1:
 1014 0008 226C7561 		.ascii	"\"luartPollLinkStatus\"()\000"
 1014      7274506F 
 1014      6C6C4C69 
 1014      6E6B5374 
 1014      61747573 
 1015              		.section	.text.ledCommPollLinkStatus,"ax",%progbits
 1016              		.align	2
 1017              		.p2align 4,,15
 1018              		.global	ledCommPollLinkStatus
 1019              		.thumb
 1020              		.thumb_func
 1021              		.type	ledCommPollLinkStatus, %function
 1022              	ledCommPollLinkStatus:
 1023              	.LFB75:
 1024              		.loc 1 312 0
 1025              		.cfi_startproc
 1026              		@ args = 0, pretend = 0, frame = 8
 1027              		@ frame_needed = 0, uses_anonymous_args = 0
 1028 0000 00B5     		push	{lr}
 1029              		.cfi_def_cfa_offset 4
 1030              		.cfi_offset 14, -4
 1031 0002 83B0     		sub	sp, sp, #12
 1032              		.cfi_def_cfa_offset 16
 1033 0004 0190     		str	r0, [sp, #4]
 1034              		.loc 1 313 0
 1035 0006 019B     		ldr	r3, [sp, #4]
 1036 0008 002B     		cmp	r3, #0
 1037 000a 02D1     		bne	.L54
 1038              		.loc 1 313 0 is_stmt 0 discriminator 1
 1039 000c 0648     		ldr	r0, .L56
 1040 000e FFF7FEFF 		bl	chDbgPanic
 1041              	.L54:
 1042              		.loc 1 314 0 is_stmt 1
 1043 0012 019B     		ldr	r3, [sp, #4]
 1044 0014 93F88730 		ldrb	r3, [r3, #135]
 1045 0018 C3F30013 		ubfx	r3, r3, #4, #1
 1046 001c DBB2     		uxtb	r3, r3
 1047              		.loc 1 315 0
 1048 001e 1846     		mov	r0, r3
 1049 0020 03B0     		add	sp, sp, #12
 1050              		@ sp needed
 1051 0022 5DF804FB 		ldr	pc, [sp], #4
 1052              	.L57:
 1053 0026 00BF     		.align	2
 1054              	.L56:
 1055 0028 08000000 		.word	.LC1
 1056              		.cfi_endproc
 1057              	.LFE75:
 1058              		.size	ledCommPollLinkStatus, .-ledCommPollLinkStatus
 1059 002c AFF30080 		.text
 1060              	.Letext0:
 1061              		.file 3 "/opt/gcc-arm-none-eabi-4_8-2014q1/lib/gcc/arm-none-eabi/4.8.3/include/stddef.h"
 1062              		.file 4 "/opt/gcc-arm-none-eabi-4_8-2014q1/arm-none-eabi/include/machine/_default_types.h"
ARM GAS  /home/pauba/tmp/ccRJ7Dzn.s 			page 20


 1063              		.file 5 "/opt/gcc-arm-none-eabi-4_8-2014q1/arm-none-eabi/include/stdint.h"
 1064              		.file 6 "/home/pauba/ChibiOS-RT/os/ports/GCC/ARMCMx/chtypes.h"
 1065              		.file 7 "/home/pauba/ChibiOS-RT/os/kernel/include/chlists.h"
 1066              		.file 8 "/home/pauba/ChibiOS-RT/os/kernel/include/chthreads.h"
 1067              		.file 9 "/home/pauba/ChibiOS-RT/os/ports/GCC/ARMCMx/chcore_v7m.h"
 1068              		.file 10 "/home/pauba/ChibiOS-RT/os/ports/common/ARMCMx/nvic.h"
 1069              		.file 11 "/home/pauba/ChibiOS-RT/os/kernel/include/chschd.h"
 1070              		.file 12 "/home/pauba/ChibiOS-RT/os/kernel/include/chsem.h"
 1071              		.file 13 "/home/pauba/ChibiOS-RT/os/kernel/include/chbsem.h"
 1072              		.file 14 "/home/pauba/ChibiOS-RT/os/kernel/include/chmtx.h"
 1073              		.file 15 "/home/pauba/ChibiOS-RT/os/kernel/include/chevents.h"
 1074              		.file 16 "/home/pauba/ChibiOS-RT/os/kernel/include/chqueues.h"
 1075              		.file 17 "/home/pauba/ChibiOS-RT/os/hal/platforms/STM32/GPIOv2/pal_lld.h"
 1076              		.file 18 "/home/pauba/ChibiOS-RT/os/hal/include/ext.h"
 1077              		.file 19 "/home/pauba/ChibiOS-RT/os/hal/platforms/STM32/ext_lld.h"
 1078              		.file 20 "/home/pauba/ChibiOS-RT/os/hal/include/gpt.h"
 1079              		.file 21 "/home/pauba/ChibiOS-RT/os/hal/platforms/STM32/TIMv1/gpt_lld.h"
 1080              		.file 22 "/home/pauba/ChibiOS-RT/os/hal/platforms/STM32/TIMv1/stm32_tim.h"
 1081              		.file 23 "/home/pauba/ChibiOS-RT/ext/LEDComm/ledcomm.h"
 1082              		.file 24 "/home/pauba/ChibiOS-RT/os/ports/common/ARMCMx/CMSIS/include/core_cm3.h"