ARM GAS  /home/pauba/tmp/cca0qe6Z.s 			page 1


   1              		.syntax unified
   2              		.cpu cortex-m4
   3              		.fpu softvfp
   4              		.eabi_attribute 20, 1
   5              		.eabi_attribute 21, 1
   6              		.eabi_attribute 23, 3
   7              		.eabi_attribute 24, 1
   8              		.eabi_attribute 25, 1
   9              		.eabi_attribute 26, 1
  10              		.eabi_attribute 30, 6
  11              		.eabi_attribute 34, 1
  12              		.eabi_attribute 18, 4
  13              		.thumb
  14              		.file	"ledcomm.c"
  15              		.text
  16              	.Ltext0:
  17              		.cfi_sections	.debug_frame
  18              		.global	LCOM2
  19              		.section	.bss.LCOM2,"aw",%nobits
  20              		.align	2
  21              		.type	LCOM2, %object
  22              		.size	LCOM2, 152
  23              	LCOM2:
  24 0000 00000000 		.space	152
  24      00000000 
  24      00000000 
  24      00000000 
  24      00000000 
  25              		.section	.text.write,"ax",%progbits
  26              		.align	2
  27              		.p2align 4,,15
  28              		.thumb
  29              		.thumb_func
  30              		.type	write, %function
  31              	write:
  32              	.LFB63:
  33              		.file 1 "/home/pauba/ChibiOS-RT/ext/LEDComm/ledcomm.c"
  34              		.loc 1 80 0
  35              		.cfi_startproc
  36              		@ args = 0, pretend = 0, frame = 16
  37              		@ frame_needed = 0, uses_anonymous_args = 0
  38 0000 00B5     		push	{lr}
  39              		.cfi_def_cfa_offset 4
  40              		.cfi_offset 14, -4
  41 0002 85B0     		sub	sp, sp, #20
  42              		.cfi_def_cfa_offset 24
  43 0004 0390     		str	r0, [sp, #12]
  44 0006 0291     		str	r1, [sp, #8]
  45 0008 0192     		str	r2, [sp, #4]
  46              		.loc 1 82 0
  47 000a 039B     		ldr	r3, [sp, #12]
  48 000c 3033     		adds	r3, r3, #48
  49 000e 1846     		mov	r0, r3
  50 0010 0299     		ldr	r1, [sp, #8]
  51 0012 019A     		ldr	r2, [sp, #4]
  52 0014 4FF0FF33 		mov	r3, #-1
  53 0018 FFF7FEFF 		bl	chOQWriteTimeout
ARM GAS  /home/pauba/tmp/cca0qe6Z.s 			page 2


  54 001c 0346     		mov	r3, r0
  55              		.loc 1 84 0
  56 001e 1846     		mov	r0, r3
  57 0020 05B0     		add	sp, sp, #20
  58              		@ sp needed
  59 0022 5DF804FB 		ldr	pc, [sp], #4
  60              		.cfi_endproc
  61              	.LFE63:
  62              		.size	write, .-write
  63 0026 00BFAFF3 		.section	.text.read,"ax",%progbits
  63      0080AFF3 
  63      0080
  64              		.align	2
  65              		.p2align 4,,15
  66              		.thumb
  67              		.thumb_func
  68              		.type	read, %function
  69              	read:
  70              	.LFB64:
  71              		.loc 1 86 0
  72              		.cfi_startproc
  73              		@ args = 0, pretend = 0, frame = 16
  74              		@ frame_needed = 0, uses_anonymous_args = 0
  75 0000 00B5     		push	{lr}
  76              		.cfi_def_cfa_offset 4
  77              		.cfi_offset 14, -4
  78 0002 85B0     		sub	sp, sp, #20
  79              		.cfi_def_cfa_offset 24
  80 0004 0390     		str	r0, [sp, #12]
  81 0006 0291     		str	r1, [sp, #8]
  82 0008 0192     		str	r2, [sp, #4]
  83              		.loc 1 88 0
  84 000a 039B     		ldr	r3, [sp, #12]
  85 000c 0C33     		adds	r3, r3, #12
  86 000e 1846     		mov	r0, r3
  87 0010 0299     		ldr	r1, [sp, #8]
  88 0012 019A     		ldr	r2, [sp, #4]
  89 0014 4FF0FF33 		mov	r3, #-1
  90 0018 FFF7FEFF 		bl	chIQReadTimeout
  91 001c 0346     		mov	r3, r0
  92              		.loc 1 90 0
  93 001e 1846     		mov	r0, r3
  94 0020 05B0     		add	sp, sp, #20
  95              		@ sp needed
  96 0022 5DF804FB 		ldr	pc, [sp], #4
  97              		.cfi_endproc
  98              	.LFE64:
  99              		.size	read, .-read
 100 0026 00BFAFF3 		.section	.text.put,"ax",%progbits
 100      0080AFF3 
 100      0080
 101              		.align	2
 102              		.p2align 4,,15
 103              		.thumb
 104              		.thumb_func
 105              		.type	put, %function
 106              	put:
ARM GAS  /home/pauba/tmp/cca0qe6Z.s 			page 3


 107              	.LFB65:
 108              		.loc 1 92 0
 109              		.cfi_startproc
 110              		@ args = 0, pretend = 0, frame = 8
 111              		@ frame_needed = 0, uses_anonymous_args = 0
 112 0000 00B5     		push	{lr}
 113              		.cfi_def_cfa_offset 4
 114              		.cfi_offset 14, -4
 115 0002 83B0     		sub	sp, sp, #12
 116              		.cfi_def_cfa_offset 16
 117 0004 0190     		str	r0, [sp, #4]
 118 0006 0B46     		mov	r3, r1
 119 0008 8DF80330 		strb	r3, [sp, #3]
 120              		.loc 1 94 0
 121 000c 019B     		ldr	r3, [sp, #4]
 122 000e 03F13002 		add	r2, r3, #48
 123 0012 9DF80330 		ldrb	r3, [sp, #3]	@ zero_extendqisi2
 124 0016 1046     		mov	r0, r2
 125 0018 1946     		mov	r1, r3
 126 001a 4FF0FF32 		mov	r2, #-1
 127 001e FFF7FEFF 		bl	chOQPutTimeout
 128 0022 0346     		mov	r3, r0
 129              		.loc 1 95 0
 130 0024 1846     		mov	r0, r3
 131 0026 03B0     		add	sp, sp, #12
 132              		@ sp needed
 133 0028 5DF804FB 		ldr	pc, [sp], #4
 134              		.cfi_endproc
 135              	.LFE65:
 136              		.size	put, .-put
 137 002c AFF30080 		.section	.text.get,"ax",%progbits
 138              		.align	2
 139              		.p2align 4,,15
 140              		.thumb
 141              		.thumb_func
 142              		.type	get, %function
 143              	get:
 144              	.LFB66:
 145              		.loc 1 97 0
 146              		.cfi_startproc
 147              		@ args = 0, pretend = 0, frame = 8
 148              		@ frame_needed = 0, uses_anonymous_args = 0
 149 0000 00B5     		push	{lr}
 150              		.cfi_def_cfa_offset 4
 151              		.cfi_offset 14, -4
 152 0002 83B0     		sub	sp, sp, #12
 153              		.cfi_def_cfa_offset 16
 154 0004 0190     		str	r0, [sp, #4]
 155              		.loc 1 99 0
 156 0006 019B     		ldr	r3, [sp, #4]
 157 0008 0C33     		adds	r3, r3, #12
 158 000a 1846     		mov	r0, r3
 159 000c 4FF0FF31 		mov	r1, #-1
 160 0010 FFF7FEFF 		bl	chIQGetTimeout
 161 0014 0346     		mov	r3, r0
 162              		.loc 1 100 0
 163 0016 1846     		mov	r0, r3
ARM GAS  /home/pauba/tmp/cca0qe6Z.s 			page 4


 164 0018 03B0     		add	sp, sp, #12
 165              		@ sp needed
 166 001a 5DF804FB 		ldr	pc, [sp], #4
 167              		.cfi_endproc
 168              	.LFE66:
 169              		.size	get, .-get
 170 001e 00BF     		.section	.text.putt,"ax",%progbits
 171              		.align	2
 172              		.p2align 4,,15
 173              		.thumb
 174              		.thumb_func
 175              		.type	putt, %function
 176              	putt:
 177              	.LFB67:
 178              		.loc 1 102 0
 179              		.cfi_startproc
 180              		@ args = 0, pretend = 0, frame = 16
 181              		@ frame_needed = 0, uses_anonymous_args = 0
 182 0000 00B5     		push	{lr}
 183              		.cfi_def_cfa_offset 4
 184              		.cfi_offset 14, -4
 185 0002 85B0     		sub	sp, sp, #20
 186              		.cfi_def_cfa_offset 24
 187 0004 0390     		str	r0, [sp, #12]
 188 0006 0B46     		mov	r3, r1
 189 0008 0192     		str	r2, [sp, #4]
 190 000a 8DF80B30 		strb	r3, [sp, #11]
 191              		.loc 1 104 0
 192 000e 039B     		ldr	r3, [sp, #12]
 193 0010 03F13002 		add	r2, r3, #48
 194 0014 9DF80B30 		ldrb	r3, [sp, #11]	@ zero_extendqisi2
 195 0018 1046     		mov	r0, r2
 196 001a 1946     		mov	r1, r3
 197 001c 019A     		ldr	r2, [sp, #4]
 198 001e FFF7FEFF 		bl	chOQPutTimeout
 199 0022 0346     		mov	r3, r0
 200              		.loc 1 105 0
 201 0024 1846     		mov	r0, r3
 202 0026 05B0     		add	sp, sp, #20
 203              		@ sp needed
 204 0028 5DF804FB 		ldr	pc, [sp], #4
 205              		.cfi_endproc
 206              	.LFE67:
 207              		.size	putt, .-putt
 208 002c AFF30080 		.section	.text.gett,"ax",%progbits
 209              		.align	2
 210              		.p2align 4,,15
 211              		.thumb
 212              		.thumb_func
 213              		.type	gett, %function
 214              	gett:
 215              	.LFB68:
 216              		.loc 1 107 0
 217              		.cfi_startproc
 218              		@ args = 0, pretend = 0, frame = 8
 219              		@ frame_needed = 0, uses_anonymous_args = 0
 220 0000 00B5     		push	{lr}
ARM GAS  /home/pauba/tmp/cca0qe6Z.s 			page 5


 221              		.cfi_def_cfa_offset 4
 222              		.cfi_offset 14, -4
 223 0002 83B0     		sub	sp, sp, #12
 224              		.cfi_def_cfa_offset 16
 225 0004 0190     		str	r0, [sp, #4]
 226 0006 0091     		str	r1, [sp]
 227              		.loc 1 109 0
 228 0008 019B     		ldr	r3, [sp, #4]
 229 000a 0C33     		adds	r3, r3, #12
 230 000c 1846     		mov	r0, r3
 231 000e 0099     		ldr	r1, [sp]
 232 0010 FFF7FEFF 		bl	chIQGetTimeout
 233 0014 0346     		mov	r3, r0
 234              		.loc 1 110 0
 235 0016 1846     		mov	r0, r3
 236 0018 03B0     		add	sp, sp, #12
 237              		@ sp needed
 238 001a 5DF804FB 		ldr	pc, [sp], #4
 239              		.cfi_endproc
 240              	.LFE68:
 241              		.size	gett, .-gett
 242 001e 00BF     		.section	.text.writet,"ax",%progbits
 243              		.align	2
 244              		.p2align 4,,15
 245              		.thumb
 246              		.thumb_func
 247              		.type	writet, %function
 248              	writet:
 249              	.LFB69:
 250              		.loc 1 112 0
 251              		.cfi_startproc
 252              		@ args = 0, pretend = 0, frame = 16
 253              		@ frame_needed = 0, uses_anonymous_args = 0
 254 0000 00B5     		push	{lr}
 255              		.cfi_def_cfa_offset 4
 256              		.cfi_offset 14, -4
 257 0002 85B0     		sub	sp, sp, #20
 258              		.cfi_def_cfa_offset 24
 259 0004 0390     		str	r0, [sp, #12]
 260 0006 0291     		str	r1, [sp, #8]
 261 0008 0192     		str	r2, [sp, #4]
 262 000a 0093     		str	r3, [sp]
 263              		.loc 1 114 0
 264 000c 039B     		ldr	r3, [sp, #12]
 265 000e 3033     		adds	r3, r3, #48
 266 0010 1846     		mov	r0, r3
 267 0012 0299     		ldr	r1, [sp, #8]
 268 0014 019A     		ldr	r2, [sp, #4]
 269 0016 009B     		ldr	r3, [sp]
 270 0018 FFF7FEFF 		bl	chOQWriteTimeout
 271 001c 0346     		mov	r3, r0
 272              		.loc 1 115 0
 273 001e 1846     		mov	r0, r3
 274 0020 05B0     		add	sp, sp, #20
 275              		@ sp needed
 276 0022 5DF804FB 		ldr	pc, [sp], #4
 277              		.cfi_endproc
ARM GAS  /home/pauba/tmp/cca0qe6Z.s 			page 6


 278              	.LFE69:
 279              		.size	writet, .-writet
 280 0026 00BFAFF3 		.section	.text.readt,"ax",%progbits
 280      0080AFF3 
 280      0080
 281              		.align	2
 282              		.p2align 4,,15
 283              		.thumb
 284              		.thumb_func
 285              		.type	readt, %function
 286              	readt:
 287              	.LFB70:
 288              		.loc 1 117 0
 289              		.cfi_startproc
 290              		@ args = 0, pretend = 0, frame = 16
 291              		@ frame_needed = 0, uses_anonymous_args = 0
 292 0000 00B5     		push	{lr}
 293              		.cfi_def_cfa_offset 4
 294              		.cfi_offset 14, -4
 295 0002 85B0     		sub	sp, sp, #20
 296              		.cfi_def_cfa_offset 24
 297 0004 0390     		str	r0, [sp, #12]
 298 0006 0291     		str	r1, [sp, #8]
 299 0008 0192     		str	r2, [sp, #4]
 300 000a 0093     		str	r3, [sp]
 301              		.loc 1 119 0
 302 000c 039B     		ldr	r3, [sp, #12]
 303 000e 0C33     		adds	r3, r3, #12
 304 0010 1846     		mov	r0, r3
 305 0012 0299     		ldr	r1, [sp, #8]
 306 0014 019A     		ldr	r2, [sp, #4]
 307 0016 009B     		ldr	r3, [sp]
 308 0018 FFF7FEFF 		bl	chIQReadTimeout
 309 001c 0346     		mov	r3, r0
 310              		.loc 1 120 0
 311 001e 1846     		mov	r0, r3
 312 0020 05B0     		add	sp, sp, #20
 313              		@ sp needed
 314 0022 5DF804FB 		ldr	pc, [sp], #4
 315              		.cfi_endproc
 316              	.LFE70:
 317              		.size	readt, .-readt
 318 0026 00BFAFF3 		.section	.rodata.vmt,"a",%progbits
 318      0080AFF3 
 318      0080
 319              		.align	2
 320              		.type	vmt, %object
 321              		.size	vmt, 32
 322              	vmt:
 323 0000 00000000 		.word	write
 324 0004 00000000 		.word	read
 325 0008 00000000 		.word	put
 326 000c 00000000 		.word	get
 327 0010 00000000 		.word	putt
 328 0014 00000000 		.word	gett
 329 0018 00000000 		.word	writet
 330 001c 00000000 		.word	readt
ARM GAS  /home/pauba/tmp/cca0qe6Z.s 			page 7


 331              		.section	.text.isLinkUp,"ax",%progbits
 332              		.align	2
 333              		.p2align 4,,15
 334              		.global	isLinkUp
 335              		.thumb
 336              		.thumb_func
 337              		.type	isLinkUp, %function
 338              	isLinkUp:
 339              	.LFB71:
 340              		.loc 1 127 0
 341              		.cfi_startproc
 342              		@ args = 0, pretend = 0, frame = 8
 343              		@ frame_needed = 0, uses_anonymous_args = 0
 344 0000 00B5     		push	{lr}
 345              		.cfi_def_cfa_offset 4
 346              		.cfi_offset 14, -4
 347 0002 83B0     		sub	sp, sp, #12
 348              		.cfi_def_cfa_offset 16
 349 0004 0190     		str	r0, [sp, #4]
 350              		.loc 1 128 0
 351 0006 0198     		ldr	r0, [sp, #4]
 352 0008 FFF7FEFF 		bl	ledCommPollLinkStatus
 353 000c 0346     		mov	r3, r0
 354              		.loc 1 129 0
 355 000e 1846     		mov	r0, r3
 356 0010 03B0     		add	sp, sp, #12
 357              		@ sp needed
 358 0012 5DF804FB 		ldr	pc, [sp], #4
 359              		.cfi_endproc
 360              	.LFE71:
 361              		.size	isLinkUp, .-isLinkUp
 362 0016 00BFAFF3 		.section	.text.isLinkDown,"ax",%progbits
 362      0080AFF3 
 362      0080
 363              		.align	2
 364              		.p2align 4,,15
 365              		.global	isLinkDown
 366              		.thumb
 367              		.thumb_func
 368              		.type	isLinkDown, %function
 369              	isLinkDown:
 370              	.LFB72:
 371              		.loc 1 131 0
 372              		.cfi_startproc
 373              		@ args = 0, pretend = 0, frame = 8
 374              		@ frame_needed = 0, uses_anonymous_args = 0
 375 0000 00B5     		push	{lr}
 376              		.cfi_def_cfa_offset 4
 377              		.cfi_offset 14, -4
 378 0002 83B0     		sub	sp, sp, #12
 379              		.cfi_def_cfa_offset 16
 380 0004 0190     		str	r0, [sp, #4]
 381              		.loc 1 132 0
 382 0006 0198     		ldr	r0, [sp, #4]
 383 0008 FFF7FEFF 		bl	ledCommPollLinkStatus
 384 000c 0346     		mov	r3, r0
 385 000e 002B     		cmp	r3, #0
ARM GAS  /home/pauba/tmp/cca0qe6Z.s 			page 8


 386 0010 0CBF     		ite	eq
 387 0012 0023     		moveq	r3, #0
 388 0014 0123     		movne	r3, #1
 389 0016 DBB2     		uxtb	r3, r3
 390 0018 83F00103 		eor	r3, r3, #1
 391 001c DBB2     		uxtb	r3, r3
 392 001e 03F00103 		and	r3, r3, #1
 393 0022 DBB2     		uxtb	r3, r3
 394              		.loc 1 133 0
 395 0024 1846     		mov	r0, r3
 396 0026 03B0     		add	sp, sp, #12
 397              		@ sp needed
 398 0028 5DF804FB 		ldr	pc, [sp], #4
 399              		.cfi_endproc
 400              	.LFE72:
 401              		.size	isLinkDown, .-isLinkDown
 402 002c AFF30080 		.section	.text.linkUp,"ax",%progbits
 403              		.align	2
 404              		.p2align 4,,15
 405              		.global	linkUp
 406              		.thumb
 407              		.thumb_func
 408              		.type	linkUp, %function
 409              	linkUp:
 410              	.LFB73:
 411              		.loc 1 135 0
 412              		.cfi_startproc
 413              		@ args = 0, pretend = 0, frame = 8
 414              		@ frame_needed = 0, uses_anonymous_args = 0
 415 0000 00B5     		push	{lr}
 416              		.cfi_def_cfa_offset 4
 417              		.cfi_offset 14, -4
 418 0002 83B0     		sub	sp, sp, #12
 419              		.cfi_def_cfa_offset 16
 420 0004 0190     		str	r0, [sp, #4]
 421              		.loc 1 136 0
 422 0006 019A     		ldr	r2, [sp, #4]
 423 0008 92F88730 		ldrb	r3, [r2, #135]
 424 000c 43F01003 		orr	r3, r3, #16
 425 0010 82F88730 		strb	r3, [r2, #135]
 426              		.loc 1 137 0
 427 0014 019A     		ldr	r2, [sp, #4]
 428 0016 92F88630 		ldrb	r3, [r2, #134]
 429 001a 1221     		movs	r1, #18
 430 001c 61F30403 		bfi	r3, r1, #0, #5
 431 0020 82F88630 		strb	r3, [r2, #134]
 432              		.loc 1 138 0
 433 0024 019A     		ldr	r2, [sp, #4]
 434 0026 92F88730 		ldrb	r3, [r2, #135]
 435 002a 43F02003 		orr	r3, r3, #32
 436 002e 82F88730 		strb	r3, [r2, #135]
 437              	.LBB2:
 438              		.loc 1 141 0
 439 0032 2023     		movs	r3, #32
 440              	@ 141 "/home/pauba/ChibiOS-RT/ext/LEDComm/ledcomm.c" 1
 441 0034 83F31188 		msr     BASEPRI, r3
 442              	@ 0 "" 2
ARM GAS  /home/pauba/tmp/cca0qe6Z.s 			page 9


 443              		.thumb
 444              	.LBE2:
 445 0038 FFF7FEFF 		bl	dbg_check_lock
 446              		.loc 1 145 0
 447 003c 019B     		ldr	r3, [sp, #4]
 448 003e 0C33     		adds	r3, r3, #12
 449 0040 1846     		mov	r0, r3
 450 0042 FFF7FEFF 		bl	chIQResetI
 451              		.loc 1 146 0
 452 0046 019B     		ldr	r3, [sp, #4]
 453 0048 3033     		adds	r3, r3, #48
 454 004a 1846     		mov	r0, r3
 455 004c FFF7FEFF 		bl	chOQResetI
 456              		.loc 1 147 0
 457 0050 019B     		ldr	r3, [sp, #4]
 458 0052 0433     		adds	r3, r3, #4
 459 0054 1846     		mov	r0, r3
 460 0056 0121     		movs	r1, #1
 461 0058 FFF7FEFF 		bl	chEvtBroadcastFlagsI
 462              		.loc 1 149 0
 463 005c FFF7FEFF 		bl	dbg_check_unlock
 464              	.LBB3:
 465 0060 0023     		movs	r3, #0
 466              	@ 149 "/home/pauba/ChibiOS-RT/ext/LEDComm/ledcomm.c" 1
 467 0062 83F31188 		msr     BASEPRI, r3
 468              	@ 0 "" 2
 469              		.thumb
 470              	.LBE3:
 471              		.loc 1 154 0
 472 0066 03B0     		add	sp, sp, #12
 473              		@ sp needed
 474 0068 5DF804FB 		ldr	pc, [sp], #4
 475              		.cfi_endproc
 476              	.LFE73:
 477              		.size	linkUp, .-linkUp
 478 006c AFF30080 		.section	.text.linkDown,"ax",%progbits
 479              		.align	2
 480              		.p2align 4,,15
 481              		.global	linkDown
 482              		.thumb
 483              		.thumb_func
 484              		.type	linkDown, %function
 485              	linkDown:
 486              	.LFB74:
 487              		.loc 1 156 0
 488              		.cfi_startproc
 489              		@ args = 0, pretend = 0, frame = 8
 490              		@ frame_needed = 0, uses_anonymous_args = 0
 491 0000 00B5     		push	{lr}
 492              		.cfi_def_cfa_offset 4
 493              		.cfi_offset 14, -4
 494 0002 83B0     		sub	sp, sp, #12
 495              		.cfi_def_cfa_offset 16
 496 0004 0190     		str	r0, [sp, #4]
 497              		.loc 1 157 0
 498 0006 019A     		ldr	r2, [sp, #4]
 499 0008 92F88730 		ldrb	r3, [r2, #135]
ARM GAS  /home/pauba/tmp/cca0qe6Z.s 			page 10


 500 000c 6FF30413 		bfc	r3, #4, #1
 501 0010 82F88730 		strb	r3, [r2, #135]
 502              	.LBB4:
 503              		.loc 1 160 0
 504 0014 2023     		movs	r3, #32
 505              	@ 160 "/home/pauba/ChibiOS-RT/ext/LEDComm/ledcomm.c" 1
 506 0016 83F31188 		msr     BASEPRI, r3
 507              	@ 0 "" 2
 508              		.thumb
 509              	.LBE4:
 510 001a FFF7FEFF 		bl	dbg_check_lock
 511              		.loc 1 164 0
 512 001e 019B     		ldr	r3, [sp, #4]
 513 0020 0433     		adds	r3, r3, #4
 514 0022 1846     		mov	r0, r3
 515 0024 0221     		movs	r1, #2
 516 0026 FFF7FEFF 		bl	chEvtBroadcastFlagsI
 517              		.loc 1 166 0
 518 002a FFF7FEFF 		bl	dbg_check_unlock
 519              	.LBB5:
 520 002e 0023     		movs	r3, #0
 521              	@ 166 "/home/pauba/ChibiOS-RT/ext/LEDComm/ledcomm.c" 1
 522 0030 83F31188 		msr     BASEPRI, r3
 523              	@ 0 "" 2
 524              		.thumb
 525              	.LBE5:
 526              		.loc 1 171 0
 527 0034 03B0     		add	sp, sp, #12
 528              		@ sp needed
 529 0036 5DF804FB 		ldr	pc, [sp], #4
 530              		.cfi_endproc
 531              	.LFE74:
 532              		.size	linkDown, .-linkDown
 533 003a 00BFAFF3 		.section	.data.default_config,"aw",%progbits
 533      0080
 534              		.align	2
 535              		.type	default_config, %object
 536              		.size	default_config, 24
 537              	default_config:
 538 0000 00040240 		.word	1073873920
 539 0004 05000000 		.word	5
 540 0008 00040240 		.word	1073873920
 541 000c 04000000 		.word	4
 542 0010 12000000 		.word	18
 543 0014 0000     		.space	2
 544 0016 01       		.byte	1
 545 0017 00       		.space	1
 546              		.section	.text.ledCommSerialHandler,"ax",%progbits
 547              		.align	2
 548              		.p2align 4,,15
 549              		.global	ledCommSerialHandler
 550              		.thumb
 551              		.thumb_func
 552              		.type	ledCommSerialHandler, %function
 553              	ledCommSerialHandler:
 554              	.LFB75:
 555              		.loc 1 185 0
ARM GAS  /home/pauba/tmp/cca0qe6Z.s 			page 11


 556              		.cfi_startproc
 557              		@ args = 0, pretend = 0, frame = 16
 558              		@ frame_needed = 0, uses_anonymous_args = 0
 559 0000 00B5     		push	{lr}
 560              		.cfi_def_cfa_offset 4
 561              		.cfi_offset 14, -4
 562 0002 85B0     		sub	sp, sp, #20
 563              		.cfi_def_cfa_offset 24
 564 0004 0190     		str	r0, [sp, #4]
 565              		.loc 1 186 0
 566 0006 019B     		ldr	r3, [sp, #4]
 567 0008 93F88730 		ldrb	r3, [r3, #135]
 568 000c C3F3C003 		ubfx	r3, r3, #3, #1
 569 0010 DBB2     		uxtb	r3, r3
 570 0012 002B     		cmp	r3, #0
 571 0014 00D1     		bne	.L24
 572              		.loc 1 187 0
 573 0016 40E1     		b	.L23
 574              	.L24:
 575              		.loc 1 190 0
 576 0018 019B     		ldr	r3, [sp, #4]
 577 001a 93F89430 		ldrb	r3, [r3, #148]	@ zero_extendqisi2
 578 001e 0133     		adds	r3, r3, #1
 579 0020 DAB2     		uxtb	r2, r3
 580 0022 019B     		ldr	r3, [sp, #4]
 581 0024 83F89420 		strb	r2, [r3, #148]
 582              		.loc 1 192 0
 583 0028 019B     		ldr	r3, [sp, #4]
 584 002a 93F89430 		ldrb	r3, [r3, #148]	@ zero_extendqisi2
 585 002e 012B     		cmp	r3, #1
 586 0030 17D1     		bne	.L26
 587              		.loc 1 194 0
 588 0032 019B     		ldr	r3, [sp, #4]
 589 0034 D3F88030 		ldr	r3, [r3, #128]
 590 0038 9948     		ldr	r0, .L47
 591 003a 1946     		mov	r1, r3
 592 003c FFF7FEFF 		bl	ext_lld_channel_disable
 593              		.loc 1 195 0
 594 0040 019B     		ldr	r3, [sp, #4]
 595 0042 DA6F     		ldr	r2, [r3, #124]
 596 0044 019B     		ldr	r3, [sp, #4]
 597 0046 D3F88030 		ldr	r3, [r3, #128]
 598 004a 0121     		movs	r1, #1
 599 004c 01FA03F3 		lsl	r3, r1, r3
 600 0050 1046     		mov	r0, r2
 601 0052 1946     		mov	r1, r3
 602 0054 0122     		movs	r2, #1
 603 0056 FFF7FEFF 		bl	_pal_lld_setgroupmode
 604              		.loc 1 196 0
 605 005a 0198     		ldr	r0, [sp, #4]
 606 005c FFF7FEFF 		bl	ledCommOn
 607 0060 1BE1     		b	.L23
 608              	.L26:
 609              		.loc 1 197 0
 610 0062 019B     		ldr	r3, [sp, #4]
 611 0064 93F89430 		ldrb	r3, [r3, #148]	@ zero_extendqisi2
 612 0068 022B     		cmp	r3, #2
ARM GAS  /home/pauba/tmp/cca0qe6Z.s 			page 12


 613 006a 44D1     		bne	.L27
 614              		.loc 1 198 0
 615 006c 019B     		ldr	r3, [sp, #4]
 616 006e 93F88730 		ldrb	r3, [r3, #135]
 617 0072 C3F34013 		ubfx	r3, r3, #5, #1
 618 0076 DBB2     		uxtb	r3, r3
 619 0078 012B     		cmp	r3, #1
 620 007a 40F00E81 		bne	.L23
 621              	.LBB6:
 622              	.LBB7:
 623              		.loc 1 203 0
 624 007e 2023     		movs	r3, #32
 625              	@ 203 "/home/pauba/ChibiOS-RT/ext/LEDComm/ledcomm.c" 1
 626 0080 83F31188 		msr     BASEPRI, r3
 627              	@ 0 "" 2
 628              		.thumb
 629              	.LBE7:
 630 0084 FFF7FEFF 		bl	dbg_check_lock
 631              		.loc 1 207 0
 632 0088 0198     		ldr	r0, [sp, #4]
 633 008a FFF7FEFF 		bl	ldRequestDataI
 634 008e 0390     		str	r0, [sp, #12]
 635              		.loc 1 209 0
 636 0090 FFF7FEFF 		bl	dbg_check_unlock
 637              	.LBB8:
 638 0094 0023     		movs	r3, #0
 639              	@ 209 "/home/pauba/ChibiOS-RT/ext/LEDComm/ledcomm.c" 1
 640 0096 83F31188 		msr     BASEPRI, r3
 641              	@ 0 "" 2
 642              		.thumb
 643              	.LBE8:
 644              		.loc 1 214 0
 645 009a 039B     		ldr	r3, [sp, #12]
 646 009c 002B     		cmp	r3, #0
 647 009e 0BDA     		bge	.L29
 648              		.loc 1 216 0
 649 00a0 019B     		ldr	r3, [sp, #4]
 650 00a2 0022     		movs	r2, #0
 651 00a4 83F88A20 		strb	r2, [r3, #138]
 652              		.loc 1 217 0
 653 00a8 019A     		ldr	r2, [sp, #4]
 654 00aa 92F88830 		ldrb	r3, [r2, #136]
 655 00ae 6FF30103 		bfc	r3, #0, #2
 656 00b2 82F88830 		strb	r3, [r2, #136]
 657 00b6 0BE0     		b	.L30
 658              	.L29:
 659              		.loc 1 219 0
 660 00b8 039B     		ldr	r3, [sp, #12]
 661 00ba DAB2     		uxtb	r2, r3
 662 00bc 019B     		ldr	r3, [sp, #4]
 663 00be 83F88A20 		strb	r2, [r3, #138]
 664              		.loc 1 220 0
 665 00c2 019A     		ldr	r2, [sp, #4]
 666 00c4 92F88730 		ldrb	r3, [r2, #135]
 667 00c8 6FF34513 		bfc	r3, #5, #1
 668 00cc 82F88730 		strb	r3, [r2, #135]
 669              	.L30:
ARM GAS  /home/pauba/tmp/cca0qe6Z.s 			page 13


 670              		.loc 1 222 0
 671 00d0 019B     		ldr	r3, [sp, #4]
 672 00d2 93F88630 		ldrb	r3, [r3, #134]
 673 00d6 C3F34013 		ubfx	r3, r3, #5, #1
 674 00da DBB2     		uxtb	r3, r3
 675 00dc 012B     		cmp	r3, #1
 676 00de 01D1     		bne	.L31
 677              		.loc 1 222 0 is_stmt 0 discriminator 1
 678 00e0 0721     		movs	r1, #7
 679 00e2 00E0     		b	.L32
 680              	.L31:
 681              		.loc 1 222 0 discriminator 2
 682 00e4 0821     		movs	r1, #8
 683              	.L32:
 684              		.loc 1 222 0 discriminator 3
 685 00e6 019A     		ldr	r2, [sp, #4]
 686 00e8 92F88830 		ldrb	r3, [r2, #136]
 687 00ec 61F38503 		bfi	r3, r1, #2, #4
 688 00f0 82F88830 		strb	r3, [r2, #136]
 689 00f4 D1E0     		b	.L23
 690              	.L27:
 691              	.LBE6:
 692              		.loc 1 225 0 is_stmt 1
 693 00f6 019B     		ldr	r3, [sp, #4]
 694 00f8 93F89430 		ldrb	r3, [r3, #148]	@ zero_extendqisi2
 695 00fc 032B     		cmp	r3, #3
 696 00fe 5AD1     		bne	.L33
 697              		.loc 1 227 0
 698 0100 0198     		ldr	r0, [sp, #4]
 699 0102 FFF7FEFF 		bl	isLinkDown
 700 0106 0346     		mov	r3, r0
 701 0108 002B     		cmp	r3, #0
 702 010a 07D1     		bne	.L34
 703              		.loc 1 227 0 is_stmt 0 discriminator 1
 704 010c 019B     		ldr	r3, [sp, #4]
 705 010e 93F88730 		ldrb	r3, [r3, #135]
 706 0112 C3F34013 		ubfx	r3, r3, #5, #1
 707 0116 DBB2     		uxtb	r3, r3
 708 0118 012B     		cmp	r3, #1
 709 011a 07D1     		bne	.L35
 710              	.L34:
 711              		.loc 1 229 0 is_stmt 1
 712 011c 019A     		ldr	r2, [sp, #4]
 713 011e 92F88830 		ldrb	r3, [r2, #136]
 714 0122 6FF30103 		bfc	r3, #0, #2
 715 0126 82F88830 		strb	r3, [r2, #136]
 716 012a B6E0     		b	.L23
 717              	.L35:
 718              		.loc 1 230 0
 719 012c 019B     		ldr	r3, [sp, #4]
 720 012e 93F88830 		ldrb	r3, [r3, #136]
 721 0132 C3F38303 		ubfx	r3, r3, #2, #4
 722 0136 DBB2     		uxtb	r3, r3
 723 0138 002B     		cmp	r3, #0
 724 013a 08D1     		bne	.L37
 725              		.loc 1 231 0
 726 013c 019A     		ldr	r2, [sp, #4]
ARM GAS  /home/pauba/tmp/cca0qe6Z.s 			page 14


 727 013e 92F88830 		ldrb	r3, [r2, #136]
 728 0142 0221     		movs	r1, #2
 729 0144 61F30103 		bfi	r3, r1, #0, #2
 730 0148 82F88830 		strb	r3, [r2, #136]
 731 014c A5E0     		b	.L23
 732              	.L37:
 733              		.loc 1 233 0
 734 014e 019B     		ldr	r3, [sp, #4]
 735 0150 93F88A30 		ldrb	r3, [r3, #138]	@ zero_extendqisi2
 736 0154 1A46     		mov	r2, r3
 737 0156 019B     		ldr	r3, [sp, #4]
 738 0158 93F88830 		ldrb	r3, [r3, #136]
 739 015c C3F38303 		ubfx	r3, r3, #2, #4
 740 0160 DBB2     		uxtb	r3, r3
 741 0162 013B     		subs	r3, r3, #1
 742 0164 42FA03F3 		asr	r3, r2, r3
 743 0168 03F00103 		and	r3, r3, #1
 744 016c 002B     		cmp	r3, #0
 745 016e 08D0     		beq	.L38
 746              		.loc 1 234 0
 747 0170 019A     		ldr	r2, [sp, #4]
 748 0172 92F88830 		ldrb	r3, [r2, #136]
 749 0176 0121     		movs	r1, #1
 750 0178 61F30103 		bfi	r3, r1, #0, #2
 751 017c 82F88830 		strb	r3, [r2, #136]
 752 0180 06E0     		b	.L39
 753              	.L38:
 754              		.loc 1 236 0
 755 0182 019A     		ldr	r2, [sp, #4]
 756 0184 92F88830 		ldrb	r3, [r2, #136]
 757 0188 6FF30103 		bfc	r3, #0, #2
 758 018c 82F88830 		strb	r3, [r2, #136]
 759              	.L39:
 760              		.loc 1 238 0
 761 0190 019B     		ldr	r3, [sp, #4]
 762 0192 93F88830 		ldrb	r3, [r3, #136]
 763 0196 C3F38303 		ubfx	r3, r3, #2, #4
 764 019a DBB2     		uxtb	r3, r3
 765 019c 013B     		subs	r3, r3, #1
 766 019e DBB2     		uxtb	r3, r3
 767 01a0 03F00F03 		and	r3, r3, #15
 768 01a4 D9B2     		uxtb	r1, r3
 769 01a6 019A     		ldr	r2, [sp, #4]
 770 01a8 92F88830 		ldrb	r3, [r2, #136]
 771 01ac 61F38503 		bfi	r3, r1, #2, #4
 772 01b0 82F88830 		strb	r3, [r2, #136]
 773 01b4 71E0     		b	.L23
 774              	.L33:
 775              		.loc 1 240 0
 776 01b6 019B     		ldr	r3, [sp, #4]
 777 01b8 93F89430 		ldrb	r3, [r3, #148]	@ zero_extendqisi2
 778 01bc 032B     		cmp	r3, #3
 779 01be 46D9     		bls	.L40
 780              		.loc 1 240 0 is_stmt 0 discriminator 1
 781 01c0 019B     		ldr	r3, [sp, #4]
 782 01c2 93F89430 		ldrb	r3, [r3, #148]	@ zero_extendqisi2
 783 01c6 0D2B     		cmp	r3, #13
ARM GAS  /home/pauba/tmp/cca0qe6Z.s 			page 15


 784 01c8 41D8     		bhi	.L40
 785              		.loc 1 241 0 is_stmt 1
 786 01ca 019B     		ldr	r3, [sp, #4]
 787 01cc 93F89430 		ldrb	r3, [r3, #148]	@ zero_extendqisi2
 788 01d0 052B     		cmp	r3, #5
 789 01d2 07D1     		bne	.L41
 790              		.loc 1 241 0 is_stmt 0 discriminator 1
 791 01d4 019B     		ldr	r3, [sp, #4]
 792 01d6 93F88830 		ldrb	r3, [r3, #136]
 793 01da C3F30103 		ubfx	r3, r3, #0, #2
 794 01de DBB2     		uxtb	r3, r3
 795 01e0 012B     		cmp	r3, #1
 796 01e2 19D0     		beq	.L42
 797              	.L41:
 798              		.loc 1 242 0 is_stmt 1 discriminator 2
 799 01e4 019B     		ldr	r3, [sp, #4]
 800 01e6 93F89430 		ldrb	r3, [r3, #148]	@ zero_extendqisi2
 801              		.loc 1 241 0 discriminator 2
 802 01ea 092B     		cmp	r3, #9
 803 01ec 07D1     		bne	.L43
 804              		.loc 1 242 0
 805 01ee 019B     		ldr	r3, [sp, #4]
 806 01f0 93F88830 		ldrb	r3, [r3, #136]
 807 01f4 C3F30103 		ubfx	r3, r3, #0, #2
 808 01f8 DBB2     		uxtb	r3, r3
 809 01fa 002B     		cmp	r3, #0
 810 01fc 0CD0     		beq	.L42
 811              	.L43:
 812              		.loc 1 243 0 discriminator 1
 813 01fe 019B     		ldr	r3, [sp, #4]
 814 0200 93F89430 		ldrb	r3, [r3, #148]	@ zero_extendqisi2
 815              		.loc 1 242 0 discriminator 1
 816 0204 0D2B     		cmp	r3, #13
 817 0206 21D1     		bne	.L44
 818              		.loc 1 243 0
 819 0208 019B     		ldr	r3, [sp, #4]
 820 020a 93F88830 		ldrb	r3, [r3, #136]
 821 020e C3F30103 		ubfx	r3, r3, #0, #2
 822 0212 DBB2     		uxtb	r3, r3
 823 0214 022B     		cmp	r3, #2
 824 0216 19D1     		bne	.L44
 825              	.L42:
 826              		.loc 1 245 0
 827 0218 019B     		ldr	r3, [sp, #4]
 828 021a 0D22     		movs	r2, #13
 829 021c 83F89420 		strb	r2, [r3, #148]
 830              		.loc 1 246 0
 831 0220 019B     		ldr	r3, [sp, #4]
 832 0222 93F88830 		ldrb	r3, [r3, #136]
 833 0226 C3F30103 		ubfx	r3, r3, #0, #2
 834 022a DBB2     		uxtb	r3, r3
 835 022c 022B     		cmp	r3, #2
 836 022e 06D1     		bne	.L45
 837              		.loc 1 247 0
 838 0230 019A     		ldr	r2, [sp, #4]
 839 0232 92F88730 		ldrb	r3, [r2, #135]
 840 0236 43F02003 		orr	r3, r3, #32
ARM GAS  /home/pauba/tmp/cca0qe6Z.s 			page 16


 841 023a 82F88730 		strb	r3, [r2, #135]
 842              	.L45:
 843              		.loc 1 249 0
 844 023e 0198     		ldr	r0, [sp, #4]
 845 0240 FFF7FEFF 		bl	ledCommOff
 846              		.loc 1 250 0
 847 0244 0198     		ldr	r0, [sp, #4]
 848 0246 FFF7FEFF 		bl	ledCommPrepare
 849              		.loc 1 241 0
 850 024a 26E0     		b	.L23
 851              	.L44:
 852 024c 25E0     		b	.L23
 853              	.L40:
 854              		.loc 1 252 0
 855 024e 019B     		ldr	r3, [sp, #4]
 856 0250 93F89430 		ldrb	r3, [r3, #148]	@ zero_extendqisi2
 857 0254 0D2B     		cmp	r3, #13
 858 0256 0BD9     		bls	.L46
 859              		.loc 1 252 0 is_stmt 0 discriminator 1
 860 0258 019B     		ldr	r3, [sp, #4]
 861 025a 93F89430 		ldrb	r3, [r3, #148]	@ zero_extendqisi2
 862 025e 2D2B     		cmp	r3, #45
 863 0260 06D8     		bhi	.L46
 864              		.loc 1 254 0 is_stmt 1
 865 0262 0198     		ldr	r0, [sp, #4]
 866 0264 FFF7FEFF 		bl	ledCommDetect
 867              		.loc 1 255 0
 868 0268 0198     		ldr	r0, [sp, #4]
 869 026a FFF7FEFF 		bl	ledCommPrepare
 870 026e 14E0     		b	.L23
 871              	.L46:
 872              		.loc 1 257 0
 873 0270 0198     		ldr	r0, [sp, #4]
 874 0272 FFF7FEFF 		bl	ledCommDetect
 875              		.loc 1 258 0
 876 0276 019B     		ldr	r3, [sp, #4]
 877 0278 93F89430 		ldrb	r3, [r3, #148]	@ zero_extendqisi2
 878 027c 002B     		cmp	r3, #0
 879 027e 0CD0     		beq	.L23
 880              		.loc 1 264 0
 881 0280 019B     		ldr	r3, [sp, #4]
 882 0282 0022     		movs	r2, #0
 883 0284 83F89420 		strb	r2, [r3, #148]
 884              		.loc 1 277 0
 885 0288 0198     		ldr	r0, [sp, #4]
 886 028a FFF7FEFF 		bl	isLinkUp
 887 028e 0346     		mov	r3, r0
 888 0290 002B     		cmp	r3, #0
 889 0292 02D0     		beq	.L23
 890              		.loc 1 278 0
 891 0294 0198     		ldr	r0, [sp, #4]
 892 0296 FFF7FEFF 		bl	linkDown
 893              	.L23:
 894              		.loc 1 282 0
 895 029a 05B0     		add	sp, sp, #20
 896              		@ sp needed
 897 029c 5DF804FB 		ldr	pc, [sp], #4
ARM GAS  /home/pauba/tmp/cca0qe6Z.s 			page 17


 898              	.L48:
 899              		.align	2
 900              	.L47:
 901 02a0 00000000 		.word	EXTD1
 902              		.cfi_endproc
 903              	.LFE75:
 904              		.size	ledCommSerialHandler, .-ledCommSerialHandler
 905 02a4 AFF30080 		.section	.text.ldInit,"ax",%progbits
 905      AFF30080 
 905      AFF30080 
 906              		.align	2
 907              		.p2align 4,,15
 908              		.global	ldInit
 909              		.thumb
 910              		.thumb_func
 911              		.type	ldInit, %function
 912              	ldInit:
 913              	.LFB76:
 914              		.loc 1 296 0
 915              		.cfi_startproc
 916              		@ args = 0, pretend = 0, frame = 0
 917              		@ frame_needed = 0, uses_anonymous_args = 0
 918 0000 08B5     		push	{r3, lr}
 919              		.cfi_def_cfa_offset 8
 920              		.cfi_offset 3, -8
 921              		.cfi_offset 14, -4
 922              		.loc 1 303 0
 923 0002 0348     		ldr	r0, .L50
 924 0004 0021     		movs	r1, #0
 925 0006 0022     		movs	r2, #0
 926 0008 FFF7FEFF 		bl	ldObjectInit
 927              		.loc 1 305 0
 928 000c 08BD     		pop	{r3, pc}
 929              	.L51:
 930 000e 00BF     		.align	2
 931              	.L50:
 932 0010 00000000 		.word	LCOM2
 933              		.cfi_endproc
 934              	.LFE76:
 935              		.size	ldInit, .-ldInit
 936 0014 AFF30080 		.section	.text.ldObjectInit,"ax",%progbits
 936      AFF30080 
 936      AFF30080 
 937              		.align	2
 938              		.p2align 4,,15
 939              		.global	ldObjectInit
 940              		.thumb
 941              		.thumb_func
 942              		.type	ldObjectInit, %function
 943              	ldObjectInit:
 944              	.LFB77:
 945              		.loc 1 322 0
 946              		.cfi_startproc
 947              		@ args = 0, pretend = 0, frame = 16
 948              		@ frame_needed = 0, uses_anonymous_args = 0
 949 0000 00B5     		push	{lr}
 950              		.cfi_def_cfa_offset 4
ARM GAS  /home/pauba/tmp/cca0qe6Z.s 			page 18


 951              		.cfi_offset 14, -4
 952 0002 87B0     		sub	sp, sp, #28
 953              		.cfi_def_cfa_offset 32
 954 0004 0590     		str	r0, [sp, #20]
 955 0006 0491     		str	r1, [sp, #16]
 956 0008 0392     		str	r2, [sp, #12]
 957              		.loc 1 324 0
 958 000a 059B     		ldr	r3, [sp, #20]
 959 000c 124A     		ldr	r2, .L53
 960 000e 1A60     		str	r2, [r3]
 961              		.loc 1 325 0
 962 0010 059B     		ldr	r3, [sp, #20]
 963 0012 1A1D     		adds	r2, r3, #4
 964 0014 059B     		ldr	r3, [sp, #20]
 965 0016 5A60     		str	r2, [r3, #4]
 966              		.loc 1 326 0
 967 0018 059B     		ldr	r3, [sp, #20]
 968 001a 0122     		movs	r2, #1
 969 001c 1A72     		strb	r2, [r3, #8]
 970              		.loc 1 327 0
 971 001e 059B     		ldr	r3, [sp, #20]
 972 0020 03F10C02 		add	r2, r3, #12
 973 0024 059B     		ldr	r3, [sp, #20]
 974 0026 5433     		adds	r3, r3, #84
 975 0028 0599     		ldr	r1, [sp, #20]
 976 002a 0091     		str	r1, [sp]
 977 002c 1046     		mov	r0, r2
 978 002e 1946     		mov	r1, r3
 979 0030 1022     		movs	r2, #16
 980 0032 049B     		ldr	r3, [sp, #16]
 981 0034 FFF7FEFF 		bl	chIQInit
 982              		.loc 1 328 0
 983 0038 059B     		ldr	r3, [sp, #20]
 984 003a 03F13002 		add	r2, r3, #48
 985 003e 059B     		ldr	r3, [sp, #20]
 986 0040 6433     		adds	r3, r3, #100
 987 0042 0599     		ldr	r1, [sp, #20]
 988 0044 0091     		str	r1, [sp]
 989 0046 1046     		mov	r0, r2
 990 0048 1946     		mov	r1, r3
 991 004a 1022     		movs	r2, #16
 992 004c 039B     		ldr	r3, [sp, #12]
 993 004e FFF7FEFF 		bl	chOQInit
 994              		.loc 1 329 0
 995 0052 07B0     		add	sp, sp, #28
 996              		@ sp needed
 997 0054 5DF804FB 		ldr	pc, [sp], #4
 998              	.L54:
 999              		.align	2
 1000              	.L53:
 1001 0058 00000000 		.word	vmt
 1002              		.cfi_endproc
 1003              	.LFE77:
 1004              		.size	ldObjectInit, .-ldObjectInit
 1005 005c AFF30080 		.section	.rodata
 1006              		.align	2
 1007              	.LC0:
ARM GAS  /home/pauba/tmp/cca0qe6Z.s 			page 19


 1008 0000 226C6453 		.ascii	"\"ldStart\"()\000"
 1008      74617274 
 1008      22282900 
 1009              		.align	2
 1010              	.LC1:
 1011 000c 6C645374 		.ascii	"ldStart(), #1\000"
 1011      61727428 
 1011      292C2023 
 1011      3100
 1012              		.section	.text.ldStart,"ax",%progbits
 1013              		.align	2
 1014              		.p2align 4,,15
 1015              		.global	ldStart
 1016              		.thumb
 1017              		.thumb_func
 1018              		.type	ldStart, %function
 1019              	ldStart:
 1020              	.LFB78:
 1021              		.loc 1 341 0
 1022              		.cfi_startproc
 1023              		@ args = 0, pretend = 0, frame = 8
 1024              		@ frame_needed = 0, uses_anonymous_args = 0
 1025 0000 00B5     		push	{lr}
 1026              		.cfi_def_cfa_offset 4
 1027              		.cfi_offset 14, -4
 1028 0002 85B0     		sub	sp, sp, #20
 1029              		.cfi_def_cfa_offset 24
 1030 0004 0390     		str	r0, [sp, #12]
 1031 0006 0291     		str	r1, [sp, #8]
 1032              		.loc 1 348 0
 1033 0008 039B     		ldr	r3, [sp, #12]
 1034 000a 002B     		cmp	r3, #0
 1035 000c 02D1     		bne	.L56
 1036              		.loc 1 348 0 is_stmt 0 discriminator 1
 1037 000e 6348     		ldr	r0, .L62
 1038 0010 FFF7FEFF 		bl	chDbgPanic
 1039              	.L56:
 1040              	.LBB9:
 1041              		.loc 1 350 0 is_stmt 1
 1042 0014 2023     		movs	r3, #32
 1043              	@ 350 "/home/pauba/ChibiOS-RT/ext/LEDComm/ledcomm.c" 1
 1044 0016 83F31188 		msr     BASEPRI, r3
 1045              	@ 0 "" 2
 1046              		.thumb
 1047              	.LBE9:
 1048 001a FFF7FEFF 		bl	dbg_check_lock
 1049              		.loc 1 351 0
 1050 001e 039B     		ldr	r3, [sp, #12]
 1051 0020 1B7A     		ldrb	r3, [r3, #8]	@ zero_extendqisi2
 1052 0022 012B     		cmp	r3, #1
 1053 0024 06D0     		beq	.L57
 1054              		.loc 1 351 0 is_stmt 0 discriminator 1
 1055 0026 039B     		ldr	r3, [sp, #12]
 1056 0028 1B7A     		ldrb	r3, [r3, #8]	@ zero_extendqisi2
 1057 002a 022B     		cmp	r3, #2
 1058 002c 02D0     		beq	.L57
 1059 002e 5C48     		ldr	r0, .L62+4
ARM GAS  /home/pauba/tmp/cca0qe6Z.s 			page 20


 1060 0030 FFF7FEFF 		bl	chDbgPanic
 1061              	.L57:
 1062              		.loc 1 355 0 is_stmt 1
 1063 0034 029B     		ldr	r3, [sp, #8]
 1064 0036 002B     		cmp	r3, #0
 1065 0038 01D1     		bne	.L58
 1066              		.loc 1 356 0
 1067 003a 5A4B     		ldr	r3, .L62+8
 1068 003c 0293     		str	r3, [sp, #8]
 1069              	.L58:
 1070              		.loc 1 359 0
 1071 003e 029B     		ldr	r3, [sp, #8]
 1072 0040 1A68     		ldr	r2, [r3]
 1073 0042 039B     		ldr	r3, [sp, #12]
 1074 0044 5A67     		str	r2, [r3, #116]
 1075              		.loc 1 360 0
 1076 0046 029B     		ldr	r3, [sp, #8]
 1077 0048 5A68     		ldr	r2, [r3, #4]
 1078 004a 039B     		ldr	r3, [sp, #12]
 1079 004c 9A67     		str	r2, [r3, #120]
 1080              		.loc 1 361 0
 1081 004e 029B     		ldr	r3, [sp, #8]
 1082 0050 9A68     		ldr	r2, [r3, #8]
 1083 0052 039B     		ldr	r3, [sp, #12]
 1084 0054 DA67     		str	r2, [r3, #124]
 1085              		.loc 1 362 0
 1086 0056 029B     		ldr	r3, [sp, #8]
 1087 0058 DA68     		ldr	r2, [r3, #12]
 1088 005a 039B     		ldr	r3, [sp, #12]
 1089 005c C3F88020 		str	r2, [r3, #128]
 1090              		.loc 1 363 0
 1091 0060 029B     		ldr	r3, [sp, #8]
 1092 0062 9A8A     		ldrh	r2, [r3, #20]
 1093 0064 039B     		ldr	r3, [sp, #12]
 1094 0066 A3F88420 		strh	r2, [r3, #132]	@ movhi
 1095              		.loc 1 364 0
 1096 006a 039A     		ldr	r2, [sp, #12]
 1097 006c 92F88630 		ldrb	r3, [r2, #134]
 1098 0070 1221     		movs	r1, #18
 1099 0072 61F30403 		bfi	r3, r1, #0, #5
 1100 0076 82F88630 		strb	r3, [r2, #134]
 1101              		.loc 1 365 0
 1102 007a 029B     		ldr	r3, [sp, #8]
 1103 007c 9B7D     		ldrb	r3, [r3, #22]
 1104 007e C3F30003 		ubfx	r3, r3, #0, #1
 1105 0082 D9B2     		uxtb	r1, r3
 1106 0084 039A     		ldr	r2, [sp, #12]
 1107 0086 92F88630 		ldrb	r3, [r2, #134]
 1108 008a 61F34513 		bfi	r3, r1, #5, #1
 1109 008e 82F88630 		strb	r3, [r2, #134]
 1110              		.loc 1 367 0
 1111 0092 0398     		ldr	r0, [sp, #12]
 1112 0094 FFF7FEFF 		bl	ledCommInitPad
 1113              		.loc 1 369 0
 1114 0098 039B     		ldr	r3, [sp, #12]
 1115 009a D3F88020 		ldr	r2, [r3, #128]
 1116 009e 029B     		ldr	r3, [sp, #8]
ARM GAS  /home/pauba/tmp/cca0qe6Z.s 			page 21


 1117 00a0 1969     		ldr	r1, [r3, #16]
 1118 00a2 414B     		ldr	r3, .L62+12
 1119 00a4 43F83210 		str	r1, [r3, r2, lsl #3]
 1120              		.loc 1 370 0
 1121 00a8 039B     		ldr	r3, [sp, #12]
 1122 00aa D3F88030 		ldr	r3, [r3, #128]
 1123 00ae 3E4A     		ldr	r2, .L62+12
 1124 00b0 DB00     		lsls	r3, r3, #3
 1125 00b2 1344     		add	r3, r3, r2
 1126 00b4 3D4A     		ldr	r2, .L62+16
 1127 00b6 5A60     		str	r2, [r3, #4]
 1128              		.loc 1 372 0
 1129 00b8 039B     		ldr	r3, [sp, #12]
 1130 00ba 1B7A     		ldrb	r3, [r3, #8]	@ zero_extendqisi2
 1131 00bc 012B     		cmp	r3, #1
 1132 00be 4FD1     		bne	.L59
 1133              		.loc 1 373 0
 1134 00c0 039A     		ldr	r2, [sp, #12]
 1135 00c2 92F88730 		ldrb	r3, [r2, #135]
 1136 00c6 43F00803 		orr	r3, r3, #8
 1137 00ca 82F88730 		strb	r3, [r2, #135]
 1138              		.loc 1 374 0
 1139 00ce 039A     		ldr	r2, [sp, #12]
 1140 00d0 92F88730 		ldrb	r3, [r2, #135]
 1141 00d4 6FF30413 		bfc	r3, #4, #1
 1142 00d8 82F88730 		strb	r3, [r2, #135]
 1143              		.loc 1 375 0
 1144 00dc 039A     		ldr	r2, [sp, #12]
 1145 00de 92F88730 		ldrb	r3, [r2, #135]
 1146 00e2 43F02003 		orr	r3, r3, #32
 1147 00e6 82F88730 		strb	r3, [r2, #135]
 1148              		.loc 1 376 0
 1149 00ea 039A     		ldr	r2, [sp, #12]
 1150 00ec 92F88730 		ldrb	r3, [r2, #135]
 1151 00f0 6FF38613 		bfc	r3, #6, #1
 1152 00f4 82F88730 		strb	r3, [r2, #135]
 1153              		.loc 1 377 0
 1154 00f8 039A     		ldr	r2, [sp, #12]
 1155 00fa 92F88830 		ldrb	r3, [r2, #136]
 1156 00fe 6FF30103 		bfc	r3, #0, #2
 1157 0102 82F88830 		strb	r3, [r2, #136]
 1158              		.loc 1 378 0
 1159 0106 039B     		ldr	r3, [sp, #12]
 1160 0108 93F88630 		ldrb	r3, [r3, #134]
 1161 010c C3F34013 		ubfx	r3, r3, #5, #1
 1162 0110 DBB2     		uxtb	r3, r3
 1163 0112 012B     		cmp	r3, #1
 1164 0114 01D1     		bne	.L60
 1165              		.loc 1 378 0 is_stmt 0 discriminator 1
 1166 0116 0721     		movs	r1, #7
 1167 0118 00E0     		b	.L61
 1168              	.L60:
 1169              		.loc 1 378 0 discriminator 2
 1170 011a 0821     		movs	r1, #8
 1171              	.L61:
 1172              		.loc 1 378 0 discriminator 3
 1173 011c 039A     		ldr	r2, [sp, #12]
ARM GAS  /home/pauba/tmp/cca0qe6Z.s 			page 22


 1174 011e 92F88830 		ldrb	r3, [r2, #136]
 1175 0122 61F38503 		bfi	r3, r1, #2, #4
 1176 0126 82F88830 		strb	r3, [r2, #136]
 1177              		.loc 1 379 0 is_stmt 1 discriminator 3
 1178 012a 039B     		ldr	r3, [sp, #12]
 1179 012c 0022     		movs	r2, #0
 1180 012e 83F88A20 		strb	r2, [r3, #138]
 1181              		.loc 1 380 0 discriminator 3
 1182 0132 039B     		ldr	r3, [sp, #12]
 1183 0134 0022     		movs	r2, #0
 1184 0136 83F88B20 		strb	r2, [r3, #139]
 1185              		.loc 1 381 0 discriminator 3
 1186 013a 039A     		ldr	r2, [sp, #12]
 1187 013c 92F88930 		ldrb	r3, [r2, #137]
 1188 0140 6FF30303 		bfc	r3, #0, #4
 1189 0144 82F88930 		strb	r3, [r2, #137]
 1190              		.loc 1 382 0 discriminator 3
 1191 0148 039B     		ldr	r3, [sp, #12]
 1192 014a 0022     		movs	r2, #0
 1193 014c A3F88C20 		strh	r2, [r3, #140]	@ movhi
 1194              		.loc 1 383 0 discriminator 3
 1195 0150 039B     		ldr	r3, [sp, #12]
 1196 0152 0022     		movs	r2, #0
 1197 0154 C3F89020 		str	r2, [r3, #144]
 1198              		.loc 1 384 0 discriminator 3
 1199 0158 039B     		ldr	r3, [sp, #12]
 1200 015a 0022     		movs	r2, #0
 1201 015c 83F89420 		strb	r2, [r3, #148]
 1202              	.L59:
 1203              		.loc 1 388 0
 1204 0160 FFF7FEFF 		bl	dbg_check_unlock
 1205              	.LBB10:
 1206 0164 0023     		movs	r3, #0
 1207              	@ 388 "/home/pauba/ChibiOS-RT/ext/LEDComm/ledcomm.c" 1
 1208 0166 83F31188 		msr     BASEPRI, r3
 1209              	@ 0 "" 2
 1210              		.thumb
 1211              	.LBE10:
 1212              		.loc 1 389 0
 1213 016a 0023     		movs	r3, #0
 1214 016c 0093     		str	r3, [sp]
 1215 016e 1048     		ldr	r0, .L62+20
 1216 0170 4FF43471 		mov	r1, #720
 1217 0174 7F22     		movs	r2, #127
 1218 0176 0F4B     		ldr	r3, .L62+24
 1219 0178 FFF7FEFF 		bl	chThdCreateStatic
 1220              	.LBB11:
 1221              		.loc 1 390 0
 1222 017c 2023     		movs	r3, #32
 1223              	@ 390 "/home/pauba/ChibiOS-RT/ext/LEDComm/ledcomm.c" 1
 1224 017e 83F31188 		msr     BASEPRI, r3
 1225              	@ 0 "" 2
 1226              		.thumb
 1227              	.LBE11:
 1228 0182 FFF7FEFF 		bl	dbg_check_lock
 1229              		.loc 1 400 0
 1230 0186 039B     		ldr	r3, [sp, #12]
ARM GAS  /home/pauba/tmp/cca0qe6Z.s 			page 23


 1231 0188 0222     		movs	r2, #2
 1232 018a 1A72     		strb	r2, [r3, #8]
 1233              		.loc 1 401 0
 1234 018c FFF7FEFF 		bl	dbg_check_unlock
 1235              	.LBB12:
 1236 0190 0023     		movs	r3, #0
 1237              	@ 401 "/home/pauba/ChibiOS-RT/ext/LEDComm/ledcomm.c" 1
 1238 0192 83F31188 		msr     BASEPRI, r3
 1239              	@ 0 "" 2
 1240              		.thumb
 1241              	.LBE12:
 1242              		.loc 1 402 0
 1243 0196 05B0     		add	sp, sp, #20
 1244              		@ sp needed
 1245 0198 5DF804FB 		ldr	pc, [sp], #4
 1246              	.L63:
 1247              		.align	2
 1248              	.L62:
 1249 019c 00000000 		.word	.LC0
 1250 01a0 0C000000 		.word	.LC1
 1251 01a4 00000000 		.word	default_config
 1252 01a8 00000000 		.word	extcfg
 1253 01ac 00000000 		.word	extcb1
 1254 01b0 00000000 		.word	waLEDCommThread
 1255 01b4 00000000 		.word	LEDCommThread
 1256              		.cfi_endproc
 1257              	.LFE78:
 1258              		.size	ldStart, .-ldStart
 1259 01b8 AFF30080 		.section	.rodata
 1259      AFF30080 
 1260 001a 0000     		.align	2
 1261              	.LC2:
 1262 001c 226C6453 		.ascii	"\"ldStop\"()\000"
 1262      746F7022 
 1262      282900
 1263 0027 00       		.align	2
 1264              	.LC3:
 1265 0028 6C645374 		.ascii	"ldStop(), #1\000"
 1265      6F702829 
 1265      2C202331 
 1265      00
 1266              		.section	.text.ldStop,"ax",%progbits
 1267              		.align	2
 1268              		.p2align 4,,15
 1269              		.global	ldStop
 1270              		.thumb
 1271              		.thumb_func
 1272              		.type	ldStop, %function
 1273              	ldStop:
 1274              	.LFB79:
 1275              		.loc 1 413 0
 1276              		.cfi_startproc
 1277              		@ args = 0, pretend = 0, frame = 8
 1278              		@ frame_needed = 0, uses_anonymous_args = 0
 1279 0000 00B5     		push	{lr}
 1280              		.cfi_def_cfa_offset 4
 1281              		.cfi_offset 14, -4
ARM GAS  /home/pauba/tmp/cca0qe6Z.s 			page 24


 1282 0002 83B0     		sub	sp, sp, #12
 1283              		.cfi_def_cfa_offset 16
 1284 0004 0190     		str	r0, [sp, #4]
 1285              		.loc 1 415 0
 1286 0006 019B     		ldr	r3, [sp, #4]
 1287 0008 002B     		cmp	r3, #0
 1288 000a 02D1     		bne	.L65
 1289              		.loc 1 415 0 is_stmt 0 discriminator 1
 1290 000c 1648     		ldr	r0, .L67
 1291 000e FFF7FEFF 		bl	chDbgPanic
 1292              	.L65:
 1293              	.LBB13:
 1294              		.loc 1 417 0 is_stmt 1
 1295 0012 2023     		movs	r3, #32
 1296              	@ 417 "/home/pauba/ChibiOS-RT/ext/LEDComm/ledcomm.c" 1
 1297 0014 83F31188 		msr     BASEPRI, r3
 1298              	@ 0 "" 2
 1299              		.thumb
 1300              	.LBE13:
 1301 0018 FFF7FEFF 		bl	dbg_check_lock
 1302              		.loc 1 418 0
 1303 001c 019B     		ldr	r3, [sp, #4]
 1304 001e 1B7A     		ldrb	r3, [r3, #8]	@ zero_extendqisi2
 1305 0020 012B     		cmp	r3, #1
 1306 0022 06D0     		beq	.L66
 1307              		.loc 1 418 0 is_stmt 0 discriminator 1
 1308 0024 019B     		ldr	r3, [sp, #4]
 1309 0026 1B7A     		ldrb	r3, [r3, #8]	@ zero_extendqisi2
 1310 0028 022B     		cmp	r3, #2
 1311 002a 02D0     		beq	.L66
 1312 002c 0F48     		ldr	r0, .L67+4
 1313 002e FFF7FEFF 		bl	chDbgPanic
 1314              	.L66:
 1315              		.loc 1 421 0 is_stmt 1
 1316 0032 019B     		ldr	r3, [sp, #4]
 1317 0034 0122     		movs	r2, #1
 1318 0036 1A72     		strb	r2, [r3, #8]
 1319              		.loc 1 422 0
 1320 0038 019B     		ldr	r3, [sp, #4]
 1321 003a 3033     		adds	r3, r3, #48
 1322 003c 1846     		mov	r0, r3
 1323 003e FFF7FEFF 		bl	chOQResetI
 1324              		.loc 1 423 0
 1325 0042 019B     		ldr	r3, [sp, #4]
 1326 0044 0C33     		adds	r3, r3, #12
 1327 0046 1846     		mov	r0, r3
 1328 0048 FFF7FEFF 		bl	chIQResetI
 1329              		.loc 1 424 0
 1330 004c FFF7FEFF 		bl	chSchRescheduleS
 1331              		.loc 1 425 0
 1332 0050 FFF7FEFF 		bl	dbg_check_unlock
 1333              	.LBB14:
 1334 0054 0023     		movs	r3, #0
 1335              	@ 425 "/home/pauba/ChibiOS-RT/ext/LEDComm/ledcomm.c" 1
 1336 0056 83F31188 		msr     BASEPRI, r3
 1337              	@ 0 "" 2
 1338              		.thumb
ARM GAS  /home/pauba/tmp/cca0qe6Z.s 			page 25


 1339              	.LBE14:
 1340              		.loc 1 426 0
 1341 005a 0548     		ldr	r0, .L67+8
 1342 005c FFF7FEFF 		bl	extStop
 1343              		.loc 1 427 0
 1344 0060 03B0     		add	sp, sp, #12
 1345              		@ sp needed
 1346 0062 5DF804FB 		ldr	pc, [sp], #4
 1347              	.L68:
 1348 0066 00BF     		.align	2
 1349              	.L67:
 1350 0068 1C000000 		.word	.LC2
 1351 006c 28000000 		.word	.LC3
 1352 0070 00000000 		.word	EXTD1
 1353              		.cfi_endproc
 1354              	.LFE79:
 1355              		.size	ldStop, .-ldStop
 1356 0074 AFF30080 		.section	.rodata
 1356      AFF30080 
 1356      AFF30080 
 1357 0035 000000   		.align	2
 1358              	.LC4:
 1359 0038 226C6449 		.ascii	"\"ldIncomingDataI\"()\000"
 1359      6E636F6D 
 1359      696E6744 
 1359      61746149 
 1359      22282900 
 1360              		.section	.text.ldIncomingDataI,"ax",%progbits
 1361              		.align	2
 1362              		.p2align 4,,15
 1363              		.global	ldIncomingDataI
 1364              		.thumb
 1365              		.thumb_func
 1366              		.type	ldIncomingDataI, %function
 1367              	ldIncomingDataI:
 1368              	.LFB80:
 1369              		.loc 1 445 0
 1370              		.cfi_startproc
 1371              		@ args = 0, pretend = 0, frame = 8
 1372              		@ frame_needed = 0, uses_anonymous_args = 0
 1373 0000 00B5     		push	{lr}
 1374              		.cfi_def_cfa_offset 4
 1375              		.cfi_offset 14, -4
 1376 0002 83B0     		sub	sp, sp, #12
 1377              		.cfi_def_cfa_offset 16
 1378 0004 0190     		str	r0, [sp, #4]
 1379 0006 0B46     		mov	r3, r1
 1380 0008 8DF80330 		strb	r3, [sp, #3]
 1381              		.loc 1 447 0
 1382 000c FFF7FEFF 		bl	chDbgCheckClassI
 1383              		.loc 1 448 0
 1384 0010 019B     		ldr	r3, [sp, #4]
 1385 0012 002B     		cmp	r3, #0
 1386 0014 02D1     		bne	.L70
 1387              		.loc 1 448 0 is_stmt 0 discriminator 1
 1388 0016 1148     		ldr	r0, .L73
 1389 0018 FFF7FEFF 		bl	chDbgPanic
ARM GAS  /home/pauba/tmp/cca0qe6Z.s 			page 26


 1390              	.L70:
 1391              		.loc 1 451 0 is_stmt 1
 1392 001c 019B     		ldr	r3, [sp, #4]
 1393 001e 5B69     		ldr	r3, [r3, #20]
 1394 0020 002B     		cmp	r3, #0
 1395 0022 05D1     		bne	.L71
 1396              		.loc 1 452 0
 1397 0024 019B     		ldr	r3, [sp, #4]
 1398 0026 0433     		adds	r3, r3, #4
 1399 0028 1846     		mov	r0, r3
 1400 002a 0421     		movs	r1, #4
 1401 002c FFF7FEFF 		bl	chEvtBroadcastFlagsI
 1402              	.L71:
 1403              		.loc 1 455 0
 1404 0030 019B     		ldr	r3, [sp, #4]
 1405 0032 03F10C02 		add	r2, r3, #12
 1406 0036 9DF80330 		ldrb	r3, [sp, #3]	@ zero_extendqisi2
 1407 003a 1046     		mov	r0, r2
 1408 003c 1946     		mov	r1, r3
 1409 003e FFF7FEFF 		bl	chIQPutI
 1410 0042 0346     		mov	r3, r0
 1411 0044 002B     		cmp	r3, #0
 1412 0046 05DA     		bge	.L69
 1413              		.loc 1 456 0
 1414 0048 019B     		ldr	r3, [sp, #4]
 1415 004a 0433     		adds	r3, r3, #4
 1416 004c 1846     		mov	r0, r3
 1417 004e 8021     		movs	r1, #128
 1418 0050 FFF7FEFF 		bl	chEvtBroadcastFlagsI
 1419              	.L69:
 1420              		.loc 1 457 0
 1421 0054 03B0     		add	sp, sp, #12
 1422              		@ sp needed
 1423 0056 5DF804FB 		ldr	pc, [sp], #4
 1424              	.L74:
 1425 005a 00BF     		.align	2
 1426              	.L73:
 1427 005c 38000000 		.word	.LC4
 1428              		.cfi_endproc
 1429              	.LFE80:
 1430              		.size	ldIncomingDataI, .-ldIncomingDataI
 1431              		.section	.rodata
 1432              		.align	2
 1433              	.LC5:
 1434 004c 226C6452 		.ascii	"\"ldRequestDataI\"()\000"
 1434      65717565 
 1434      73744461 
 1434      74614922 
 1434      282900
 1435 005f 00       		.section	.text.ldRequestDataI,"ax",%progbits
 1436              		.align	2
 1437              		.p2align 4,,15
 1438              		.global	ldRequestDataI
 1439              		.thumb
 1440              		.thumb_func
 1441              		.type	ldRequestDataI, %function
 1442              	ldRequestDataI:
ARM GAS  /home/pauba/tmp/cca0qe6Z.s 			page 27


 1443              	.LFB81:
 1444              		.loc 1 474 0
 1445              		.cfi_startproc
 1446              		@ args = 0, pretend = 0, frame = 16
 1447              		@ frame_needed = 0, uses_anonymous_args = 0
 1448 0000 00B5     		push	{lr}
 1449              		.cfi_def_cfa_offset 4
 1450              		.cfi_offset 14, -4
 1451 0002 85B0     		sub	sp, sp, #20
 1452              		.cfi_def_cfa_offset 24
 1453 0004 0190     		str	r0, [sp, #4]
 1454              		.loc 1 477 0
 1455 0006 FFF7FEFF 		bl	chDbgCheckClassI
 1456              		.loc 1 478 0
 1457 000a 019B     		ldr	r3, [sp, #4]
 1458 000c 002B     		cmp	r3, #0
 1459 000e 02D1     		bne	.L76
 1460              		.loc 1 478 0 is_stmt 0 discriminator 1
 1461 0010 0B48     		ldr	r0, .L79
 1462 0012 FFF7FEFF 		bl	chDbgPanic
 1463              	.L76:
 1464              		.loc 1 480 0 is_stmt 1
 1465 0016 019B     		ldr	r3, [sp, #4]
 1466 0018 3033     		adds	r3, r3, #48
 1467 001a 1846     		mov	r0, r3
 1468 001c FFF7FEFF 		bl	chOQGetI
 1469 0020 0390     		str	r0, [sp, #12]
 1470              		.loc 1 482 0
 1471 0022 039B     		ldr	r3, [sp, #12]
 1472 0024 002B     		cmp	r3, #0
 1473 0026 05DA     		bge	.L77
 1474              		.loc 1 483 0
 1475 0028 019B     		ldr	r3, [sp, #4]
 1476 002a 0433     		adds	r3, r3, #4
 1477 002c 1846     		mov	r0, r3
 1478 002e 0821     		movs	r1, #8
 1479 0030 FFF7FEFF 		bl	chEvtBroadcastFlagsI
 1480              	.L77:
 1481              		.loc 1 485 0
 1482 0034 039B     		ldr	r3, [sp, #12]
 1483              		.loc 1 486 0
 1484 0036 1846     		mov	r0, r3
 1485 0038 05B0     		add	sp, sp, #20
 1486              		@ sp needed
 1487 003a 5DF804FB 		ldr	pc, [sp], #4
 1488              	.L80:
 1489 003e 00BF     		.align	2
 1490              	.L79:
 1491 0040 4C000000 		.word	.LC5
 1492              		.cfi_endproc
 1493              	.LFE81:
 1494              		.size	ldRequestDataI, .-ldRequestDataI
 1495 0044 AFF30080 		.text
 1495      AFF30080 
 1495      AFF30080 
 1496              	.Letext0:
 1497              		.file 2 "/opt/gcc-arm-none-eabi-4_8-2014q1/lib/gcc/arm-none-eabi/4.8.3/include/stddef.h"
ARM GAS  /home/pauba/tmp/cca0qe6Z.s 			page 28


 1498              		.file 3 "/opt/gcc-arm-none-eabi-4_8-2014q1/arm-none-eabi/include/machine/_default_types.h"
 1499              		.file 4 "/opt/gcc-arm-none-eabi-4_8-2014q1/arm-none-eabi/include/stdint.h"
 1500              		.file 5 "/home/pauba/ChibiOS-RT/os/ports/GCC/ARMCMx/chtypes.h"
 1501              		.file 6 "/home/pauba/ChibiOS-RT/os/kernel/include/chlists.h"
 1502              		.file 7 "/home/pauba/ChibiOS-RT/os/kernel/include/chthreads.h"
 1503              		.file 8 "/home/pauba/ChibiOS-RT/os/ports/GCC/ARMCMx/chcore_v7m.h"
 1504              		.file 9 "/home/pauba/ChibiOS-RT/os/kernel/include/chmtx.h"
 1505              		.file 10 "/home/pauba/ChibiOS-RT/os/kernel/include/chevents.h"
 1506              		.file 11 "/home/pauba/ChibiOS-RT/os/kernel/include/chqueues.h"
 1507              		.file 12 "/home/pauba/ChibiOS-RT/os/hal/platforms/STM32/GPIOv2/pal_lld.h"
 1508              		.file 13 "/home/pauba/ChibiOS-RT/os/hal/include/ext.h"
 1509              		.file 14 "/home/pauba/ChibiOS-RT/os/hal/platforms/STM32/ext_lld.h"
 1510              		.file 15 "/home/pauba/ChibiOS-RT/ext/LEDComm/ledcomm.h"
 1511              		.file 16 "/home/pauba/ChibiOS-RT/os/ports/common/ARMCMx/CMSIS/include/core_cm3.h"