ARM GAS  /home/pauba/tmp/cca0qe6Z.s 			page 1


   1              		.syntax unified
   2              		.cpu cortex-m4
   3              		.fpu softvfp
   4              		.eabi_attribute 20, 1
   5              		.eabi_attribute 21, 1
   6              		.eabi_attribute 23, 3
   7              		.eabi_attribute 24, 1
   8              		.eabi_attribute 25, 1
   9              		.eabi_attribute 26, 1
  10              		.eabi_attribute 30, 6
  11              		.eabi_attribute 34, 1
  12              		.eabi_attribute 18, 4
  13              		.thumb
  14              		.file	"ledcomm.c"
  15              		.text
  16              	.Ltext0:
  17              		.cfi_sections	.debug_frame
  18              		.global	LCOM2
  19              		.section	.bss.LCOM2,"aw",%nobits
  20              		.align	2
  21              		.type	LCOM2, %object
  22              		.size	LCOM2, 152
  23              	LCOM2:
  24 0000 00000000 		.space	152
  24      00000000 
  24      00000000 
  24      00000000 
  24      00000000 
  25              		.section	.text.write,"ax",%progbits
  26              		.align	2
  27              		.p2align 4,,15
  28              		.thumb
  29              		.thumb_func
  30              		.type	write, %function
  31              	write:
  32              	.LFB63:
  33              		.file 1 "/home/pauba/ChibiOS-RT/ext/LEDComm/ledcomm.c"
  34              		.loc 1 80 0
  35              		.cfi_startproc
  36              		@ args = 0, pretend = 0, frame = 16
  37              		@ frame_needed = 0, uses_anonymous_args = 0
  38 0000 00B5     		push	{lr}
  39              		.cfi_def_cfa_offset 4
  40              		.cfi_offset 14, -4
  41 0002 85B0     		sub	sp, sp, #20
  42              		.cfi_def_cfa_offset 24
  43 0004 0390     		str	r0, [sp, #12]
  44 0006 0291     		str	r1, [sp, #8]
  45 0008 0192     		str	r2, [sp, #4]
  46              		.loc 1 82 0
  47 000a 039B     		ldr	r3, [sp, #12]
  48 000c 3033     		adds	r3, r3, #48
  49 000e 1846     		mov	r0, r3
  50 0010 0299     		ldr	r1, [sp, #8]
  51 0012 019A     		ldr	r2, [sp, #4]
  52 0014 4FF0FF33 		mov	r3, #-1
  53 0018 FFF7FEFF 		bl	chOQWriteTimeout
ARM GAS  /home/pauba/tmp/cca0qe6Z.s 			page 2


  54 001c 0346     		mov	r3, r0
  55              		.loc 1 84 0
  56 001e 1846     		mov	r0, r3
  57 0020 05B0     		add	sp, sp, #20
  58              		@ sp needed
  59 0022 5DF804FB 		ldr	pc, [sp], #4
  60              		.cfi_endproc
  61              	.LFE63:
  62              		.size	write, .-write
  63 0026 00BFAFF3 		.section	.text.read,"ax",%progbits
  63      0080AFF3 
  63      0080
  64              		.align	2
  65              		.p2align 4,,15
  66              		.thumb
  67              		.thumb_func
  68              		.type	read, %function
  69              	read:
  70              	.LFB64:
  71              		.loc 1 86 0
  72              		.cfi_startproc
  73              		@ args = 0, pretend = 0, frame = 16
  74              		@ frame_needed = 0, uses_anonymous_args = 0
  75 0000 00B5     		push	{lr}
  76              		.cfi_def_cfa_offset 4
  77              		.cfi_offset 14, -4
  78 0002 85B0     		sub	sp, sp, #20
  79              		.cfi_def_cfa_offset 24
  80 0004 0390     		str	r0, [sp, #12]
  81 0006 0291     		str	r1, [sp, #8]
  82 0008 0192     		str	r2, [sp, #4]
  83              		.loc 1 88 0
  84 000a 039B     		ldr	r3, [sp, #12]
  85 000c 0C33     		adds	r3, r3, #12
  86 000e 1846     		mov	r0, r3
  87 0010 0299     		ldr	r1, [sp, #8]
  88 0012 019A     		ldr	r2, [sp, #4]
  89 0014 4FF0FF33 		mov	r3, #-1
  90 0018 FFF7FEFF 		bl	chIQReadTimeout
  91 001c 0346     		mov	r3, r0
  92              		.loc 1 90 0
  93 001e 1846     		mov	r0, r3
  94 0020 05B0     		add	sp, sp, #20
  95              		@ sp needed
  96 0022 5DF804FB 		ldr	pc, [sp], #4
  97              		.cfi_endproc
  98              	.LFE64:
  99              		.size	read, .-read
 100 0026 00BFAFF3 		.section	.text.put,"ax",%progbits
 100      0080AFF3 
 100      0080
 101              		.align	2
 102              		.p2align 4,,15
 103              		.thumb
 104              		.thumb_func
 105              		.type	put, %function
 106              	put:
ARM GAS  /home/pauba/tmp/cca0qe6Z.s 			page 3


 107              	.LFB65:
 108              		.loc 1 92 0
 109              		.cfi_startproc
 110              		@ args = 0, pretend = 0, frame = 8
 111              		@ frame_needed = 0, uses_anonymous_args = 0
 112 0000 00B5     		push	{lr}
 113              		.cfi_def_cfa_offset 4
 114              		.cfi_offset 14, -4
 115 0002 83B0     		sub	sp, sp, #12
 116              		.cfi_def_cfa_offset 16
 117 0004 0190     		str	r0, [sp, #4]
 118 0006 0B46     		mov	r3, r1
 119 0008 8DF80330 		strb	r3, [sp, #3]
 120              		.loc 1 94 0
 121 000c 019B     		ldr	r3, [sp, #4]
 122 000e 03F13002 		add	r2, r3, #48
 123 0012 9DF80330 		ldrb	r3, [sp, #3]	@ zero_extendqisi2
 124 0016 1046     		mov	r0, r2
 125 0018 1946     		mov	r1, r3
 126 001a 4FF0FF32 		mov	r2, #-1
 127 001e FFF7FEFF 		bl	chOQPutTimeout
 128 0022 0346     		mov	r3, r0
 129              		.loc 1 95 0
 130 0024 1846     		mov	r0, r3
 131 0026 03B0     		add	sp, sp, #12
 132              		@ sp needed
 133 0028 5DF804FB 		ldr	pc, [sp], #4
 134              		.cfi_endproc
 135              	.LFE65:
 136              		.size	put, .-put
 137 002c AFF30080 		.section	.text.get,"ax",%progbits
 138              		.align	2
 139              		.p2align 4,,15
 140              		.thumb
 141              		.thumb_func
 142              		.type	get, %function
 143              	get:
 144              	.LFB66:
 145              		.loc 1 97 0
 146              		.cfi_startproc
 147              		@ args = 0, pretend = 0, frame = 8
 148              		@ frame_needed = 0, uses_anonymous_args = 0
 149 0000 00B5     		push	{lr}
 150              		.cfi_def_cfa_offset 4
 151              		.cfi_offset 14, -4
 152 0002 83B0     		sub	sp, sp, #12
 153              		.cfi_def_cfa_offset 16
 154 0004 0190     		str	r0, [sp, #4]
 155              		.loc 1 99 0
 156 0006 019B     		ldr	r3, [sp, #4]
 157 0008 0C33     		adds	r3, r3, #12
 158 000a 1846     		mov	r0, r3
 159 000c 4FF0FF31 		mov	r1, #-1
 160 0010 FFF7FEFF 		bl	chIQGetTimeout
 161 0014 0346     		mov	r3, r0
 162              		.loc 1 100 0
 163 0016 1846     		mov	r0, r3
ARM GAS  /home/pauba/tmp/cca0qe6Z.s 			page 4


 164 0018 03B0     		add	sp, sp, #12
 165              		@ sp needed
 166 001a 5DF804FB 		ldr	pc, [sp], #4
 167              		.cfi_endproc
 168              	.LFE66:
 169              		.size	get, .-get
 170 001e 00BF     		.section	.text.putt,"ax",%progbits
 171              		.align	2
 172              		.p2align 4,,15
 173              		.thumb
 174              		.thumb_func
 175              		.type	putt, %function
 176              	putt:
 177              	.LFB67:
 178              		.loc 1 102 0
 179              		.cfi_startproc
 180              		@ args = 0, pretend = 0, frame = 16
 181              		@ frame_needed = 0, uses_anonymous_args = 0
 182 0000 00B5     		push	{lr}
 183              		.cfi_def_cfa_offset 4
 184              		.cfi_offset 14, -4
 185 0002 85B0     		sub	sp, sp, #20
 186              		.cfi_def_cfa_offset 24
 187 0004 0390     		str	r0, [sp, #12]
 188 0006 0B46     		mov	r3, r1
 189 0008 0192     		str	r2, [sp, #4]
 190 000a 8DF80B30 		strb	r3, [sp, #11]
 191              		.loc 1 104 0
 192 000e 039B     		ldr	r3, [sp, #12]
 193 0010 03F13002 		add	r2, r3, #48
 194 0014 9DF80B30 		ldrb	r3, [sp, #11]	@ zero_extendqisi2
 195 0018 1046     		mov	r0, r2
 196 001a 1946     		mov	r1, r3
 197 001c 019A     		ldr	r2, [sp, #4]
 198 001e FFF7FEFF 		bl	chOQPutTimeout
 199 0022 0346     		mov	r3, r0
 200              		.loc 1 105 0
 201 0024 1846     		mov	r0, r3
 202 0026 05B0     		add	sp, sp, #20
 203              		@ sp needed
 204 0028 5DF804FB 		ldr	pc, [sp], #4
 205              		.cfi_endproc
 206              	.LFE67:
 207              		.size	putt, .-putt
 208 002c AFF30080 		.section	.text.gett,"ax",%progbits
 209              		.align	2
 210              		.p2align 4,,15
 211              		.thumb
 212              		.thumb_func
 213              		.type	gett, %function
 214              	gett:
 215              	.LFB68:
 216              		.loc 1 107 0
 217              		.cfi_startproc
 218              		@ args = 0, pretend = 0, frame = 8
 219              		@ frame_needed = 0, uses_anonymous_args = 0
 220 0000 00B5     		push	{lr}
ARM GAS  /home/pauba/tmp/cca0qe6Z.s 			page 5


 221              		.cfi_def_cfa_offset 4
 222              		.cfi_offset 14, -4
 223 0002 83B0     		sub	sp, sp, #12
 224              		.cfi_def_cfa_offset 16
 225 0004 0190     		str	r0, [sp, #4]
 226 0006 0091     		str	r1, [sp]
 227              		.loc 1 109 0
 228 0008 019B     		ldr	r3, [sp, #4]
 229 000a 0C33     		adds	r3, r3, #12
 230 000c 1846     		mov	r0, r3
 231 000e 0099     		ldr	r1, [sp]
 232 0010 FFF7FEFF 		bl	chIQGetTimeout
 233 0014 0346     		mov	r3, r0
 234              		.loc 1 110 0
 235 0016 1846     		mov	r0, r3
 236 0018 03B0     		add	sp, sp, #12
 237              		@ sp needed
 238 001a 5DF804FB 		ldr	pc, [sp], #4
 239              		.cfi_endproc
 240              	.LFE68:
 241              		.size	gett, .-gett
 242 001e 00BF     		.section	.text.writet,"ax",%progbits
 243              		.align	2
 244              		.p2align 4,,15
 245              		.thumb
 246              		.thumb_func
 247              		.type	writet, %function
 248              	writet:
 249              	.LFB69:
 250              		.loc 1 112 0
 251              		.cfi_startproc
 252              		@ args = 0, pretend = 0, frame = 16
 253              		@ frame_needed = 0, uses_anonymous_args = 0
 254 0000 00B5     		push	{lr}
 255              		.cfi_def_cfa_offset 4
 256              		.cfi_offset 14, -4
 257 0002 85B0     		sub	sp, sp, #20
 258              		.cfi_def_cfa_offset 24
 259 0004 0390     		str	r0, [sp, #12]
 260 0006 0291     		str	r1, [sp, #8]
 261 0008 0192     		str	r2, [sp, #4]
 262 000a 0093     		str	r3, [sp]
 263              		.loc 1 114 0
 264 000c 039B     		ldr	r3, [sp, #12]
 265 000e 3033     		adds	r3, r3, #48
 266 0010 1846     		mov	r0, r3
 267 0012 0299     		ldr	r1, [sp, #8]
 268 0014 019A     		ldr	r2, [sp, #4]
 269 0016 009B     		ldr	r3, [sp]
 270 0018 FFF7FEFF 		bl	chOQWriteTimeout
 271 001c 0346     		mov	r3, r0
 272              		.loc 1 115 0
 273 001e 1846     		mov	r0, r3
 274 0020 05B0     		add	sp, sp, #20
 275              		@ sp needed
 276 0022 5DF804FB 		ldr	pc, [sp], #4
 277              		.cfi_endproc
ARM GAS  /home/pauba/tmp/cca0qe6Z.s 			page 6


 278              	.LFE69:
 279              		.size	writet, .-writet
 280 0026 00BFAFF3 		.section	.text.readt,"ax",%progbits
 280      0080AFF3 
 280      0080
 281              		.align	2
 282              		.p2align 4,,15
 283              		.thumb
 284              		.thumb_func
 285              		.type	readt, %function
 286              	readt:
 287              	.LFB70:
 288              		.loc 1 117 0
 289              		.cfi_startproc
 290              		@ args = 0, pretend = 0, frame = 16
 291              		@ frame_needed = 0, uses_anonymous_args = 0
 292 0000 00B5     		push	{lr}
 293              		.cfi_def_cfa_offset 4
 294              		.cfi_offset 14, -4
 295 0002 85B0     		sub	sp, sp, #20
 296              		.cfi_def_cfa_offset 24
 297 0004 0390     		str	r0, [sp, #12]
 298 0006 0291     		str	r1, [sp, #8]
 299 0008 0192     		str	r2, [sp, #4]
 300 000a 0093     		str	r3, [sp]
 301              		.loc 1 119 0
 302 000c 039B     		ldr	r3, [sp, #12]
 303 000e 0C33     		adds	r3, r3, #12
 304 0010 1846     		mov	r0, r3
 305 0012 0299     		ldr	r1, [sp, #8]
 306 0014 019A     		ldr	r2, [sp, #4]
 307 0016 009B     		ldr	r3, [sp]
 308 0018 FFF7FEFF 		bl	chIQReadTimeout
 309 001c 0346     		mov	r3, r0
 310              		.loc 1 120 0
 311 001e 1846     		mov	r0, r3
 312 0020 05B0     		add	sp, sp, #20
 313              		@ sp needed
 314 0022 5DF804FB 		ldr	pc, [sp], #4
 315              		.cfi_endproc
 316              	.LFE70:
 317              		.size	readt, .-readt
 318 0026 00BFAFF3 		.section	.rodata.vmt,"a",%progbits
 318      0080AFF3 
 318      0080
 319              		.align	2
 320              		.type	vmt, %object
 321              		.size	vmt, 32
 322              	vmt:
 323 0000 00000000 		.word	write
 324 0004 00000000 		.word	read
 325 0008 00000000 		.word	put
 326 000c 00000000 		.word	get
 327 0010 00000000 		.word	putt
 328 0014 00000000 		.word	gett
 329 0018 00000000 		.word	writet
 330 001c 00000000 		.word	readt
ARM GAS  /home/pauba/tmp/cca0qe6Z.s 			page 7


 331              		.section	.text.isLinkUp,"ax",%progbits
 332              		.align	2
 333              		.p2align 4,,15
 334              		.global	isLinkUp
 335              		.thumb
 336              		.thumb_func
 337              		.type	isLinkUp, %function
 338              	isLinkUp:
 339              	.LFB71:
 340              		.loc 1 127 0
 341              		.cfi_startproc
 342              		@ args = 0, pretend = 0, frame = 8
 343              		@ frame_needed = 0, uses_anonymous_args = 0
 344 0000 00B5     		push	{lr}
 345              		.cfi_def_cfa_offset 4
 346              		.cfi_offset 14, -4
 347 0002 83B0     		sub	sp, sp, #12
 348              		.cfi_def_cfa_offset 16
 349 0004 0190     		str	r0, [sp, #4]
 350              		.loc 1 128 0
 351 0006 0198     		ldr	r0, [sp, #4]
 352 0008 FFF7FEFF 		bl	ledCommPollLinkStatus
 353 000c 0346     		mov	r3, r0
 354              		.loc 1 129 0
 355 000e 1846     		mov	r0, r3
 356 0010 03B0     		add	sp, sp, #12
 357              		@ sp needed
 358 0012 5DF804FB 		ldr	pc, [sp], #4
 359              		.cfi_endproc
 360              	.LFE71:
 361              		.size	isLinkUp, .-isLinkUp
 362 0016 00BFAFF3 		.section	.text.isLinkDown,"ax",%progbits
 362      0080AFF3 
 362      0080
 363              		.align	2
 364              		.p2align 4,,15
 365              		.global	isLinkDown
 366              		.thumb
 367              		.thumb_func
 368              		.type	isLinkDown, %function
 369              	isLinkDown:
 370              	.LFB72:
 371              		.loc 1 131 0
 372              		.cfi_startproc
 373              		@ args = 0, pretend = 0, frame = 8
 374              		@ frame_needed = 0, uses_anonymous_args = 0
 375 0000 00B5     		push	{lr}
 376              		.cfi_def_cfa_offset 4
 377              		.cfi_offset 14, -4
 378 0002 83B0     		sub	sp, sp, #12
 379              		.cfi_def_cfa_offset 16
 380 0004 0190     		str	r0, [sp, #4]
 381              		.loc 1 132 0
 382 0006 0198     		ldr	r0, [sp, #4]
 383 0008 FFF7FEFF 		bl	ledCommPollLinkStatus
 384 000c 0346     		mov	r3, r0
 385 000e 002B     		cmp	r3, #0
ARM GAS  /home/pauba/tmp/cca0qe6Z.s 			page 8


 386 0010 0CBF     		ite	eq
 387 0012 0023     		moveq	r3, #0
 388 0014 0123     		movne	r3, #1
 389 0016 DBB2     		uxtb	r3, r3
 390 0018 83F00103 		eor	r3, r3, #1
 391 001c DBB2     		uxtb	r3, r3
 392 001e 03F00103 		and	r3, r3, #1
 393 0022 DBB2     		uxtb	r3, r3
 394              		.loc 1 133 0
 395 0024 1846     		mov	r0, r3
 396 0026 03B0     		add	sp, sp, #12
 397              		@ sp needed
 398 0028 5DF804FB 		ldr	pc, [sp], #4
 399              		.cfi_endproc
 400              	.LFE72:
 401              		.size	isLinkDown, .-isLinkDown
 402 002c AFF30080 		.section	.text.linkUp,"ax",%progbits
 403              		.align	2
 404              		.p2align 4,,15
 405              		.global	linkUp
 406              		.thumb
 407              		.thumb_func
 408              		.type	linkUp, %function
 409              	linkUp:
 410              	.LFB73:
 411              		.loc 1 135 0
 412              		.cfi_startproc
 413              		@ args = 0, pretend = 0, frame = 8
 414              		@ frame_needed = 0, uses_anonymous_args = 0
 415 0000 00B5     		push	{lr}
 416              		.cfi_def_cfa_offset 4
 417              		.cfi_offset 14, -4
 418 0002 83B0     		sub	sp, sp, #12
 419              		.cfi_def_cfa_offset 16
 420 0004 0190     		str	r0, [sp, #4]
 421              		.loc 1 136 0
 422 0006 019A     		ldr	r2, [sp, #4]
 423 0008 92F88730 		ldrb	r3, [r2, #135]
 424 000c 43F01003 		orr	r3, r3, #16
 425 0010 82F88730 		strb	r3, [r2, #135]
 426              		.loc 1 137 0
 427 0014 019A     		ldr	r2, [sp, #4]
 428 0016 92F88630 		ldrb	r3, [r2, #134]
 429 001a 1221     		movs	r1, #18
 430 001c 61F30403 		bfi	r3, r1, #0, #5
 431 0020 82F88630 		strb	r3, [r2, #134]
 432              		.loc 1 138 0
 433 0024 019A     		ldr	r2, [sp, #4]
 434 0026 92F88730 		ldrb	r3, [r2, #135]
 435 002a 43F02003 		orr	r3, r3, #32
 436 002e 82F88730 		strb	r3, [r2, #135]
 437              	.LBB2:
 438              		.loc 1 141 0
 439 0032 2023     		movs	r3, #32
 440              	@ 141 "/home/pauba/ChibiOS-RT/ext/LEDComm/ledcomm.c" 1
 441 0034 83F31188 		msr     BASEPRI, r3
 442              	@ 0 "" 2
ARM GAS  /home/pauba/tmp/cca0qe6Z.s 			page 9


 443              		.thumb
 444              	.LBE2:
 445 0038 FFF7FEFF 		bl	dbg_check_lock
 446              		.loc 1 145 0
 447 003c 019B     		ldr	r3, [sp, #4]
 448 003e 0C33     		adds	r3, r3, #12
 449 0040 1846     		mov	r0, r3
 450 0042 FFF7FEFF 		bl	chIQResetI
 451              		.loc 1 146 0
 452 0046 019B     		ldr	r3, [sp, #4]
 453 0048 3033     		adds	r3, r3, #48
 454 004a 1846     		mov	r0, r3
 455 004c FFF7FEFF 		bl	chOQResetI
 456              		.loc 1 147 0
 457 0050 019B     		ldr	r3, [sp, #4]
 458 0052 0433     		adds	r3, r3, #4
 459 0054 1846     		mov	r0, r3
 460 0056 0121     		movs	r1, #1
 461 0058 FFF7FEFF 		bl	chEvtBroadcastFlagsI
 462              		.loc 1 149 0
 463 005c FFF7FEFF 		bl	dbg_check_unlock
 464              	.LBB3:
 465 0060 0023     		movs	r3, #0
 466              	@ 149 "/home/pauba/ChibiOS-RT/ext/LEDComm/ledcomm.c" 1
 467 0062 83F31188 		msr     BASEPRI, r3
 468              	@ 0 "" 2
 469              		.thumb
 470              	.LBE3:
 471              		.loc 1 154 0
 472 0066 03B0     		add	sp, sp, #12
 473              		@ sp needed
 474 0068 5DF804FB 		ldr	pc, [sp], #4
 475              		.cfi_endproc
 476              	.LFE73:
 477              		.size	linkUp, .-linkUp
 478 006c AFF30080 		.section	.text.linkDown,"ax",%progbits
 479              		.align	2
 480              		.p2align 4,,15
 481              		.global	linkDown
 482              		.thumb
 483              		.thumb_func
 484              		.type	linkDown, %function
 485              	linkDown:
 486              	.LFB74:
 487              		.loc 1 156 0
 488              		.cfi_startproc
 489              		@ args = 0, pretend = 0, frame = 8
 490              		@ frame_needed = 0, uses_anonymous_args = 0
 491 0000 00B5     		push	{lr}
 492              		.cfi_def_cfa_offset 4
 493              		.cfi_offset 14, -4
 494 0002 83B0     		sub	sp, sp, #12
 495              		.cfi_def_cfa_offset 16
 496 0004 0190     		str	r0, [sp, #4]
 497              		.loc 1 157 0
 498 0006 019A     		ldr	r2, [sp, #4]
 499 0008 92F88730 		ldrb	r3, [r2, #135]
ARM GAS  /home/pauba/tmp/cca0qe6Z.s 			page 10


 500 000c 6FF30413 		bfc	r3, #4, #1
 501 0010 82F88730 		strb	r3, [r2, #135]
 502              	.LBB4:
 503              		.loc 1 160 0
 504 0014 2023     		movs	r3, #32
 505              	@ 160 "/home/pauba/ChibiOS-RT/ext/LEDComm/ledcomm.c" 1
 506 0016 83F31188 		msr     BASEPRI, r3
 507              	@ 0 "" 2
 508              		.thumb
 509              	.LBE4:
 510 001a FFF7FEFF 		bl	dbg_check_lock
 511              		.loc 1 164 0
 512 001e 019B     		ldr	r3, [sp, #4]
 513 0020 0433     		adds	r3, r3, #4
 514 0022 1846     		mov	r0, r3
 515 0024 0221     		movs	r1, #2
 516 0026 FFF7FEFF 		bl	chEvtBroadcastFlagsI
 517              		.loc 1 166 0
 518 002a FFF7FEFF 		bl	dbg_check_unlock
 519              	.LBB5:
 520 002e 0023     		movs	r3, #0
 521              	@ 166 "/home/pauba/ChibiOS-RT/ext/LEDComm/ledcomm.c" 1
 522 0030 83F31188 		msr     BASEPRI, r3
 523              	@ 0 "" 2
 524              		.thumb
 525              	.LBE5:
 526              		.loc 1 171 0
 527 0034 03B0     		add	sp, sp, #12
 528              		@ sp needed
 529 0036 5DF804FB 		ldr	pc, [sp], #4
 530              		.cfi_endproc
 531              	.LFE74:
 532              		.size	linkDown, .-linkDown
 533 003a 00BFAFF3 		.section	.data.default_config,"aw",%progbits
 533      0080
 534              		.align	2
 535              		.type	default_config, %object
 536              		.size	default_config, 24
 537              	default_config:
 538 0000 00040240 		.word	1073873920
 539 0004 05000000 		.word	5
 540 0008 00040240 		.word	1073873920
 541 000c 04000000 		.word	4
 542 0010 12000000 		.word	18
 543 0014 0000     		.space	2
 544 0016 01       		.byte	1
 545 0017 00       		.space	1
 546              		.section	.text.ledCommSerialHandler,"ax",%progbits
 547              		.align	2
 548              		.p2align 4,,15
 549              		.global	ledCommSerialHandler
 550              		.thumb
 551              		.thumb_func
 552              		.type	ledCommSerialHandler, %function
 553              	ledCommSerialHandler:
 554              	.LFB75:
 555              		.loc 1 185 0
ARM GAS  /home/pauba/tmp/cca0qe6Z.s 			page 11


 556              		.cfi_startproc
 557              		@ args = 0, pretend = 0, frame = 16
 558              		@ frame_needed = 0, uses_anonymous_args = 0
 559 0000 00B5     		push	{lr}
 560              		.cfi_def_cfa_offset 4
 561              		.cfi_offset 14, -4
 562 0002 85B0     		sub	sp, sp, #20
 563              		.cfi_def_cfa_offset 24
 564 0004 0190     		str	r0, [sp, #4]
 565              		.loc 1 186 0
 566 0006 019B     		ldr	r3, [sp, #4]
 567 0008 93F88730 		ldrb	r3, [r3, #135]
 568 000c C3F3C003 		ubfx	r3, r3, #3, #1
 569 0010 DBB2     		uxtb	r3, r3
 570 0012 002B     		cmp	r3, #0
 571 0014 00D1     		bne	.L24
 572              		.loc 1 187 0
 573 0016 40E1     		b	.L23
 574              	.L24:
 575              		.loc 1 190 0
 576 0018 019B     		ldr	r3, [sp, #4]
 577 001a 93F89430 		ldrb	r3, [r3, #148]	@ zero_extendqisi2
 578 001e 0133     		adds	r3, r3, #1
 579 0020 DAB2     		uxtb	r2, r3
 580 0022 019B     		ldr	r3, [sp, #4]
 581 0024 83F89420 		strb	r2, [r3, #148]
 582              		.loc 1 192 0
 583 0028 019B     		ldr	r3, [sp, #4]
 584 002a 93F89430 		ldrb	r3, [r3, #148]	@ zero_extendqisi2
 585 002e 012B     		cmp	r3, #1
 586 0030 17D1     		bne	.L26
 587              		.loc 1 194 0
 588 0032 019B     		ldr	r3, [sp, #4]
 589 0034 D3F88030 		ldr	r3, [r3, #128]
 590 0038 9948     		ldr	r0, .L47
 591 003a 1946     		mov	r1, r3
 592 003c FFF7FEFF 		bl	ext_lld_channel_disable
 593              		.loc 1 195 0
 594 0040 019B     		ldr	r3, [sp, #4]
 595 0042 DA6F     		ldr	r2, [r3, #124]
 596 0044 019B     		ldr	r3, [sp, #4]
 597 0046 D3F88030 		ldr	r3, [r3, #128]
 598 004a 0121     		movs	r1, #1
 599 004c 01FA03F3 		lsl	r3, r1, r3
 600 0050 1046     		mov	r0, r2
 601 0052 1946     		mov	r1, r3
 602 0054 0122     		movs	r2, #1
 603 0056 FFF7FEFF 		bl	_pal_lld_setgroupmode
 604              		.loc 1 196 0
 605 005a 0198     		ldr	r0, [sp, #4]
 606 005c FFF7FEFF 		bl	ledCommOn
 607 0060 1BE1     		b	.L23
 608              	.L26:
 609              		.loc 1 197 0
 610 0062 019B     		ldr	r3, [sp, #4]
 611 0064 93F89430 		ldrb	r3, [r3, #148]	@ zero_extendqisi2
 612 0068 022B     		cmp	r3, #2
ARM GAS  /home/pauba/tmp/cca0qe6Z.s 			page 12


 613 006a 44D1     		bne	.L27
 614              		.loc 1 198 0
 615 006c 019B     		ldr	r3, [sp, #4]
 616 006e 93F88730 		ldrb	r3, [r3, #135]
 617 0072 C3F34013 		ubfx	r3, r3, #5, #1
 618 0076 DBB2     		uxtb	r3, r3
 619 0078 012B     		cmp	r3, #1
 620 007a 40F00E81 		bne	.L23
 621              	.LBB6:
 622              	.LBB7:
 623              		.loc 1 203 0
 624 007e 2023     		movs	r3, #32
 625              	@ 203 "/home/pauba/ChibiOS-RT/ext/LEDComm/ledcomm.c" 1
 626 0080 83F31188 		msr     BASEPRI, r3
 627              	@ 0 "" 2
 628              		.thumb
 629              	.LBE7:
 630 0084 FFF7FEFF 		bl	dbg_check_lock
 631              		.loc 1 207 0
 632 0088 0198     		ldr	r0, [sp, #4]
 633 008a FFF7FEFF 		bl	ldRequestDataI
 634 008e 0390     		str	r0, [sp, #12]
 635              		.loc 1 209 0
 636 0090 FFF7FEFF 		bl	dbg_check_unlock
 637              	.LBB8:
 638 0094 0023     		movs	r3, #0
 639              	@ 209 "/home/pauba/ChibiOS-RT/ext/LEDComm/ledcomm.c" 1
 640 0096 83F31188 		msr     BASEPRI, r3
 641              	@ 0 "" 2
 642              		.thumb
 643              	.LBE8:
 644              		.loc 1 214 0
 645 009a 039B     		ldr	r3, [sp, #12]
 646 009c 002B     		cmp	r3, #0
 647 009e 0BDA     		bge	.L29
 648              		.loc 1 216 0
 649 00a0 019B     		ldr	r3, [sp, #4]
 650 00a2 0022     		movs	r2, #0
 651 00a4 83F88A20 		strb	r2, [r3, #138]
 652              		.loc 1 217 0
 653 00a8 019A     		ldr	r2, [sp, #4]
 654 00aa 92F88830 		ldrb	r3, [r2, #136]
 655 00ae 6FF30103 		bfc	r3, #0, #2
 656 00b2 82F88830 		strb	r3, [r2, #136]
 657 00b6 0BE0     		b	.L30
 658              	.L29:
 659              		.loc 1 219 0
 660 00b8 039B     		ldr	r3, [sp, #12]
 661 00ba DAB2     		uxtb	r2, r3
 662 00bc 019B     		ldr	r3, [sp, #4]
 663 00be 83F88A20 		strb	r2, [r3, #138]
 664              		.loc 1 220 0
 665 00c2 019A     		ldr	r2, [sp, #4]
 666 00c4 92F88730 		ldrb	r3, [r2, #135]
 667 00c8 6FF34513 		bfc	r3, #5, #1
 668 00cc 82F88730 		strb	r3, [r2, #135]
 669              	.L30:
ARM GAS  /home/pauba/tmp/cca0qe6Z.s 			page 13


 670              		.loc 1 222 0
 671 00d0 019B     		ldr	r3, [sp, #4]
 672 00d2 93F88630 		ldrb	r3, [r3, #134]
 673 00d6 C3F34013 		ubfx	r3, r3, #5, #1
 674 00da DBB2     		uxtb	r3, r3
 675 00dc 012B     		cmp	r3, #1
 676 00de 01D1     		bne	.L31
 677              		.loc 1 222 0 is_stmt 0 discriminator 1
 678 00e0 0721     		movs	r1, #7
 679 00e2 00E0     		b	.L32
 680              	.L31:
 681              		.loc 1 222 0 discriminator 2
 682 00e4 0821     		movs	r1, #8
 683              	.L32:
 684              		.loc 1 222 0 discriminator 3
 685 00e6 019A     		ldr	r2, [sp, #4]
 686 00e8 92F88830 		ldrb	r3, [r2, #136]
 687 00ec 61F38503 		bfi	r3, r1, #2, #4
 688 00f0 82F88830 		strb	r3, [r2, #136]
 689 00f4 D1E0     		b	.L23
 690              	.L27:
 691              	.LBE6:
 692              		.loc 1 225 0 is_stmt 1
 693 00f6 019B     		ldr	r3, [sp, #4]
 694 00f8 93F89430 		ldrb	r3, [r3, #148]	@ zero_extendqisi2
 695 00fc 032B     		cmp	r3, #3
 696 00fe 5AD1     		bne	.L33
 697              		.loc 1 227 0
 698 0100 0198     		ldr	r0, [sp, #4]
 699 0102 FFF7FEFF 		bl	isLinkDown
 700 0106 0346     		mov	r3, r0
 701 0108 002B     		cmp	r3, #0
 702 010a 07D1     		bne	.L34
 703              		.loc 1 227 0 is_stmt 0 discriminator 1
 704 010c 019B     		ldr	r3, [sp, #4]
 705 010e 93F88730 		ldrb	r3, [r3, #135]
 706 0112 C3F34013 		ubfx	r3, r3, #5, #1
 707 0116 DBB2     		uxtb	r3, r3
 708 0118 012B     		cmp	r3, #1
 709 011a 07D1     		bne	.L35
 710              	.L34:
 711              		.loc 1 229 0 is_stmt 1
 712 011c 019A     		ldr	r2, [sp, #4]
 713 011e 92F88830 		ldrb	r3, [r2, #136]
 714 0122 6FF30103 		bfc	r3, #0, #2
 715 0126 82F88830 		strb	r3, [r2, #136]
 716 012a B6E0     		b	.L23
 717              	.L35:
 718              		.loc 1 230 0
 719 012c 019B     		ldr	r3, [sp, #4]
 720 012e 93F88830 		ldrb	r3, [r3, #136]
 721 0132 C3F38303 		ubfx	r3, r3, #2, #4
 722 0136 DBB2     		uxtb	r3, r3
 723 0138 002B     		cmp	r3, #0
 724 013a 08D1     		bne	.L37
 725              		.loc 1 231 0
 726 013c 019A     		ldr	r2, [sp, #4]
ARM GAS  /home/pauba/tmp/cca0qe6Z.s 			page 14


 727 013e 92F88830 		ldrb	r3, [r2, #136]
 728 0142 0221     		movs	r1, #2
 729 0144 61F30103 		bfi	r3, r1, #0, #2
 730 0148 82F88830 		strb	r3, [r2, #136]
 731 014c A5E0     		b	.L23
 732              	.L37:
 733              		.loc 1 233 0
 734 014e 019B     		ldr	r3, [sp, #4]
 735 0150 93F88A30 		ldrb	r3, [r3, #138]	@ zero_extendqisi2
 736 0154 1A46     		mov	r2, r3
 737 0156 019B     		ldr	r3, [sp, #4]
 738 0158 93F88830 		ldrb	r3, [r3, #136]
 739 015c C3F38303 		ubfx	r3, r3, #2, #4
 740 0160 DBB2     		uxtb	r3, r3
 741 0162 013B     		subs	r3, r3, #1
 742 0164 42FA03F3 		asr	r3, r2, r3
 743 0168 03F00103 		and	r3, r3, #1
 744 016c 002B     		cmp	r3, #0
 745 016e 08D0     		beq	.L38
 746              		.loc 1 234 0
 747 0170 019A     		ldr	r2, [sp, #4]
 748 0172 92F88830 		ldrb	r3, [r2, #136]
 749 0176 0121     		movs	r1, #1
 750 0178 61F30103 		bfi	r3, r1, #0, #2
 751 017c 82F88830 		strb	r3, [r2, #136]
 752 0180 06E0     		b	.L39
 753              	.L38:
 754              		.loc 1 236 0
 755 0182 019A     		ldr	r2, [sp, #4]
 756 0184 92F88830 		ldrb	r3, [r2, #136]
 757 0188 6FF30103 		bfc	r3, #0, #2
 758 018c 82F88830 		strb	r3, [r2, #136]
 759              	.L39:
 760              		.loc 1 238 0
 761 0190 019B     		ldr	r3, [sp, #4]
 762 0192 93F88830 		ldrb	r3, [r3, #136]
 763 0196 C3F38303 		ubfx	r3, r3, #2, #4
 764 019a DBB2     		uxtb	r3, r3
 765 019c 013B     		subs	r3, r3, #1
 766 019e DBB2     		uxtb	r3, r3
 767 01a0 03F00F03 		and	r3, r3, #15
 768 01a4 D9B2     		uxtb	r1, r3
 769 01a6 019A     		ldr	r2, [sp, #4]
 770 01a8 92F88830 		ldrb	r3, [r2, #136]
 771 01ac 61F38503 		bfi	r3, r1, #2, #4
 772 01b0 82F88830 		strb	r3, [r2, #136]
 773 01b4 71E0     		b	.L23
 774              	.L33:
 775              		.loc 1 240 0
 776 01b6 019B     		ldr	r3, [sp, #4]
 777 01b8 93F89430 		ldrb	r3, [r3, #148]	@ zero_extendqisi2
 778 01bc 032B     		cmp	r3, #3
 779 01be 46D9     		bls	.L40
 780              		.loc 1 240 0 is_stmt 0 discriminator 1
 781 01c0 019B     		ldr	r3, [sp, #4]
 782 01c2 93F89430 		ldrb	r3, [r3, #148]	@ zero_extendqisi2
 783 01c6 0D2B     		cmp	r3, #13
ARM GAS  /home/pauba/tmp/cca0qe6Z.s 			page 15


 784 01c8 41D8     		bhi	.L40
 785              		.loc 1 241 0 is_stmt 1
 786 01ca 019B     		ldr	r3, [sp, #4]
 787 01cc 93F89430 		ldrb	r3, [r3, #148]	@ zero_extendqisi2
 788 01d0 052B     		cmp	r3, #5
 789 01d2 07D1     		bne	.L41
 790              		.loc 1 241 0 is_stmt 0 discriminator 1
 791 01d4 019B     		ldr	r3, [sp, #4]
 792 01d6 93F88830 		ldrb	r3, [r3, #136]
 793 01da C3F30103 		ubfx	r3, r3, #0, #2
 794 01de DBB2     		uxtb	r3, r3
 795 01e0 012B     		cmp	r3, #1
 796 01e2 19D0     		beq	.L42
 797              	.L41:
 798              		.loc 1 242 0 is_stmt 1 discriminator 2
 799 01e4 019B     		ldr	r3, [sp, #4]
 800 01e6 93F89430 		ldrb	r3, [r3, #148]	@ zero_extendqisi2
 801              		.loc 1 241 0 discriminator 2
 802 01ea 092B     		cmp	r3, #9
 803 01ec 07D1     		bne	.L43
 804              		.loc 1 242 0
 805 01ee 019B     		ldr	r3, [sp, #4]
 806 01f0 93F88830 		ldrb	r3, [r3, #136]
 807 01f4 C3F30103 		ubfx	r3, r3, #0, #2
 808 01f8 DBB2     		uxtb	r3, r3
 809 01fa 002B     		cmp	r3, #0
 810 01fc 0CD0     		beq	.L42
 811              	.L43:
 812              		.loc 1 243 0 discriminator 1
 813 01fe 019B     		ldr	r3, [sp, #4]
 814 0200 93F89430 		ldrb	r3, [r3, #148]	@ zero_extendqisi2
 815              		.loc 1 242 0 discriminator 1
 816 0204 0D2B     		cmp	r3, #13
 817 0206 21D1     		bne	.L44
 818              		.loc 1 243 0
 819 0208 019B     		ldr	r3, [sp, #4]
 820 020a 93F88830 		ldrb	r3, [r3, #136]
 821 020e C3F30103 		ubfx	r3, r3, #0, #2
 822 0212 DBB2     		uxtb	r3, r3
 823 0214 022B     		cmp	r3, #2
 824 0216 19D1     		bne	.L44
 825              	.L42:
 826              		.loc 1 245 0
 827 0218 019B     		ldr	r3, [sp, #4]
 828 021a 0D22     		movs	r2, #13
 829 021c 83F89420 		strb	r2, [r3, #148]
 830              		.loc 1 246 0
 831 0220 019B     		ldr	r3, [sp, #4]
 832 0222 93F88830 		ldrb	r3, [r3, #136]
 833 0226 C3F30103 		ubfx	r3, r3, #0, #2
 834 022a DBB2     		uxtb	r3, r3
 835 022c 022B     		cmp	r3, #2
 836 022e 06D1     		bne	.L45
 837              		.loc 1 247 0
 838 0230 019A     		ldr	r2, [sp, #4]
 839 0232 92F88730 		ldrb	r3, [r2, #135]
 840 0236 43F02003 		orr	r3, r3, #32
ARM GAS  /home/pauba/tmp/cca0qe6Z.s 			page 16


 841 023a 82F88730 		strb	r3, [r2, #135]
 842              	.L45:
 843              		.loc 1 249 0
 844 023e 0198     		ldr	r0, [sp, #4]
 845 0240 FFF7FEFF 		bl	ledCommOff
 846              		.loc 1 250 0
 847 0244 0198     		ldr	r0, [sp, #4]
 848 0246 FFF7FEFF 		bl	ledCommPrepare
 849              		.loc 1 241 0
 850 024a 26E0     		b	.L23
 851              	.L44:
 852 024c 25E0     		b	.L23
 853              	.L40:
 854              		.loc 1 252 0
 855 024e 019B     		ldr	r3, [sp, #4]
 856 0250 93F89430 		ldrb	r3, [r3, #148]	@ zero_extendqisi2
 857 0254 0D2B     		cmp	r3, #13
 858 0256 0BD9     		bls	.L46
 859              		.loc 1 252 0 is_stmt 0 discriminator 1
 860 0258 019B     		ldr	r3, [sp, #4]
 861 025a 93F89430 		ldrb	r3, [r3, #148]	@ zero_extendqisi2
 862 025e 2D2B     		cmp	r3, #45
 863 0260 06D8     		bhi	.L46
 864              		.loc 1 254 0 is_stmt 1
 865 0262 0198     		ldr	r0, [sp, #4]
 866 0264 FFF7FEFF 		bl	ledCommDetect
 867              		.loc 1 255 0
 868 0268 0198     		ldr	r0, [sp, #4]
 869 026a FFF7FEFF 		bl	ledCommPrepare
 870 026e 14E0     		b	.L23
 871              	.L46:
 872              		.loc 1 257 0
 873 0270 0198     		ldr	r0, [sp, #4]
 874 0272 FFF7FEFF 		bl	ledCommDetect
 875              		.loc 1 258 0
 876 0276 019B     		ldr	r3, [sp, #4]
 877 0278 93F89430 		ldrb	r3, [r3, #148]	@ zero_extendqisi2
 878 027c 002B     		cmp	r3, #0
 879 027e 0CD0     		beq	.L23
 880              		.loc 1 264 0
 881 0280 019B     		ldr	r3, [sp, #4]
 882 0282 0022     		movs	r2, #0
 883 0284 83F89420 		strb	r2, [r3, #148]
 884              		.loc 1 277 0
 885 0288 0198     		ldr	r0, [sp, #4]
 886 028a FFF7FEFF 		bl	isLinkUp
 887 028e 0346     		mov	r3, r0
 888 0290 002B     		cmp	r3, #0
 889 0292 02D0     		beq	.L23
 890              		.loc 1 278 0
 891 0294 0198     		ldr	r0, [sp, #4]
 892 0296 FFF7FEFF 		bl	linkDown
 893              	.L23:
 894              		.loc 1 282 0
 895 029a 05B0     		add	sp, sp, #20
 896              		@ sp needed
 897 029c 5DF804FB 		ldr	pc, [sp], #4
ARM GAS  /home/pauba/tmp/cca0qe6Z.s 			page 17


 898              	.L48:
 899              		.align	2
 900              	.L47:
 901 02a0 00000000 		.word	EXTD1
 902              		.cfi_endproc
 903              	.LFE75:
 904              		.size	ledCommSerialHandler, .-ledCommSerialHandler
 905 02a4 AFF30080 		.section	.text.ldInit,"ax",%progbits
 905      AFF30080 
 905      AFF30080 
 906              		.align	2
 907              		.p2align 4,,15
 908              		.global	ldInit
 909              		.thumb
 910              		.thumb_func
 911              		.type	ldInit, %function
 912              	ldInit:
 913              	.LFB76:
 914              		.loc 1 296 0
 915              		.cfi_startproc
 916              		@ args = 0, pretend = 0, frame = 0
 917              		@ frame_needed = 0, uses_anonymous_args = 0
 918 0000 08B5     		push	{r3, lr}
 919              		.cfi_def_cfa_offset 8
 920              		.cfi_offset 3, -8
 921              		.cfi_offset 14, -4
 922              		.loc 1 303 0
 923 0002 0348     		ldr	r0, .L50
 924 0004 0021     		movs	r1, #0
 925 0006 0022     		movs	r2, #0
 926 0008 FFF7FEFF 		bl	ldObjectInit
 927              		.loc 1 305 0
 928 000c 08BD     		pop	{r3, pc}
 929              	.L51:
 930 000e 00BF     		.align	2
 931              	.L50:
 932 0010 00000000 		.word	LCOM2
 933              		.cfi_endproc
 934              	.LFE76:
 935              		.size	ldInit, .-ldInit
 936 0014 AFF30080 		.section	.text.ldObjectInit,"ax",%progbits
 936      AFF30080 
 936      AFF30080 
 937              		.align	2
 938              		.p2align 4,,15
 939              		.global	ldObjectInit
 940              		.thumb
 941              		.thumb_func
 942              		.type	ldObjectInit, %function
 943              	ldObjectInit:
 944              	.LFB77:
 945              		.loc 1 322 0
 946              		.cfi_startproc
 947              		@ args = 0, pretend = 0, frame = 16
 948              		@ frame_needed = 0, uses_anonymous_args = 0
 949 0000 00B5     		push	{lr}
 950              		.cfi_def_cfa_offset 4
ARM GAS  /home/pauba/tmp/cca0qe6Z.s 			page 18


 951              		.cfi_offset 14, -4
 952 0002 87B0     		sub	sp, sp, #28
 953              		.cfi_def_cfa_offset 32
 954 0004 0590     		str	r0, [sp, #20]
 955 0006 0491     		str	r1, [sp, #16]
 956 0008 0392     		str	r2, [sp, #12]
 957              		.loc 1 324 0
 958 000a 059B     		ldr	r3, [sp, #20]
 959 000c 124A     		ldr	r2, .L53
 960 000e 1A60     		str	r2, [r3]
 961              		.loc 1 325 0
 962 0010 059B     		ldr	r3, [sp, #20]
 963 0012 1A1D     		adds	r2, r3, #4
 964 0014 059B     		ldr	r3, [sp, #20]
 965 0016 5A60     		str	r2, [r3, #4]
 966              		.loc 1 326 0
 967 0018 059B     		ldr	r3, [sp, #20]
 968 001a 0122     		movs	r2, #1
 969 001c 1A72     		strb	r2, [r3, #8]
 970              		.loc 1 327 0
 971 001e 059B     		ldr	r3, [sp, #20]
 972 0020 03F10C02 		add	r2, r3, #12
 973 0024 059B     		ldr	r3, [sp, #20]
 974 0026 5433     		adds	r3, r3, #84
 975 0028 0599     		ldr	r1, [sp, #20]
 976 002a 0091     		str	r1, [sp]
 977 002c 1046     		mov	r0, r2
 978 002e 1946     		mov	r1, r3
 979 0030 1022     		movs	r2, #16
 980 0032 049B     		ldr	r3, [sp, #16]
 981 0034 FFF7FEFF 		bl	chIQInit
 982              		.loc 1 328 0
 983 0038 059B     		ldr	r3, [sp, #20]
 984 003a 03F13002 		add	r2, r3, #48
 985 003e 059B     		ldr	r3, [sp, #20]
 986 0040 6433     		adds	r3, r3, #100
 987 0042 0599     		ldr	r1, [sp, #20]
 988 0044 0091     		str	r1, [sp]
 989 0046 1046     		mov	r0, r2
 990 0048 1946     		mov	r1, r3
 991 004a 1022     		movs	r2, #16
 992 004c 039B     		ldr	r3, [sp, #12]
 993 004e FFF7FEFF 		bl	chOQInit
 994              		.loc 1 329 0
 995 0052 07B0     		add	sp, sp, #28
 996              		@ sp needed
 997 0054 5DF804FB 		ldr	pc, [sp], #4
 998              	.L54:
 999              		.align	2
 1000              	.L53:
 1001 0058 00000000 		.word	vmt
 1002              		.cfi_endproc
 1003              	.LFE77:
 1004              		.size	ldObjectInit, .-ldObjectInit
 1005 005c AFF30080 		.section	.rodata
 1006              		.align	2
 1007              	.LC0:
ARM GAS  /home/pauba/tmp/cca0qe6Z.s 			page 19


 1008 0000 226C6453 		.ascii	"\"ldStart\"()\000"
 1008      74617274 
 1008      22282900 
 1009              		.align	2
 1010              	.LC1:
 1011 000c 6C645374 		.ascii	"ldStart(), #1\000"
 1011      61727428 
 1011      292C2023 
 1011      3100
 1012              		.section	.text.ldStart,"ax",%progbits
 1013              		.align	2
 1014              		.p2align 4,,15
 1015              		.global	ldStart
 1016              		.thumb
 1017              		.thumb_func
 1018              		.type	ldStart, %function
 1019              	ldStart:
 1020              	.LFB78:
 1021              		.loc 1 341 0
 1022              		.cfi_startproc
 1023              		@ args = 0, pretend = 0, frame = 8
 1024              		@ frame_needed = 0, uses_anonymous_args = 0
 1025 0000 00B5     		push	{lr}
 1026              		.cfi_def_cfa_offset 4
 1027              		.cfi_offset 14, -4
 1028 0002 85B0     		sub	sp, sp, #20
 1029              		.cfi_def_cfa_offset 24
 1030 0004 0390     		str	r0, [sp, #12]
 1031 0006 0291     		str	r1, [sp, #8]
 1032              		.loc 1 348 0
 1033 0008 039B     		ldr	r3, [sp, #12]
 1034 000a 002B     		cmp	r3, #0
 1035 000c 02D1     		bne	.L56
 1036              		.loc 1 348 0 is_stmt 0 discriminator 1
 1037 000e 6348     		ldr	r0, .L62
 1038 0010 FFF7FEFF 		bl	chDbgPanic
 1039              	.L56:
 1040              	.LBB9:
 1041              		.loc 1 350 0 is_stmt 1
 1042 0014 2023     		movs	r3, #32
 1043              	@ 350 "/home/pauba/ChibiOS-RT/ext/LEDComm/ledcomm.c" 1
 1044 0016 83F31188 		msr     BASEPRI, r3
 1045              	@ 0 "" 2
 1046              		.thumb
 1047              	.LBE9:
 1048 001a FFF7FEFF 		bl	dbg_check_lock
 1049              		.loc 1 351 0
 1050 001e 039B     		ldr	r3, [sp, #12]
 1051 0020 1B7A     		ldrb	r3, [r3, #8]	@ zero_extendqisi2
 1052 0022 012B     		cmp	r3, #1
 1053 0024 06D0     		beq	.L57
 1054              		.loc 1 351 0 is_stmt 0 discriminator 1
 1055 0026 039B     		ldr	r3, [sp, #12]
 1056 0028 1B7A     		ldrb	r3, [r3, #8]	@ zero_extendqisi2
 1057 002a 022B     		cmp	r3, #2
 1058 002c 02D0     		beq	.L57
 1059 002e 5C48     		ldr	r0, .L62+4
ARM GAS  /home/pauba/tmp/cca0qe6Z.s 			page 20


 1060 0030 FFF7FEFF 		bl	chDbgPanic
 1061              	.L57:
 1062              		.loc 1 355 0 is_stmt 1
 1063 0034 029B     		ldr	r3, [sp, #8]
 1064 0036 002B     		cmp	r3, #0
 1065 0038 01D1     		bne	.L58
 1066              		.loc 1 356 0
 1067 003a 5A4B     		ldr	r3, .L62+8
 1068 003c 0293     		str	r3, [sp, #8]
 1069              	.L58:
 1070              		.loc 1 359 0
 1071 003e 029B     		ldr	r3, [sp, #8]
 1072 0040 1A68     		ldr	r2, [r3]
 1073 0042 039B     		ldr	r3, [sp, #12]
 1074 0044 5A67     		str	r2, [r3, #116]
 1075              		.loc 1 360 0
 1076 0046 029B     		ldr	r3, [sp, #8]
 1077 0048 5A68     		ldr	r2, [r3, #4]
 1078 004a 039B     		ldr	r3, [sp, #12]
 1079 004c 9A67     		str	r2, [r3, #120]
 1080              		.loc 1 361 0
 1081 004e 029B     		ldr	r3, [sp, #8]
 1082 0050 9A68     		ldr	r2, [r3, #8]
 1083 0052 039B     		ldr	r3, [sp, #12]
 1084 0054 DA67     		str	r2, [r3, #124]
 1085              		.loc 1 362 0
 1086 0056 029B     		ldr	r3, [sp, #8]
 1087 0058 DA68     		ldr	r2, [r3, #12]
 1088 005a 039B     		ldr	r3, [sp, #12]
 1089 005c C3F88020 		str	r2, [r3, #128]
 1090              		.loc 1 363 0
 1091 0060 029B     		ldr	r3, [sp, #8]
 1092 0062 9A8A     		ldrh	r2, [r3, #20]
 1093 0064 039B     		ldr	r3, [sp, #12]
 1094 0066 A3F88420 		strh	r2, [r3, #132]	@ movhi
 1095              		.loc 1 364 0
 1096 006a 039A     		ldr	r2, [sp, #12]
 1097 006c 92F88630 		ldrb	r3, [r2, #134]
 1098 0070 1221     		movs	r1, #18
 1099 0072 61F30403 		bfi	r3, r1, #0, #5
 1100 0076 82F88630 		strb	r3, [r2, #134]
 1101              		.loc 1 365 0
 1102 007a 029B     		ldr	r3, [sp, #8]
 1103 007c 9B7D     		ldrb	r3, [r3, #22]
 1104 007e C3F30003 		ubfx	r3, r3, #0, #1
 1105 0082 D9B2     		uxtb	r1, r3
 1106 0084 039A     		ldr	r2, [sp, #12]
 1107 0086 92F88630 		ldrb	r3, [r2, #134]
 1108 008a 61F34513 		bfi	r3, r1, #5, #1
 1109 008e 82F88630 		strb	r3, [r2, #134]
 1110              		.loc 1 367 0
 1111 0092 0398     		ldr	r0, [sp, #12]
 1112 0094 FFF7FEFF 		bl	ledCommInitPad
 1113              		.loc 1 369 0
 1114 0098 039B     		ldr	r3, [sp, #12]
 1115 009a D3F88020 		ldr	r2, [r3, #128]
 1116 009e 029B     		ldr	r3, [sp, #8]
ARM GAS  /home/pauba/tmp/cca0qe6Z.s 			page 21


 1117 00a0 1969     		ldr	r1, [r3, #16]
 1118 00a2 414B     		ldr	r3, .L62+12
 1119 00a4 43F83210 		str	r1, [r3, r2, lsl #3]
 1120              		.loc 1 370 0
 1121 00a8 039B     		ldr	r3, [sp, #12]
 1122 00aa D3F88030 		ldr	r3, [r3, #128]
 1123 00ae 3E4A     		ldr	r2, .L62+12
 1124 00b0 DB00     		lsls	r3, r3, #3
 1125 00b2 1344     		add	r3, r3, r2
 1126 00b4 3D4A     		ldr	r2, .L62+16
 1127 00b6 5A60     		str	r2, [r3, #4]
 1128              		.loc 1 372 0
 1129 00b8 039B     		ldr	r3, [sp, #12]
 1130 00ba 1B7A     		ldrb	r3, [r3, #8]	@ zero_extendqisi2
 1131 00bc 012B     		cmp	r3, #1
 1132 00be 4FD1     		bne	.L59
 1133              		.loc 1 373 0
 1134 00c0 039A     		ldr	r2, [sp, #12]
 1135 00c2 92F88730 		ldrb	r3, [r2, #135]
 1136 00c6 43F00803 		orr	r3, r3, #8
 1137 00ca 82F88730 		strb	r3, [r2, #135]
 1138              		.loc 1 374 0
 1139 00ce 039A     		ldr	r2, [sp, #12]
 1140 00d0 92F88730 		ldrb	r3, [r2, #135]
 1141 00d4 6FF30413 		bfc	r3, #4, #1
 1142 00d8 82F88730 		strb	r3, [r2, #135]
 1143              		.loc 1 375 0
 1144 00dc 039A     		ldr	r2, [sp, #12]
 1145 00de 92F88730 		ldrb	r3, [r2, #135]
 1146 00e2 43F02003 		orr	r3, r3, #32
 1147 00e6 82F88730 		strb	r3, [r2, #135]
 1148              		.loc 1 376 0
 1149 00ea 039A     		ldr	r2, [sp, #12]
 1150 00ec 92F88730 		ldrb	r3, [r2, #135]
 1151 00f0 6FF38613 		bfc	r3, #6, #1
 1152 00f4 82F88730 		strb	r3, [r2, #135]
 1153              		.loc 1 377 0
 1154 00f8 039A     		ldr	r2, [sp, #12]
 1155 00fa 92F88830 		ldrb	r3, [r2, #136]
 1156 00fe 6FF30103 		bfc	r3, #0, #2
 1157 0102 82F88830 		strb	r3, [r2, #136]
 1158              		.loc 1 378 0
 1159 0106 039B     		ldr	r3, [sp, #12]
 1160 0108 93F88630 		ldrb	r3, [r3, #134]
 1161 010c C3F34013 		ubfx	r3, r3, #5, #1
 1162 0110 DBB2     		uxtb	r3, r3
 1163 0112 012B     		cmp	r3, #1
 1164 0114 01D1     		bne	.L60
 1165              		.loc 1 378 0 is_stmt 0 discriminator 1
 1166 0116 0721     		movs	r1, #7
 1167 0118 00E0     		b	.L61
 1168              	.L60:
 1169              		.loc 1 378 0 discriminator 2
 1170 011a 0821     		movs	r1, #8
 1171              	.L61:
 1172              		.loc 1 378 0 discriminator 3
 1173 011c 039A     		ldr	r2, [sp, #12]
ARM GAS  /home/pauba/tmp/cca0qe6Z.s 			page 22


 1174 011e 92F88830 		ldrb	r3, [r2, #136]
 1175 0122 61F38503 		bfi	r3, r1, #2, #4
 1176 0126 82F88830 		strb	r3, [r2, #136]
 1177              		.loc 1 379 0 is_stmt 1 discriminator 3
 1178 012a 039B     		ldr	r3, [sp, #12]
 1179 012c 0022     		movs	r2, #0
 1180 012e 83F88A20 		strb	r2, [r3, #138]
 1181              		.loc 1 380 0 discriminator 3
 1182 0132 039B     		ldr	r3, [sp, #12]
 1183 0134 0022     		movs	r2, #0
 1184 0136 83F88B20 		strb	r2, [r3, #139]
 1185              		.loc 1 381 0 discriminator 3
 1186 013a 039A     		ldr	r2, [sp, #12]
 1187 013c 92F88930 		ldrb	r3, [r2, #137]
 1188 0140 6FF30303 		bfc	r3, #0, #4
 1189 0144 82F88930 		strb	r3, [r2, #137]
 1190              		.loc 1 382 0 discriminator 3
 1191 0148 039B     		ldr	r3, [sp, #12]
 1192 014a 0022     		movs	r2, #0
 1193 014c A3F88C20 		strh	r2, [r3, #140]	@ movhi
 1194              		.loc 1 383 0 discriminator 3
 1195 0150 039B     		ldr	r3, [sp, #12]
 1196 0152 0022     		movs	r2, #0
 1197 0154 C3F89020 		str	r2, [r3, #144]
 1198              		.loc 1 384 0 discriminator 3
 1199 0158 039B     		ldr	r3, [sp, #12]
 1200 015a 0022     		movs	r2, #0
 1201 015c 83F89420 		strb	r2, [r3, #148]
 1202              	.L59:
 1203              		.loc 1 388 0
 1204 0160 FFF7FEFF 		bl	dbg_check_unlock
 1205              	.LBB10:
 1206 0164 0023     		movs	r3, #0
 1207              	@ 388 "/home/pauba/ChibiOS-RT/ext/LEDComm/ledcomm.c" 1
 1208 0166 83F31188 		msr     BASEPRI, r3
 1209              	@ 0 "" 2
 1210              		.thumb
 1211              	.LBE10:
 1212              		.loc 1 389 0
 1213 016a 0023     		movs	r3, #0
 1214 016c 0093     		str	r3, [sp]
 1215 016e 1048     		ldr	r0, .L62+20
 1216 0170 4FF43471 		mov	r1, #720
 1217 0174 7F22     		movs	r2, #127
 1218 0176 0F4B     		ldr	r3, .L62+24
 1219 0178 FFF7FEFF 		bl	chThdCreateStatic
 1220              	.LBB11:
 1221              		.loc 1 390 0
 1222 017c 2023     		movs	r3, #32
 1223              	@ 390 "/home/pauba/ChibiOS-RT/ext/LEDComm/ledcomm.c" 1
 1224 017e 83F31188 		msr     BASEPRI, r3
 1225              	@ 0 "" 2
 1226              		.thumb
 1227              	.LBE11:
 1228 0182 FFF7FEFF 		bl	dbg_check_lock
 1229              		.loc 1 400 0
 1230 0186 039B     		ldr	r3, [sp, #12]
ARM GAS  /home/pauba/tmp/cca0qe6Z.s 			page 23


 1231 0188 0222     		movs	r2, #2
 1232 018a 1A72     		strb	r2, [r3, #8]
 1233              		.loc 1 401 0
 1234 018c FFF7FEFF 		bl	dbg_check_unlock
 1235              	.LBB12:
 1236 0190 0023     		movs	r3, #0
 1237              	@ 401 "/home/pauba/ChibiOS-RT/ext/LEDComm/ledcomm.c" 1
 1238 0192 83F31188 		msr     BASEPRI, r3
 1239              	@ 0 "" 2
 1240              		.thumb
 1241              	.LBE12:
 1242              		.loc 1 402 0
 1243 0196 05B0     		add	sp, sp, #20
 1244              		@ sp needed
 1245 0198 5DF804FB 		ldr	pc, [sp], #4
 1246              	.L63:
 1247              		.align	2
 1248              	.L62:
 1249 019c 00000000 		.word	.LC0
 1250 01a0 0C000000 		.word	.LC1
 1251 01a4 00000000 		.word	default_config
 1252 01a8 00000000 		.word	extcfg
 1253 01ac 00000000 		.word	extcb1
 1254 01b0 00000000 		.word	waLEDCommThread
 1255 01b4 00000000 		.word	LEDCommThread
 1256              		.cfi_endproc
 1257              	.LFE78:
 1258              		.size	ldStart, .-ldStart
 1259 01b8 AFF30080 		.section	.rodata
 1259      AFF30080 
 1260 001a 0000     		.align	2
 1261              	.LC2:
 1262 001c 226C6453 		.ascii	"\"ldStop\"()\000"
 1262      746F7022 
 1262      282900
 1263 0027 00       		.align	2
 1264              	.LC3:
 1265 0028 6C645374 		.ascii	"ldStop(), #1\000"
 1265      6F702829 
 1265      2C202331 
 1265      00
 1266              		.section	.text.ldStop,"ax",%progbits
 1267              		.align	2
 1268              		.p2align 4,,15
 1269              		.global	ldStop
 1270              		.thumb
 1271              		.thumb_func
 1272              		.type	ldStop, %function
 1273              	ldStop:
 1274              	.LFB79:
 1275              		.loc 1 413 0
 1276              		.cfi_startproc
 1277              		@ args = 0, pretend = 0, frame = 8
 1278              		@ frame_needed = 0, uses_anonymous_args = 0
 1279 0000 00B5     		push	{lr}
 1280              		.cfi_def_cfa_offset 4
 1281              		.cfi_offset 14, -4
ARM GAS  /home/pauba/tmp/cca0qe6Z.s 			page 24


 1282 0002 83B0     		sub	sp, sp, #12
 1283              		.cfi_def_cfa_offset 16
 1284 0004 0190     		str	r0, [sp, #4]
 1285              		.loc 1 415 0
 1286 0006 019B     		ldr	r3, [sp, #4]
 1287 0008 002B     		cmp	r3, #0
 1288 000a 02D1     		bne	.L65
 1289              		.loc 1 415 0 is_stmt 0 discriminator 1
 1290 000c 1648     		ldr	r0, .L67
 1291 000e FFF7FEFF 		bl	chDbgPanic
 1292              	.L65:
 1293              	.LBB13:
 1294              		.loc 1 417 0 is_stmt 1
 1295 0012 2023     		movs	r3, #32
 1296              	@ 417 "/home/pauba/ChibiOS-RT/ext/LEDComm/ledcomm.c" 1
 1297 0014 83F31188 		msr     BASEPRI, r3
 1298              	@ 0 "" 2
 1299              		.thumb
 1300              	.LBE13:
 1301 0018 FFF7FEFF 		bl	dbg_check_lock
 1302              		.loc 1 418 0
 1303 001c 019B     		ldr	r3, [sp, #4]
 1304 001e 1B7A     		ldrb	r3, [r3, #8]	@ zero_extendqisi2
 1305 0020 012B     		cmp	r3, #1
 1306 0022 06D0     		beq	.L66
 1307              		.loc 1 418 0 is_stmt 0 discriminator 1
 1308 0024 019B     		ldr	r3, [sp, #4]
 1309 0026 1B7A     		ldrb	r3, [r3, #8]	@ zero_extendqisi2
 1310 0028 022B     		cmp	r3, #2
 1311 002a 02D0     		beq	.L66
 1312 002c 0F48     		ldr	r0, .L67+4
 1313 002e FFF7FEFF 		bl	chDbgPanic
 1314              	.L66:
 1315              		.loc 1 421 0 is_stmt 1
 1316 0032 019B     		ldr	r3, [sp, #4]
 1317 0034 0122     		movs	r2, #1
 1318 0036 1A72     		strb	r2, [r3, #8]
 1319              		.loc 1 422 0
 1320 0038 019B     		ldr	r3, [sp, #4]
 1321 003a 3033     		adds	r3, r3, #48
 1322 003c 1846     		mov	r0, r3
 1323 003e FFF7FEFF 		bl	chOQResetI
 1324              		.loc 1 423 0
 1325 0042 019B     		ldr	r3, [sp, #4]
 1326 0044 0C33     		adds	r3, r3, #12
 1327 0046 1846     		mov	r0, r3
 1328 0048 FFF7FEFF 		bl	chIQResetI
 1329              		.loc 1 424 0
 1330 004c FFF7FEFF 		bl	chSchRescheduleS
 1331              		.loc 1 425 0
 1332 0050 FFF7FEFF 		bl	dbg_check_unlock
 1333              	.LBB14:
 1334 0054 0023     		movs	r3, #0
 1335              	@ 425 "/home/pauba/ChibiOS-RT/ext/LEDComm/ledcomm.c" 1
 1336 0056 83F31188 		msr     BASEPRI, r3
 1337              	@ 0 "" 2
 1338              		.thumb
ARM GAS  /home/pauba/tmp/cca0qe6Z.s 			page 25


 1339              	.LBE14:
 1340              		.loc 1 426 0
 1341 005a 0548     		ldr	r0, .L67+8
 1342 005c FFF7FEFF 		bl	extStop
 1343              		.loc 1 427 0
 1344 0060 03B0     		add	sp, sp, #12
 1345              		@ sp needed
 1346 0062 5DF804FB 		ldr	pc, [sp], #4
 1347              	.L68:
 1348 0066 00BF     		.align	2
 1349              	.L67:
 1350 0068 1C000000 		.word	.LC2
 1351 006c 28000000 		.word	.LC3
 1352 0070 00000000 		.word	EXTD1
 1353              		.cfi_endproc
 1354              	.LFE79:
 1355              		.size	ldStop, .-ldStop
 1356 0074 AFF30080 		.section	.rodata
 1356      AFF30080 
 1356      AFF30080 
 1357 0035 000000   		.align	2
 1358              	.LC4:
 1359 0038 226C6449 		.ascii	"\"ldIncomingDataI\"()\000"
 1359      6E636F6D 
 1359      696E6744 
 1359      61746149 
 1359      22282900 
 1360              		.section	.text.ldIncomingDataI,"ax",%progbits
 1361              		.align	2
 1362              		.p2align 4,,15
 1363              		.global	ldIncomingDataI
 1364              		.thumb
 1365              		.thumb_func
 1366              		.type	ldIncomingDataI, %function
 1367              	ldIncomingDataI:
 1368              	.LFB80:
 1369              		.loc 1 445 0
 1370              		.cfi_startproc
 1371              		@ args = 0, pretend = 0, frame = 8
 1372              		@ frame_needed = 0, uses_anonymous_args = 0
 1373 0000 00B5     		push	{lr}
 1374              		.cfi_def_cfa_offset 4
 1375              		.cfi_offset 14, -4
 1376 0002 83B0     		sub	sp, sp, #12
 1377              		.cfi_def_cfa_offset 16
 1378 0004 0190     		str	r0, [sp, #4]
 1379 0006 0B46     		mov	r3, r1
 1380 0008 8DF80330 		strb	r3, [sp, #3]
 1381              		.loc 1 447 0
 1382 000c FFF7FEFF 		bl	chDbgCheckClassI
 1383              		.loc 1 448 0
 1384 0010 019B     		ldr	r3, [sp, #4]
 1385 0012 002B     		cmp	r3, #0
 1386 0014 02D1     		bne	.L70
 1387              		.loc 1 448 0 is_stmt 0 discriminator 1
 1388 0016 1148     		ldr	r0, .L73
 1389 0018 FFF7FEFF 		bl	chDbgPanic
ARM GAS  /home/pauba/tmp/cca0qe6Z.s 			page 26


 1390              	.L70:
 1391              		.loc 1 451 0 is_stmt 1
 1392 001c 019B     		ldr	r3, [sp, #4]
 1393 001e 5B69     		ldr	r3, [r3, #20]
 1394 0020 002B     		cmp	r3, #0
 1395 0022 05D1     		bne	.L71
 1396              		.loc 1 452 0
 1397 0024 019B     		ldr	r3, [sp, #4]
 1398 0026 0433     		adds	r3, r3, #4
 1399 0028 1846     		mov	r0, r3
 1400 002a 0421     		movs	r1, #4
 1401 002c FFF7FEFF 		bl	chEvtBroadcastFlagsI
 1402              	.L71:
 1403              		.loc 1 455 0
 1404 0030 019B     		ldr	r3, [sp, #4]
 1405 0032 03F10C02 		add	r2, r3, #12
 1406 0036 9DF80330 		ldrb	r3, [sp, #3]	@ zero_extendqisi2
 1407 003a 1046     		mov	r0, r2
 1408 003c 1946     		mov	r1, r3
 1409 003e FFF7FEFF 		bl	chIQPutI
 1410 0042 0346     		mov	r3, r0
 1411 0044 002B     		cmp	r3, #0
 1412 0046 05DA     		bge	.L69
 1413              		.loc 1 456 0
 1414 0048 019B     		ldr	r3, [sp, #4]
 1415 004a 0433     		adds	r3, r3, #4
 1416 004c 1846     		mov	r0, r3
 1417 004e 8021     		movs	r1, #128
 1418 0050 FFF7FEFF 		bl	chEvtBroadcastFlagsI
 1419              	.L69:
 1420              		.loc 1 457 0
 1421 0054 03B0     		add	sp, sp, #12
 1422              		@ sp needed
 1423 0056 5DF804FB 		ldr	pc, [sp], #4
 1424              	.L74:
 1425 005a 00BF     		.align	2
 1426              	.L73:
 1427 005c 38000000 		.word	.LC4
 1428              		.cfi_endproc
 1429              	.LFE80:
 1430              		.size	ldIncomingDataI, .-ldIncomingDataI
 1431              		.section	.rodata
 1432              		.align	2
 1433              	.LC5:
 1434 004c 226C6452 		.ascii	"\"ldRequestDataI\"()\000"
 1434      65717565 
 1434      73744461 
 1434      74614922 
 1434      282900
 1435 005f 00       		.section	.text.ldRequestDataI,"ax",%progbits
 1436              		.align	2
 1437              		.p2align 4,,15
 1438              		.global	ldRequestDataI
 1439              		.thumb
 1440              		.thumb_func
 1441              		.type	ldRequestDataI, %function
 1442              	ldRequestDataI:
ARM GAS  /home/pauba/tmp/cca0qe6Z.s 			page 27


 1443              	.LFB81:
 1444              		.loc 1 474 0
 1445              		.cfi_startproc
 1446              		@ args = 0, pretend = 0, frame = 16
 1447              		@ frame_needed = 0, uses_anonymous_args = 0
 1448 0000 00B5     		push	{lr}
 1449              		.cfi_def_cfa_offset 4
 1450              		.cfi_offset 14, -4
 1451 0002 85B0     		sub	sp, sp, #20
 1452              		.cfi_def_cfa_offset 24
 1453 0004 0190     		str	r0, [sp, #4]
 1454              		.loc 1 477 0
 1455 0006 FFF7FEFF 		bl	chDbgCheckClassI
 1456              		.loc 1 478 0
 1457 000a 019B     		ldr	r3, [sp, #4]
 1458 000c 002B     		cmp	r3, #0
 1459 000e 02D1     		bne	.L76
 1460              		.loc 1 478 0 is_stmt 0 discriminator 1
 1461 0010 0B48     		ldr	r0, .L79
 1462 0012 FFF7FEFF 		bl	chDbgPanic
 1463              	.L76:
 1464              		.loc 1 480 0 is_stmt 1
 1465 0016 019B     		ldr	r3, [sp, #4]
 1466 0018 3033     		adds	r3, r3, #48
 1467 001a 1846     		mov	r0, r3
 1468 001c FFF7FEFF 		bl	chOQGetI
 1469 0020 0390     		str	r0, [sp, #12]
 1470              		.loc 1 482 0
 1471 0022 039B     		ldr	r3, [sp, #12]
 1472 0024 002B     		cmp	r3, #0
 1473 0026 05DA     		bge	.L77
 1474              		.loc 1 483 0
 1475 0028 019B     		ldr	r3, [sp, #4]
 1476 002a 0433     		adds	r3, r3, #4
 1477 002c 1846     		mov	r0, r3
 1478 002e 0821     		movs	r1, #8
 1479 0030 FFF7FEFF 		bl	chEvtBroadcastFlagsI
 1480              	.L77:
 1481              		.loc 1 485 0
 1482 0034 039B     		ldr	r3, [sp, #12]
 1483              		.loc 1 486 0
 1484 0036 1846     		mov	r0, r3
 1485 0038 05B0     		add	sp, sp, #20
 1486              		@ sp needed
 1487 003a 5DF804FB 		ldr	pc, [sp], #4
 1488              	.L80:
 1489 003e 00BF     		.align	2
 1490              	.L79:
 1491 0040 4C000000 		.word	.LC5
 1492              		.cfi_endproc
 1493              	.LFE81:
 1494              		.size	ldRequestDataI, .-ldRequestDataI
 1495 0044 AFF30080 		.text
 1495      AFF30080 
 1495      AFF30080 
 1496              	.Letext0:
 1497              		.file 2 "/opt/gcc-arm-none-eabi-4_8-2014q1/lib/gcc/arm-none-eabi/4.8.3/include/stddef.h"
ARM GAS  /home/pauba/tmp/cca0qe6Z.s 			page 28


 1498              		.file 3 "/opt/gcc-arm-none-eabi-4_8-2014q1/arm-none-eabi/include/machine/_default_types.h"
 1499              		.file 4 "/opt/gcc-arm-none-eabi-4_8-2014q1/arm-none-eabi/include/stdint.h"
 1500              		.file 5 "/home/pauba/ChibiOS-RT/os/ports/GCC/ARMCMx/chtypes.h"
 1501              		.file 6 "/home/pauba/ChibiOS-RT/os/kernel/include/chlists.h"
 1502              		.file 7 "/home/pauba/ChibiOS-RT/os/kernel/include/chthreads.h"
 1503              		.file 8 "/home/pauba/ChibiOS-RT/os/ports/GCC/ARMCMx/chcore_v7m.h"
 1504              		.file 9 "/home/pauba/ChibiOS-RT/os/kernel/include/chmtx.h"
 1505              		.file 10 "/home/pauba/ChibiOS-RT/os/kernel/include/chevents.h"
 1506              		.file 11 "/home/pauba/ChibiOS-RT/os/kernel/include/chqueues.h"
 1507              		.file 12 "/home/pauba/ChibiOS-RT/os/hal/platforms/STM32/GPIOv2/pal_lld.h"
 1508              		.file 13 "/home/pauba/ChibiOS-RT/os/hal/include/ext.h"
 1509              		.file 14 "/home/pauba/ChibiOS-RT/os/hal/platforms/STM32/ext_lld.h"
 1510              		.file 15 "/home/pauba/ChibiOS-RT/ext/LEDComm/ledcomm.h"
 1511              		.file 16 "/home/pauba/ChibiOS-RT/os/ports/common/ARMCMx/CMSIS/include/core_cm3.h"
 1512              		.section	.debug_info,"",%progbits
 1513              	.Ldebug_info0:
 1514 0000 7D100000 		.4byte	0x107d
 1515 0004 0400     		.2byte	0x4
 1516 0006 00000000 		.4byte	.Ldebug_abbrev0
 1517 000a 04       		.byte	0x4
 1518 000b 01       		.uleb128 0x1
 1519 000c E2040000 		.4byte	.LASF171
 1520 0010 01       		.byte	0x1
 1521 0011 57040000 		.4byte	.LASF172
 1522 0015 00000000 		.4byte	.Ldebug_ranges0+0
 1523 0019 00000000 		.4byte	0
 1524 001d 00000000 		.4byte	.Ldebug_line0
 1525 0021 02       		.uleb128 0x2
 1526 0022 04       		.byte	0x4
 1527 0023 05       		.byte	0x5
 1528 0024 696E7400 		.ascii	"int\000"
 1529 0028 03       		.uleb128 0x3
 1530 0029 26000000 		.4byte	.LASF2
 1531 002d 02       		.byte	0x2
 1532 002e D4       		.byte	0xd4
 1533 002f 33000000 		.4byte	0x33
 1534 0033 04       		.uleb128 0x4
 1535 0034 04       		.byte	0x4
 1536 0035 07       		.byte	0x7
 1537 0036 F3010000 		.4byte	.LASF0
 1538 003a 04       		.uleb128 0x4
 1539 003b 01       		.byte	0x1
 1540 003c 06       		.byte	0x6
 1541 003d DF000000 		.4byte	.LASF1
 1542 0041 03       		.uleb128 0x3
 1543 0042 50000000 		.4byte	.LASF3
 1544 0046 03       		.byte	0x3
 1545 0047 1C       		.byte	0x1c
 1546 0048 4C000000 		.4byte	0x4c
 1547 004c 04       		.uleb128 0x4
 1548 004d 01       		.byte	0x1
 1549 004e 08       		.byte	0x8
 1550 004f DA030000 		.4byte	.LASF4
 1551 0053 04       		.uleb128 0x4
 1552 0054 02       		.byte	0x2
 1553 0055 05       		.byte	0x5
 1554 0056 64010000 		.4byte	.LASF5
ARM GAS  /home/pauba/tmp/cca0qe6Z.s 			page 29


 1555 005a 03       		.uleb128 0x3
 1556 005b F9050000 		.4byte	.LASF6
 1557 005f 03       		.byte	0x3
 1558 0060 26       		.byte	0x26
 1559 0061 65000000 		.4byte	0x65
 1560 0065 04       		.uleb128 0x4
 1561 0066 02       		.byte	0x2
 1562 0067 07       		.byte	0x7
 1563 0068 67020000 		.4byte	.LASF7
 1564 006c 03       		.uleb128 0x3
 1565 006d 26060000 		.4byte	.LASF8
 1566 0071 03       		.byte	0x3
 1567 0072 37       		.byte	0x37
 1568 0073 77000000 		.4byte	0x77
 1569 0077 04       		.uleb128 0x4
 1570 0078 04       		.byte	0x4
 1571 0079 05       		.byte	0x5
 1572 007a 3F010000 		.4byte	.LASF9
 1573 007e 03       		.uleb128 0x3
 1574 007f BC010000 		.4byte	.LASF10
 1575 0083 03       		.byte	0x3
 1576 0084 38       		.byte	0x38
 1577 0085 89000000 		.4byte	0x89
 1578 0089 04       		.uleb128 0x4
 1579 008a 04       		.byte	0x4
 1580 008b 07       		.byte	0x7
 1581 008c B8050000 		.4byte	.LASF11
 1582 0090 04       		.uleb128 0x4
 1583 0091 08       		.byte	0x8
 1584 0092 05       		.byte	0x5
 1585 0093 D1000000 		.4byte	.LASF12
 1586 0097 03       		.uleb128 0x3
 1587 0098 7F030000 		.4byte	.LASF13
 1588 009c 03       		.byte	0x3
 1589 009d 4E       		.byte	0x4e
 1590 009e A2000000 		.4byte	0xa2
 1591 00a2 04       		.uleb128 0x4
 1592 00a3 08       		.byte	0x8
 1593 00a4 07       		.byte	0x7
 1594 00a5 80000000 		.4byte	.LASF14
 1595 00a9 03       		.uleb128 0x3
 1596 00aa BD060000 		.4byte	.LASF15
 1597 00ae 04       		.byte	0x4
 1598 00af 2A       		.byte	0x2a
 1599 00b0 41000000 		.4byte	0x41
 1600 00b4 03       		.uleb128 0x3
 1601 00b5 00020000 		.4byte	.LASF16
 1602 00b9 04       		.byte	0x4
 1603 00ba 36       		.byte	0x36
 1604 00bb 5A000000 		.4byte	0x5a
 1605 00bf 03       		.uleb128 0x3
 1606 00c0 D2030000 		.4byte	.LASF17
 1607 00c4 04       		.byte	0x4
 1608 00c5 41       		.byte	0x41
 1609 00c6 6C000000 		.4byte	0x6c
 1610 00ca 03       		.uleb128 0x3
 1611 00cb 6F060000 		.4byte	.LASF18
ARM GAS  /home/pauba/tmp/cca0qe6Z.s 			page 30


 1612 00cf 04       		.byte	0x4
 1613 00d0 42       		.byte	0x42
 1614 00d1 7E000000 		.4byte	0x7e
 1615 00d5 03       		.uleb128 0x3
 1616 00d6 34000000 		.4byte	.LASF19
 1617 00da 04       		.byte	0x4
 1618 00db 4E       		.byte	0x4e
 1619 00dc 97000000 		.4byte	0x97
 1620 00e0 03       		.uleb128 0x3
 1621 00e1 00010000 		.4byte	.LASF20
 1622 00e5 05       		.byte	0x5
 1623 00e6 2B       		.byte	0x2b
 1624 00e7 EB000000 		.4byte	0xeb
 1625 00eb 04       		.uleb128 0x4
 1626 00ec 01       		.byte	0x1
 1627 00ed 02       		.byte	0x2
 1628 00ee CC030000 		.4byte	.LASF21
 1629 00f2 03       		.uleb128 0x3
 1630 00f3 A0020000 		.4byte	.LASF22
 1631 00f7 05       		.byte	0x5
 1632 00f8 2C       		.byte	0x2c
 1633 00f9 A9000000 		.4byte	0xa9
 1634 00fd 03       		.uleb128 0x3
 1635 00fe 48010000 		.4byte	.LASF23
 1636 0102 05       		.byte	0x5
 1637 0103 2D       		.byte	0x2d
 1638 0104 A9000000 		.4byte	0xa9
 1639 0108 03       		.uleb128 0x3
 1640 0109 A3030000 		.4byte	.LASF24
 1641 010d 05       		.byte	0x5
 1642 010e 2E       		.byte	0x2e
 1643 010f A9000000 		.4byte	0xa9
 1644 0113 03       		.uleb128 0x3
 1645 0114 17010000 		.4byte	.LASF25
 1646 0118 05       		.byte	0x5
 1647 0119 2F       		.byte	0x2f
 1648 011a A9000000 		.4byte	0xa9
 1649 011e 03       		.uleb128 0x3
 1650 011f B2030000 		.4byte	.LASF26
 1651 0123 05       		.byte	0x5
 1652 0124 30       		.byte	0x30
 1653 0125 CA000000 		.4byte	0xca
 1654 0129 03       		.uleb128 0x3
 1655 012a 84020000 		.4byte	.LASF27
 1656 012e 05       		.byte	0x5
 1657 012f 31       		.byte	0x31
 1658 0130 BF000000 		.4byte	0xbf
 1659 0134 03       		.uleb128 0x3
 1660 0135 B4020000 		.4byte	.LASF28
 1661 0139 05       		.byte	0x5
 1662 013a 33       		.byte	0x33
 1663 013b CA000000 		.4byte	0xca
 1664 013f 03       		.uleb128 0x3
 1665 0140 11020000 		.4byte	.LASF29
 1666 0144 05       		.byte	0x5
 1667 0145 34       		.byte	0x34
 1668 0146 CA000000 		.4byte	0xca
ARM GAS  /home/pauba/tmp/cca0qe6Z.s 			page 31


 1669 014a 03       		.uleb128 0x3
 1670 014b 11060000 		.4byte	.LASF30
 1671 014f 05       		.byte	0x5
 1672 0150 35       		.byte	0x35
 1673 0151 CA000000 		.4byte	0xca
 1674 0155 03       		.uleb128 0x3
 1675 0156 9A040000 		.4byte	.LASF31
 1676 015a 06       		.byte	0x6
 1677 015b 2A       		.byte	0x2a
 1678 015c 60010000 		.4byte	0x160
 1679 0160 05       		.uleb128 0x5
 1680 0161 9A040000 		.4byte	.LASF31
 1681 0165 4C       		.byte	0x4c
 1682 0166 07       		.byte	0x7
 1683 0167 5E       		.byte	0x5e
 1684 0168 69020000 		.4byte	0x269
 1685 016c 06       		.uleb128 0x6
 1686 016d 2E040000 		.4byte	.LASF32
 1687 0171 07       		.byte	0x7
 1688 0172 5F       		.byte	0x5f
 1689 0173 8A020000 		.4byte	0x28a
 1690 0177 00       		.byte	0
 1691 0178 06       		.uleb128 0x6
 1692 0179 AB030000 		.4byte	.LASF33
 1693 017d 07       		.byte	0x7
 1694 017e 61       		.byte	0x61
 1695 017f 8A020000 		.4byte	0x28a
 1696 0183 04       		.byte	0x4
 1697 0184 06       		.uleb128 0x6
 1698 0185 BA000000 		.4byte	.LASF34
 1699 0189 07       		.byte	0x7
 1700 018a 63       		.byte	0x63
 1701 018b 1E010000 		.4byte	0x11e
 1702 018f 08       		.byte	0x8
 1703 0190 06       		.uleb128 0x6
 1704 0191 39070000 		.4byte	.LASF35
 1705 0195 07       		.byte	0x7
 1706 0196 64       		.byte	0x64
 1707 0197 4F030000 		.4byte	0x34f
 1708 019b 0C       		.byte	0xc
 1709 019c 06       		.uleb128 0x6
 1710 019d 94010000 		.4byte	.LASF36
 1711 01a1 07       		.byte	0x7
 1712 01a2 66       		.byte	0x66
 1713 01a3 8A020000 		.4byte	0x28a
 1714 01a7 10       		.byte	0x10
 1715 01a8 06       		.uleb128 0x6
 1716 01a9 49030000 		.4byte	.LASF37
 1717 01ad 07       		.byte	0x7
 1718 01ae 67       		.byte	0x67
 1719 01af 8A020000 		.4byte	0x28a
 1720 01b3 14       		.byte	0x14
 1721 01b4 06       		.uleb128 0x6
 1722 01b5 8E060000 		.4byte	.LASF38
 1723 01b9 07       		.byte	0x7
 1724 01ba 6E       		.byte	0x6e
 1725 01bb 6A040000 		.4byte	0x46a
ARM GAS  /home/pauba/tmp/cca0qe6Z.s 			page 32


 1726 01bf 18       		.byte	0x18
 1727 01c0 06       		.uleb128 0x6
 1728 01c1 E8010000 		.4byte	.LASF39
 1729 01c5 07       		.byte	0x7
 1730 01c6 74       		.byte	0x74
 1731 01c7 7C040000 		.4byte	0x47c
 1732 01cb 1C       		.byte	0x1c
 1733 01cc 06       		.uleb128 0x6
 1734 01cd FD030000 		.4byte	.LASF40
 1735 01d1 07       		.byte	0x7
 1736 01d2 79       		.byte	0x79
 1737 01d3 FD000000 		.4byte	0xfd
 1738 01d7 20       		.byte	0x20
 1739 01d8 06       		.uleb128 0x6
 1740 01d9 35040000 		.4byte	.LASF41
 1741 01dd 07       		.byte	0x7
 1742 01de 7D       		.byte	0x7d
 1743 01df F2000000 		.4byte	0xf2
 1744 01e3 21       		.byte	0x21
 1745 01e4 06       		.uleb128 0x6
 1746 01e5 5D010000 		.4byte	.LASF42
 1747 01e9 07       		.byte	0x7
 1748 01ea 82       		.byte	0x82
 1749 01eb 08010000 		.4byte	0x108
 1750 01ef 22       		.byte	0x22
 1751 01f0 06       		.uleb128 0x6
 1752 01f1 1D040000 		.4byte	.LASF43
 1753 01f5 07       		.byte	0x7
 1754 01f6 88       		.byte	0x88
 1755 01f7 13010000 		.4byte	0x113
 1756 01fb 23       		.byte	0x23
 1757 01fc 06       		.uleb128 0x6
 1758 01fd 7F010000 		.4byte	.LASF44
 1759 0201 07       		.byte	0x7
 1760 0202 8F       		.byte	0x8f
 1761 0203 7C030000 		.4byte	0x37c
 1762 0207 24       		.byte	0x24
 1763 0208 07       		.uleb128 0x7
 1764 0209 705F7500 		.ascii	"p_u\000"
 1765 020d 07       		.byte	0x7
 1766 020e B4       		.byte	0xb4
 1767 020f 35040000 		.4byte	0x435
 1768 0213 28       		.byte	0x28
 1769 0214 06       		.uleb128 0x6
 1770 0215 3F070000 		.4byte	.LASF45
 1771 0219 07       		.byte	0x7
 1772 021a B9       		.byte	0xb9
 1773 021b B0020000 		.4byte	0x2b0
 1774 021f 2C       		.byte	0x2c
 1775 0220 06       		.uleb128 0x6
 1776 0221 24020000 		.4byte	.LASF46
 1777 0225 07       		.byte	0x7
 1778 0226 BF       		.byte	0xbf
 1779 0227 90020000 		.4byte	0x290
 1780 022b 30       		.byte	0x30
 1781 022c 06       		.uleb128 0x6
 1782 022d F9060000 		.4byte	.LASF47
ARM GAS  /home/pauba/tmp/cca0qe6Z.s 			page 33


 1783 0231 07       		.byte	0x7
 1784 0232 C3       		.byte	0xc3
 1785 0233 29010000 		.4byte	0x129
 1786 0237 38       		.byte	0x38
 1787 0238 06       		.uleb128 0x6
 1788 0239 AE040000 		.4byte	.LASF48
 1789 023d 07       		.byte	0x7
 1790 023e C9       		.byte	0xc9
 1791 023f 34010000 		.4byte	0x134
 1792 0243 3C       		.byte	0x3c
 1793 0244 06       		.uleb128 0x6
 1794 0245 05040000 		.4byte	.LASF49
 1795 0249 07       		.byte	0x7
 1796 024a D0       		.byte	0xd0
 1797 024b 82040000 		.4byte	0x482
 1798 024f 40       		.byte	0x40
 1799 0250 06       		.uleb128 0x6
 1800 0251 1B060000 		.4byte	.LASF50
 1801 0255 07       		.byte	0x7
 1802 0256 D4       		.byte	0xd4
 1803 0257 1E010000 		.4byte	0x11e
 1804 025b 44       		.byte	0x44
 1805 025c 06       		.uleb128 0x6
 1806 025d F8000000 		.4byte	.LASF51
 1807 0261 07       		.byte	0x7
 1808 0262 DA       		.byte	0xda
 1809 0263 C6020000 		.4byte	0x2c6
 1810 0267 48       		.byte	0x48
 1811 0268 00       		.byte	0
 1812 0269 08       		.uleb128 0x8
 1813 026a 08       		.byte	0x8
 1814 026b 06       		.byte	0x6
 1815 026c 61       		.byte	0x61
 1816 026d 8A020000 		.4byte	0x28a
 1817 0271 06       		.uleb128 0x6
 1818 0272 2E040000 		.4byte	.LASF32
 1819 0276 06       		.byte	0x6
 1820 0277 62       		.byte	0x62
 1821 0278 8A020000 		.4byte	0x28a
 1822 027c 00       		.byte	0
 1823 027d 06       		.uleb128 0x6
 1824 027e AB030000 		.4byte	.LASF33
 1825 0282 06       		.byte	0x6
 1826 0283 64       		.byte	0x64
 1827 0284 8A020000 		.4byte	0x28a
 1828 0288 04       		.byte	0x4
 1829 0289 00       		.byte	0
 1830 028a 09       		.uleb128 0x9
 1831 028b 04       		.byte	0x4
 1832 028c 55010000 		.4byte	0x155
 1833 0290 03       		.uleb128 0x3
 1834 0291 51030000 		.4byte	.LASF52
 1835 0295 06       		.byte	0x6
 1836 0296 66       		.byte	0x66
 1837 0297 69020000 		.4byte	0x269
 1838 029b 08       		.uleb128 0x8
 1839 029c 04       		.byte	0x4
ARM GAS  /home/pauba/tmp/cca0qe6Z.s 			page 34


 1840 029d 06       		.byte	0x6
 1841 029e 6B       		.byte	0x6b
 1842 029f B0020000 		.4byte	0x2b0
 1843 02a3 06       		.uleb128 0x6
 1844 02a4 2E040000 		.4byte	.LASF32
 1845 02a8 06       		.byte	0x6
 1846 02a9 6D       		.byte	0x6d
 1847 02aa 8A020000 		.4byte	0x28a
 1848 02ae 00       		.byte	0
 1849 02af 00       		.byte	0
 1850 02b0 03       		.uleb128 0x3
 1851 02b1 A8020000 		.4byte	.LASF53
 1852 02b5 06       		.byte	0x6
 1853 02b6 70       		.byte	0x70
 1854 02b7 9B020000 		.4byte	0x29b
 1855 02bb 03       		.uleb128 0x3
 1856 02bc C3040000 		.4byte	.LASF54
 1857 02c0 08       		.byte	0x8
 1858 02c1 E5       		.byte	0xe5
 1859 02c2 C6020000 		.4byte	0x2c6
 1860 02c6 0A       		.uleb128 0xa
 1861 02c7 04       		.byte	0x4
 1862 02c8 03       		.uleb128 0x3
 1863 02c9 E0020000 		.4byte	.LASF55
 1864 02cd 08       		.byte	0x8
 1865 02ce EB       		.byte	0xeb
 1866 02cf D5000000 		.4byte	0xd5
 1867 02d3 0B       		.uleb128 0xb
 1868 02d4 3B060000 		.4byte	.LASF56
 1869 02d8 24       		.byte	0x24
 1870 02d9 08       		.byte	0x8
 1871 02da 0C01     		.2byte	0x10c
 1872 02dc 4F030000 		.4byte	0x34f
 1873 02e0 0C       		.uleb128 0xc
 1874 02e1 723400   		.ascii	"r4\000"
 1875 02e4 08       		.byte	0x8
 1876 02e5 1F01     		.2byte	0x11f
 1877 02e7 BB020000 		.4byte	0x2bb
 1878 02eb 00       		.byte	0
 1879 02ec 0C       		.uleb128 0xc
 1880 02ed 723500   		.ascii	"r5\000"
 1881 02f0 08       		.byte	0x8
 1882 02f1 2001     		.2byte	0x120
 1883 02f3 BB020000 		.4byte	0x2bb
 1884 02f7 04       		.byte	0x4
 1885 02f8 0C       		.uleb128 0xc
 1886 02f9 723600   		.ascii	"r6\000"
 1887 02fc 08       		.byte	0x8
 1888 02fd 2101     		.2byte	0x121
 1889 02ff BB020000 		.4byte	0x2bb
 1890 0303 08       		.byte	0x8
 1891 0304 0C       		.uleb128 0xc
 1892 0305 723700   		.ascii	"r7\000"
 1893 0308 08       		.byte	0x8
 1894 0309 2201     		.2byte	0x122
 1895 030b BB020000 		.4byte	0x2bb
 1896 030f 0C       		.byte	0xc
ARM GAS  /home/pauba/tmp/cca0qe6Z.s 			page 35


 1897 0310 0C       		.uleb128 0xc
 1898 0311 723800   		.ascii	"r8\000"
 1899 0314 08       		.byte	0x8
 1900 0315 2301     		.2byte	0x123
 1901 0317 BB020000 		.4byte	0x2bb
 1902 031b 10       		.byte	0x10
 1903 031c 0C       		.uleb128 0xc
 1904 031d 723900   		.ascii	"r9\000"
 1905 0320 08       		.byte	0x8
 1906 0321 2401     		.2byte	0x124
 1907 0323 BB020000 		.4byte	0x2bb
 1908 0327 14       		.byte	0x14
 1909 0328 0C       		.uleb128 0xc
 1910 0329 72313000 		.ascii	"r10\000"
 1911 032d 08       		.byte	0x8
 1912 032e 2501     		.2byte	0x125
 1913 0330 BB020000 		.4byte	0x2bb
 1914 0334 18       		.byte	0x18
 1915 0335 0C       		.uleb128 0xc
 1916 0336 72313100 		.ascii	"r11\000"
 1917 033a 08       		.byte	0x8
 1918 033b 2601     		.2byte	0x126
 1919 033d BB020000 		.4byte	0x2bb
 1920 0341 1C       		.byte	0x1c
 1921 0342 0C       		.uleb128 0xc
 1922 0343 6C7200   		.ascii	"lr\000"
 1923 0346 08       		.byte	0x8
 1924 0347 2701     		.2byte	0x127
 1925 0349 BB020000 		.4byte	0x2bb
 1926 034d 20       		.byte	0x20
 1927 034e 00       		.byte	0
 1928 034f 0B       		.uleb128 0xb
 1929 0350 5F020000 		.4byte	.LASF57
 1930 0354 04       		.byte	0x4
 1931 0355 08       		.byte	0x8
 1932 0356 3101     		.2byte	0x131
 1933 0358 6A030000 		.4byte	0x36a
 1934 035c 0C       		.uleb128 0xc
 1935 035d 72313300 		.ascii	"r13\000"
 1936 0361 08       		.byte	0x8
 1937 0362 3201     		.2byte	0x132
 1938 0364 6A030000 		.4byte	0x36a
 1939 0368 00       		.byte	0
 1940 0369 00       		.byte	0
 1941 036a 09       		.uleb128 0x9
 1942 036b 04       		.byte	0x4
 1943 036c D3020000 		.4byte	0x2d3
 1944 0370 0D       		.uleb128 0xd
 1945 0371 CA000000 		.4byte	0xca
 1946 0375 04       		.uleb128 0x4
 1947 0376 04       		.byte	0x4
 1948 0377 07       		.byte	0x7
 1949 0378 13030000 		.4byte	.LASF58
 1950 037c 0D       		.uleb128 0xd
 1951 037d 4A010000 		.4byte	0x14a
 1952 0381 05       		.uleb128 0x5
 1953 0382 34030000 		.4byte	.LASF59
ARM GAS  /home/pauba/tmp/cca0qe6Z.s 			page 36


 1954 0386 10       		.byte	0x10
 1955 0387 09       		.byte	0x9
 1956 0388 2C       		.byte	0x2c
 1957 0389 B2030000 		.4byte	0x3b2
 1958 038d 06       		.uleb128 0x6
 1959 038e 07010000 		.4byte	.LASF60
 1960 0392 09       		.byte	0x9
 1961 0393 2D       		.byte	0x2d
 1962 0394 90020000 		.4byte	0x290
 1963 0398 00       		.byte	0
 1964 0399 06       		.uleb128 0x6
 1965 039a 1F070000 		.4byte	.LASF61
 1966 039e 09       		.byte	0x9
 1967 039f 2F       		.byte	0x2f
 1968 03a0 8A020000 		.4byte	0x28a
 1969 03a4 08       		.byte	0x8
 1970 03a5 06       		.uleb128 0x6
 1971 03a6 0A060000 		.4byte	.LASF62
 1972 03aa 09       		.byte	0x9
 1973 03ab 31       		.byte	0x31
 1974 03ac B2030000 		.4byte	0x3b2
 1975 03b0 0C       		.byte	0xc
 1976 03b1 00       		.byte	0
 1977 03b2 09       		.uleb128 0x9
 1978 03b3 04       		.byte	0x4
 1979 03b4 81030000 		.4byte	0x381
 1980 03b8 03       		.uleb128 0x3
 1981 03b9 34030000 		.4byte	.LASF59
 1982 03bd 09       		.byte	0x9
 1983 03be 33       		.byte	0x33
 1984 03bf 81030000 		.4byte	0x381
 1985 03c3 03       		.uleb128 0x3
 1986 03c4 D8060000 		.4byte	.LASF63
 1987 03c8 0A       		.byte	0xa
 1988 03c9 2C       		.byte	0x2c
 1989 03ca CE030000 		.4byte	0x3ce
 1990 03ce 05       		.uleb128 0x5
 1991 03cf D8060000 		.4byte	.LASF63
 1992 03d3 10       		.byte	0x10
 1993 03d4 0A       		.byte	0xa
 1994 03d5 31       		.byte	0x31
 1995 03d6 0B040000 		.4byte	0x40b
 1996 03da 06       		.uleb128 0x6
 1997 03db 91020000 		.4byte	.LASF64
 1998 03df 0A       		.byte	0xa
 1999 03e0 32       		.byte	0x32
 2000 03e1 0B040000 		.4byte	0x40b
 2001 03e5 00       		.byte	0
 2002 03e6 06       		.uleb128 0x6
 2003 03e7 E8030000 		.4byte	.LASF65
 2004 03eb 0A       		.byte	0xa
 2005 03ec 35       		.byte	0x35
 2006 03ed 8A020000 		.4byte	0x28a
 2007 03f1 04       		.byte	0x4
 2008 03f2 06       		.uleb128 0x6
 2009 03f3 41030000 		.4byte	.LASF66
 2010 03f7 0A       		.byte	0xa
ARM GAS  /home/pauba/tmp/cca0qe6Z.s 			page 37


 2011 03f8 37       		.byte	0x37
 2012 03f9 34010000 		.4byte	0x134
 2013 03fd 08       		.byte	0x8
 2014 03fe 06       		.uleb128 0x6
 2015 03ff F4030000 		.4byte	.LASF67
 2016 0403 0A       		.byte	0xa
 2017 0404 3A       		.byte	0x3a
 2018 0405 3F010000 		.4byte	0x13f
 2019 0409 0C       		.byte	0xc
 2020 040a 00       		.byte	0
 2021 040b 09       		.uleb128 0x9
 2022 040c 04       		.byte	0x4
 2023 040d C3030000 		.4byte	0x3c3
 2024 0411 05       		.uleb128 0x5
 2025 0412 DC010000 		.4byte	.LASF68
 2026 0416 04       		.byte	0x4
 2027 0417 0A       		.byte	0xa
 2028 0418 41       		.byte	0x41
 2029 0419 2A040000 		.4byte	0x42a
 2030 041d 06       		.uleb128 0x6
 2031 041e 95060000 		.4byte	.LASF69
 2032 0422 0A       		.byte	0xa
 2033 0423 42       		.byte	0x42
 2034 0424 0B040000 		.4byte	0x40b
 2035 0428 00       		.byte	0
 2036 0429 00       		.byte	0
 2037 042a 03       		.uleb128 0x3
 2038 042b DC010000 		.4byte	.LASF68
 2039 042f 0A       		.byte	0xa
 2040 0430 45       		.byte	0x45
 2041 0431 11040000 		.4byte	0x411
 2042 0435 0E       		.uleb128 0xe
 2043 0436 04       		.byte	0x4
 2044 0437 07       		.byte	0x7
 2045 0438 96       		.byte	0x96
 2046 0439 6A040000 		.4byte	0x46a
 2047 043d 0F       		.uleb128 0xf
 2048 043e 2D000000 		.4byte	.LASF70
 2049 0442 07       		.byte	0x7
 2050 0443 9D       		.byte	0x9d
 2051 0444 29010000 		.4byte	0x129
 2052 0448 0F       		.uleb128 0xf
 2053 0449 9D000000 		.4byte	.LASF71
 2054 044d 07       		.byte	0x7
 2055 044e A4       		.byte	0xa4
 2056 044f 29010000 		.4byte	0x129
 2057 0453 0F       		.uleb128 0xf
 2058 0454 E6060000 		.4byte	.LASF72
 2059 0458 07       		.byte	0x7
 2060 0459 AB       		.byte	0xab
 2061 045a C6020000 		.4byte	0x2c6
 2062 045e 0F       		.uleb128 0xf
 2063 045f 27040000 		.4byte	.LASF73
 2064 0463 07       		.byte	0x7
 2065 0464 B2       		.byte	0xb2
 2066 0465 34010000 		.4byte	0x134
 2067 0469 00       		.byte	0
ARM GAS  /home/pauba/tmp/cca0qe6Z.s 			page 38


 2068 046a 09       		.uleb128 0x9
 2069 046b 04       		.byte	0x4
 2070 046c 70040000 		.4byte	0x470
 2071 0470 10       		.uleb128 0x10
 2072 0471 75040000 		.4byte	0x475
 2073 0475 04       		.uleb128 0x4
 2074 0476 01       		.byte	0x1
 2075 0477 08       		.byte	0x8
 2076 0478 D8050000 		.4byte	.LASF74
 2077 047c 09       		.uleb128 0x9
 2078 047d 04       		.byte	0x4
 2079 047e C8020000 		.4byte	0x2c8
 2080 0482 09       		.uleb128 0x9
 2081 0483 04       		.byte	0x4
 2082 0484 B8030000 		.4byte	0x3b8
 2083 0488 09       		.uleb128 0x9
 2084 0489 04       		.byte	0x4
 2085 048a 8E040000 		.4byte	0x48e
 2086 048e 11       		.uleb128 0x11
 2087 048f 29010000 		.4byte	0x129
 2088 0493 9D040000 		.4byte	0x49d
 2089 0497 12       		.uleb128 0x12
 2090 0498 C6020000 		.4byte	0x2c6
 2091 049c 00       		.byte	0
 2092 049d 03       		.uleb128 0x3
 2093 049e D3020000 		.4byte	.LASF75
 2094 04a2 0B       		.byte	0xb
 2095 04a3 37       		.byte	0x37
 2096 04a4 A8040000 		.4byte	0x4a8
 2097 04a8 05       		.uleb128 0x5
 2098 04a9 D3020000 		.4byte	.LASF75
 2099 04ad 24       		.byte	0x24
 2100 04ae 0B       		.byte	0xb
 2101 04af 45       		.byte	0x45
 2102 04b0 15050000 		.4byte	0x515
 2103 04b4 06       		.uleb128 0x6
 2104 04b5 C7000000 		.4byte	.LASF76
 2105 04b9 0B       		.byte	0xb
 2106 04ba 46       		.byte	0x46
 2107 04bb 90020000 		.4byte	0x290
 2108 04bf 00       		.byte	0
 2109 04c0 06       		.uleb128 0x6
 2110 04c1 B9040000 		.4byte	.LASF77
 2111 04c5 0B       		.byte	0xb
 2112 04c6 47       		.byte	0x47
 2113 04c7 28000000 		.4byte	0x28
 2114 04cb 08       		.byte	0x8
 2115 04cc 06       		.uleb128 0x6
 2116 04cd 6E010000 		.4byte	.LASF78
 2117 04d1 0B       		.byte	0xb
 2118 04d2 48       		.byte	0x48
 2119 04d3 37050000 		.4byte	0x537
 2120 04d7 0C       		.byte	0xc
 2121 04d8 06       		.uleb128 0x6
 2122 04d9 88060000 		.4byte	.LASF79
 2123 04dd 0B       		.byte	0xb
 2124 04de 49       		.byte	0x49
ARM GAS  /home/pauba/tmp/cca0qe6Z.s 			page 39


 2125 04df 37050000 		.4byte	0x537
 2126 04e3 10       		.byte	0x10
 2127 04e4 06       		.uleb128 0x6
 2128 04e5 77010000 		.4byte	.LASF80
 2129 04e9 0B       		.byte	0xb
 2130 04ea 4B       		.byte	0x4b
 2131 04eb 37050000 		.4byte	0x537
 2132 04ef 14       		.byte	0x14
 2133 04f0 06       		.uleb128 0x6
 2134 04f1 BA030000 		.4byte	.LASF81
 2135 04f5 0B       		.byte	0xb
 2136 04f6 4C       		.byte	0x4c
 2137 04f7 37050000 		.4byte	0x537
 2138 04fb 18       		.byte	0x18
 2139 04fc 06       		.uleb128 0x6
 2140 04fd B4060000 		.4byte	.LASF82
 2141 0501 0B       		.byte	0xb
 2142 0502 4D       		.byte	0x4d
 2143 0503 15050000 		.4byte	0x515
 2144 0507 1C       		.byte	0x1c
 2145 0508 06       		.uleb128 0x6
 2146 0509 08070000 		.4byte	.LASF83
 2147 050d 0B       		.byte	0xb
 2148 050e 4E       		.byte	0x4e
 2149 050f C6020000 		.4byte	0x2c6
 2150 0513 20       		.byte	0x20
 2151 0514 00       		.byte	0
 2152 0515 03       		.uleb128 0x3
 2153 0516 C9020000 		.4byte	.LASF84
 2154 051a 0B       		.byte	0xb
 2155 051b 3A       		.byte	0x3a
 2156 051c 20050000 		.4byte	0x520
 2157 0520 09       		.uleb128 0x9
 2158 0521 04       		.byte	0x4
 2159 0522 26050000 		.4byte	0x526
 2160 0526 13       		.uleb128 0x13
 2161 0527 31050000 		.4byte	0x531
 2162 052b 12       		.uleb128 0x12
 2163 052c 31050000 		.4byte	0x531
 2164 0530 00       		.byte	0
 2165 0531 09       		.uleb128 0x9
 2166 0532 04       		.byte	0x4
 2167 0533 9D040000 		.4byte	0x49d
 2168 0537 09       		.uleb128 0x9
 2169 0538 04       		.byte	0x4
 2170 0539 A9000000 		.4byte	0xa9
 2171 053d 03       		.uleb128 0x3
 2172 053e C5060000 		.4byte	.LASF85
 2173 0542 0B       		.byte	0xb
 2174 0543 82       		.byte	0x82
 2175 0544 9D040000 		.4byte	0x49d
 2176 0548 03       		.uleb128 0x3
 2177 0549 3D000000 		.4byte	.LASF86
 2178 054d 0B       		.byte	0xb
 2179 054e F5       		.byte	0xf5
 2180 054f 9D040000 		.4byte	0x49d
 2181 0553 11       		.uleb128 0x11
ARM GAS  /home/pauba/tmp/cca0qe6Z.s 			page 40


 2182 0554 28000000 		.4byte	0x28
 2183 0558 6C050000 		.4byte	0x56c
 2184 055c 12       		.uleb128 0x12
 2185 055d C6020000 		.4byte	0x2c6
 2186 0561 12       		.uleb128 0x12
 2187 0562 6C050000 		.4byte	0x56c
 2188 0566 12       		.uleb128 0x12
 2189 0567 28000000 		.4byte	0x28
 2190 056b 00       		.byte	0
 2191 056c 09       		.uleb128 0x9
 2192 056d 04       		.byte	0x4
 2193 056e 72050000 		.4byte	0x572
 2194 0572 10       		.uleb128 0x10
 2195 0573 A9000000 		.4byte	0xa9
 2196 0577 09       		.uleb128 0x9
 2197 0578 04       		.byte	0x4
 2198 0579 53050000 		.4byte	0x553
 2199 057d 11       		.uleb128 0x11
 2200 057e 28000000 		.4byte	0x28
 2201 0582 96050000 		.4byte	0x596
 2202 0586 12       		.uleb128 0x12
 2203 0587 C6020000 		.4byte	0x2c6
 2204 058b 12       		.uleb128 0x12
 2205 058c 37050000 		.4byte	0x537
 2206 0590 12       		.uleb128 0x12
 2207 0591 28000000 		.4byte	0x28
 2208 0595 00       		.byte	0
 2209 0596 09       		.uleb128 0x9
 2210 0597 04       		.byte	0x4
 2211 0598 7D050000 		.4byte	0x57d
 2212 059c 11       		.uleb128 0x11
 2213 059d 29010000 		.4byte	0x129
 2214 05a1 B0050000 		.4byte	0x5b0
 2215 05a5 12       		.uleb128 0x12
 2216 05a6 C6020000 		.4byte	0x2c6
 2217 05aa 12       		.uleb128 0x12
 2218 05ab A9000000 		.4byte	0xa9
 2219 05af 00       		.byte	0
 2220 05b0 09       		.uleb128 0x9
 2221 05b1 04       		.byte	0x4
 2222 05b2 9C050000 		.4byte	0x59c
 2223 05b6 11       		.uleb128 0x11
 2224 05b7 29010000 		.4byte	0x129
 2225 05bb CF050000 		.4byte	0x5cf
 2226 05bf 12       		.uleb128 0x12
 2227 05c0 C6020000 		.4byte	0x2c6
 2228 05c4 12       		.uleb128 0x12
 2229 05c5 A9000000 		.4byte	0xa9
 2230 05c9 12       		.uleb128 0x12
 2231 05ca 4A010000 		.4byte	0x14a
 2232 05ce 00       		.byte	0
 2233 05cf 09       		.uleb128 0x9
 2234 05d0 04       		.byte	0x4
 2235 05d1 B6050000 		.4byte	0x5b6
 2236 05d5 11       		.uleb128 0x11
 2237 05d6 29010000 		.4byte	0x129
 2238 05da E9050000 		.4byte	0x5e9
ARM GAS  /home/pauba/tmp/cca0qe6Z.s 			page 41


 2239 05de 12       		.uleb128 0x12
 2240 05df C6020000 		.4byte	0x2c6
 2241 05e3 12       		.uleb128 0x12
 2242 05e4 4A010000 		.4byte	0x14a
 2243 05e8 00       		.byte	0
 2244 05e9 09       		.uleb128 0x9
 2245 05ea 04       		.byte	0x4
 2246 05eb D5050000 		.4byte	0x5d5
 2247 05ef 11       		.uleb128 0x11
 2248 05f0 28000000 		.4byte	0x28
 2249 05f4 0D060000 		.4byte	0x60d
 2250 05f8 12       		.uleb128 0x12
 2251 05f9 C6020000 		.4byte	0x2c6
 2252 05fd 12       		.uleb128 0x12
 2253 05fe 6C050000 		.4byte	0x56c
 2254 0602 12       		.uleb128 0x12
 2255 0603 28000000 		.4byte	0x28
 2256 0607 12       		.uleb128 0x12
 2257 0608 4A010000 		.4byte	0x14a
 2258 060c 00       		.byte	0
 2259 060d 09       		.uleb128 0x9
 2260 060e 04       		.byte	0x4
 2261 060f EF050000 		.4byte	0x5ef
 2262 0613 11       		.uleb128 0x11
 2263 0614 28000000 		.4byte	0x28
 2264 0618 31060000 		.4byte	0x631
 2265 061c 12       		.uleb128 0x12
 2266 061d C6020000 		.4byte	0x2c6
 2267 0621 12       		.uleb128 0x12
 2268 0622 37050000 		.4byte	0x537
 2269 0626 12       		.uleb128 0x12
 2270 0627 28000000 		.4byte	0x28
 2271 062b 12       		.uleb128 0x12
 2272 062c 4A010000 		.4byte	0x14a
 2273 0630 00       		.byte	0
 2274 0631 09       		.uleb128 0x9
 2275 0632 04       		.byte	0x4
 2276 0633 13060000 		.4byte	0x613
 2277 0637 08       		.uleb128 0x8
 2278 0638 04       		.byte	0x4
 2279 0639 0C       		.byte	0xc
 2280 063a 96       		.byte	0x96
 2281 063b 58060000 		.4byte	0x658
 2282 063f 07       		.uleb128 0x7
 2283 0640 73657400 		.ascii	"set\000"
 2284 0644 0C       		.byte	0xc
 2285 0645 97       		.byte	0x97
 2286 0646 B4000000 		.4byte	0xb4
 2287 064a 00       		.byte	0
 2288 064b 06       		.uleb128 0x6
 2289 064c 2E030000 		.4byte	.LASF87
 2290 0650 0C       		.byte	0xc
 2291 0651 98       		.byte	0x98
 2292 0652 B4000000 		.4byte	0xb4
 2293 0656 02       		.byte	0x2
 2294 0657 00       		.byte	0
 2295 0658 0E       		.uleb128 0xe
ARM GAS  /home/pauba/tmp/cca0qe6Z.s 			page 42


 2296 0659 04       		.byte	0x4
 2297 065a 0C       		.byte	0xc
 2298 065b 94       		.byte	0x94
 2299 065c 73060000 		.4byte	0x673
 2300 0660 14       		.uleb128 0x14
 2301 0661 5700     		.ascii	"W\000"
 2302 0663 0C       		.byte	0xc
 2303 0664 95       		.byte	0x95
 2304 0665 CA000000 		.4byte	0xca
 2305 0669 14       		.uleb128 0x14
 2306 066a 4800     		.ascii	"H\000"
 2307 066c 0C       		.byte	0xc
 2308 066d 99       		.byte	0x99
 2309 066e 37060000 		.4byte	0x637
 2310 0672 00       		.byte	0
 2311 0673 08       		.uleb128 0x8
 2312 0674 28       		.byte	0x28
 2313 0675 0C       		.byte	0xc
 2314 0676 8C       		.byte	0x8c
 2315 0677 F4060000 		.4byte	0x6f4
 2316 067b 06       		.uleb128 0x6
 2317 067c 7A000000 		.4byte	.LASF88
 2318 0680 0C       		.byte	0xc
 2319 0681 8E       		.byte	0x8e
 2320 0682 70030000 		.4byte	0x370
 2321 0686 00       		.byte	0
 2322 0687 06       		.uleb128 0x6
 2323 0688 49000000 		.4byte	.LASF89
 2324 068c 0C       		.byte	0xc
 2325 068d 8F       		.byte	0x8f
 2326 068e 70030000 		.4byte	0x370
 2327 0692 04       		.byte	0x4
 2328 0693 06       		.uleb128 0x6
 2329 0694 B4010000 		.4byte	.LASF90
 2330 0698 0C       		.byte	0xc
 2331 0699 90       		.byte	0x90
 2332 069a 70030000 		.4byte	0x370
 2333 069e 08       		.byte	0x8
 2334 069f 06       		.uleb128 0x6
 2335 06a0 97000000 		.4byte	.LASF91
 2336 06a4 0C       		.byte	0xc
 2337 06a5 91       		.byte	0x91
 2338 06a6 70030000 		.4byte	0x370
 2339 06aa 0C       		.byte	0xc
 2340 06ab 07       		.uleb128 0x7
 2341 06ac 49445200 		.ascii	"IDR\000"
 2342 06b0 0C       		.byte	0xc
 2343 06b1 92       		.byte	0x92
 2344 06b2 70030000 		.4byte	0x370
 2345 06b6 10       		.byte	0x10
 2346 06b7 07       		.uleb128 0x7
 2347 06b8 4F445200 		.ascii	"ODR\000"
 2348 06bc 0C       		.byte	0xc
 2349 06bd 93       		.byte	0x93
 2350 06be 70030000 		.4byte	0x370
 2351 06c2 14       		.byte	0x14
 2352 06c3 06       		.uleb128 0x6
ARM GAS  /home/pauba/tmp/cca0qe6Z.s 			page 43


 2353 06c4 EB000000 		.4byte	.LASF92
 2354 06c8 0C       		.byte	0xc
 2355 06c9 9A       		.byte	0x9a
 2356 06ca F4060000 		.4byte	0x6f4
 2357 06ce 18       		.byte	0x18
 2358 06cf 06       		.uleb128 0x6
 2359 06d0 A1040000 		.4byte	.LASF93
 2360 06d4 0C       		.byte	0xc
 2361 06d5 9B       		.byte	0x9b
 2362 06d6 70030000 		.4byte	0x370
 2363 06da 1C       		.byte	0x1c
 2364 06db 06       		.uleb128 0x6
 2365 06dc 8F030000 		.4byte	.LASF94
 2366 06e0 0C       		.byte	0xc
 2367 06e1 9C       		.byte	0x9c
 2368 06e2 70030000 		.4byte	0x370
 2369 06e6 20       		.byte	0x20
 2370 06e7 06       		.uleb128 0x6
 2371 06e8 8A030000 		.4byte	.LASF95
 2372 06ec 0C       		.byte	0xc
 2373 06ed 9D       		.byte	0x9d
 2374 06ee 70030000 		.4byte	0x370
 2375 06f2 24       		.byte	0x24
 2376 06f3 00       		.byte	0
 2377 06f4 0D       		.uleb128 0xd
 2378 06f5 58060000 		.4byte	0x658
 2379 06f9 03       		.uleb128 0x3
 2380 06fa 2F020000 		.4byte	.LASF96
 2381 06fe 0C       		.byte	0xc
 2382 06ff 9E       		.byte	0x9e
 2383 0700 73060000 		.4byte	0x673
 2384 0704 03       		.uleb128 0x3
 2385 0705 67000000 		.4byte	.LASF97
 2386 0709 0C       		.byte	0xc
 2387 070a F0       		.byte	0xf0
 2388 070b CA000000 		.4byte	0xca
 2389 070f 03       		.uleb128 0x3
 2390 0710 30060000 		.4byte	.LASF98
 2391 0714 0C       		.byte	0xc
 2392 0715 FD       		.byte	0xfd
 2393 0716 1A070000 		.4byte	0x71a
 2394 071a 09       		.uleb128 0x9
 2395 071b 04       		.byte	0x4
 2396 071c F9060000 		.4byte	0x6f9
 2397 0720 15       		.uleb128 0x15
 2398 0721 01       		.byte	0x1
 2399 0722 0D       		.byte	0xd
 2400 0723 4A       		.byte	0x4a
 2401 0724 3B070000 		.4byte	0x73b
 2402 0728 16       		.uleb128 0x16
 2403 0729 6D030000 		.4byte	.LASF99
 2404 072d 00       		.sleb128 0
 2405 072e 16       		.uleb128 0x16
 2406 072f CA050000 		.4byte	.LASF100
 2407 0733 01       		.sleb128 1
 2408 0734 16       		.uleb128 0x16
 2409 0735 EB020000 		.4byte	.LASF101
ARM GAS  /home/pauba/tmp/cca0qe6Z.s 			page 44


 2410 0739 02       		.sleb128 2
 2411 073a 00       		.byte	0
 2412 073b 03       		.uleb128 0x3
 2413 073c 1C030000 		.4byte	.LASF102
 2414 0740 0D       		.byte	0xd
 2415 0741 4E       		.byte	0x4e
 2416 0742 20070000 		.4byte	0x720
 2417 0746 03       		.uleb128 0x3
 2418 0747 78060000 		.4byte	.LASF103
 2419 074b 0D       		.byte	0xd
 2420 074c 53       		.byte	0x53
 2421 074d 51070000 		.4byte	0x751
 2422 0751 05       		.uleb128 0x5
 2423 0752 78060000 		.4byte	.LASF103
 2424 0756 08       		.byte	0x8
 2425 0757 0E       		.byte	0xe
 2426 0758 71       		.byte	0x71
 2427 0759 76070000 		.4byte	0x776
 2428 075d 06       		.uleb128 0x6
 2429 075e 30010000 		.4byte	.LASF104
 2430 0762 0E       		.byte	0xe
 2431 0763 75       		.byte	0x75
 2432 0764 3B070000 		.4byte	0x73b
 2433 0768 00       		.byte	0
 2434 0769 06       		.uleb128 0x6
 2435 076a E2050000 		.4byte	.LASF105
 2436 076e 0E       		.byte	0xe
 2437 076f 79       		.byte	0x79
 2438 0770 03080000 		.4byte	0x803
 2439 0774 04       		.byte	0x4
 2440 0775 00       		.byte	0
 2441 0776 03       		.uleb128 0x3
 2442 0777 5A000000 		.4byte	.LASF106
 2443 077b 0E       		.byte	0xe
 2444 077c 47       		.byte	0x47
 2445 077d CA000000 		.4byte	0xca
 2446 0781 03       		.uleb128 0x3
 2447 0782 0F040000 		.4byte	.LASF107
 2448 0786 0E       		.byte	0xe
 2449 0787 4F       		.byte	0x4f
 2450 0788 8C070000 		.4byte	0x78c
 2451 078c 09       		.uleb128 0x9
 2452 078d 04       		.byte	0x4
 2453 078e 92070000 		.4byte	0x792
 2454 0792 13       		.uleb128 0x13
 2455 0793 A2070000 		.4byte	0x7a2
 2456 0797 12       		.uleb128 0x12
 2457 0798 A2070000 		.4byte	0x7a2
 2458 079c 12       		.uleb128 0x12
 2459 079d 76070000 		.4byte	0x776
 2460 07a1 00       		.byte	0
 2461 07a2 09       		.uleb128 0x9
 2462 07a3 04       		.byte	0x4
 2463 07a4 46070000 		.4byte	0x746
 2464 07a8 08       		.uleb128 0x8
 2465 07a9 08       		.byte	0x8
 2466 07aa 0E       		.byte	0xe
ARM GAS  /home/pauba/tmp/cca0qe6Z.s 			page 45


 2467 07ab 54       		.byte	0x54
 2468 07ac C8070000 		.4byte	0x7c8
 2469 07b0 06       		.uleb128 0x6
 2470 07b1 DD050000 		.4byte	.LASF108
 2471 07b5 0E       		.byte	0xe
 2472 07b6 58       		.byte	0x58
 2473 07b7 CA000000 		.4byte	0xca
 2474 07bb 00       		.byte	0
 2475 07bc 07       		.uleb128 0x7
 2476 07bd 636200   		.ascii	"cb\000"
 2477 07c0 0E       		.byte	0xe
 2478 07c1 5F       		.byte	0x5f
 2479 07c2 81070000 		.4byte	0x781
 2480 07c6 04       		.byte	0x4
 2481 07c7 00       		.byte	0
 2482 07c8 03       		.uleb128 0x3
 2483 07c9 9C010000 		.4byte	.LASF109
 2484 07cd 0E       		.byte	0xe
 2485 07ce 60       		.byte	0x60
 2486 07cf A8070000 		.4byte	0x7a8
 2487 07d3 08       		.uleb128 0x8
 2488 07d4 B8       		.byte	0xb8
 2489 07d5 0E       		.byte	0xe
 2490 07d6 66       		.byte	0x66
 2491 07d7 E8070000 		.4byte	0x7e8
 2492 07db 06       		.uleb128 0x6
 2493 07dc 36010000 		.4byte	.LASF110
 2494 07e0 0E       		.byte	0xe
 2495 07e1 6A       		.byte	0x6a
 2496 07e2 E8070000 		.4byte	0x7e8
 2497 07e6 00       		.byte	0
 2498 07e7 00       		.byte	0
 2499 07e8 17       		.uleb128 0x17
 2500 07e9 C8070000 		.4byte	0x7c8
 2501 07ed F8070000 		.4byte	0x7f8
 2502 07f1 18       		.uleb128 0x18
 2503 07f2 75030000 		.4byte	0x375
 2504 07f6 16       		.byte	0x16
 2505 07f7 00       		.byte	0
 2506 07f8 03       		.uleb128 0x3
 2507 07f9 7A020000 		.4byte	.LASF111
 2508 07fd 0E       		.byte	0xe
 2509 07fe 6C       		.byte	0x6c
 2510 07ff D3070000 		.4byte	0x7d3
 2511 0803 09       		.uleb128 0x9
 2512 0804 04       		.byte	0x4
 2513 0805 09080000 		.4byte	0x809
 2514 0809 10       		.uleb128 0x10
 2515 080a F8070000 		.4byte	0x7f8
 2516 080e 17       		.uleb128 0x17
 2517 080f A9000000 		.4byte	0xa9
 2518 0813 1E080000 		.4byte	0x81e
 2519 0817 18       		.uleb128 0x18
 2520 0818 75030000 		.4byte	0x375
 2521 081c 0F       		.byte	0xf
 2522 081d 00       		.byte	0
 2523 081e 08       		.uleb128 0x8
ARM GAS  /home/pauba/tmp/cca0qe6Z.s 			page 46


 2524 081f 18       		.byte	0x18
 2525 0820 0F       		.byte	0xf
 2526 0821 A6       		.byte	0xa6
 2527 0822 9C080000 		.4byte	0x89c
 2528 0826 06       		.uleb128 0x6
 2529 0827 1B000000 		.4byte	.LASF112
 2530 082b 0F       		.byte	0xf
 2531 082c A7       		.byte	0xa7
 2532 082d 0F070000 		.4byte	0x70f
 2533 0831 00       		.byte	0
 2534 0832 06       		.uleb128 0x6
 2535 0833 AA060000 		.4byte	.LASF113
 2536 0837 0F       		.byte	0xf
 2537 0838 A8       		.byte	0xa8
 2538 0839 04070000 		.4byte	0x704
 2539 083d 04       		.byte	0x4
 2540 083e 06       		.uleb128 0x6
 2541 083f 8D040000 		.4byte	.LASF114
 2542 0843 0F       		.byte	0xf
 2543 0844 A9       		.byte	0xa9
 2544 0845 0F070000 		.4byte	0x70f
 2545 0849 08       		.byte	0x8
 2546 084a 06       		.uleb128 0x6
 2547 084b 2D070000 		.4byte	.LASF115
 2548 084f 0F       		.byte	0xf
 2549 0850 AA       		.byte	0xaa
 2550 0851 04070000 		.4byte	0x704
 2551 0855 0C       		.byte	0xc
 2552 0856 06       		.uleb128 0x6
 2553 0857 C7010000 		.4byte	.LASF116
 2554 085b 0F       		.byte	0xf
 2555 085c AB       		.byte	0xab
 2556 085d CA000000 		.4byte	0xca
 2557 0861 10       		.byte	0x10
 2558 0862 06       		.uleb128 0x6
 2559 0863 C2030000 		.4byte	.LASF117
 2560 0867 0F       		.byte	0xf
 2561 0868 AC       		.byte	0xac
 2562 0869 B4000000 		.4byte	0xb4
 2563 086d 14       		.byte	0x14
 2564 086e 19       		.uleb128 0x19
 2565 086f 5E030000 		.4byte	.LASF118
 2566 0873 0F       		.byte	0xf
 2567 0874 AF       		.byte	0xaf
 2568 0875 A9000000 		.4byte	0xa9
 2569 0879 01       		.byte	0x1
 2570 087a 01       		.byte	0x1
 2571 087b 07       		.byte	0x7
 2572 087c 16       		.byte	0x16
 2573 087d 19       		.uleb128 0x19
 2574 087e AD010000 		.4byte	.LASF119
 2575 0882 0F       		.byte	0xf
 2576 0883 B0       		.byte	0xb0
 2577 0884 A9000000 		.4byte	0xa9
 2578 0888 01       		.byte	0x1
 2579 0889 01       		.byte	0x1
 2580 088a 06       		.byte	0x6
ARM GAS  /home/pauba/tmp/cca0qe6Z.s 			page 47


 2581 088b 16       		.byte	0x16
 2582 088c 19       		.uleb128 0x19
 2583 088d ED060000 		.4byte	.LASF120
 2584 0891 0F       		.byte	0xf
 2585 0892 B1       		.byte	0xb1
 2586 0893 A9000000 		.4byte	0xa9
 2587 0897 01       		.byte	0x1
 2588 0898 02       		.byte	0x2
 2589 0899 04       		.byte	0x4
 2590 089a 16       		.byte	0x16
 2591 089b 00       		.byte	0
 2592 089c 03       		.uleb128 0x3
 2593 089d E9050000 		.4byte	.LASF121
 2594 08a1 0F       		.byte	0xf
 2595 08a2 B5       		.byte	0xb5
 2596 08a3 1E080000 		.4byte	0x81e
 2597 08a7 15       		.uleb128 0x15
 2598 08a8 01       		.byte	0x1
 2599 08a9 0F       		.byte	0xf
 2600 08aa BA       		.byte	0xba
 2601 08ab C2080000 		.4byte	0x8c2
 2602 08af 16       		.uleb128 0x16
 2603 08b0 0F070000 		.4byte	.LASF122
 2604 08b4 00       		.sleb128 0
 2605 08b5 16       		.uleb128 0x16
 2606 08b6 8C010000 		.4byte	.LASF123
 2607 08ba 01       		.sleb128 1
 2608 08bb 16       		.uleb128 0x16
 2609 08bc FF060000 		.4byte	.LASF124
 2610 08c0 02       		.sleb128 2
 2611 08c1 00       		.byte	0
 2612 08c2 03       		.uleb128 0x3
 2613 08c3 3D040000 		.4byte	.LASF125
 2614 08c7 0F       		.byte	0xf
 2615 08c8 BE       		.byte	0xbe
 2616 08c9 A7080000 		.4byte	0x8a7
 2617 08cd 03       		.uleb128 0x3
 2618 08ce 5F060000 		.4byte	.LASF126
 2619 08d2 0F       		.byte	0xf
 2620 08d3 C3       		.byte	0xc3
 2621 08d4 D8080000 		.4byte	0x8d8
 2622 08d8 05       		.uleb128 0x5
 2623 08d9 CC040000 		.4byte	.LASF127
 2624 08dd 98       		.byte	0x98
 2625 08de 0F       		.byte	0xf
 2626 08df DB       		.byte	0xdb
 2627 08e0 610A0000 		.4byte	0xa61
 2628 08e4 07       		.uleb128 0x7
 2629 08e5 766D7400 		.ascii	"vmt\000"
 2630 08e9 0F       		.byte	0xf
 2631 08ea DD       		.byte	0xdd
 2632 08eb CE0A0000 		.4byte	0xace
 2633 08ef 00       		.byte	0
 2634 08f0 06       		.uleb128 0x6
 2635 08f1 59020000 		.4byte	.LASF128
 2636 08f5 0F       		.byte	0xf
 2637 08f6 DE       		.byte	0xde
ARM GAS  /home/pauba/tmp/cca0qe6Z.s 			page 48


 2638 08f7 2A040000 		.4byte	0x42a
 2639 08fb 04       		.byte	0x4
 2640 08fc 06       		.uleb128 0x6
 2641 08fd 30010000 		.4byte	.LASF104
 2642 0901 0F       		.byte	0xf
 2643 0902 DE       		.byte	0xde
 2644 0903 C2080000 		.4byte	0x8c2
 2645 0907 08       		.byte	0x8
 2646 0908 06       		.uleb128 0x6
 2647 0909 1D020000 		.4byte	.LASF129
 2648 090d 0F       		.byte	0xf
 2649 090e DE       		.byte	0xde
 2650 090f 3D050000 		.4byte	0x53d
 2651 0913 0C       		.byte	0xc
 2652 0914 06       		.uleb128 0x6
 2653 0915 8A020000 		.4byte	.LASF130
 2654 0919 0F       		.byte	0xf
 2655 091a DE       		.byte	0xde
 2656 091b 48050000 		.4byte	0x548
 2657 091f 30       		.byte	0x30
 2658 0920 07       		.uleb128 0x7
 2659 0921 696200   		.ascii	"ib\000"
 2660 0924 0F       		.byte	0xf
 2661 0925 DE       		.byte	0xde
 2662 0926 0E080000 		.4byte	0x80e
 2663 092a 54       		.byte	0x54
 2664 092b 07       		.uleb128 0x7
 2665 092c 6F6200   		.ascii	"ob\000"
 2666 092f 0F       		.byte	0xf
 2667 0930 DE       		.byte	0xde
 2668 0931 0E080000 		.4byte	0x80e
 2669 0935 64       		.byte	0x64
 2670 0936 06       		.uleb128 0x6
 2671 0937 1B000000 		.4byte	.LASF112
 2672 093b 0F       		.byte	0xf
 2673 093c DE       		.byte	0xde
 2674 093d 0F070000 		.4byte	0x70f
 2675 0941 74       		.byte	0x74
 2676 0942 06       		.uleb128 0x6
 2677 0943 AA060000 		.4byte	.LASF113
 2678 0947 0F       		.byte	0xf
 2679 0948 DE       		.byte	0xde
 2680 0949 04070000 		.4byte	0x704
 2681 094d 78       		.byte	0x78
 2682 094e 06       		.uleb128 0x6
 2683 094f 8D040000 		.4byte	.LASF114
 2684 0953 0F       		.byte	0xf
 2685 0954 DE       		.byte	0xde
 2686 0955 0F070000 		.4byte	0x70f
 2687 0959 7C       		.byte	0x7c
 2688 095a 06       		.uleb128 0x6
 2689 095b 2D070000 		.4byte	.LASF115
 2690 095f 0F       		.byte	0xf
 2691 0960 DE       		.byte	0xde
 2692 0961 04070000 		.4byte	0x704
 2693 0965 80       		.byte	0x80
 2694 0966 06       		.uleb128 0x6
ARM GAS  /home/pauba/tmp/cca0qe6Z.s 			page 49


 2695 0967 C2030000 		.4byte	.LASF117
 2696 096b 0F       		.byte	0xf
 2697 096c DE       		.byte	0xde
 2698 096d B4000000 		.4byte	0xb4
 2699 0971 84       		.byte	0x84
 2700 0972 19       		.uleb128 0x19
 2701 0973 74000000 		.4byte	.LASF131
 2702 0977 0F       		.byte	0xf
 2703 0978 DE       		.byte	0xde
 2704 0979 A9000000 		.4byte	0xa9
 2705 097d 01       		.byte	0x1
 2706 097e 05       		.byte	0x5
 2707 097f 03       		.byte	0x3
 2708 0980 86       		.byte	0x86
 2709 0981 19       		.uleb128 0x19
 2710 0982 5E030000 		.4byte	.LASF118
 2711 0986 0F       		.byte	0xf
 2712 0987 DE       		.byte	0xde
 2713 0988 A9000000 		.4byte	0xa9
 2714 098c 01       		.byte	0x1
 2715 098d 01       		.byte	0x1
 2716 098e 02       		.byte	0x2
 2717 098f 86       		.byte	0x86
 2718 0990 19       		.uleb128 0x19
 2719 0991 AD010000 		.4byte	.LASF119
 2720 0995 0F       		.byte	0xf
 2721 0996 DE       		.byte	0xde
 2722 0997 A9000000 		.4byte	0xa9
 2723 099b 01       		.byte	0x1
 2724 099c 01       		.byte	0x1
 2725 099d 01       		.byte	0x1
 2726 099e 86       		.byte	0x86
 2727 099f 19       		.uleb128 0x19
 2728 09a0 ED060000 		.4byte	.LASF120
 2729 09a4 0F       		.byte	0xf
 2730 09a5 DE       		.byte	0xde
 2731 09a6 A9000000 		.4byte	0xa9
 2732 09aa 01       		.byte	0x1
 2733 09ab 02       		.byte	0x2
 2734 09ac 06       		.byte	0x6
 2735 09ad 87       		.byte	0x87
 2736 09ae 19       		.uleb128 0x19
 2737 09af 53060000 		.4byte	.LASF132
 2738 09b3 0F       		.byte	0xf
 2739 09b4 DE       		.byte	0xde
 2740 09b5 A9000000 		.4byte	0xa9
 2741 09b9 01       		.byte	0x1
 2742 09ba 01       		.byte	0x1
 2743 09bb 05       		.byte	0x5
 2744 09bc 87       		.byte	0x87
 2745 09bd 19       		.uleb128 0x19
 2746 09be 3A030000 		.4byte	.LASF133
 2747 09c2 0F       		.byte	0xf
 2748 09c3 DE       		.byte	0xde
 2749 09c4 A9000000 		.4byte	0xa9
 2750 09c8 01       		.byte	0x1
 2751 09c9 01       		.byte	0x1
ARM GAS  /home/pauba/tmp/cca0qe6Z.s 			page 50


 2752 09ca 04       		.byte	0x4
 2753 09cb 87       		.byte	0x87
 2754 09cc 19       		.uleb128 0x19
 2755 09cd D7010000 		.4byte	.LASF134
 2756 09d1 0F       		.byte	0xf
 2757 09d2 DE       		.byte	0xde
 2758 09d3 A9000000 		.4byte	0xa9
 2759 09d7 01       		.byte	0x1
 2760 09d8 01       		.byte	0x1
 2761 09d9 03       		.byte	0x3
 2762 09da 87       		.byte	0x87
 2763 09db 19       		.uleb128 0x19
 2764 09dc 86010000 		.4byte	.LASF135
 2765 09e0 0F       		.byte	0xf
 2766 09e1 DE       		.byte	0xde
 2767 09e2 A9000000 		.4byte	0xa9
 2768 09e6 01       		.byte	0x1
 2769 09e7 01       		.byte	0x1
 2770 09e8 02       		.byte	0x2
 2771 09e9 87       		.byte	0x87
 2772 09ea 19       		.uleb128 0x19
 2773 09eb 27070000 		.4byte	.LASF136
 2774 09ef 0F       		.byte	0xf
 2775 09f0 DE       		.byte	0xde
 2776 09f1 A9000000 		.4byte	0xa9
 2777 09f5 01       		.byte	0x1
 2778 09f6 01       		.byte	0x1
 2779 09f7 01       		.byte	0x1
 2780 09f8 87       		.byte	0x87
 2781 09f9 19       		.uleb128 0x19
 2782 09fa 82060000 		.4byte	.LASF137
 2783 09fe 0F       		.byte	0xf
 2784 09ff DE       		.byte	0xde
 2785 0a00 A9000000 		.4byte	0xa9
 2786 0a04 01       		.byte	0x1
 2787 0a05 02       		.byte	0x2
 2788 0a06 06       		.byte	0x6
 2789 0a07 88       		.byte	0x88
 2790 0a08 19       		.uleb128 0x19
 2791 0a09 49070000 		.4byte	.LASF138
 2792 0a0d 0F       		.byte	0xf
 2793 0a0e DE       		.byte	0xde
 2794 0a0f A9000000 		.4byte	0xa9
 2795 0a13 01       		.byte	0x1
 2796 0a14 04       		.byte	0x4
 2797 0a15 02       		.byte	0x2
 2798 0a16 88       		.byte	0x88
 2799 0a17 19       		.uleb128 0x19
 2800 0a18 F0000000 		.4byte	.LASF139
 2801 0a1c 0F       		.byte	0xf
 2802 0a1d DE       		.byte	0xde
 2803 0a1e A9000000 		.4byte	0xa9
 2804 0a22 01       		.byte	0x1
 2805 0a23 04       		.byte	0x4
 2806 0a24 04       		.byte	0x4
 2807 0a25 89       		.byte	0x89
 2808 0a26 06       		.uleb128 0x6
ARM GAS  /home/pauba/tmp/cca0qe6Z.s 			page 51


 2809 0a27 DA040000 		.4byte	.LASF140
 2810 0a2b 0F       		.byte	0xf
 2811 0a2c DE       		.byte	0xde
 2812 0a2d A9000000 		.4byte	0xa9
 2813 0a31 8A       		.byte	0x8a
 2814 0a32 06       		.uleb128 0x6
 2815 0a33 A6040000 		.4byte	.LASF141
 2816 0a37 0F       		.byte	0xf
 2817 0a38 DE       		.byte	0xde
 2818 0a39 A9000000 		.4byte	0xa9
 2819 0a3d 8B       		.byte	0x8b
 2820 0a3e 06       		.uleb128 0x6
 2821 0a3f 51010000 		.4byte	.LASF142
 2822 0a43 0F       		.byte	0xf
 2823 0a44 DE       		.byte	0xde
 2824 0a45 B4000000 		.4byte	0xb4
 2825 0a49 8C       		.byte	0x8c
 2826 0a4a 07       		.uleb128 0x7
 2827 0a4b 6300     		.ascii	"c\000"
 2828 0a4d 0F       		.byte	0xf
 2829 0a4e DE       		.byte	0xde
 2830 0a4f CA000000 		.4byte	0xca
 2831 0a53 90       		.byte	0x90
 2832 0a54 06       		.uleb128 0x6
 2833 0a55 15000000 		.4byte	.LASF143
 2834 0a59 0F       		.byte	0xf
 2835 0a5a DE       		.byte	0xde
 2836 0a5b A9000000 		.4byte	0xa9
 2837 0a5f 94       		.byte	0x94
 2838 0a60 00       		.byte	0
 2839 0a61 05       		.uleb128 0x5
 2840 0a62 42060000 		.4byte	.LASF144
 2841 0a66 20       		.byte	0x20
 2842 0a67 0F       		.byte	0xf
 2843 0a68 D0       		.byte	0xd0
 2844 0a69 CE0A0000 		.4byte	0xace
 2845 0a6d 06       		.uleb128 0x6
 2846 0a6e F6020000 		.4byte	.LASF145
 2847 0a72 0F       		.byte	0xf
 2848 0a73 D1       		.byte	0xd1
 2849 0a74 77050000 		.4byte	0x577
 2850 0a78 00       		.byte	0
 2851 0a79 06       		.uleb128 0x6
 2852 0a7a D3050000 		.4byte	.LASF146
 2853 0a7e 0F       		.byte	0xf
 2854 0a7f D1       		.byte	0xd1
 2855 0a80 96050000 		.4byte	0x596
 2856 0a84 04       		.byte	0x4
 2857 0a85 07       		.uleb128 0x7
 2858 0a86 70757400 		.ascii	"put\000"
 2859 0a8a 0F       		.byte	0xf
 2860 0a8b D1       		.byte	0xd1
 2861 0a8c B0050000 		.4byte	0x5b0
 2862 0a90 08       		.byte	0x8
 2863 0a91 07       		.uleb128 0x7
 2864 0a92 67657400 		.ascii	"get\000"
 2865 0a96 0F       		.byte	0xf
ARM GAS  /home/pauba/tmp/cca0qe6Z.s 			page 52


 2866 0a97 D1       		.byte	0xd1
 2867 0a98 88040000 		.4byte	0x488
 2868 0a9c 0C       		.byte	0xc
 2869 0a9d 06       		.uleb128 0x6
 2870 0a9e 03030000 		.4byte	.LASF147
 2871 0aa2 0F       		.byte	0xf
 2872 0aa3 D1       		.byte	0xd1
 2873 0aa4 CF050000 		.4byte	0x5cf
 2874 0aa8 10       		.byte	0x10
 2875 0aa9 06       		.uleb128 0x6
 2876 0aaa 44020000 		.4byte	.LASF148
 2877 0aae 0F       		.byte	0xf
 2878 0aaf D1       		.byte	0xd1
 2879 0ab0 E9050000 		.4byte	0x5e9
 2880 0ab4 14       		.byte	0x14
 2881 0ab5 06       		.uleb128 0x6
 2882 0ab6 99020000 		.4byte	.LASF149
 2883 0aba 0F       		.byte	0xf
 2884 0abb D1       		.byte	0xd1
 2885 0abc 0D060000 		.4byte	0x60d
 2886 0ac0 18       		.byte	0x18
 2887 0ac1 06       		.uleb128 0x6
 2888 0ac2 C1000000 		.4byte	.LASF150
 2889 0ac6 0F       		.byte	0xf
 2890 0ac7 D1       		.byte	0xd1
 2891 0ac8 31060000 		.4byte	0x631
 2892 0acc 1C       		.byte	0x1c
 2893 0acd 00       		.byte	0
 2894 0ace 09       		.uleb128 0x9
 2895 0acf 04       		.byte	0x4
 2896 0ad0 D40A0000 		.4byte	0xad4
 2897 0ad4 10       		.uleb128 0x10
 2898 0ad5 610A0000 		.4byte	0xa61
 2899 0ad9 1A       		.uleb128 0x1a
 2900 0ada F6020000 		.4byte	.LASF145
 2901 0ade 01       		.byte	0x1
 2902 0adf 50       		.byte	0x50
 2903 0ae0 28000000 		.4byte	0x28
 2904 0ae4 00000000 		.4byte	.LFB63
 2905 0ae8 26000000 		.4byte	.LFE63-.LFB63
 2906 0aec 01       		.uleb128 0x1
 2907 0aed 9C       		.byte	0x9c
 2908 0aee 190B0000 		.4byte	0xb19
 2909 0af2 1B       		.uleb128 0x1b
 2910 0af3 697000   		.ascii	"ip\000"
 2911 0af6 01       		.byte	0x1
 2912 0af7 50       		.byte	0x50
 2913 0af8 C6020000 		.4byte	0x2c6
 2914 0afc 02       		.uleb128 0x2
 2915 0afd 91       		.byte	0x91
 2916 0afe 74       		.sleb128 -12
 2917 0aff 1B       		.uleb128 0x1b
 2918 0b00 627000   		.ascii	"bp\000"
 2919 0b03 01       		.byte	0x1
 2920 0b04 50       		.byte	0x50
 2921 0b05 6C050000 		.4byte	0x56c
 2922 0b09 02       		.uleb128 0x2
ARM GAS  /home/pauba/tmp/cca0qe6Z.s 			page 53


 2923 0b0a 91       		.byte	0x91
 2924 0b0b 70       		.sleb128 -16
 2925 0b0c 1B       		.uleb128 0x1b
 2926 0b0d 6E00     		.ascii	"n\000"
 2927 0b0f 01       		.byte	0x1
 2928 0b10 50       		.byte	0x50
 2929 0b11 28000000 		.4byte	0x28
 2930 0b15 02       		.uleb128 0x2
 2931 0b16 91       		.byte	0x91
 2932 0b17 6C       		.sleb128 -20
 2933 0b18 00       		.byte	0
 2934 0b19 1A       		.uleb128 0x1a
 2935 0b1a D3050000 		.4byte	.LASF146
 2936 0b1e 01       		.byte	0x1
 2937 0b1f 56       		.byte	0x56
 2938 0b20 28000000 		.4byte	0x28
 2939 0b24 00000000 		.4byte	.LFB64
 2940 0b28 26000000 		.4byte	.LFE64-.LFB64
 2941 0b2c 01       		.uleb128 0x1
 2942 0b2d 9C       		.byte	0x9c
 2943 0b2e 590B0000 		.4byte	0xb59
 2944 0b32 1B       		.uleb128 0x1b
 2945 0b33 697000   		.ascii	"ip\000"
 2946 0b36 01       		.byte	0x1
 2947 0b37 56       		.byte	0x56
 2948 0b38 C6020000 		.4byte	0x2c6
 2949 0b3c 02       		.uleb128 0x2
 2950 0b3d 91       		.byte	0x91
 2951 0b3e 74       		.sleb128 -12
 2952 0b3f 1B       		.uleb128 0x1b
 2953 0b40 627000   		.ascii	"bp\000"
 2954 0b43 01       		.byte	0x1
 2955 0b44 56       		.byte	0x56
 2956 0b45 37050000 		.4byte	0x537
 2957 0b49 02       		.uleb128 0x2
 2958 0b4a 91       		.byte	0x91
 2959 0b4b 70       		.sleb128 -16
 2960 0b4c 1B       		.uleb128 0x1b
 2961 0b4d 6E00     		.ascii	"n\000"
 2962 0b4f 01       		.byte	0x1
 2963 0b50 56       		.byte	0x56
 2964 0b51 28000000 		.4byte	0x28
 2965 0b55 02       		.uleb128 0x2
 2966 0b56 91       		.byte	0x91
 2967 0b57 6C       		.sleb128 -20
 2968 0b58 00       		.byte	0
 2969 0b59 1C       		.uleb128 0x1c
 2970 0b5a 70757400 		.ascii	"put\000"
 2971 0b5e 01       		.byte	0x1
 2972 0b5f 5C       		.byte	0x5c
 2973 0b60 29010000 		.4byte	0x129
 2974 0b64 00000000 		.4byte	.LFB65
 2975 0b68 2C000000 		.4byte	.LFE65-.LFB65
 2976 0b6c 01       		.uleb128 0x1
 2977 0b6d 9C       		.byte	0x9c
 2978 0b6e 8C0B0000 		.4byte	0xb8c
 2979 0b72 1B       		.uleb128 0x1b
ARM GAS  /home/pauba/tmp/cca0qe6Z.s 			page 54


 2980 0b73 697000   		.ascii	"ip\000"
 2981 0b76 01       		.byte	0x1
 2982 0b77 5C       		.byte	0x5c
 2983 0b78 C6020000 		.4byte	0x2c6
 2984 0b7c 02       		.uleb128 0x2
 2985 0b7d 91       		.byte	0x91
 2986 0b7e 74       		.sleb128 -12
 2987 0b7f 1B       		.uleb128 0x1b
 2988 0b80 6200     		.ascii	"b\000"
 2989 0b82 01       		.byte	0x1
 2990 0b83 5C       		.byte	0x5c
 2991 0b84 A9000000 		.4byte	0xa9
 2992 0b88 02       		.uleb128 0x2
 2993 0b89 91       		.byte	0x91
 2994 0b8a 73       		.sleb128 -13
 2995 0b8b 00       		.byte	0
 2996 0b8c 1C       		.uleb128 0x1c
 2997 0b8d 67657400 		.ascii	"get\000"
 2998 0b91 01       		.byte	0x1
 2999 0b92 61       		.byte	0x61
 3000 0b93 29010000 		.4byte	0x129
 3001 0b97 00000000 		.4byte	.LFB66
 3002 0b9b 1E000000 		.4byte	.LFE66-.LFB66
 3003 0b9f 01       		.uleb128 0x1
 3004 0ba0 9C       		.byte	0x9c
 3005 0ba1 B30B0000 		.4byte	0xbb3
 3006 0ba5 1B       		.uleb128 0x1b
 3007 0ba6 697000   		.ascii	"ip\000"
 3008 0ba9 01       		.byte	0x1
 3009 0baa 61       		.byte	0x61
 3010 0bab C6020000 		.4byte	0x2c6
 3011 0baf 02       		.uleb128 0x2
 3012 0bb0 91       		.byte	0x91
 3013 0bb1 74       		.sleb128 -12
 3014 0bb2 00       		.byte	0
 3015 0bb3 1A       		.uleb128 0x1a
 3016 0bb4 03030000 		.4byte	.LASF147
 3017 0bb8 01       		.byte	0x1
 3018 0bb9 66       		.byte	0x66
 3019 0bba 29010000 		.4byte	0x129
 3020 0bbe 00000000 		.4byte	.LFB67
 3021 0bc2 2C000000 		.4byte	.LFE67-.LFB67
 3022 0bc6 01       		.uleb128 0x1
 3023 0bc7 9C       		.byte	0x9c
 3024 0bc8 F40B0000 		.4byte	0xbf4
 3025 0bcc 1B       		.uleb128 0x1b
 3026 0bcd 697000   		.ascii	"ip\000"
 3027 0bd0 01       		.byte	0x1
 3028 0bd1 66       		.byte	0x66
 3029 0bd2 C6020000 		.4byte	0x2c6
 3030 0bd6 02       		.uleb128 0x2
 3031 0bd7 91       		.byte	0x91
 3032 0bd8 74       		.sleb128 -12
 3033 0bd9 1B       		.uleb128 0x1b
 3034 0bda 6200     		.ascii	"b\000"
 3035 0bdc 01       		.byte	0x1
 3036 0bdd 66       		.byte	0x66
ARM GAS  /home/pauba/tmp/cca0qe6Z.s 			page 55


 3037 0bde A9000000 		.4byte	0xa9
 3038 0be2 02       		.uleb128 0x2
 3039 0be3 91       		.byte	0x91
 3040 0be4 73       		.sleb128 -13
 3041 0be5 1D       		.uleb128 0x1d
 3042 0be6 3C020000 		.4byte	.LASF151
 3043 0bea 01       		.byte	0x1
 3044 0beb 66       		.byte	0x66
 3045 0bec 4A010000 		.4byte	0x14a
 3046 0bf0 02       		.uleb128 0x2
 3047 0bf1 91       		.byte	0x91
 3048 0bf2 6C       		.sleb128 -20
 3049 0bf3 00       		.byte	0
 3050 0bf4 1A       		.uleb128 0x1a
 3051 0bf5 44020000 		.4byte	.LASF148
 3052 0bf9 01       		.byte	0x1
 3053 0bfa 6B       		.byte	0x6b
 3054 0bfb 29010000 		.4byte	0x129
 3055 0bff 00000000 		.4byte	.LFB68
 3056 0c03 1E000000 		.4byte	.LFE68-.LFB68
 3057 0c07 01       		.uleb128 0x1
 3058 0c08 9C       		.byte	0x9c
 3059 0c09 290C0000 		.4byte	0xc29
 3060 0c0d 1B       		.uleb128 0x1b
 3061 0c0e 697000   		.ascii	"ip\000"
 3062 0c11 01       		.byte	0x1
 3063 0c12 6B       		.byte	0x6b
 3064 0c13 C6020000 		.4byte	0x2c6
 3065 0c17 02       		.uleb128 0x2
 3066 0c18 91       		.byte	0x91
 3067 0c19 74       		.sleb128 -12
 3068 0c1a 1D       		.uleb128 0x1d
 3069 0c1b 3C020000 		.4byte	.LASF151
 3070 0c1f 01       		.byte	0x1
 3071 0c20 6B       		.byte	0x6b
 3072 0c21 4A010000 		.4byte	0x14a
 3073 0c25 02       		.uleb128 0x2
 3074 0c26 91       		.byte	0x91
 3075 0c27 70       		.sleb128 -16
 3076 0c28 00       		.byte	0
 3077 0c29 1A       		.uleb128 0x1a
 3078 0c2a 99020000 		.4byte	.LASF149
 3079 0c2e 01       		.byte	0x1
 3080 0c2f 70       		.byte	0x70
 3081 0c30 28000000 		.4byte	0x28
 3082 0c34 00000000 		.4byte	.LFB69
 3083 0c38 26000000 		.4byte	.LFE69-.LFB69
 3084 0c3c 01       		.uleb128 0x1
 3085 0c3d 9C       		.byte	0x9c
 3086 0c3e 770C0000 		.4byte	0xc77
 3087 0c42 1B       		.uleb128 0x1b
 3088 0c43 697000   		.ascii	"ip\000"
 3089 0c46 01       		.byte	0x1
 3090 0c47 70       		.byte	0x70
 3091 0c48 C6020000 		.4byte	0x2c6
 3092 0c4c 02       		.uleb128 0x2
 3093 0c4d 91       		.byte	0x91
ARM GAS  /home/pauba/tmp/cca0qe6Z.s 			page 56


 3094 0c4e 74       		.sleb128 -12
 3095 0c4f 1B       		.uleb128 0x1b
 3096 0c50 627000   		.ascii	"bp\000"
 3097 0c53 01       		.byte	0x1
 3098 0c54 70       		.byte	0x70
 3099 0c55 6C050000 		.4byte	0x56c
 3100 0c59 02       		.uleb128 0x2
 3101 0c5a 91       		.byte	0x91
 3102 0c5b 70       		.sleb128 -16
 3103 0c5c 1B       		.uleb128 0x1b
 3104 0c5d 6E00     		.ascii	"n\000"
 3105 0c5f 01       		.byte	0x1
 3106 0c60 70       		.byte	0x70
 3107 0c61 28000000 		.4byte	0x28
 3108 0c65 02       		.uleb128 0x2
 3109 0c66 91       		.byte	0x91
 3110 0c67 6C       		.sleb128 -20
 3111 0c68 1D       		.uleb128 0x1d
 3112 0c69 68030000 		.4byte	.LASF152
 3113 0c6d 01       		.byte	0x1
 3114 0c6e 70       		.byte	0x70
 3115 0c6f 4A010000 		.4byte	0x14a
 3116 0c73 02       		.uleb128 0x2
 3117 0c74 91       		.byte	0x91
 3118 0c75 68       		.sleb128 -24
 3119 0c76 00       		.byte	0
 3120 0c77 1A       		.uleb128 0x1a
 3121 0c78 C1000000 		.4byte	.LASF150
 3122 0c7c 01       		.byte	0x1
 3123 0c7d 75       		.byte	0x75
 3124 0c7e 28000000 		.4byte	0x28
 3125 0c82 00000000 		.4byte	.LFB70
 3126 0c86 26000000 		.4byte	.LFE70-.LFB70
 3127 0c8a 01       		.uleb128 0x1
 3128 0c8b 9C       		.byte	0x9c
 3129 0c8c C50C0000 		.4byte	0xcc5
 3130 0c90 1B       		.uleb128 0x1b
 3131 0c91 697000   		.ascii	"ip\000"
 3132 0c94 01       		.byte	0x1
 3133 0c95 75       		.byte	0x75
 3134 0c96 C6020000 		.4byte	0x2c6
 3135 0c9a 02       		.uleb128 0x2
 3136 0c9b 91       		.byte	0x91
 3137 0c9c 74       		.sleb128 -12
 3138 0c9d 1B       		.uleb128 0x1b
 3139 0c9e 627000   		.ascii	"bp\000"
 3140 0ca1 01       		.byte	0x1
 3141 0ca2 75       		.byte	0x75
 3142 0ca3 37050000 		.4byte	0x537
 3143 0ca7 02       		.uleb128 0x2
 3144 0ca8 91       		.byte	0x91
 3145 0ca9 70       		.sleb128 -16
 3146 0caa 1B       		.uleb128 0x1b
 3147 0cab 6E00     		.ascii	"n\000"
 3148 0cad 01       		.byte	0x1
 3149 0cae 75       		.byte	0x75
 3150 0caf 28000000 		.4byte	0x28
ARM GAS  /home/pauba/tmp/cca0qe6Z.s 			page 57


 3151 0cb3 02       		.uleb128 0x2
 3152 0cb4 91       		.byte	0x91
 3153 0cb5 6C       		.sleb128 -20
 3154 0cb6 1D       		.uleb128 0x1d
 3155 0cb7 68030000 		.4byte	.LASF152
 3156 0cbb 01       		.byte	0x1
 3157 0cbc 75       		.byte	0x75
 3158 0cbd 4A010000 		.4byte	0x14a
 3159 0cc1 02       		.uleb128 0x2
 3160 0cc2 91       		.byte	0x91
 3161 0cc3 68       		.sleb128 -24
 3162 0cc4 00       		.byte	0
 3163 0cc5 1E       		.uleb128 0x1e
 3164 0cc6 84040000 		.4byte	.LASF153
 3165 0cca 01       		.byte	0x1
 3166 0ccb 7F       		.byte	0x7f
 3167 0ccc E0000000 		.4byte	0xe0
 3168 0cd0 00000000 		.4byte	.LFB71
 3169 0cd4 16000000 		.4byte	.LFE71-.LFB71
 3170 0cd8 01       		.uleb128 0x1
 3171 0cd9 9C       		.byte	0x9c
 3172 0cda EB0C0000 		.4byte	0xceb
 3173 0cde 1B       		.uleb128 0x1b
 3174 0cdf 6C00     		.ascii	"l\000"
 3175 0ce1 01       		.byte	0x1
 3176 0ce2 7F       		.byte	0x7f
 3177 0ce3 EB0C0000 		.4byte	0xceb
 3178 0ce7 02       		.uleb128 0x2
 3179 0ce8 91       		.byte	0x91
 3180 0ce9 74       		.sleb128 -12
 3181 0cea 00       		.byte	0
 3182 0ceb 09       		.uleb128 0x9
 3183 0cec 04       		.byte	0x4
 3184 0ced CD080000 		.4byte	0x8cd
 3185 0cf1 1E       		.uleb128 0x1e
 3186 0cf2 08030000 		.4byte	.LASF154
 3187 0cf6 01       		.byte	0x1
 3188 0cf7 83       		.byte	0x83
 3189 0cf8 E0000000 		.4byte	0xe0
 3190 0cfc 00000000 		.4byte	.LFB72
 3191 0d00 2C000000 		.4byte	.LFE72-.LFB72
 3192 0d04 01       		.uleb128 0x1
 3193 0d05 9C       		.byte	0x9c
 3194 0d06 170D0000 		.4byte	0xd17
 3195 0d0a 1B       		.uleb128 0x1b
 3196 0d0b 6C00     		.ascii	"l\000"
 3197 0d0d 01       		.byte	0x1
 3198 0d0e 83       		.byte	0x83
 3199 0d0f EB0C0000 		.4byte	0xceb
 3200 0d13 02       		.uleb128 0x2
 3201 0d14 91       		.byte	0x91
 3202 0d15 74       		.sleb128 -12
 3203 0d16 00       		.byte	0
 3204 0d17 1F       		.uleb128 0x1f
 3205 0d18 FC020000 		.4byte	.LASF155
 3206 0d1c 01       		.byte	0x1
 3207 0d1d 87       		.byte	0x87
ARM GAS  /home/pauba/tmp/cca0qe6Z.s 			page 58


 3208 0d1e 00000000 		.4byte	.LFB73
 3209 0d22 6C000000 		.4byte	.LFE73-.LFB73
 3210 0d26 01       		.uleb128 0x1
 3211 0d27 9C       		.byte	0x9c
 3212 0d28 6B0D0000 		.4byte	0xd6b
 3213 0d2c 1B       		.uleb128 0x1b
 3214 0d2d 6C00     		.ascii	"l\000"
 3215 0d2f 01       		.byte	0x1
 3216 0d30 87       		.byte	0x87
 3217 0d31 EB0C0000 		.4byte	0xceb
 3218 0d35 02       		.uleb128 0x2
 3219 0d36 91       		.byte	0x91
 3220 0d37 74       		.sleb128 -12
 3221 0d38 20       		.uleb128 0x20
 3222 0d39 32000000 		.4byte	.LBB2
 3223 0d3d 06000000 		.4byte	.LBE2-.LBB2
 3224 0d41 530D0000 		.4byte	0xd53
 3225 0d45 21       		.uleb128 0x21
 3226 0d46 746D7000 		.ascii	"tmp\000"
 3227 0d4a 01       		.byte	0x1
 3228 0d4b 8D       		.byte	0x8d
 3229 0d4c CA000000 		.4byte	0xca
 3230 0d50 01       		.uleb128 0x1
 3231 0d51 53       		.byte	0x53
 3232 0d52 00       		.byte	0
 3233 0d53 22       		.uleb128 0x22
 3234 0d54 60000000 		.4byte	.LBB3
 3235 0d58 06000000 		.4byte	.LBE3-.LBB3
 3236 0d5c 21       		.uleb128 0x21
 3237 0d5d 746D7000 		.ascii	"tmp\000"
 3238 0d61 01       		.byte	0x1
 3239 0d62 95       		.byte	0x95
 3240 0d63 CA000000 		.4byte	0xca
 3241 0d67 01       		.uleb128 0x1
 3242 0d68 53       		.byte	0x53
 3243 0d69 00       		.byte	0
 3244 0d6a 00       		.byte	0
 3245 0d6b 1F       		.uleb128 0x1f
 3246 0d6c C0020000 		.4byte	.LASF156
 3247 0d70 01       		.byte	0x1
 3248 0d71 9C       		.byte	0x9c
 3249 0d72 00000000 		.4byte	.LFB74
 3250 0d76 3A000000 		.4byte	.LFE74-.LFB74
 3251 0d7a 01       		.uleb128 0x1
 3252 0d7b 9C       		.byte	0x9c
 3253 0d7c BF0D0000 		.4byte	0xdbf
 3254 0d80 1B       		.uleb128 0x1b
 3255 0d81 6C00     		.ascii	"l\000"
 3256 0d83 01       		.byte	0x1
 3257 0d84 9C       		.byte	0x9c
 3258 0d85 EB0C0000 		.4byte	0xceb
 3259 0d89 02       		.uleb128 0x2
 3260 0d8a 91       		.byte	0x91
 3261 0d8b 74       		.sleb128 -12
 3262 0d8c 20       		.uleb128 0x20
 3263 0d8d 14000000 		.4byte	.LBB4
 3264 0d91 06000000 		.4byte	.LBE4-.LBB4
ARM GAS  /home/pauba/tmp/cca0qe6Z.s 			page 59


 3265 0d95 A70D0000 		.4byte	0xda7
 3266 0d99 21       		.uleb128 0x21
 3267 0d9a 746D7000 		.ascii	"tmp\000"
 3268 0d9e 01       		.byte	0x1
 3269 0d9f A0       		.byte	0xa0
 3270 0da0 CA000000 		.4byte	0xca
 3271 0da4 01       		.uleb128 0x1
 3272 0da5 53       		.byte	0x53
 3273 0da6 00       		.byte	0
 3274 0da7 22       		.uleb128 0x22
 3275 0da8 2E000000 		.4byte	.LBB5
 3276 0dac 06000000 		.4byte	.LBE5-.LBB5
 3277 0db0 21       		.uleb128 0x21
 3278 0db1 746D7000 		.ascii	"tmp\000"
 3279 0db5 01       		.byte	0x1
 3280 0db6 A6       		.byte	0xa6
 3281 0db7 CA000000 		.4byte	0xca
 3282 0dbb 01       		.uleb128 0x1
 3283 0dbc 53       		.byte	0x53
 3284 0dbd 00       		.byte	0
 3285 0dbe 00       		.byte	0
 3286 0dbf 1F       		.uleb128 0x1f
 3287 0dc0 00000000 		.4byte	.LASF157
 3288 0dc4 01       		.byte	0x1
 3289 0dc5 B8       		.byte	0xb8
 3290 0dc6 00000000 		.4byte	.LFB75
 3291 0dca A4020000 		.4byte	.LFE75-.LFB75
 3292 0dce 01       		.uleb128 0x1
 3293 0dcf 9C       		.byte	0x9c
 3294 0dd0 2B0E0000 		.4byte	0xe2b
 3295 0dd4 1B       		.uleb128 0x1b
 3296 0dd5 6C647000 		.ascii	"ldp\000"
 3297 0dd9 01       		.byte	0x1
 3298 0dda B8       		.byte	0xb8
 3299 0ddb EB0C0000 		.4byte	0xceb
 3300 0ddf 02       		.uleb128 0x2
 3301 0de0 91       		.byte	0x91
 3302 0de1 6C       		.sleb128 -20
 3303 0de2 22       		.uleb128 0x22
 3304 0de3 7E000000 		.4byte	.LBB6
 3305 0de7 78000000 		.4byte	.LBE6-.LBB6
 3306 0deb 21       		.uleb128 0x21
 3307 0dec 6200     		.ascii	"b\000"
 3308 0dee 01       		.byte	0x1
 3309 0def C7       		.byte	0xc7
 3310 0df0 29010000 		.4byte	0x129
 3311 0df4 02       		.uleb128 0x2
 3312 0df5 91       		.byte	0x91
 3313 0df6 74       		.sleb128 -12
 3314 0df7 20       		.uleb128 0x20
 3315 0df8 7E000000 		.4byte	.LBB7
 3316 0dfc 06000000 		.4byte	.LBE7-.LBB7
 3317 0e00 120E0000 		.4byte	0xe12
 3318 0e04 21       		.uleb128 0x21
 3319 0e05 746D7000 		.ascii	"tmp\000"
 3320 0e09 01       		.byte	0x1
 3321 0e0a CB       		.byte	0xcb
ARM GAS  /home/pauba/tmp/cca0qe6Z.s 			page 60


 3322 0e0b CA000000 		.4byte	0xca
 3323 0e0f 01       		.uleb128 0x1
 3324 0e10 53       		.byte	0x53
 3325 0e11 00       		.byte	0
 3326 0e12 22       		.uleb128 0x22
 3327 0e13 94000000 		.4byte	.LBB8
 3328 0e17 06000000 		.4byte	.LBE8-.LBB8
 3329 0e1b 21       		.uleb128 0x21
 3330 0e1c 746D7000 		.ascii	"tmp\000"
 3331 0e20 01       		.byte	0x1
 3332 0e21 D1       		.byte	0xd1
 3333 0e22 CA000000 		.4byte	0xca
 3334 0e26 01       		.uleb128 0x1
 3335 0e27 53       		.byte	0x53
 3336 0e28 00       		.byte	0
 3337 0e29 00       		.byte	0
 3338 0e2a 00       		.byte	0
 3339 0e2b 23       		.uleb128 0x23
 3340 0e2c 27030000 		.4byte	.LASF173
 3341 0e30 01       		.byte	0x1
 3342 0e31 2801     		.2byte	0x128
 3343 0e33 00000000 		.4byte	.LFB76
 3344 0e37 14000000 		.4byte	.LFE76-.LFB76
 3345 0e3b 01       		.uleb128 0x1
 3346 0e3c 9C       		.byte	0x9c
 3347 0e3d 24       		.uleb128 0x24
 3348 0e3e 9D060000 		.4byte	.LASF158
 3349 0e42 01       		.byte	0x1
 3350 0e43 4201     		.2byte	0x142
 3351 0e45 00000000 		.4byte	.LFB77
 3352 0e49 5C000000 		.4byte	.LFE77-.LFB77
 3353 0e4d 01       		.uleb128 0x1
 3354 0e4e 9C       		.byte	0x9c
 3355 0e4f 810E0000 		.4byte	0xe81
 3356 0e53 25       		.uleb128 0x25
 3357 0e54 6C647000 		.ascii	"ldp\000"
 3358 0e58 01       		.byte	0x1
 3359 0e59 4201     		.2byte	0x142
 3360 0e5b EB0C0000 		.4byte	0xceb
 3361 0e5f 02       		.uleb128 0x2
 3362 0e60 91       		.byte	0x91
 3363 0e61 74       		.sleb128 -12
 3364 0e62 26       		.uleb128 0x26
 3365 0e63 09020000 		.4byte	.LASF159
 3366 0e67 01       		.byte	0x1
 3367 0e68 4201     		.2byte	0x142
 3368 0e6a 15050000 		.4byte	0x515
 3369 0e6e 02       		.uleb128 0x2
 3370 0e6f 91       		.byte	0x91
 3371 0e70 70       		.sleb128 -16
 3372 0e71 26       		.uleb128 0x26
 3373 0e72 D0060000 		.4byte	.LASF160
 3374 0e76 01       		.byte	0x1
 3375 0e77 4201     		.2byte	0x142
 3376 0e79 15050000 		.4byte	0x515
 3377 0e7d 02       		.uleb128 0x2
 3378 0e7e 91       		.byte	0x91
ARM GAS  /home/pauba/tmp/cca0qe6Z.s 			page 61


 3379 0e7f 6C       		.sleb128 -20
 3380 0e80 00       		.byte	0
 3381 0e81 24       		.uleb128 0x24
 3382 0e82 0F010000 		.4byte	.LASF161
 3383 0e86 01       		.byte	0x1
 3384 0e87 5501     		.2byte	0x155
 3385 0e89 00000000 		.4byte	.LFB78
 3386 0e8d B8010000 		.4byte	.LFE78-.LFB78
 3387 0e91 01       		.uleb128 0x1
 3388 0e92 9C       		.byte	0x9c
 3389 0e93 3A0F0000 		.4byte	0xf3a
 3390 0e97 25       		.uleb128 0x25
 3391 0e98 6C647000 		.ascii	"ldp\000"
 3392 0e9c 01       		.byte	0x1
 3393 0e9d 5501     		.2byte	0x155
 3394 0e9f EB0C0000 		.4byte	0xceb
 3395 0ea3 02       		.uleb128 0x2
 3396 0ea4 91       		.byte	0x91
 3397 0ea5 74       		.sleb128 -12
 3398 0ea6 26       		.uleb128 0x26
 3399 0ea7 E2050000 		.4byte	.LASF105
 3400 0eab 01       		.byte	0x1
 3401 0eac 5501     		.2byte	0x155
 3402 0eae 3A0F0000 		.4byte	0xf3a
 3403 0eb2 02       		.uleb128 0x2
 3404 0eb3 91       		.byte	0x91
 3405 0eb4 70       		.sleb128 -16
 3406 0eb5 27       		.uleb128 0x27
 3407 0eb6 78030000 		.4byte	.LASF162
 3408 0eba 01       		.byte	0x1
 3409 0ebb 5901     		.2byte	0x159
 3410 0ebd F8070000 		.4byte	0x7f8
 3411 0ec1 27       		.uleb128 0x27
 3412 0ec2 47040000 		.4byte	.LASF163
 3413 0ec6 01       		.byte	0x1
 3414 0ec7 5A01     		.2byte	0x15a
 3415 0ec9 450F0000 		.4byte	0xf45
 3416 0ecd 20       		.uleb128 0x20
 3417 0ece 14000000 		.4byte	.LBB9
 3418 0ed2 06000000 		.4byte	.LBE9-.LBB9
 3419 0ed6 E90E0000 		.4byte	0xee9
 3420 0eda 28       		.uleb128 0x28
 3421 0edb 746D7000 		.ascii	"tmp\000"
 3422 0edf 01       		.byte	0x1
 3423 0ee0 5E01     		.2byte	0x15e
 3424 0ee2 CA000000 		.4byte	0xca
 3425 0ee6 01       		.uleb128 0x1
 3426 0ee7 53       		.byte	0x53
 3427 0ee8 00       		.byte	0
 3428 0ee9 20       		.uleb128 0x20
 3429 0eea 64010000 		.4byte	.LBB10
 3430 0eee 06000000 		.4byte	.LBE10-.LBB10
 3431 0ef2 050F0000 		.4byte	0xf05
 3432 0ef6 28       		.uleb128 0x28
 3433 0ef7 746D7000 		.ascii	"tmp\000"
 3434 0efb 01       		.byte	0x1
 3435 0efc 8401     		.2byte	0x184
ARM GAS  /home/pauba/tmp/cca0qe6Z.s 			page 62


 3436 0efe CA000000 		.4byte	0xca
 3437 0f02 01       		.uleb128 0x1
 3438 0f03 53       		.byte	0x53
 3439 0f04 00       		.byte	0
 3440 0f05 20       		.uleb128 0x20
 3441 0f06 7C010000 		.4byte	.LBB11
 3442 0f0a 06000000 		.4byte	.LBE11-.LBB11
 3443 0f0e 210F0000 		.4byte	0xf21
 3444 0f12 28       		.uleb128 0x28
 3445 0f13 746D7000 		.ascii	"tmp\000"
 3446 0f17 01       		.byte	0x1
 3447 0f18 8601     		.2byte	0x186
 3448 0f1a CA000000 		.4byte	0xca
 3449 0f1e 01       		.uleb128 0x1
 3450 0f1f 53       		.byte	0x53
 3451 0f20 00       		.byte	0
 3452 0f21 22       		.uleb128 0x22
 3453 0f22 90010000 		.4byte	.LBB12
 3454 0f26 06000000 		.4byte	.LBE12-.LBB12
 3455 0f2a 28       		.uleb128 0x28
 3456 0f2b 746D7000 		.ascii	"tmp\000"
 3457 0f2f 01       		.byte	0x1
 3458 0f30 9101     		.2byte	0x191
 3459 0f32 CA000000 		.4byte	0xca
 3460 0f36 01       		.uleb128 0x1
 3461 0f37 53       		.byte	0x53
 3462 0f38 00       		.byte	0
 3463 0f39 00       		.byte	0
 3464 0f3a 09       		.uleb128 0x9
 3465 0f3b 04       		.byte	0x4
 3466 0f3c 400F0000 		.4byte	0xf40
 3467 0f40 10       		.uleb128 0x10
 3468 0f41 9C080000 		.4byte	0x89c
 3469 0f45 17       		.uleb128 0x17
 3470 0f46 C8020000 		.4byte	0x2c8
 3471 0f4a 550F0000 		.4byte	0xf55
 3472 0f4e 18       		.uleb128 0x18
 3473 0f4f 75030000 		.4byte	0x375
 3474 0f53 59       		.byte	0x59
 3475 0f54 00       		.byte	0
 3476 0f55 24       		.uleb128 0x24
 3477 0f56 A6000000 		.4byte	.LASF164
 3478 0f5a 01       		.byte	0x1
 3479 0f5b 9D01     		.2byte	0x19d
 3480 0f5d 00000000 		.4byte	.LFB79
 3481 0f61 74000000 		.4byte	.LFE79-.LFB79
 3482 0f65 01       		.uleb128 0x1
 3483 0f66 9C       		.byte	0x9c
 3484 0f67 AF0F0000 		.4byte	0xfaf
 3485 0f6b 25       		.uleb128 0x25
 3486 0f6c 6C647000 		.ascii	"ldp\000"
 3487 0f70 01       		.byte	0x1
 3488 0f71 9D01     		.2byte	0x19d
 3489 0f73 EB0C0000 		.4byte	0xceb
 3490 0f77 02       		.uleb128 0x2
 3491 0f78 91       		.byte	0x91
 3492 0f79 74       		.sleb128 -12
ARM GAS  /home/pauba/tmp/cca0qe6Z.s 			page 63


 3493 0f7a 20       		.uleb128 0x20
 3494 0f7b 12000000 		.4byte	.LBB13
 3495 0f7f 06000000 		.4byte	.LBE13-.LBB13
 3496 0f83 960F0000 		.4byte	0xf96
 3497 0f87 28       		.uleb128 0x28
 3498 0f88 746D7000 		.ascii	"tmp\000"
 3499 0f8c 01       		.byte	0x1
 3500 0f8d A101     		.2byte	0x1a1
 3501 0f8f CA000000 		.4byte	0xca
 3502 0f93 01       		.uleb128 0x1
 3503 0f94 53       		.byte	0x53
 3504 0f95 00       		.byte	0
 3505 0f96 22       		.uleb128 0x22
 3506 0f97 54000000 		.4byte	.LBB14
 3507 0f9b 06000000 		.4byte	.LBE14-.LBB14
 3508 0f9f 28       		.uleb128 0x28
 3509 0fa0 746D7000 		.ascii	"tmp\000"
 3510 0fa4 01       		.byte	0x1
 3511 0fa5 A901     		.2byte	0x1a9
 3512 0fa7 CA000000 		.4byte	0xca
 3513 0fab 01       		.uleb128 0x1
 3514 0fac 53       		.byte	0x53
 3515 0fad 00       		.byte	0
 3516 0fae 00       		.byte	0
 3517 0faf 24       		.uleb128 0x24
 3518 0fb0 49020000 		.4byte	.LASF165
 3519 0fb4 01       		.byte	0x1
 3520 0fb5 BD01     		.2byte	0x1bd
 3521 0fb7 00000000 		.4byte	.LFB80
 3522 0fbb 60000000 		.4byte	.LFE80-.LFB80
 3523 0fbf 01       		.uleb128 0x1
 3524 0fc0 9C       		.byte	0x9c
 3525 0fc1 E20F0000 		.4byte	0xfe2
 3526 0fc5 25       		.uleb128 0x25
 3527 0fc6 6C647000 		.ascii	"ldp\000"
 3528 0fca 01       		.byte	0x1
 3529 0fcb BD01     		.2byte	0x1bd
 3530 0fcd EB0C0000 		.4byte	0xceb
 3531 0fd1 02       		.uleb128 0x2
 3532 0fd2 91       		.byte	0x91
 3533 0fd3 74       		.sleb128 -12
 3534 0fd4 25       		.uleb128 0x25
 3535 0fd5 6200     		.ascii	"b\000"
 3536 0fd7 01       		.byte	0x1
 3537 0fd8 BD01     		.2byte	0x1bd
 3538 0fda A9000000 		.4byte	0xa9
 3539 0fde 02       		.uleb128 0x2
 3540 0fdf 91       		.byte	0x91
 3541 0fe0 73       		.sleb128 -13
 3542 0fe1 00       		.byte	0
 3543 0fe2 29       		.uleb128 0x29
 3544 0fe3 94030000 		.4byte	.LASF166
 3545 0fe7 01       		.byte	0x1
 3546 0fe8 DA01     		.2byte	0x1da
 3547 0fea 29010000 		.4byte	0x129
 3548 0fee 00000000 		.4byte	.LFB81
 3549 0ff2 44000000 		.4byte	.LFE81-.LFB81
ARM GAS  /home/pauba/tmp/cca0qe6Z.s 			page 64


 3550 0ff6 01       		.uleb128 0x1
 3551 0ff7 9C       		.byte	0x9c
 3552 0ff8 19100000 		.4byte	0x1019
 3553 0ffc 25       		.uleb128 0x25
 3554 0ffd 6C647000 		.ascii	"ldp\000"
 3555 1001 01       		.byte	0x1
 3556 1002 DA01     		.2byte	0x1da
 3557 1004 EB0C0000 		.4byte	0xceb
 3558 1008 02       		.uleb128 0x2
 3559 1009 91       		.byte	0x91
 3560 100a 6C       		.sleb128 -20
 3561 100b 28       		.uleb128 0x28
 3562 100c 6200     		.ascii	"b\000"
 3563 100e 01       		.byte	0x1
 3564 100f DB01     		.2byte	0x1db
 3565 1011 29010000 		.4byte	0x129
 3566 1015 02       		.uleb128 0x2
 3567 1016 91       		.byte	0x91
 3568 1017 74       		.sleb128 -12
 3569 1018 00       		.byte	0
 3570 1019 21       		.uleb128 0x21
 3571 101a 766D7400 		.ascii	"vmt\000"
 3572 101e 01       		.byte	0x1
 3573 101f 7A       		.byte	0x7a
 3574 1020 D40A0000 		.4byte	0xad4
 3575 1024 05       		.uleb128 0x5
 3576 1025 03       		.byte	0x3
 3577 1026 00000000 		.4byte	vmt
 3578 102a 2A       		.uleb128 0x2a
 3579 102b 21010000 		.4byte	.LASF167
 3580 102f 01       		.byte	0x1
 3581 1030 B0       		.byte	0xb0
 3582 1031 9C080000 		.4byte	0x89c
 3583 1035 05       		.uleb128 0x5
 3584 1036 03       		.byte	0x3
 3585 1037 00000000 		.4byte	default_config
 3586 103b 27       		.uleb128 0x27
 3587 103c AD000000 		.4byte	.LASF168
 3588 1040 10       		.byte	0x10
 3589 1041 0706     		.2byte	0x607
 3590 1043 47100000 		.4byte	0x1047
 3591 1047 0D       		.uleb128 0xd
 3592 1048 BF000000 		.4byte	0xbf
 3593 104c 2B       		.uleb128 0x2b
 3594 104d 19070000 		.4byte	.LASF169
 3595 1051 0E       		.byte	0xe
 3596 1052 86       		.byte	0x86
 3597 1053 46070000 		.4byte	0x746
 3598 1057 2C       		.uleb128 0x2c
 3599 1058 04060000 		.4byte	.LASF170
 3600 105c 01       		.byte	0x1
 3601 105d 3A       		.byte	0x3a
 3602 105e CD080000 		.4byte	0x8cd
 3603 1062 05       		.uleb128 0x5
 3604 1063 03       		.byte	0x3
 3605 1064 00000000 		.4byte	LCOM2
 3606 1068 27       		.uleb128 0x27
ARM GAS  /home/pauba/tmp/cca0qe6Z.s 			page 65


 3607 1069 78030000 		.4byte	.LASF162
 3608 106d 01       		.byte	0x1
 3609 106e 5901     		.2byte	0x159
 3610 1070 F8070000 		.4byte	0x7f8
 3611 1074 27       		.uleb128 0x27
 3612 1075 47040000 		.4byte	.LASF163
 3613 1079 01       		.byte	0x1
 3614 107a 5A01     		.2byte	0x15a
 3615 107c 450F0000 		.4byte	0xf45
 3616 1080 00       		.byte	0
 3617              		.section	.debug_abbrev,"",%progbits
 3618              	.Ldebug_abbrev0:
 3619 0000 01       		.uleb128 0x1
 3620 0001 11       		.uleb128 0x11
 3621 0002 01       		.byte	0x1
 3622 0003 25       		.uleb128 0x25
 3623 0004 0E       		.uleb128 0xe
 3624 0005 13       		.uleb128 0x13
 3625 0006 0B       		.uleb128 0xb
 3626 0007 03       		.uleb128 0x3
 3627 0008 0E       		.uleb128 0xe
 3628 0009 55       		.uleb128 0x55
 3629 000a 17       		.uleb128 0x17
 3630 000b 11       		.uleb128 0x11
 3631 000c 01       		.uleb128 0x1
 3632 000d 10       		.uleb128 0x10
 3633 000e 17       		.uleb128 0x17
 3634 000f 00       		.byte	0
 3635 0010 00       		.byte	0
 3636 0011 02       		.uleb128 0x2
 3637 0012 24       		.uleb128 0x24
 3638 0013 00       		.byte	0
 3639 0014 0B       		.uleb128 0xb
 3640 0015 0B       		.uleb128 0xb
 3641 0016 3E       		.uleb128 0x3e
 3642 0017 0B       		.uleb128 0xb
 3643 0018 03       		.uleb128 0x3
 3644 0019 08       		.uleb128 0x8
 3645 001a 00       		.byte	0
 3646 001b 00       		.byte	0
 3647 001c 03       		.uleb128 0x3
 3648 001d 16       		.uleb128 0x16
 3649 001e 00       		.byte	0
 3650 001f 03       		.uleb128 0x3
 3651 0020 0E       		.uleb128 0xe
 3652 0021 3A       		.uleb128 0x3a
 3653 0022 0B       		.uleb128 0xb
 3654 0023 3B       		.uleb128 0x3b
 3655 0024 0B       		.uleb128 0xb
 3656 0025 49       		.uleb128 0x49
 3657 0026 13       		.uleb128 0x13
 3658 0027 00       		.byte	0
 3659 0028 00       		.byte	0
 3660 0029 04       		.uleb128 0x4
 3661 002a 24       		.uleb128 0x24
 3662 002b 00       		.byte	0
 3663 002c 0B       		.uleb128 0xb
ARM GAS  /home/pauba/tmp/cca0qe6Z.s 			page 66


 3664 002d 0B       		.uleb128 0xb
 3665 002e 3E       		.uleb128 0x3e
 3666 002f 0B       		.uleb128 0xb
 3667 0030 03       		.uleb128 0x3
 3668 0031 0E       		.uleb128 0xe
 3669 0032 00       		.byte	0
 3670 0033 00       		.byte	0
 3671 0034 05       		.uleb128 0x5
 3672 0035 13       		.uleb128 0x13
 3673 0036 01       		.byte	0x1
 3674 0037 03       		.uleb128 0x3
 3675 0038 0E       		.uleb128 0xe
 3676 0039 0B       		.uleb128 0xb
 3677 003a 0B       		.uleb128 0xb
 3678 003b 3A       		.uleb128 0x3a
 3679 003c 0B       		.uleb128 0xb
 3680 003d 3B       		.uleb128 0x3b
 3681 003e 0B       		.uleb128 0xb
 3682 003f 01       		.uleb128 0x1
 3683 0040 13       		.uleb128 0x13
 3684 0041 00       		.byte	0
 3685 0042 00       		.byte	0
 3686 0043 06       		.uleb128 0x6
 3687 0044 0D       		.uleb128 0xd
 3688 0045 00       		.byte	0
 3689 0046 03       		.uleb128 0x3
 3690 0047 0E       		.uleb128 0xe
 3691 0048 3A       		.uleb128 0x3a
 3692 0049 0B       		.uleb128 0xb
 3693 004a 3B       		.uleb128 0x3b
 3694 004b 0B       		.uleb128 0xb
 3695 004c 49       		.uleb128 0x49
 3696 004d 13       		.uleb128 0x13
 3697 004e 38       		.uleb128 0x38
 3698 004f 0B       		.uleb128 0xb
 3699 0050 00       		.byte	0
 3700 0051 00       		.byte	0
 3701 0052 07       		.uleb128 0x7
 3702 0053 0D       		.uleb128 0xd
 3703 0054 00       		.byte	0
 3704 0055 03       		.uleb128 0x3
 3705 0056 08       		.uleb128 0x8
 3706 0057 3A       		.uleb128 0x3a
 3707 0058 0B       		.uleb128 0xb
 3708 0059 3B       		.uleb128 0x3b
 3709 005a 0B       		.uleb128 0xb
 3710 005b 49       		.uleb128 0x49
 3711 005c 13       		.uleb128 0x13
 3712 005d 38       		.uleb128 0x38
 3713 005e 0B       		.uleb128 0xb
 3714 005f 00       		.byte	0
 3715 0060 00       		.byte	0
 3716 0061 08       		.uleb128 0x8
 3717 0062 13       		.uleb128 0x13
 3718 0063 01       		.byte	0x1
 3719 0064 0B       		.uleb128 0xb
 3720 0065 0B       		.uleb128 0xb
ARM GAS  /home/pauba/tmp/cca0qe6Z.s 			page 67


 3721 0066 3A       		.uleb128 0x3a
 3722 0067 0B       		.uleb128 0xb
 3723 0068 3B       		.uleb128 0x3b
 3724 0069 0B       		.uleb128 0xb
 3725 006a 01       		.uleb128 0x1
 3726 006b 13       		.uleb128 0x13
 3727 006c 00       		.byte	0
 3728 006d 00       		.byte	0
 3729 006e 09       		.uleb128 0x9
 3730 006f 0F       		.uleb128 0xf
 3731 0070 00       		.byte	0
 3732 0071 0B       		.uleb128 0xb
 3733 0072 0B       		.uleb128 0xb
 3734 0073 49       		.uleb128 0x49
 3735 0074 13       		.uleb128 0x13
 3736 0075 00       		.byte	0
 3737 0076 00       		.byte	0
 3738 0077 0A       		.uleb128 0xa
 3739 0078 0F       		.uleb128 0xf
 3740 0079 00       		.byte	0
 3741 007a 0B       		.uleb128 0xb
 3742 007b 0B       		.uleb128 0xb
 3743 007c 00       		.byte	0
 3744 007d 00       		.byte	0
 3745 007e 0B       		.uleb128 0xb
 3746 007f 13       		.uleb128 0x13
 3747 0080 01       		.byte	0x1
 3748 0081 03       		.uleb128 0x3
 3749 0082 0E       		.uleb128 0xe
 3750 0083 0B       		.uleb128 0xb
 3751 0084 0B       		.uleb128 0xb
 3752 0085 3A       		.uleb128 0x3a
 3753 0086 0B       		.uleb128 0xb
 3754 0087 3B       		.uleb128 0x3b
 3755 0088 05       		.uleb128 0x5
 3756 0089 01       		.uleb128 0x1
 3757 008a 13       		.uleb128 0x13
 3758 008b 00       		.byte	0
 3759 008c 00       		.byte	0
 3760 008d 0C       		.uleb128 0xc
 3761 008e 0D       		.uleb128 0xd
 3762 008f 00       		.byte	0
 3763 0090 03       		.uleb128 0x3
 3764 0091 08       		.uleb128 0x8
 3765 0092 3A       		.uleb128 0x3a
 3766 0093 0B       		.uleb128 0xb
 3767 0094 3B       		.uleb128 0x3b
 3768 0095 05       		.uleb128 0x5
 3769 0096 49       		.uleb128 0x49
 3770 0097 13       		.uleb128 0x13
 3771 0098 38       		.uleb128 0x38
 3772 0099 0B       		.uleb128 0xb
 3773 009a 00       		.byte	0
 3774 009b 00       		.byte	0
 3775 009c 0D       		.uleb128 0xd
 3776 009d 35       		.uleb128 0x35
 3777 009e 00       		.byte	0
ARM GAS  /home/pauba/tmp/cca0qe6Z.s 			page 68


 3778 009f 49       		.uleb128 0x49
 3779 00a0 13       		.uleb128 0x13
 3780 00a1 00       		.byte	0
 3781 00a2 00       		.byte	0
 3782 00a3 0E       		.uleb128 0xe
 3783 00a4 17       		.uleb128 0x17
 3784 00a5 01       		.byte	0x1
 3785 00a6 0B       		.uleb128 0xb
 3786 00a7 0B       		.uleb128 0xb
 3787 00a8 3A       		.uleb128 0x3a
 3788 00a9 0B       		.uleb128 0xb
 3789 00aa 3B       		.uleb128 0x3b
 3790 00ab 0B       		.uleb128 0xb
 3791 00ac 01       		.uleb128 0x1
 3792 00ad 13       		.uleb128 0x13
 3793 00ae 00       		.byte	0
 3794 00af 00       		.byte	0
 3795 00b0 0F       		.uleb128 0xf
 3796 00b1 0D       		.uleb128 0xd
 3797 00b2 00       		.byte	0
 3798 00b3 03       		.uleb128 0x3
 3799 00b4 0E       		.uleb128 0xe
 3800 00b5 3A       		.uleb128 0x3a
 3801 00b6 0B       		.uleb128 0xb
 3802 00b7 3B       		.uleb128 0x3b
 3803 00b8 0B       		.uleb128 0xb
 3804 00b9 49       		.uleb128 0x49
 3805 00ba 13       		.uleb128 0x13
 3806 00bb 00       		.byte	0
 3807 00bc 00       		.byte	0
 3808 00bd 10       		.uleb128 0x10
 3809 00be 26       		.uleb128 0x26
 3810 00bf 00       		.byte	0
 3811 00c0 49       		.uleb128 0x49
 3812 00c1 13       		.uleb128 0x13
 3813 00c2 00       		.byte	0
 3814 00c3 00       		.byte	0
 3815 00c4 11       		.uleb128 0x11
 3816 00c5 15       		.uleb128 0x15
 3817 00c6 01       		.byte	0x1
 3818 00c7 27       		.uleb128 0x27
 3819 00c8 19       		.uleb128 0x19
 3820 00c9 49       		.uleb128 0x49
 3821 00ca 13       		.uleb128 0x13
 3822 00cb 01       		.uleb128 0x1
 3823 00cc 13       		.uleb128 0x13
 3824 00cd 00       		.byte	0
 3825 00ce 00       		.byte	0
 3826 00cf 12       		.uleb128 0x12
 3827 00d0 05       		.uleb128 0x5
 3828 00d1 00       		.byte	0
 3829 00d2 49       		.uleb128 0x49
 3830 00d3 13       		.uleb128 0x13
 3831 00d4 00       		.byte	0
 3832 00d5 00       		.byte	0
 3833 00d6 13       		.uleb128 0x13
 3834 00d7 15       		.uleb128 0x15
ARM GAS  /home/pauba/tmp/cca0qe6Z.s 			page 69


 3835 00d8 01       		.byte	0x1
 3836 00d9 27       		.uleb128 0x27
 3837 00da 19       		.uleb128 0x19
 3838 00db 01       		.uleb128 0x1
 3839 00dc 13       		.uleb128 0x13
 3840 00dd 00       		.byte	0
 3841 00de 00       		.byte	0
 3842 00df 14       		.uleb128 0x14
 3843 00e0 0D       		.uleb128 0xd
 3844 00e1 00       		.byte	0
 3845 00e2 03       		.uleb128 0x3
 3846 00e3 08       		.uleb128 0x8
 3847 00e4 3A       		.uleb128 0x3a
 3848 00e5 0B       		.uleb128 0xb
 3849 00e6 3B       		.uleb128 0x3b
 3850 00e7 0B       		.uleb128 0xb
 3851 00e8 49       		.uleb128 0x49
 3852 00e9 13       		.uleb128 0x13
 3853 00ea 00       		.byte	0
 3854 00eb 00       		.byte	0
 3855 00ec 15       		.uleb128 0x15
 3856 00ed 04       		.uleb128 0x4
 3857 00ee 01       		.byte	0x1
 3858 00ef 0B       		.uleb128 0xb
 3859 00f0 0B       		.uleb128 0xb
 3860 00f1 3A       		.uleb128 0x3a
 3861 00f2 0B       		.uleb128 0xb
 3862 00f3 3B       		.uleb128 0x3b
 3863 00f4 0B       		.uleb128 0xb
 3864 00f5 01       		.uleb128 0x1
 3865 00f6 13       		.uleb128 0x13
 3866 00f7 00       		.byte	0
 3867 00f8 00       		.byte	0
 3868 00f9 16       		.uleb128 0x16
 3869 00fa 28       		.uleb128 0x28
 3870 00fb 00       		.byte	0
 3871 00fc 03       		.uleb128 0x3
 3872 00fd 0E       		.uleb128 0xe
 3873 00fe 1C       		.uleb128 0x1c
 3874 00ff 0D       		.uleb128 0xd
 3875 0100 00       		.byte	0
 3876 0101 00       		.byte	0
 3877 0102 17       		.uleb128 0x17
 3878 0103 01       		.uleb128 0x1
 3879 0104 01       		.byte	0x1
 3880 0105 49       		.uleb128 0x49
 3881 0106 13       		.uleb128 0x13
 3882 0107 01       		.uleb128 0x1
 3883 0108 13       		.uleb128 0x13
 3884 0109 00       		.byte	0
 3885 010a 00       		.byte	0
 3886 010b 18       		.uleb128 0x18
 3887 010c 21       		.uleb128 0x21
 3888 010d 00       		.byte	0
 3889 010e 49       		.uleb128 0x49
 3890 010f 13       		.uleb128 0x13
 3891 0110 2F       		.uleb128 0x2f
ARM GAS  /home/pauba/tmp/cca0qe6Z.s 			page 70


 3892 0111 0B       		.uleb128 0xb
 3893 0112 00       		.byte	0
 3894 0113 00       		.byte	0
 3895 0114 19       		.uleb128 0x19
 3896 0115 0D       		.uleb128 0xd
 3897 0116 00       		.byte	0
 3898 0117 03       		.uleb128 0x3
 3899 0118 0E       		.uleb128 0xe
 3900 0119 3A       		.uleb128 0x3a
 3901 011a 0B       		.uleb128 0xb
 3902 011b 3B       		.uleb128 0x3b
 3903 011c 0B       		.uleb128 0xb
 3904 011d 49       		.uleb128 0x49
 3905 011e 13       		.uleb128 0x13
 3906 011f 0B       		.uleb128 0xb
 3907 0120 0B       		.uleb128 0xb
 3908 0121 0D       		.uleb128 0xd
 3909 0122 0B       		.uleb128 0xb
 3910 0123 0C       		.uleb128 0xc
 3911 0124 0B       		.uleb128 0xb
 3912 0125 38       		.uleb128 0x38
 3913 0126 0B       		.uleb128 0xb
 3914 0127 00       		.byte	0
 3915 0128 00       		.byte	0
 3916 0129 1A       		.uleb128 0x1a
 3917 012a 2E       		.uleb128 0x2e
 3918 012b 01       		.byte	0x1
 3919 012c 03       		.uleb128 0x3
 3920 012d 0E       		.uleb128 0xe
 3921 012e 3A       		.uleb128 0x3a
 3922 012f 0B       		.uleb128 0xb
 3923 0130 3B       		.uleb128 0x3b
 3924 0131 0B       		.uleb128 0xb
 3925 0132 27       		.uleb128 0x27
 3926 0133 19       		.uleb128 0x19
 3927 0134 49       		.uleb128 0x49
 3928 0135 13       		.uleb128 0x13
 3929 0136 11       		.uleb128 0x11
 3930 0137 01       		.uleb128 0x1
 3931 0138 12       		.uleb128 0x12
 3932 0139 06       		.uleb128 0x6
 3933 013a 40       		.uleb128 0x40
 3934 013b 18       		.uleb128 0x18
 3935 013c 9642     		.uleb128 0x2116
 3936 013e 19       		.uleb128 0x19
 3937 013f 01       		.uleb128 0x1
 3938 0140 13       		.uleb128 0x13
 3939 0141 00       		.byte	0
 3940 0142 00       		.byte	0
 3941 0143 1B       		.uleb128 0x1b
 3942 0144 05       		.uleb128 0x5
 3943 0145 00       		.byte	0
 3944 0146 03       		.uleb128 0x3
 3945 0147 08       		.uleb128 0x8
 3946 0148 3A       		.uleb128 0x3a
 3947 0149 0B       		.uleb128 0xb
 3948 014a 3B       		.uleb128 0x3b
ARM GAS  /home/pauba/tmp/cca0qe6Z.s 			page 71


 3949 014b 0B       		.uleb128 0xb
 3950 014c 49       		.uleb128 0x49
 3951 014d 13       		.uleb128 0x13
 3952 014e 02       		.uleb128 0x2
 3953 014f 18       		.uleb128 0x18
 3954 0150 00       		.byte	0
 3955 0151 00       		.byte	0
 3956 0152 1C       		.uleb128 0x1c
 3957 0153 2E       		.uleb128 0x2e
 3958 0154 01       		.byte	0x1
 3959 0155 03       		.uleb128 0x3
 3960 0156 08       		.uleb128 0x8
 3961 0157 3A       		.uleb128 0x3a
 3962 0158 0B       		.uleb128 0xb
 3963 0159 3B       		.uleb128 0x3b
 3964 015a 0B       		.uleb128 0xb
 3965 015b 27       		.uleb128 0x27
 3966 015c 19       		.uleb128 0x19
 3967 015d 49       		.uleb128 0x49
 3968 015e 13       		.uleb128 0x13
 3969 015f 11       		.uleb128 0x11
 3970 0160 01       		.uleb128 0x1
 3971 0161 12       		.uleb128 0x12
 3972 0162 06       		.uleb128 0x6
 3973 0163 40       		.uleb128 0x40
 3974 0164 18       		.uleb128 0x18
 3975 0165 9642     		.uleb128 0x2116
 3976 0167 19       		.uleb128 0x19
 3977 0168 01       		.uleb128 0x1
 3978 0169 13       		.uleb128 0x13
 3979 016a 00       		.byte	0
 3980 016b 00       		.byte	0
 3981 016c 1D       		.uleb128 0x1d
 3982 016d 05       		.uleb128 0x5
 3983 016e 00       		.byte	0
 3984 016f 03       		.uleb128 0x3
 3985 0170 0E       		.uleb128 0xe
 3986 0171 3A       		.uleb128 0x3a
 3987 0172 0B       		.uleb128 0xb
 3988 0173 3B       		.uleb128 0x3b
 3989 0174 0B       		.uleb128 0xb
 3990 0175 49       		.uleb128 0x49
 3991 0176 13       		.uleb128 0x13
 3992 0177 02       		.uleb128 0x2
 3993 0178 18       		.uleb128 0x18
 3994 0179 00       		.byte	0
 3995 017a 00       		.byte	0
 3996 017b 1E       		.uleb128 0x1e
 3997 017c 2E       		.uleb128 0x2e
 3998 017d 01       		.byte	0x1
 3999 017e 3F       		.uleb128 0x3f
 4000 017f 19       		.uleb128 0x19
 4001 0180 03       		.uleb128 0x3
 4002 0181 0E       		.uleb128 0xe
 4003 0182 3A       		.uleb128 0x3a
 4004 0183 0B       		.uleb128 0xb
 4005 0184 3B       		.uleb128 0x3b
ARM GAS  /home/pauba/tmp/cca0qe6Z.s 			page 72


 4006 0185 0B       		.uleb128 0xb
 4007 0186 27       		.uleb128 0x27
 4008 0187 19       		.uleb128 0x19
 4009 0188 49       		.uleb128 0x49
 4010 0189 13       		.uleb128 0x13
 4011 018a 11       		.uleb128 0x11
 4012 018b 01       		.uleb128 0x1
 4013 018c 12       		.uleb128 0x12
 4014 018d 06       		.uleb128 0x6
 4015 018e 40       		.uleb128 0x40
 4016 018f 18       		.uleb128 0x18
 4017 0190 9642     		.uleb128 0x2116
 4018 0192 19       		.uleb128 0x19
 4019 0193 01       		.uleb128 0x1
 4020 0194 13       		.uleb128 0x13
 4021 0195 00       		.byte	0
 4022 0196 00       		.byte	0
 4023 0197 1F       		.uleb128 0x1f
 4024 0198 2E       		.uleb128 0x2e
 4025 0199 01       		.byte	0x1
 4026 019a 3F       		.uleb128 0x3f
 4027 019b 19       		.uleb128 0x19
 4028 019c 03       		.uleb128 0x3
 4029 019d 0E       		.uleb128 0xe
 4030 019e 3A       		.uleb128 0x3a
 4031 019f 0B       		.uleb128 0xb
 4032 01a0 3B       		.uleb128 0x3b
 4033 01a1 0B       		.uleb128 0xb
 4034 01a2 27       		.uleb128 0x27
 4035 01a3 19       		.uleb128 0x19
 4036 01a4 11       		.uleb128 0x11
 4037 01a5 01       		.uleb128 0x1
 4038 01a6 12       		.uleb128 0x12
 4039 01a7 06       		.uleb128 0x6
 4040 01a8 40       		.uleb128 0x40
 4041 01a9 18       		.uleb128 0x18
 4042 01aa 9642     		.uleb128 0x2116
 4043 01ac 19       		.uleb128 0x19
 4044 01ad 01       		.uleb128 0x1
 4045 01ae 13       		.uleb128 0x13
 4046 01af 00       		.byte	0
 4047 01b0 00       		.byte	0
 4048 01b1 20       		.uleb128 0x20
 4049 01b2 0B       		.uleb128 0xb
 4050 01b3 01       		.byte	0x1
 4051 01b4 11       		.uleb128 0x11
 4052 01b5 01       		.uleb128 0x1
 4053 01b6 12       		.uleb128 0x12
 4054 01b7 06       		.uleb128 0x6
 4055 01b8 01       		.uleb128 0x1
 4056 01b9 13       		.uleb128 0x13
 4057 01ba 00       		.byte	0
 4058 01bb 00       		.byte	0
 4059 01bc 21       		.uleb128 0x21
 4060 01bd 34       		.uleb128 0x34
 4061 01be 00       		.byte	0
 4062 01bf 03       		.uleb128 0x3
ARM GAS  /home/pauba/tmp/cca0qe6Z.s 			page 73


 4063 01c0 08       		.uleb128 0x8
 4064 01c1 3A       		.uleb128 0x3a
 4065 01c2 0B       		.uleb128 0xb
 4066 01c3 3B       		.uleb128 0x3b
 4067 01c4 0B       		.uleb128 0xb
 4068 01c5 49       		.uleb128 0x49
 4069 01c6 13       		.uleb128 0x13
 4070 01c7 02       		.uleb128 0x2
 4071 01c8 18       		.uleb128 0x18
 4072 01c9 00       		.byte	0
 4073 01ca 00       		.byte	0
 4074 01cb 22       		.uleb128 0x22
 4075 01cc 0B       		.uleb128 0xb
 4076 01cd 01       		.byte	0x1
 4077 01ce 11       		.uleb128 0x11
 4078 01cf 01       		.uleb128 0x1
 4079 01d0 12       		.uleb128 0x12
 4080 01d1 06       		.uleb128 0x6
 4081 01d2 00       		.byte	0
 4082 01d3 00       		.byte	0
 4083 01d4 23       		.uleb128 0x23
 4084 01d5 2E       		.uleb128 0x2e
 4085 01d6 00       		.byte	0
 4086 01d7 3F       		.uleb128 0x3f
 4087 01d8 19       		.uleb128 0x19
 4088 01d9 03       		.uleb128 0x3
 4089 01da 0E       		.uleb128 0xe
 4090 01db 3A       		.uleb128 0x3a
 4091 01dc 0B       		.uleb128 0xb
 4092 01dd 3B       		.uleb128 0x3b
 4093 01de 05       		.uleb128 0x5
 4094 01df 27       		.uleb128 0x27
 4095 01e0 19       		.uleb128 0x19
 4096 01e1 11       		.uleb128 0x11
 4097 01e2 01       		.uleb128 0x1
 4098 01e3 12       		.uleb128 0x12
 4099 01e4 06       		.uleb128 0x6
 4100 01e5 40       		.uleb128 0x40
 4101 01e6 18       		.uleb128 0x18
 4102 01e7 9642     		.uleb128 0x2116
 4103 01e9 19       		.uleb128 0x19
 4104 01ea 00       		.byte	0
 4105 01eb 00       		.byte	0
 4106 01ec 24       		.uleb128 0x24
 4107 01ed 2E       		.uleb128 0x2e
 4108 01ee 01       		.byte	0x1
 4109 01ef 3F       		.uleb128 0x3f
 4110 01f0 19       		.uleb128 0x19
 4111 01f1 03       		.uleb128 0x3
 4112 01f2 0E       		.uleb128 0xe
 4113 01f3 3A       		.uleb128 0x3a
 4114 01f4 0B       		.uleb128 0xb
 4115 01f5 3B       		.uleb128 0x3b
 4116 01f6 05       		.uleb128 0x5
 4117 01f7 27       		.uleb128 0x27
 4118 01f8 19       		.uleb128 0x19
 4119 01f9 11       		.uleb128 0x11
ARM GAS  /home/pauba/tmp/cca0qe6Z.s 			page 74


 4120 01fa 01       		.uleb128 0x1
 4121 01fb 12       		.uleb128 0x12
 4122 01fc 06       		.uleb128 0x6
 4123 01fd 40       		.uleb128 0x40
 4124 01fe 18       		.uleb128 0x18
 4125 01ff 9642     		.uleb128 0x2116
 4126 0201 19       		.uleb128 0x19
 4127 0202 01       		.uleb128 0x1
 4128 0203 13       		.uleb128 0x13
 4129 0204 00       		.byte	0
 4130 0205 00       		.byte	0
 4131 0206 25       		.uleb128 0x25
 4132 0207 05       		.uleb128 0x5
 4133 0208 00       		.byte	0
 4134 0209 03       		.uleb128 0x3
 4135 020a 08       		.uleb128 0x8
 4136 020b 3A       		.uleb128 0x3a
 4137 020c 0B       		.uleb128 0xb
 4138 020d 3B       		.uleb128 0x3b
 4139 020e 05       		.uleb128 0x5
 4140 020f 49       		.uleb128 0x49
 4141 0210 13       		.uleb128 0x13
 4142 0211 02       		.uleb128 0x2
 4143 0212 18       		.uleb128 0x18
 4144 0213 00       		.byte	0
 4145 0214 00       		.byte	0
 4146 0215 26       		.uleb128 0x26
 4147 0216 05       		.uleb128 0x5
 4148 0217 00       		.byte	0
 4149 0218 03       		.uleb128 0x3
 4150 0219 0E       		.uleb128 0xe
 4151 021a 3A       		.uleb128 0x3a
 4152 021b 0B       		.uleb128 0xb
 4153 021c 3B       		.uleb128 0x3b
 4154 021d 05       		.uleb128 0x5
 4155 021e 49       		.uleb128 0x49
 4156 021f 13       		.uleb128 0x13
 4157 0220 02       		.uleb128 0x2
 4158 0221 18       		.uleb128 0x18
 4159 0222 00       		.byte	0
 4160 0223 00       		.byte	0
 4161 0224 27       		.uleb128 0x27
 4162 0225 34       		.uleb128 0x34
 4163 0226 00       		.byte	0
 4164 0227 03       		.uleb128 0x3
 4165 0228 0E       		.uleb128 0xe
 4166 0229 3A       		.uleb128 0x3a
 4167 022a 0B       		.uleb128 0xb
 4168 022b 3B       		.uleb128 0x3b
 4169 022c 05       		.uleb128 0x5
 4170 022d 49       		.uleb128 0x49
 4171 022e 13       		.uleb128 0x13
 4172 022f 3F       		.uleb128 0x3f
 4173 0230 19       		.uleb128 0x19
 4174 0231 3C       		.uleb128 0x3c
 4175 0232 19       		.uleb128 0x19
 4176 0233 00       		.byte	0
ARM GAS  /home/pauba/tmp/cca0qe6Z.s 			page 75


 4177 0234 00       		.byte	0
 4178 0235 28       		.uleb128 0x28
 4179 0236 34       		.uleb128 0x34
 4180 0237 00       		.byte	0
 4181 0238 03       		.uleb128 0x3
 4182 0239 08       		.uleb128 0x8
 4183 023a 3A       		.uleb128 0x3a
 4184 023b 0B       		.uleb128 0xb
 4185 023c 3B       		.uleb128 0x3b
 4186 023d 05       		.uleb128 0x5
 4187 023e 49       		.uleb128 0x49
 4188 023f 13       		.uleb128 0x13
 4189 0240 02       		.uleb128 0x2
 4190 0241 18       		.uleb128 0x18
 4191 0242 00       		.byte	0
 4192 0243 00       		.byte	0
 4193 0244 29       		.uleb128 0x29
 4194 0245 2E       		.uleb128 0x2e
 4195 0246 01       		.byte	0x1
 4196 0247 3F       		.uleb128 0x3f
 4197 0248 19       		.uleb128 0x19
 4198 0249 03       		.uleb128 0x3
 4199 024a 0E       		.uleb128 0xe
 4200 024b 3A       		.uleb128 0x3a
 4201 024c 0B       		.uleb128 0xb
 4202 024d 3B       		.uleb128 0x3b
 4203 024e 05       		.uleb128 0x5
 4204 024f 27       		.uleb128 0x27
 4205 0250 19       		.uleb128 0x19
 4206 0251 49       		.uleb128 0x49
 4207 0252 13       		.uleb128 0x13
 4208 0253 11       		.uleb128 0x11
 4209 0254 01       		.uleb128 0x1
 4210 0255 12       		.uleb128 0x12
 4211 0256 06       		.uleb128 0x6
 4212 0257 40       		.uleb128 0x40
 4213 0258 18       		.uleb128 0x18
 4214 0259 9642     		.uleb128 0x2116
 4215 025b 19       		.uleb128 0x19
 4216 025c 01       		.uleb128 0x1
 4217 025d 13       		.uleb128 0x13
 4218 025e 00       		.byte	0
 4219 025f 00       		.byte	0
 4220 0260 2A       		.uleb128 0x2a
 4221 0261 34       		.uleb128 0x34
 4222 0262 00       		.byte	0
 4223 0263 03       		.uleb128 0x3
 4224 0264 0E       		.uleb128 0xe
 4225 0265 3A       		.uleb128 0x3a
 4226 0266 0B       		.uleb128 0xb
 4227 0267 3B       		.uleb128 0x3b
 4228 0268 0B       		.uleb128 0xb
 4229 0269 49       		.uleb128 0x49
 4230 026a 13       		.uleb128 0x13
 4231 026b 02       		.uleb128 0x2
 4232 026c 18       		.uleb128 0x18
 4233 026d 00       		.byte	0
ARM GAS  /home/pauba/tmp/cca0qe6Z.s 			page 76


 4234 026e 00       		.byte	0
 4235 026f 2B       		.uleb128 0x2b
 4236 0270 34       		.uleb128 0x34
 4237 0271 00       		.byte	0
 4238 0272 03       		.uleb128 0x3
 4239 0273 0E       		.uleb128 0xe
 4240 0274 3A       		.uleb128 0x3a
 4241 0275 0B       		.uleb128 0xb
 4242 0276 3B       		.uleb128 0x3b
 4243 0277 0B       		.uleb128 0xb
 4244 0278 49       		.uleb128 0x49
 4245 0279 13       		.uleb128 0x13
 4246 027a 3F       		.uleb128 0x3f
 4247 027b 19       		.uleb128 0x19
 4248 027c 3C       		.uleb128 0x3c
 4249 027d 19       		.uleb128 0x19
 4250 027e 00       		.byte	0
 4251 027f 00       		.byte	0
 4252 0280 2C       		.uleb128 0x2c
 4253 0281 34       		.uleb128 0x34
 4254 0282 00       		.byte	0
 4255 0283 03       		.uleb128 0x3
 4256 0284 0E       		.uleb128 0xe
 4257 0285 3A       		.uleb128 0x3a
 4258 0286 0B       		.uleb128 0xb
 4259 0287 3B       		.uleb128 0x3b
 4260 0288 0B       		.uleb128 0xb
 4261 0289 49       		.uleb128 0x49
 4262 028a 13       		.uleb128 0x13
 4263 028b 3F       		.uleb128 0x3f
 4264 028c 19       		.uleb128 0x19
 4265 028d 02       		.uleb128 0x2
 4266 028e 18       		.uleb128 0x18
 4267 028f 00       		.byte	0
 4268 0290 00       		.byte	0
 4269 0291 00       		.byte	0
 4270              		.section	.debug_aranges,"",%progbits
 4271 0000 AC000000 		.4byte	0xac
 4272 0004 0200     		.2byte	0x2
 4273 0006 00000000 		.4byte	.Ldebug_info0
 4274 000a 04       		.byte	0x4
 4275 000b 00       		.byte	0
 4276 000c 0000     		.2byte	0
 4277 000e 0000     		.2byte	0
 4278 0010 00000000 		.4byte	.LFB63
 4279 0014 26000000 		.4byte	.LFE63-.LFB63
 4280 0018 00000000 		.4byte	.LFB64
 4281 001c 26000000 		.4byte	.LFE64-.LFB64
 4282 0020 00000000 		.4byte	.LFB65
 4283 0024 2C000000 		.4byte	.LFE65-.LFB65
 4284 0028 00000000 		.4byte	.LFB66
 4285 002c 1E000000 		.4byte	.LFE66-.LFB66
 4286 0030 00000000 		.4byte	.LFB67
 4287 0034 2C000000 		.4byte	.LFE67-.LFB67
 4288 0038 00000000 		.4byte	.LFB68
 4289 003c 1E000000 		.4byte	.LFE68-.LFB68
 4290 0040 00000000 		.4byte	.LFB69
ARM GAS  /home/pauba/tmp/cca0qe6Z.s 			page 77


 4291 0044 26000000 		.4byte	.LFE69-.LFB69
 4292 0048 00000000 		.4byte	.LFB70
 4293 004c 26000000 		.4byte	.LFE70-.LFB70
 4294 0050 00000000 		.4byte	.LFB71
 4295 0054 16000000 		.4byte	.LFE71-.LFB71
 4296 0058 00000000 		.4byte	.LFB72
 4297 005c 2C000000 		.4byte	.LFE72-.LFB72
 4298 0060 00000000 		.4byte	.LFB73
 4299 0064 6C000000 		.4byte	.LFE73-.LFB73
 4300 0068 00000000 		.4byte	.LFB74
 4301 006c 3A000000 		.4byte	.LFE74-.LFB74
 4302 0070 00000000 		.4byte	.LFB75
 4303 0074 A4020000 		.4byte	.LFE75-.LFB75
 4304 0078 00000000 		.4byte	.LFB76
 4305 007c 14000000 		.4byte	.LFE76-.LFB76
 4306 0080 00000000 		.4byte	.LFB77
 4307 0084 5C000000 		.4byte	.LFE77-.LFB77
 4308 0088 00000000 		.4byte	.LFB78
 4309 008c B8010000 		.4byte	.LFE78-.LFB78
 4310 0090 00000000 		.4byte	.LFB79
 4311 0094 74000000 		.4byte	.LFE79-.LFB79
 4312 0098 00000000 		.4byte	.LFB80
 4313 009c 60000000 		.4byte	.LFE80-.LFB80
 4314 00a0 00000000 		.4byte	.LFB81
 4315 00a4 44000000 		.4byte	.LFE81-.LFB81
 4316 00a8 00000000 		.4byte	0
 4317 00ac 00000000 		.4byte	0
 4318              		.section	.debug_ranges,"",%progbits
 4319              	.Ldebug_ranges0:
 4320 0000 00000000 		.4byte	.LFB63
 4321 0004 26000000 		.4byte	.LFE63
 4322 0008 00000000 		.4byte	.LFB64
 4323 000c 26000000 		.4byte	.LFE64
 4324 0010 00000000 		.4byte	.LFB65
 4325 0014 2C000000 		.4byte	.LFE65
 4326 0018 00000000 		.4byte	.LFB66
 4327 001c 1E000000 		.4byte	.LFE66
 4328 0020 00000000 		.4byte	.LFB67
 4329 0024 2C000000 		.4byte	.LFE67
 4330 0028 00000000 		.4byte	.LFB68
 4331 002c 1E000000 		.4byte	.LFE68
 4332 0030 00000000 		.4byte	.LFB69
 4333 0034 26000000 		.4byte	.LFE69
 4334 0038 00000000 		.4byte	.LFB70
 4335 003c 26000000 		.4byte	.LFE70
 4336 0040 00000000 		.4byte	.LFB71
 4337 0044 16000000 		.4byte	.LFE71
 4338 0048 00000000 		.4byte	.LFB72
 4339 004c 2C000000 		.4byte	.LFE72
 4340 0050 00000000 		.4byte	.LFB73
 4341 0054 6C000000 		.4byte	.LFE73
 4342 0058 00000000 		.4byte	.LFB74
 4343 005c 3A000000 		.4byte	.LFE74
 4344 0060 00000000 		.4byte	.LFB75
 4345 0064 A4020000 		.4byte	.LFE75
 4346 0068 00000000 		.4byte	.LFB76
 4347 006c 14000000 		.4byte	.LFE76
ARM GAS  /home/pauba/tmp/cca0qe6Z.s 			page 78


 4348 0070 00000000 		.4byte	.LFB77
 4349 0074 5C000000 		.4byte	.LFE77
 4350 0078 00000000 		.4byte	.LFB78
 4351 007c B8010000 		.4byte	.LFE78
 4352 0080 00000000 		.4byte	.LFB79
 4353 0084 74000000 		.4byte	.LFE79
 4354 0088 00000000 		.4byte	.LFB80
 4355 008c 60000000 		.4byte	.LFE80
 4356 0090 00000000 		.4byte	.LFB81
 4357 0094 44000000 		.4byte	.LFE81
 4358 0098 00000000 		.4byte	0
 4359 009c 00000000 		.4byte	0
 4360              		.section	.debug_line,"",%progbits
 4361              	.Ldebug_line0:
 4362 0000 49050000 		.section	.debug_str,"MS",%progbits,1
 4362      0200E402 
 4362      00000201 
 4362      FB0E0D00 
 4362      01010101 
 4363              	.LASF157:
 4364 0000 6C656443 		.ascii	"ledCommSerialHandler\000"
 4364      6F6D6D53 
 4364      65726961 
 4364      6C48616E 
 4364      646C6572 
 4365              	.LASF143:
 4366 0015 636F756E 		.ascii	"count\000"
 4366      7400
 4367              	.LASF112:
 4368 001b 616E6F64 		.ascii	"anode_port\000"
 4368      655F706F 
 4368      727400
 4369              	.LASF2:
 4370 0026 73697A65 		.ascii	"size_t\000"
 4370      5F7400
 4371              	.LASF70:
 4372 002d 7264796D 		.ascii	"rdymsg\000"
 4372      736700
 4373              	.LASF19:
 4374 0034 75696E74 		.ascii	"uint64_t\000"
 4374      36345F74 
 4374      00
 4375              	.LASF86:
 4376 003d 4F757470 		.ascii	"OutputQueue\000"
 4376      75745175 
 4376      65756500 
 4377              	.LASF89:
 4378 0049 4F545950 		.ascii	"OTYPER\000"
 4378      455200
 4379              	.LASF3:
 4380 0050 5F5F7569 		.ascii	"__uint8_t\000"
 4380      6E74385F 
 4380      7400
 4381              	.LASF106:
 4382 005a 65787063 		.ascii	"expchannel_t\000"
 4382      68616E6E 
 4382      656C5F74 
ARM GAS  /home/pauba/tmp/cca0qe6Z.s 			page 79


 4382      00
 4383              	.LASF97:
 4384 0067 696F706F 		.ascii	"ioportmask_t\000"
 4384      72746D61 
 4384      736B5F74 
 4384      00
 4385              	.LASF131:
 4386 0074 73796E63 		.ascii	"syncs\000"
 4386      7300
 4387              	.LASF88:
 4388 007a 4D4F4445 		.ascii	"MODER\000"
 4388      5200
 4389              	.LASF14:
 4390 0080 6C6F6E67 		.ascii	"long long unsigned int\000"
 4390      206C6F6E 
 4390      6720756E 
 4390      7369676E 
 4390      65642069 
 4391              	.LASF91:
 4392 0097 50555044 		.ascii	"PUPDR\000"
 4392      5200
 4393              	.LASF71:
 4394 009d 65786974 		.ascii	"exitcode\000"
 4394      636F6465 
 4394      00
 4395              	.LASF164:
 4396 00a6 6C645374 		.ascii	"ldStop\000"
 4396      6F7000
 4397              	.LASF168:
 4398 00ad 49544D5F 		.ascii	"ITM_RxBuffer\000"
 4398      52784275 
 4398      66666572 
 4398      00
 4399              	.LASF34:
 4400 00ba 705F7072 		.ascii	"p_prio\000"
 4400      696F00
 4401              	.LASF150:
 4402 00c1 72656164 		.ascii	"readt\000"
 4402      7400
 4403              	.LASF76:
 4404 00c7 715F7761 		.ascii	"q_waiting\000"
 4404      6974696E 
 4404      6700
 4405              	.LASF12:
 4406 00d1 6C6F6E67 		.ascii	"long long int\000"
 4406      206C6F6E 
 4406      6720696E 
 4406      7400
 4407              	.LASF1:
 4408 00df 7369676E 		.ascii	"signed char\000"
 4408      65642063 
 4408      68617200 
 4409              	.LASF92:
 4410 00eb 42535252 		.ascii	"BSRR\000"
 4410      00
 4411              	.LASF139:
 4412 00f0 72785F62 		.ascii	"rx_bits\000"
ARM GAS  /home/pauba/tmp/cca0qe6Z.s 			page 80


 4412      69747300 
 4413              	.LASF51:
 4414 00f8 705F6D70 		.ascii	"p_mpool\000"
 4414      6F6F6C00 
 4415              	.LASF20:
 4416 0100 626F6F6C 		.ascii	"bool_t\000"
 4416      5F7400
 4417              	.LASF60:
 4418 0107 6D5F7175 		.ascii	"m_queue\000"
 4418      65756500 
 4419              	.LASF161:
 4420 010f 6C645374 		.ascii	"ldStart\000"
 4420      61727400 
 4421              	.LASF25:
 4422 0117 74736C69 		.ascii	"tslices_t\000"
 4422      6365735F 
 4422      7400
 4423              	.LASF167:
 4424 0121 64656661 		.ascii	"default_config\000"
 4424      756C745F 
 4424      636F6E66 
 4424      696700
 4425              	.LASF104:
 4426 0130 73746174 		.ascii	"state\000"
 4426      6500
 4427              	.LASF110:
 4428 0136 6368616E 		.ascii	"channels\000"
 4428      6E656C73 
 4428      00
 4429              	.LASF9:
 4430 013f 6C6F6E67 		.ascii	"long int\000"
 4430      20696E74 
 4430      00
 4431              	.LASF23:
 4432 0148 74737461 		.ascii	"tstate_t\000"
 4432      74655F74 
 4432      00
 4433              	.LASF142:
 4434 0151 72785F72 		.ascii	"rx_register\000"
 4434      65676973 
 4434      74657200 
 4435              	.LASF42:
 4436 015d 705F7265 		.ascii	"p_refs\000"
 4436      667300
 4437              	.LASF5:
 4438 0164 73686F72 		.ascii	"short int\000"
 4438      7420696E 
 4438      7400
 4439              	.LASF78:
 4440 016e 715F6275 		.ascii	"q_buffer\000"
 4440      66666572 
 4440      00
 4441              	.LASF80:
 4442 0177 715F7772 		.ascii	"q_wrptr\000"
 4442      70747200 
 4443              	.LASF44:
 4444 017f 705F7469 		.ascii	"p_time\000"
ARM GAS  /home/pauba/tmp/cca0qe6Z.s 			page 81


 4444      6D6500
 4445              	.LASF135:
 4446 0186 74787264 		.ascii	"txrdy\000"
 4446      7900
 4447              	.LASF123:
 4448 018c 4C445F53 		.ascii	"LD_STOP\000"
 4448      544F5000 
 4449              	.LASF36:
 4450 0194 705F6E65 		.ascii	"p_newer\000"
 4450      77657200 
 4451              	.LASF109:
 4452 019c 45585443 		.ascii	"EXTChannelConfig\000"
 4452      68616E6E 
 4452      656C436F 
 4452      6E666967 
 4452      00
 4453              	.LASF119:
 4454 01ad 70617269 		.ascii	"parity\000"
 4454      747900
 4455              	.LASF90:
 4456 01b4 4F535045 		.ascii	"OSPEEDR\000"
 4456      45445200 
 4457              	.LASF10:
 4458 01bc 5F5F7569 		.ascii	"__uint32_t\000"
 4458      6E743332 
 4458      5F7400
 4459              	.LASF116:
 4460 01c7 63617468 		.ascii	"cathode_extmode\000"
 4460      6F64655F 
 4460      6578746D 
 4460      6F646500 
 4461              	.LASF134:
 4462 01d7 6C696E6B 		.ascii	"link\000"
 4462      00
 4463              	.LASF68:
 4464 01dc 4576656E 		.ascii	"EventSource\000"
 4464      74536F75 
 4464      72636500 
 4465              	.LASF39:
 4466 01e8 705F7374 		.ascii	"p_stklimit\000"
 4466      6B6C696D 
 4466      697400
 4467              	.LASF0:
 4468 01f3 756E7369 		.ascii	"unsigned int\000"
 4468      676E6564 
 4468      20696E74 
 4468      00
 4469              	.LASF16:
 4470 0200 75696E74 		.ascii	"uint16_t\000"
 4470      31365F74 
 4470      00
 4471              	.LASF159:
 4472 0209 696E6F74 		.ascii	"inotify\000"
 4472      69667900 
 4473              	.LASF29:
 4474 0211 666C6167 		.ascii	"flagsmask_t\000"
 4474      736D6173 
ARM GAS  /home/pauba/tmp/cca0qe6Z.s 			page 82


 4474      6B5F7400 
 4475              	.LASF129:
 4476 021d 69717565 		.ascii	"iqueue\000"
 4476      756500
 4477              	.LASF46:
 4478 0224 705F6D73 		.ascii	"p_msgqueue\000"
 4478      67717565 
 4478      756500
 4479              	.LASF96:
 4480 022f 4750494F 		.ascii	"GPIO_TypeDef\000"
 4480      5F547970 
 4480      65446566 
 4480      00
 4481              	.LASF151:
 4482 023c 74696D65 		.ascii	"timeout\000"
 4482      6F757400 
 4483              	.LASF148:
 4484 0244 67657474 		.ascii	"gett\000"
 4484      00
 4485              	.LASF165:
 4486 0249 6C64496E 		.ascii	"ldIncomingDataI\000"
 4486      636F6D69 
 4486      6E674461 
 4486      74614900 
 4487              	.LASF128:
 4488 0259 6576656E 		.ascii	"event\000"
 4488      7400
 4489              	.LASF57:
 4490 025f 636F6E74 		.ascii	"context\000"
 4490      65787400 
 4491              	.LASF7:
 4492 0267 73686F72 		.ascii	"short unsigned int\000"
 4492      7420756E 
 4492      7369676E 
 4492      65642069 
 4492      6E7400
 4493              	.LASF111:
 4494 027a 45585443 		.ascii	"EXTConfig\000"
 4494      6F6E6669 
 4494      6700
 4495              	.LASF27:
 4496 0284 6D73675F 		.ascii	"msg_t\000"
 4496      7400
 4497              	.LASF130:
 4498 028a 6F717565 		.ascii	"oqueue\000"
 4498      756500
 4499              	.LASF64:
 4500 0291 656C5F6E 		.ascii	"el_next\000"
 4500      65787400 
 4501              	.LASF149:
 4502 0299 77726974 		.ascii	"writet\000"
 4502      657400
 4503              	.LASF22:
 4504 02a0 746D6F64 		.ascii	"tmode_t\000"
 4504      655F7400 
 4505              	.LASF53:
 4506 02a8 54687265 		.ascii	"ThreadsList\000"
ARM GAS  /home/pauba/tmp/cca0qe6Z.s 			page 83


 4506      6164734C 
 4506      69737400 
 4507              	.LASF28:
 4508 02b4 6576656E 		.ascii	"eventmask_t\000"
 4508      746D6173 
 4508      6B5F7400 
 4509              	.LASF156:
 4510 02c0 6C696E6B 		.ascii	"linkDown\000"
 4510      446F776E 
 4510      00
 4511              	.LASF84:
 4512 02c9 716E6F74 		.ascii	"qnotify_t\000"
 4512      6966795F 
 4512      7400
 4513              	.LASF75:
 4514 02d3 47656E65 		.ascii	"GenericQueue\000"
 4514      72696351 
 4514      75657565 
 4514      00
 4515              	.LASF55:
 4516 02e0 73746B61 		.ascii	"stkalign_t\000"
 4516      6C69676E 
 4516      5F7400
 4517              	.LASF101:
 4518 02eb 4558545F 		.ascii	"EXT_ACTIVE\000"
 4518      41435449 
 4518      564500
 4519              	.LASF145:
 4520 02f6 77726974 		.ascii	"write\000"
 4520      6500
 4521              	.LASF155:
 4522 02fc 6C696E6B 		.ascii	"linkUp\000"
 4522      557000
 4523              	.LASF147:
 4524 0303 70757474 		.ascii	"putt\000"
 4524      00
 4525              	.LASF154:
 4526 0308 69734C69 		.ascii	"isLinkDown\000"
 4526      6E6B446F 
 4526      776E00
 4527              	.LASF58:
 4528 0313 73697A65 		.ascii	"sizetype\000"
 4528      74797065 
 4528      00
 4529              	.LASF102:
 4530 031c 65787473 		.ascii	"extstate_t\000"
 4530      74617465 
 4530      5F7400
 4531              	.LASF173:
 4532 0327 6C64496E 		.ascii	"ldInit\000"
 4532      697400
 4533              	.LASF87:
 4534 032e 636C6561 		.ascii	"clear\000"
 4534      7200
 4535              	.LASF59:
 4536 0334 4D757465 		.ascii	"Mutex\000"
 4536      7800
ARM GAS  /home/pauba/tmp/cca0qe6Z.s 			page 84


 4537              	.LASF133:
 4538 033a 656E6162 		.ascii	"enable\000"
 4538      6C6500
 4539              	.LASF66:
 4540 0341 656C5F6D 		.ascii	"el_mask\000"
 4540      61736B00 
 4541              	.LASF37:
 4542 0349 705F6F6C 		.ascii	"p_older\000"
 4542      64657200 
 4543              	.LASF52:
 4544 0351 54687265 		.ascii	"ThreadsQueue\000"
 4544      61647351 
 4544      75657565 
 4544      00
 4545              	.LASF118:
 4546 035e 64617461 		.ascii	"data_bits\000"
 4546      5F626974 
 4546      7300
 4547              	.LASF152:
 4548 0368 74696D65 		.ascii	"time\000"
 4548      00
 4549              	.LASF99:
 4550 036d 4558545F 		.ascii	"EXT_UNINIT\000"
 4550      554E494E 
 4550      495400
 4551              	.LASF162:
 4552 0378 65787463 		.ascii	"extcfg\000"
 4552      666700
 4553              	.LASF13:
 4554 037f 5F5F7569 		.ascii	"__uint64_t\000"
 4554      6E743634 
 4554      5F7400
 4555              	.LASF95:
 4556 038a 41465248 		.ascii	"AFRH\000"
 4556      00
 4557              	.LASF94:
 4558 038f 4146524C 		.ascii	"AFRL\000"
 4558      00
 4559              	.LASF166:
 4560 0394 6C645265 		.ascii	"ldRequestDataI\000"
 4560      71756573 
 4560      74446174 
 4560      614900
 4561              	.LASF24:
 4562 03a3 74726566 		.ascii	"trefs_t\000"
 4562      735F7400 
 4563              	.LASF33:
 4564 03ab 705F7072 		.ascii	"p_prev\000"
 4564      657600
 4565              	.LASF26:
 4566 03b2 74707269 		.ascii	"tprio_t\000"
 4566      6F5F7400 
 4567              	.LASF81:
 4568 03ba 715F7264 		.ascii	"q_rdptr\000"
 4568      70747200 
 4569              	.LASF117:
 4570 03c2 74687265 		.ascii	"threshold\000"
ARM GAS  /home/pauba/tmp/cca0qe6Z.s 			page 85


 4570      73686F6C 
 4570      6400
 4571              	.LASF21:
 4572 03cc 5F426F6F 		.ascii	"_Bool\000"
 4572      6C00
 4573              	.LASF17:
 4574 03d2 696E7433 		.ascii	"int32_t\000"
 4574      325F7400 
 4575              	.LASF4:
 4576 03da 756E7369 		.ascii	"unsigned char\000"
 4576      676E6564 
 4576      20636861 
 4576      7200
 4577              	.LASF65:
 4578 03e8 656C5F6C 		.ascii	"el_listener\000"
 4578      69737465 
 4578      6E657200 
 4579              	.LASF67:
 4580 03f4 656C5F66 		.ascii	"el_flags\000"
 4580      6C616773 
 4580      00
 4581              	.LASF40:
 4582 03fd 705F7374 		.ascii	"p_state\000"
 4582      61746500 
 4583              	.LASF49:
 4584 0405 705F6D74 		.ascii	"p_mtxlist\000"
 4584      786C6973 
 4584      7400
 4585              	.LASF107:
 4586 040f 65787463 		.ascii	"extcallback_t\000"
 4586      616C6C62 
 4586      61636B5F 
 4586      7400
 4587              	.LASF43:
 4588 041d 705F7072 		.ascii	"p_preempt\000"
 4588      65656D70 
 4588      7400
 4589              	.LASF73:
 4590 0427 65776D61 		.ascii	"ewmask\000"
 4590      736B00
 4591              	.LASF32:
 4592 042e 705F6E65 		.ascii	"p_next\000"
 4592      787400
 4593              	.LASF41:
 4594 0435 705F666C 		.ascii	"p_flags\000"
 4594      61677300 
 4595              	.LASF125:
 4596 043d 6C647374 		.ascii	"ldstate_t\000"
 4596      6174655F 
 4596      7400
 4597              	.LASF163:
 4598 0447 77614C45 		.ascii	"waLEDCommThread\000"
 4598      44436F6D 
 4598      6D546872 
 4598      65616400 
 4599              	.LASF172:
 4600 0457 2F686F6D 		.ascii	"/home/pauba/ChibiOS-RT/ext/LEDComm/ledcomm.c\000"
ARM GAS  /home/pauba/tmp/cca0qe6Z.s 			page 86


 4600      652F7061 
 4600      7562612F 
 4600      43686962 
 4600      694F532D 
 4601              	.LASF153:
 4602 0484 69734C69 		.ascii	"isLinkUp\000"
 4602      6E6B5570 
 4602      00
 4603              	.LASF114:
 4604 048d 63617468 		.ascii	"cathode_port\000"
 4604      6F64655F 
 4604      706F7274 
 4604      00
 4605              	.LASF31:
 4606 049a 54687265 		.ascii	"Thread\000"
 4606      616400
 4607              	.LASF93:
 4608 04a1 4C434B52 		.ascii	"LCKR\000"
 4608      00
 4609              	.LASF141:
 4610 04a6 72785F63 		.ascii	"rx_char\000"
 4610      68617200 
 4611              	.LASF48:
 4612 04ae 705F6570 		.ascii	"p_epending\000"
 4612      656E6469 
 4612      6E6700
 4613              	.LASF77:
 4614 04b9 715F636F 		.ascii	"q_counter\000"
 4614      756E7465 
 4614      7200
 4615              	.LASF54:
 4616 04c3 72656761 		.ascii	"regarm_t\000"
 4616      726D5F74 
 4616      00
 4617              	.LASF127:
 4618 04cc 4C454443 		.ascii	"LEDCommDriver\000"
 4618      6F6D6D44 
 4618      72697665 
 4618      7200
 4619              	.LASF140:
 4620 04da 74785F63 		.ascii	"tx_char\000"
 4620      68617200 
 4621              	.LASF171:
 4622 04e2 474E5520 		.ascii	"GNU C 4.8.3 20140228 (release) [ARM/embedded-4_8-br"
 4622      4320342E 
 4622      382E3320 
 4622      32303134 
 4622      30323238 
 4623 0515 616E6368 		.ascii	"anch revision 208322] -mcpu=cortex-m4 -mno-thumb-in"
 4623      20726576 
 4623      6973696F 
 4623      6E203230 
 4623      38333232 
 4624 0548 74657277 		.ascii	"terwork -mthumb -ggdb -fomit-frame-pointer -falign-"
 4624      6F726B20 
 4624      2D6D7468 
 4624      756D6220 
ARM GAS  /home/pauba/tmp/cca0qe6Z.s 			page 87


 4624      2D676764 
 4625 057b 66756E63 		.ascii	"functions=16 -ffunction-sections -fdata-sections -f"
 4625      74696F6E 
 4625      733D3136 
 4625      202D6666 
 4625      756E6374 
 4626 05ae 6E6F2D63 		.ascii	"no-common\000"
 4626      6F6D6D6F 
 4626      6E00
 4627              	.LASF11:
 4628 05b8 6C6F6E67 		.ascii	"long unsigned int\000"
 4628      20756E73 
 4628      69676E65 
 4628      6420696E 
 4628      7400
 4629              	.LASF100:
 4630 05ca 4558545F 		.ascii	"EXT_STOP\000"
 4630      53544F50 
 4630      00
 4631              	.LASF146:
 4632 05d3 72656164 		.ascii	"read\000"
 4632      00
 4633              	.LASF74:
 4634 05d8 63686172 		.ascii	"char\000"
 4634      00
 4635              	.LASF108:
 4636 05dd 6D6F6465 		.ascii	"mode\000"
 4636      00
 4637              	.LASF105:
 4638 05e2 636F6E66 		.ascii	"config\000"
 4638      696700
 4639              	.LASF121:
 4640 05e9 4C454443 		.ascii	"LEDCommConfig_t\000"
 4640      6F6D6D43 
 4640      6F6E6669 
 4640      675F7400 
 4641              	.LASF6:
 4642 05f9 5F5F7569 		.ascii	"__uint16_t\000"
 4642      6E743136 
 4642      5F7400
 4643              	.LASF170:
 4644 0604 4C434F4D 		.ascii	"LCOM2\000"
 4644      3200
 4645              	.LASF62:
 4646 060a 6D5F6E65 		.ascii	"m_next\000"
 4646      787400
 4647              	.LASF30:
 4648 0611 73797374 		.ascii	"systime_t\000"
 4648      696D655F 
 4648      7400
 4649              	.LASF50:
 4650 061b 705F7265 		.ascii	"p_realprio\000"
 4650      616C7072 
 4650      696F00
 4651              	.LASF8:
 4652 0626 5F5F696E 		.ascii	"__int32_t\000"
 4652      7433325F 
ARM GAS  /home/pauba/tmp/cca0qe6Z.s 			page 88


 4652      7400
 4653              	.LASF98:
 4654 0630 696F706F 		.ascii	"ioportid_t\000"
 4654      72746964 
 4654      5F7400
 4655              	.LASF56:
 4656 063b 696E7463 		.ascii	"intctx\000"
 4656      747800
 4657              	.LASF144:
 4658 0642 4C454443 		.ascii	"LEDCommDriverVMT\000"
 4658      6F6D6D44 
 4658      72697665 
 4658      72564D54 
 4658      00
 4659              	.LASF132:
 4660 0653 70617269 		.ascii	"parity_flag\000"
 4660      74795F66 
 4660      6C616700 
 4661              	.LASF126:
 4662 065f 4C454443 		.ascii	"LEDCommDriver_t\000"
 4662      6F6D6D44 
 4662      72697665 
 4662      725F7400 
 4663              	.LASF18:
 4664 066f 75696E74 		.ascii	"uint32_t\000"
 4664      33325F74 
 4664      00
 4665              	.LASF103:
 4666 0678 45585444 		.ascii	"EXTDriver\000"
 4666      72697665 
 4666      7200
 4667              	.LASF137:
 4668 0682 74786269 		.ascii	"txbit\000"
 4668      7400
 4669              	.LASF79:
 4670 0688 715F746F 		.ascii	"q_top\000"
 4670      7000
 4671              	.LASF38:
 4672 068e 705F6E61 		.ascii	"p_name\000"
 4672      6D6500
 4673              	.LASF69:
 4674 0695 65735F6E 		.ascii	"es_next\000"
 4674      65787400 
 4675              	.LASF158:
 4676 069d 6C644F62 		.ascii	"ldObjectInit\000"
 4676      6A656374 
 4676      496E6974 
 4676      00
 4677              	.LASF113:
 4678 06aa 616E6F64 		.ascii	"anode_pad\000"
 4678      655F7061 
 4678      6400
 4679              	.LASF82:
 4680 06b4 715F6E6F 		.ascii	"q_notify\000"
 4680      74696679 
 4680      00
 4681              	.LASF15:
ARM GAS  /home/pauba/tmp/cca0qe6Z.s 			page 89


 4682 06bd 75696E74 		.ascii	"uint8_t\000"
 4682      385F7400 
 4683              	.LASF85:
 4684 06c5 496E7075 		.ascii	"InputQueue\000"
 4684      74517565 
 4684      756500
 4685              	.LASF160:
 4686 06d0 6F6E6F74 		.ascii	"onotify\000"
 4686      69667900 
 4687              	.LASF63:
 4688 06d8 4576656E 		.ascii	"EventListener\000"
 4688      744C6973 
 4688      74656E65 
 4688      7200
 4689              	.LASF72:
 4690 06e6 77746F62 		.ascii	"wtobjp\000"
 4690      6A7000
 4691              	.LASF120:
 4692 06ed 70617269 		.ascii	"parity_type\000"
 4692      74795F74 
 4692      79706500 
 4693              	.LASF47:
 4694 06f9 705F6D73 		.ascii	"p_msg\000"
 4694      6700
 4695              	.LASF124:
 4696 06ff 4C445F52 		.ascii	"LD_READY\000"
 4696      45414459 
 4696      00
 4697              	.LASF83:
 4698 0708 715F6C69 		.ascii	"q_link\000"
 4698      6E6B00
 4699              	.LASF122:
 4700 070f 4C445F55 		.ascii	"LD_UNINIT\000"
 4700      4E494E49 
 4700      5400
 4701              	.LASF169:
 4702 0719 45585444 		.ascii	"EXTD1\000"
 4702      3100
 4703              	.LASF61:
 4704 071f 6D5F6F77 		.ascii	"m_owner\000"
 4704      6E657200 
 4705              	.LASF136:
 4706 0727 72787264 		.ascii	"rxrdy\000"
 4706      7900
 4707              	.LASF115:
 4708 072d 63617468 		.ascii	"cathode_pad\000"
 4708      6F64655F 
 4708      70616400 
 4709              	.LASF35:
 4710 0739 705F6374 		.ascii	"p_ctx\000"
 4710      7800
 4711              	.LASF45:
 4712 073f 705F7761 		.ascii	"p_waiting\000"
 4712      6974696E 
 4712      6700
 4713              	.LASF138:
 4714 0749 74785F62 		.ascii	"tx_bits\000"
ARM GAS  /home/pauba/tmp/cca0qe6Z.s 			page 90


 4714      69747300 
 4715              		.ident	"GCC: (GNU Tools for ARM Embedded Processors) 4.8.3 20140228 (release) [ARM/embedded-4_8-br
ARM GAS  /home/pauba/tmp/cca0qe6Z.s 			page 91


DEFINED SYMBOLS
                            *ABS*:00000000 ledcomm.c
/home/pauba/tmp/cca0qe6Z.s:23     .bss.LCOM2:00000000 LCOM2
/home/pauba/tmp/cca0qe6Z.s:20     .bss.LCOM2:00000000 $d
/home/pauba/tmp/cca0qe6Z.s:26     .text.write:00000000 $t
/home/pauba/tmp/cca0qe6Z.s:31     .text.write:00000000 write
/home/pauba/tmp/cca0qe6Z.s:64     .text.read:00000000 $t
/home/pauba/tmp/cca0qe6Z.s:69     .text.read:00000000 read
/home/pauba/tmp/cca0qe6Z.s:101    .text.put:00000000 $t
/home/pauba/tmp/cca0qe6Z.s:106    .text.put:00000000 put
/home/pauba/tmp/cca0qe6Z.s:138    .text.get:00000000 $t
/home/pauba/tmp/cca0qe6Z.s:143    .text.get:00000000 get
/home/pauba/tmp/cca0qe6Z.s:171    .text.putt:00000000 $t
/home/pauba/tmp/cca0qe6Z.s:176    .text.putt:00000000 putt
/home/pauba/tmp/cca0qe6Z.s:209    .text.gett:00000000 $t
/home/pauba/tmp/cca0qe6Z.s:214    .text.gett:00000000 gett
/home/pauba/tmp/cca0qe6Z.s:243    .text.writet:00000000 $t
/home/pauba/tmp/cca0qe6Z.s:248    .text.writet:00000000 writet
/home/pauba/tmp/cca0qe6Z.s:281    .text.readt:00000000 $t
/home/pauba/tmp/cca0qe6Z.s:286    .text.readt:00000000 readt
/home/pauba/tmp/cca0qe6Z.s:319    .rodata.vmt:00000000 $d
/home/pauba/tmp/cca0qe6Z.s:322    .rodata.vmt:00000000 vmt
/home/pauba/tmp/cca0qe6Z.s:332    .text.isLinkUp:00000000 $t
/home/pauba/tmp/cca0qe6Z.s:338    .text.isLinkUp:00000000 isLinkUp
/home/pauba/tmp/cca0qe6Z.s:363    .text.isLinkDown:00000000 $t
/home/pauba/tmp/cca0qe6Z.s:369    .text.isLinkDown:00000000 isLinkDown
/home/pauba/tmp/cca0qe6Z.s:403    .text.linkUp:00000000 $t
/home/pauba/tmp/cca0qe6Z.s:409    .text.linkUp:00000000 linkUp
/home/pauba/tmp/cca0qe6Z.s:479    .text.linkDown:00000000 $t
/home/pauba/tmp/cca0qe6Z.s:485    .text.linkDown:00000000 linkDown
/home/pauba/tmp/cca0qe6Z.s:534    .data.default_config:00000000 $d
/home/pauba/tmp/cca0qe6Z.s:537    .data.default_config:00000000 default_config
/home/pauba/tmp/cca0qe6Z.s:547    .text.ledCommSerialHandler:00000000 $t
/home/pauba/tmp/cca0qe6Z.s:553    .text.ledCommSerialHandler:00000000 ledCommSerialHandler
/home/pauba/tmp/cca0qe6Z.s:1442   .text.ldRequestDataI:00000000 ldRequestDataI
/home/pauba/tmp/cca0qe6Z.s:901    .text.ledCommSerialHandler:000002a0 $d
/home/pauba/tmp/cca0qe6Z.s:906    .text.ldInit:00000000 $t
/home/pauba/tmp/cca0qe6Z.s:912    .text.ldInit:00000000 ldInit
/home/pauba/tmp/cca0qe6Z.s:943    .text.ldObjectInit:00000000 ldObjectInit
/home/pauba/tmp/cca0qe6Z.s:932    .text.ldInit:00000010 $d
/home/pauba/tmp/cca0qe6Z.s:937    .text.ldObjectInit:00000000 $t
/home/pauba/tmp/cca0qe6Z.s:1001   .text.ldObjectInit:00000058 $d
/home/pauba/tmp/cca0qe6Z.s:1006   .rodata:00000000 $d
/home/pauba/tmp/cca0qe6Z.s:1013   .text.ldStart:00000000 $t
/home/pauba/tmp/cca0qe6Z.s:1019   .text.ldStart:00000000 ldStart
/home/pauba/tmp/cca0qe6Z.s:1249   .text.ldStart:0000019c $d
/home/pauba/tmp/cca0qe6Z.s:1267   .text.ldStop:00000000 $t
/home/pauba/tmp/cca0qe6Z.s:1273   .text.ldStop:00000000 ldStop
/home/pauba/tmp/cca0qe6Z.s:1350   .text.ldStop:00000068 $d
/home/pauba/tmp/cca0qe6Z.s:1361   .text.ldIncomingDataI:00000000 $t
/home/pauba/tmp/cca0qe6Z.s:1367   .text.ldIncomingDataI:00000000 ldIncomingDataI
/home/pauba/tmp/cca0qe6Z.s:1427   .text.ldIncomingDataI:0000005c $d
/home/pauba/tmp/cca0qe6Z.s:1436   .text.ldRequestDataI:00000000 $t
/home/pauba/tmp/cca0qe6Z.s:1491   .text.ldRequestDataI:00000040 $d
                     .debug_frame:00000010 $d
/home/pauba/tmp/cca0qe6Z.s:905    .text.ledCommSerialHandler:000002a4 $t
/home/pauba/tmp/cca0qe6Z.s:936    .text.ldInit:00000014 $t
ARM GAS  /home/pauba/tmp/cca0qe6Z.s 			page 92


/home/pauba/tmp/cca0qe6Z.s:1005   .text.ldObjectInit:0000005c $t
/home/pauba/tmp/cca0qe6Z.s:1259   .text.ldStart:000001b8 $t
/home/pauba/tmp/cca0qe6Z.s:1356   .text.ldStop:00000074 $t
/home/pauba/tmp/cca0qe6Z.s:1495   .text.ldRequestDataI:00000044 $t

UNDEFINED SYMBOLS
chOQWriteTimeout
chIQReadTimeout
chOQPutTimeout
chIQGetTimeout
ledCommPollLinkStatus
dbg_check_lock
chIQResetI
chOQResetI
chEvtBroadcastFlagsI
dbg_check_unlock
ext_lld_channel_disable
_pal_lld_setgroupmode
ledCommOn
ledCommOff
ledCommPrepare
ledCommDetect
EXTD1
chIQInit
chOQInit
chDbgPanic
ledCommInitPad
chThdCreateStatic
extcfg
extcb1
waLEDCommThread
LEDCommThread
chSchRescheduleS
extStop
chDbgCheckClassI
chIQPutI
chOQGetI
