ARM GAS  /home/pauba/tmp/cca1lkQP.s 			page 1


   1              		.syntax unified
   2              		.cpu cortex-m4
   3              		.fpu softvfp
   4              		.eabi_attribute 20, 1
   5              		.eabi_attribute 21, 1
   6              		.eabi_attribute 23, 3
   7              		.eabi_attribute 24, 1
   8              		.eabi_attribute 25, 1
   9              		.eabi_attribute 26, 1
  10              		.eabi_attribute 30, 6
  11              		.eabi_attribute 34, 1
  12              		.eabi_attribute 18, 4
  13              		.thumb
  14              		.file	"ledcomm-uart.c"
  15              		.text
  16              	.Ltext0:
  17              		.cfi_sections	.debug_frame
  18              		.section	.text.luartInit,"ax",%progbits
  19              		.align	2
  20              		.p2align 4,,15
  21              		.global	luartInit
  22              		.thumb
  23              		.thumb_func
  24              		.type	luartInit, %function
  25              	luartInit:
  26              	.LFB68:
  27              		.file 1 "/home/pauba/ChibiOS-RT/ext/LEDComm/ledcomm-uart.c"
  28              		.loc 1 115 0
  29              		.cfi_startproc
  30              		@ args = 0, pretend = 0, frame = 0
  31              		@ frame_needed = 0, uses_anonymous_args = 0
  32              		@ link register save eliminated.
  33              		.loc 1 116 0
  34 0000 7047     		bx	lr
  35              		.cfi_endproc
  36              	.LFE68:
  37              		.size	luartInit, .-luartInit
  38 0002 00BFAFF3 		.section	.text.luartObjectInit,"ax",%progbits
  38      0080AFF3 
  38      0080AFF3 
  38      0080
  39              		.align	2
  40              		.p2align 4,,15
  41              		.global	luartObjectInit
  42              		.thumb
  43              		.thumb_func
  44              		.type	luartObjectInit, %function
  45              	luartObjectInit:
  46              	.LFB69:
  47              		.loc 1 125 0
  48              		.cfi_startproc
  49              		@ args = 0, pretend = 0, frame = 8
  50              		@ frame_needed = 0, uses_anonymous_args = 0
  51              		@ link register save eliminated.
  52 0000 82B0     		sub	sp, sp, #8
  53              		.cfi_def_cfa_offset 8
  54 0002 0190     		str	r0, [sp, #4]
ARM GAS  /home/pauba/tmp/cca1lkQP.s 			page 2


  55              		.loc 1 127 0
  56 0004 019B     		ldr	r3, [sp, #4]
  57 0006 0122     		movs	r2, #1
  58 0008 1A70     		strb	r2, [r3]
  59              		.loc 1 128 0
  60 000a 019B     		ldr	r3, [sp, #4]
  61 000c 0022     		movs	r2, #0
  62 000e 5A70     		strb	r2, [r3, #1]
  63              		.loc 1 129 0
  64 0010 019B     		ldr	r3, [sp, #4]
  65 0012 0022     		movs	r2, #0
  66 0014 9A70     		strb	r2, [r3, #2]
  67              		.loc 1 130 0
  68 0016 019B     		ldr	r3, [sp, #4]
  69 0018 0022     		movs	r2, #0
  70 001a 5A60     		str	r2, [r3, #4]
  71              		.loc 1 135 0
  72 001c 02B0     		add	sp, sp, #8
  73              		@ sp needed
  74 001e 7047     		bx	lr
  75              		.cfi_endproc
  76              	.LFE69:
  77              		.size	luartObjectInit, .-luartObjectInit
  78              		.section	.rodata
  79              		.align	2
  80              	.LC0:
  81 0000 226C7561 		.ascii	"\"luartStart\"()\000"
  81      72745374 
  81      61727422 
  81      282900
  82 000f 00       		.align	2
  83              	.LC1:
  84 0010 6C756172 		.ascii	"luartStart(), #1\000"
  84      74537461 
  84      72742829 
  84      2C202331 
  84      00
  85              		.section	.text.luartStart,"ax",%progbits
  86              		.align	2
  87              		.p2align 4,,15
  88              		.global	luartStart
  89              		.thumb
  90              		.thumb_func
  91              		.type	luartStart, %function
  92              	luartStart:
  93              	.LFB70:
  94              		.loc 1 145 0
  95              		.cfi_startproc
  96              		@ args = 0, pretend = 0, frame = 8
  97              		@ frame_needed = 0, uses_anonymous_args = 0
  98 0000 00B5     		push	{lr}
  99              		.cfi_def_cfa_offset 4
 100              		.cfi_offset 14, -4
 101 0002 83B0     		sub	sp, sp, #12
 102              		.cfi_def_cfa_offset 16
 103 0004 0190     		str	r0, [sp, #4]
 104 0006 0091     		str	r1, [sp]
ARM GAS  /home/pauba/tmp/cca1lkQP.s 			page 3


 105              		.loc 1 147 0
 106 0008 019B     		ldr	r3, [sp, #4]
 107 000a 002B     		cmp	r3, #0
 108 000c 02D0     		beq	.L4
 109              		.loc 1 147 0 is_stmt 0 discriminator 2
 110 000e 009B     		ldr	r3, [sp]
 111 0010 002B     		cmp	r3, #0
 112 0012 02D1     		bne	.L5
 113              	.L4:
 114              		.loc 1 147 0 discriminator 1
 115 0014 1048     		ldr	r0, .L7
 116 0016 FFF7FEFF 		bl	chDbgPanic
 117              	.L5:
 118              	.LBB2:
 119              		.loc 1 149 0 is_stmt 1
 120 001a 2023     		movs	r3, #32
 121              	@ 149 "/home/pauba/ChibiOS-RT/ext/LEDComm/ledcomm-uart.c" 1
 122 001c 83F31188 		msr     BASEPRI, r3
 123              	@ 0 "" 2
 124              		.thumb
 125              	.LBE2:
 126 0020 FFF7FEFF 		bl	dbg_check_lock
 127              		.loc 1 150 0
 128 0024 019B     		ldr	r3, [sp, #4]
 129 0026 1B78     		ldrb	r3, [r3]	@ zero_extendqisi2
 130 0028 012B     		cmp	r3, #1
 131 002a 06D0     		beq	.L6
 132              		.loc 1 150 0 is_stmt 0 discriminator 1
 133 002c 019B     		ldr	r3, [sp, #4]
 134 002e 1B78     		ldrb	r3, [r3]	@ zero_extendqisi2
 135 0030 022B     		cmp	r3, #2
 136 0032 02D0     		beq	.L6
 137 0034 0948     		ldr	r0, .L7+4
 138 0036 FFF7FEFF 		bl	chDbgPanic
 139              	.L6:
 140              		.loc 1 153 0 is_stmt 1
 141 003a 019B     		ldr	r3, [sp, #4]
 142 003c 009A     		ldr	r2, [sp]
 143 003e 5A60     		str	r2, [r3, #4]
 144              		.loc 1 155 0
 145 0040 019B     		ldr	r3, [sp, #4]
 146 0042 0222     		movs	r2, #2
 147 0044 1A70     		strb	r2, [r3]
 148              		.loc 1 156 0
 149 0046 FFF7FEFF 		bl	dbg_check_unlock
 150              	.LBB3:
 151 004a 0023     		movs	r3, #0
 152              	@ 156 "/home/pauba/ChibiOS-RT/ext/LEDComm/ledcomm-uart.c" 1
 153 004c 83F31188 		msr     BASEPRI, r3
 154              	@ 0 "" 2
 155              		.thumb
 156              	.LBE3:
 157              		.loc 1 157 0
 158 0050 03B0     		add	sp, sp, #12
 159              		@ sp needed
 160 0052 5DF804FB 		ldr	pc, [sp], #4
 161              	.L8:
ARM GAS  /home/pauba/tmp/cca1lkQP.s 			page 4


 162 0056 00BF     		.align	2
 163              	.L7:
 164 0058 00000000 		.word	.LC0
 165 005c 10000000 		.word	.LC1
 166              		.cfi_endproc
 167              	.LFE70:
 168              		.size	luartStart, .-luartStart
 169              		.section	.rodata
 170 0021 000000   		.align	2
 171              	.LC2:
 172 0024 226C7561 		.ascii	"\"luartStop\"()\000"
 172      72745374 
 172      6F702228 
 172      2900
 173 0032 0000     		.align	2
 174              	.LC3:
 175 0034 6C756172 		.ascii	"luartStop(), #1\000"
 175      7453746F 
 175      7028292C 
 175      20233100 
 176              		.section	.text.luartStop,"ax",%progbits
 177              		.align	2
 178              		.p2align 4,,15
 179              		.global	luartStop
 180              		.thumb
 181              		.thumb_func
 182              		.type	luartStop, %function
 183              	luartStop:
 184              	.LFB71:
 185              		.loc 1 166 0
 186              		.cfi_startproc
 187              		@ args = 0, pretend = 0, frame = 8
 188              		@ frame_needed = 0, uses_anonymous_args = 0
 189 0000 00B5     		push	{lr}
 190              		.cfi_def_cfa_offset 4
 191              		.cfi_offset 14, -4
 192 0002 83B0     		sub	sp, sp, #12
 193              		.cfi_def_cfa_offset 16
 194 0004 0190     		str	r0, [sp, #4]
 195              		.loc 1 168 0
 196 0006 019B     		ldr	r3, [sp, #4]
 197 0008 002B     		cmp	r3, #0
 198 000a 02D1     		bne	.L10
 199              		.loc 1 168 0 is_stmt 0 discriminator 1
 200 000c 1148     		ldr	r0, .L12
 201 000e FFF7FEFF 		bl	chDbgPanic
 202              	.L10:
 203              	.LBB4:
 204              		.loc 1 170 0 is_stmt 1
 205 0012 2023     		movs	r3, #32
 206              	@ 170 "/home/pauba/ChibiOS-RT/ext/LEDComm/ledcomm-uart.c" 1
 207 0014 83F31188 		msr     BASEPRI, r3
 208              	@ 0 "" 2
 209              		.thumb
 210              	.LBE4:
 211 0018 FFF7FEFF 		bl	dbg_check_lock
 212              		.loc 1 171 0
ARM GAS  /home/pauba/tmp/cca1lkQP.s 			page 5


 213 001c 019B     		ldr	r3, [sp, #4]
 214 001e 1B78     		ldrb	r3, [r3]	@ zero_extendqisi2
 215 0020 012B     		cmp	r3, #1
 216 0022 06D0     		beq	.L11
 217              		.loc 1 171 0 is_stmt 0 discriminator 1
 218 0024 019B     		ldr	r3, [sp, #4]
 219 0026 1B78     		ldrb	r3, [r3]	@ zero_extendqisi2
 220 0028 022B     		cmp	r3, #2
 221 002a 02D0     		beq	.L11
 222 002c 0A48     		ldr	r0, .L12+4
 223 002e FFF7FEFF 		bl	chDbgPanic
 224              	.L11:
 225              		.loc 1 175 0 is_stmt 1
 226 0032 019B     		ldr	r3, [sp, #4]
 227 0034 0122     		movs	r2, #1
 228 0036 1A70     		strb	r2, [r3]
 229              		.loc 1 176 0
 230 0038 019B     		ldr	r3, [sp, #4]
 231 003a 0022     		movs	r2, #0
 232 003c 5A70     		strb	r2, [r3, #1]
 233              		.loc 1 177 0
 234 003e 019B     		ldr	r3, [sp, #4]
 235 0040 0022     		movs	r2, #0
 236 0042 9A70     		strb	r2, [r3, #2]
 237              		.loc 1 178 0
 238 0044 FFF7FEFF 		bl	dbg_check_unlock
 239              	.LBB5:
 240 0048 0023     		movs	r3, #0
 241              	@ 178 "/home/pauba/ChibiOS-RT/ext/LEDComm/ledcomm-uart.c" 1
 242 004a 83F31188 		msr     BASEPRI, r3
 243              	@ 0 "" 2
 244              		.thumb
 245              	.LBE5:
 246              		.loc 1 179 0
 247 004e 03B0     		add	sp, sp, #12
 248              		@ sp needed
 249 0050 5DF804FB 		ldr	pc, [sp], #4
 250              	.L13:
 251              		.align	2
 252              	.L12:
 253 0054 24000000 		.word	.LC2
 254 0058 34000000 		.word	.LC3
 255              		.cfi_endproc
 256              	.LFE71:
 257              		.size	luartStop, .-luartStop
 258 005c AFF30080 		.section	.rodata
 259              		.align	2
 260              	.LC4:
 261 0044 226C7561 		.ascii	"\"luartStartSend\"()\000"
 261      72745374 
 261      61727453 
 261      656E6422 
 261      282900
 262 0057 00       		.align	2
 263              	.LC5:
 264 0058 6C756172 		.ascii	"luartStartSend(), #1\000"
 264      74537461 
ARM GAS  /home/pauba/tmp/cca1lkQP.s 			page 6


 264      72745365 
 264      6E642829 
 264      2C202331 
 265 006d 000000   		.align	2
 266              	.LC6:
 267 0070 6C756172 		.ascii	"luartStartSend(), #2\000"
 267      74537461 
 267      72745365 
 267      6E642829 
 267      2C202332 
 268              		.section	.text.luartStartSend,"ax",%progbits
 269              		.align	2
 270              		.p2align 4,,15
 271              		.global	luartStartSend
 272              		.thumb
 273              		.thumb_func
 274              		.type	luartStartSend, %function
 275              	luartStartSend:
 276              	.LFB72:
 277              		.loc 1 192 0
 278              		.cfi_startproc
 279              		@ args = 0, pretend = 0, frame = 16
 280              		@ frame_needed = 0, uses_anonymous_args = 0
 281 0000 00B5     		push	{lr}
 282              		.cfi_def_cfa_offset 4
 283              		.cfi_offset 14, -4
 284 0002 85B0     		sub	sp, sp, #20
 285              		.cfi_def_cfa_offset 24
 286 0004 0390     		str	r0, [sp, #12]
 287 0006 0291     		str	r1, [sp, #8]
 288 0008 0192     		str	r2, [sp, #4]
 289              		.loc 1 194 0
 290 000a 039B     		ldr	r3, [sp, #12]
 291 000c 002B     		cmp	r3, #0
 292 000e 05D0     		beq	.L15
 293              		.loc 1 194 0 is_stmt 0 discriminator 2
 294 0010 029B     		ldr	r3, [sp, #8]
 295 0012 002B     		cmp	r3, #0
 296 0014 02D0     		beq	.L15
 297              		.loc 1 194 0 discriminator 1
 298 0016 019B     		ldr	r3, [sp, #4]
 299 0018 002B     		cmp	r3, #0
 300 001a 02D1     		bne	.L16
 301              	.L15:
 302 001c 1048     		ldr	r0, .L19
 303 001e FFF7FEFF 		bl	chDbgPanic
 304              	.L16:
 305              	.LBB6:
 306              		.loc 1 197 0 is_stmt 1
 307 0022 2023     		movs	r3, #32
 308              	@ 197 "/home/pauba/ChibiOS-RT/ext/LEDComm/ledcomm-uart.c" 1
 309 0024 83F31188 		msr     BASEPRI, r3
 310              	@ 0 "" 2
 311              		.thumb
 312              	.LBE6:
 313 0028 FFF7FEFF 		bl	dbg_check_lock
 314              		.loc 1 198 0
ARM GAS  /home/pauba/tmp/cca1lkQP.s 			page 7


 315 002c 039B     		ldr	r3, [sp, #12]
 316 002e 1B78     		ldrb	r3, [r3]	@ zero_extendqisi2
 317 0030 022B     		cmp	r3, #2
 318 0032 02D0     		beq	.L17
 319              		.loc 1 198 0 is_stmt 0 discriminator 1
 320 0034 0B48     		ldr	r0, .L19+4
 321 0036 FFF7FEFF 		bl	chDbgPanic
 322              	.L17:
 323              		.loc 1 200 0 is_stmt 1
 324 003a 039B     		ldr	r3, [sp, #12]
 325 003c 5B78     		ldrb	r3, [r3, #1]	@ zero_extendqisi2
 326 003e 012B     		cmp	r3, #1
 327 0040 02D1     		bne	.L18
 328              		.loc 1 200 0 is_stmt 0 discriminator 1
 329 0042 0948     		ldr	r0, .L19+8
 330 0044 FFF7FEFF 		bl	chDbgPanic
 331              	.L18:
 332              		.loc 1 204 0 is_stmt 1
 333 0048 039B     		ldr	r3, [sp, #12]
 334 004a 0122     		movs	r2, #1
 335 004c 5A70     		strb	r2, [r3, #1]
 336              		.loc 1 205 0
 337 004e FFF7FEFF 		bl	dbg_check_unlock
 338              	.LBB7:
 339 0052 0023     		movs	r3, #0
 340              	@ 205 "/home/pauba/ChibiOS-RT/ext/LEDComm/ledcomm-uart.c" 1
 341 0054 83F31188 		msr     BASEPRI, r3
 342              	@ 0 "" 2
 343              		.thumb
 344              	.LBE7:
 345              		.loc 1 206 0
 346 0058 05B0     		add	sp, sp, #20
 347              		@ sp needed
 348 005a 5DF804FB 		ldr	pc, [sp], #4
 349              	.L20:
 350 005e 00BF     		.align	2
 351              	.L19:
 352 0060 44000000 		.word	.LC4
 353 0064 58000000 		.word	.LC5
 354 0068 70000000 		.word	.LC6
 355              		.cfi_endproc
 356              	.LFE72:
 357              		.size	luartStartSend, .-luartStartSend
 358 006c AFF30080 		.section	.rodata
 359 0085 000000   		.align	2
 360              	.LC7:
 361 0088 226C7561 		.ascii	"\"luartStartSendI\"()\000"
 361      72745374 
 361      61727453 
 361      656E6449 
 361      22282900 
 362              		.align	2
 363              	.LC8:
 364 009c 6C756172 		.ascii	"luartStartSendI(), #1\000"
 364      74537461 
 364      72745365 
 364      6E644928 
ARM GAS  /home/pauba/tmp/cca1lkQP.s 			page 8


 364      292C2023 
 365 00b2 0000     		.align	2
 366              	.LC9:
 367 00b4 6C756172 		.ascii	"luartStartSendI(), #2\000"
 367      74537461 
 367      72745365 
 367      6E644928 
 367      292C2023 
 368              		.section	.text.luartStartSendI,"ax",%progbits
 369              		.align	2
 370              		.p2align 4,,15
 371              		.global	luartStartSendI
 372              		.thumb
 373              		.thumb_func
 374              		.type	luartStartSendI, %function
 375              	luartStartSendI:
 376              	.LFB73:
 377              		.loc 1 220 0
 378              		.cfi_startproc
 379              		@ args = 0, pretend = 0, frame = 16
 380              		@ frame_needed = 0, uses_anonymous_args = 0
 381 0000 00B5     		push	{lr}
 382              		.cfi_def_cfa_offset 4
 383              		.cfi_offset 14, -4
 384 0002 85B0     		sub	sp, sp, #20
 385              		.cfi_def_cfa_offset 24
 386 0004 0390     		str	r0, [sp, #12]
 387 0006 0291     		str	r1, [sp, #8]
 388 0008 0192     		str	r2, [sp, #4]
 389              		.loc 1 222 0
 390 000a FFF7FEFF 		bl	chDbgCheckClassI
 391              		.loc 1 223 0
 392 000e 039B     		ldr	r3, [sp, #12]
 393 0010 002B     		cmp	r3, #0
 394 0012 05D0     		beq	.L22
 395              		.loc 1 223 0 is_stmt 0 discriminator 2
 396 0014 029B     		ldr	r3, [sp, #8]
 397 0016 002B     		cmp	r3, #0
 398 0018 02D0     		beq	.L22
 399              		.loc 1 223 0 discriminator 1
 400 001a 019B     		ldr	r3, [sp, #4]
 401 001c 002B     		cmp	r3, #0
 402 001e 02D1     		bne	.L23
 403              	.L22:
 404 0020 0B48     		ldr	r0, .L26
 405 0022 FFF7FEFF 		bl	chDbgPanic
 406              	.L23:
 407              		.loc 1 225 0 is_stmt 1
 408 0026 039B     		ldr	r3, [sp, #12]
 409 0028 1B78     		ldrb	r3, [r3]	@ zero_extendqisi2
 410 002a 022B     		cmp	r3, #2
 411 002c 02D0     		beq	.L24
 412              		.loc 1 225 0 is_stmt 0 discriminator 1
 413 002e 0948     		ldr	r0, .L26+4
 414 0030 FFF7FEFF 		bl	chDbgPanic
 415              	.L24:
 416              		.loc 1 227 0 is_stmt 1
ARM GAS  /home/pauba/tmp/cca1lkQP.s 			page 9


 417 0034 039B     		ldr	r3, [sp, #12]
 418 0036 5B78     		ldrb	r3, [r3, #1]	@ zero_extendqisi2
 419 0038 012B     		cmp	r3, #1
 420 003a 02D1     		bne	.L25
 421              		.loc 1 227 0 is_stmt 0 discriminator 1
 422 003c 0648     		ldr	r0, .L26+8
 423 003e FFF7FEFF 		bl	chDbgPanic
 424              	.L25:
 425              		.loc 1 231 0 is_stmt 1
 426 0042 039B     		ldr	r3, [sp, #12]
 427 0044 0122     		movs	r2, #1
 428 0046 5A70     		strb	r2, [r3, #1]
 429              		.loc 1 232 0
 430 0048 05B0     		add	sp, sp, #20
 431              		@ sp needed
 432 004a 5DF804FB 		ldr	pc, [sp], #4
 433              	.L27:
 434 004e 00BF     		.align	2
 435              	.L26:
 436 0050 88000000 		.word	.LC7
 437 0054 9C000000 		.word	.LC8
 438 0058 B4000000 		.word	.LC9
 439              		.cfi_endproc
 440              	.LFE73:
 441              		.size	luartStartSendI, .-luartStartSendI
 442 005c AFF30080 		.section	.rodata
 443 00ca 0000     		.align	2
 444              	.LC10:
 445 00cc 226C7561 		.ascii	"\"luartStopSend\"()\000"
 445      72745374 
 445      6F705365 
 445      6E642228 
 445      2900
 446 00de 0000     		.align	2
 447              	.LC11:
 448 00e0 6C756172 		.ascii	"luartStopSend(), #1\000"
 448      7453746F 
 448      7053656E 
 448      6428292C 
 448      20233100 
 449              		.section	.text.luartStopSend,"ax",%progbits
 450              		.align	2
 451              		.p2align 4,,15
 452              		.global	luartStopSend
 453              		.thumb
 454              		.thumb_func
 455              		.type	luartStopSend, %function
 456              	luartStopSend:
 457              	.LFB74:
 458              		.loc 1 246 0
 459              		.cfi_startproc
 460              		@ args = 0, pretend = 0, frame = 16
 461              		@ frame_needed = 0, uses_anonymous_args = 0
 462 0000 00B5     		push	{lr}
 463              		.cfi_def_cfa_offset 4
 464              		.cfi_offset 14, -4
 465 0002 85B0     		sub	sp, sp, #20
ARM GAS  /home/pauba/tmp/cca1lkQP.s 			page 10


 466              		.cfi_def_cfa_offset 24
 467 0004 0190     		str	r0, [sp, #4]
 468              		.loc 1 249 0
 469 0006 019B     		ldr	r3, [sp, #4]
 470 0008 002B     		cmp	r3, #0
 471 000a 02D1     		bne	.L29
 472              		.loc 1 249 0 is_stmt 0 discriminator 1
 473 000c 1148     		ldr	r0, .L34
 474 000e FFF7FEFF 		bl	chDbgPanic
 475              	.L29:
 476              	.LBB8:
 477              		.loc 1 251 0 is_stmt 1
 478 0012 2023     		movs	r3, #32
 479              	@ 251 "/home/pauba/ChibiOS-RT/ext/LEDComm/ledcomm-uart.c" 1
 480 0014 83F31188 		msr     BASEPRI, r3
 481              	@ 0 "" 2
 482              		.thumb
 483              	.LBE8:
 484 0018 FFF7FEFF 		bl	dbg_check_lock
 485              		.loc 1 252 0
 486 001c 019B     		ldr	r3, [sp, #4]
 487 001e 1B78     		ldrb	r3, [r3]	@ zero_extendqisi2
 488 0020 022B     		cmp	r3, #2
 489 0022 02D0     		beq	.L30
 490              		.loc 1 252 0 is_stmt 0 discriminator 1
 491 0024 0C48     		ldr	r0, .L34+4
 492 0026 FFF7FEFF 		bl	chDbgPanic
 493              	.L30:
 494              		.loc 1 254 0 is_stmt 1
 495 002a 019B     		ldr	r3, [sp, #4]
 496 002c 5B78     		ldrb	r3, [r3, #1]	@ zero_extendqisi2
 497 002e 012B     		cmp	r3, #1
 498 0030 03D1     		bne	.L31
 499              		.loc 1 256 0
 500 0032 019B     		ldr	r3, [sp, #4]
 501 0034 0022     		movs	r2, #0
 502 0036 5A70     		strb	r2, [r3, #1]
 503 0038 01E0     		b	.L32
 504              	.L31:
 505              		.loc 1 258 0
 506 003a 0023     		movs	r3, #0
 507 003c 0393     		str	r3, [sp, #12]
 508              	.L32:
 509              		.loc 1 260 0
 510 003e FFF7FEFF 		bl	dbg_check_unlock
 511              	.LBB9:
 512 0042 0023     		movs	r3, #0
 513              	@ 260 "/home/pauba/ChibiOS-RT/ext/LEDComm/ledcomm-uart.c" 1
 514 0044 83F31188 		msr     BASEPRI, r3
 515              	@ 0 "" 2
 516              		.thumb
 517              	.LBE9:
 518              		.loc 1 261 0
 519 0048 039B     		ldr	r3, [sp, #12]
 520              		.loc 1 262 0
 521 004a 1846     		mov	r0, r3
 522 004c 05B0     		add	sp, sp, #20
ARM GAS  /home/pauba/tmp/cca1lkQP.s 			page 11


 523              		@ sp needed
 524 004e 5DF804FB 		ldr	pc, [sp], #4
 525              	.L35:
 526 0052 00BF     		.align	2
 527              	.L34:
 528 0054 CC000000 		.word	.LC10
 529 0058 E0000000 		.word	.LC11
 530              		.cfi_endproc
 531              	.LFE74:
 532              		.size	luartStopSend, .-luartStopSend
 533 005c AFF30080 		.section	.rodata
 534              		.align	2
 535              	.LC12:
 536 00f4 226C7561 		.ascii	"\"luartStopSendI\"()\000"
 536      72745374 
 536      6F705365 
 536      6E644922 
 536      282900
 537 0107 00       		.align	2
 538              	.LC13:
 539 0108 6C756172 		.ascii	"luartStopSendI(), #1\000"
 539      7453746F 
 539      7053656E 
 539      64492829 
 539      2C202331 
 540              		.section	.text.luartStopSendI,"ax",%progbits
 541              		.align	2
 542              		.p2align 4,,15
 543              		.global	luartStopSendI
 544              		.thumb
 545              		.thumb_func
 546              		.type	luartStopSendI, %function
 547              	luartStopSendI:
 548              	.LFB75:
 549              		.loc 1 277 0
 550              		.cfi_startproc
 551              		@ args = 0, pretend = 0, frame = 16
 552              		@ frame_needed = 0, uses_anonymous_args = 0
 553 0000 00B5     		push	{lr}
 554              		.cfi_def_cfa_offset 4
 555              		.cfi_offset 14, -4
 556 0002 85B0     		sub	sp, sp, #20
 557              		.cfi_def_cfa_offset 24
 558 0004 0190     		str	r0, [sp, #4]
 559              		.loc 1 279 0
 560 0006 FFF7FEFF 		bl	chDbgCheckClassI
 561              		.loc 1 280 0
 562 000a 019B     		ldr	r3, [sp, #4]
 563 000c 002B     		cmp	r3, #0
 564 000e 02D1     		bne	.L37
 565              		.loc 1 280 0 is_stmt 0 discriminator 1
 566 0010 0C48     		ldr	r0, .L41
 567 0012 FFF7FEFF 		bl	chDbgPanic
 568              	.L37:
 569              		.loc 1 281 0 is_stmt 1
 570 0016 019B     		ldr	r3, [sp, #4]
 571 0018 1B78     		ldrb	r3, [r3]	@ zero_extendqisi2
ARM GAS  /home/pauba/tmp/cca1lkQP.s 			page 12


 572 001a 022B     		cmp	r3, #2
 573 001c 02D0     		beq	.L38
 574              		.loc 1 281 0 is_stmt 0 discriminator 1
 575 001e 0A48     		ldr	r0, .L41+4
 576 0020 FFF7FEFF 		bl	chDbgPanic
 577              	.L38:
 578              		.loc 1 283 0 is_stmt 1
 579 0024 019B     		ldr	r3, [sp, #4]
 580 0026 5B78     		ldrb	r3, [r3, #1]	@ zero_extendqisi2
 581 0028 012B     		cmp	r3, #1
 582 002a 06D1     		bne	.L39
 583              	.LBB10:
 584              		.loc 1 284 0
 585 002c 0023     		movs	r3, #0
 586 002e 0393     		str	r3, [sp, #12]
 587              		.loc 1 286 0
 588 0030 019B     		ldr	r3, [sp, #4]
 589 0032 0022     		movs	r2, #0
 590 0034 5A70     		strb	r2, [r3, #1]
 591              		.loc 1 287 0
 592 0036 039B     		ldr	r3, [sp, #12]
 593 0038 00E0     		b	.L40
 594              	.L39:
 595              	.LBE10:
 596              		.loc 1 289 0
 597 003a 0023     		movs	r3, #0
 598              	.L40:
 599              		.loc 1 290 0
 600 003c 1846     		mov	r0, r3
 601 003e 05B0     		add	sp, sp, #20
 602              		@ sp needed
 603 0040 5DF804FB 		ldr	pc, [sp], #4
 604              	.L42:
 605              		.align	2
 606              	.L41:
 607 0044 F4000000 		.word	.LC12
 608 0048 08010000 		.word	.LC13
 609              		.cfi_endproc
 610              	.LFE75:
 611              		.size	luartStopSendI, .-luartStopSendI
 612 004c AFF30080 		.section	.rodata
 613 011d 000000   		.align	2
 614              	.LC14:
 615 0120 226C7561 		.ascii	"\"luartStartReceive\"()\000"
 615      72745374 
 615      61727452 
 615      65636569 
 615      76652228 
 616 0136 0000     		.align	2
 617              	.LC15:
 618 0138 6C756172 		.ascii	"luartStartReceive(), #1\000"
 618      74537461 
 618      72745265 
 618      63656976 
 618      6528292C 
 619              		.align	2
 620              	.LC16:
ARM GAS  /home/pauba/tmp/cca1lkQP.s 			page 13


 621 0150 6C756172 		.ascii	"luartStartReceive(), #2\000"
 621      74537461 
 621      72745265 
 621      63656976 
 621      6528292C 
 622              		.section	.text.luartStartReceive,"ax",%progbits
 623              		.align	2
 624              		.p2align 4,,15
 625              		.global	luartStartReceive
 626              		.thumb
 627              		.thumb_func
 628              		.type	luartStartReceive, %function
 629              	luartStartReceive:
 630              	.LFB76:
 631              		.loc 1 303 0
 632              		.cfi_startproc
 633              		@ args = 0, pretend = 0, frame = 16
 634              		@ frame_needed = 0, uses_anonymous_args = 0
 635 0000 00B5     		push	{lr}
 636              		.cfi_def_cfa_offset 4
 637              		.cfi_offset 14, -4
 638 0002 85B0     		sub	sp, sp, #20
 639              		.cfi_def_cfa_offset 24
 640 0004 0390     		str	r0, [sp, #12]
 641 0006 0291     		str	r1, [sp, #8]
 642 0008 0192     		str	r2, [sp, #4]
 643              		.loc 1 305 0
 644 000a 039B     		ldr	r3, [sp, #12]
 645 000c 002B     		cmp	r3, #0
 646 000e 05D0     		beq	.L44
 647              		.loc 1 305 0 is_stmt 0 discriminator 2
 648 0010 029B     		ldr	r3, [sp, #8]
 649 0012 002B     		cmp	r3, #0
 650 0014 02D0     		beq	.L44
 651              		.loc 1 305 0 discriminator 1
 652 0016 019B     		ldr	r3, [sp, #4]
 653 0018 002B     		cmp	r3, #0
 654 001a 02D1     		bne	.L45
 655              	.L44:
 656 001c 1048     		ldr	r0, .L48
 657 001e FFF7FEFF 		bl	chDbgPanic
 658              	.L45:
 659              	.LBB11:
 660              		.loc 1 308 0 is_stmt 1
 661 0022 2023     		movs	r3, #32
 662              	@ 308 "/home/pauba/ChibiOS-RT/ext/LEDComm/ledcomm-uart.c" 1
 663 0024 83F31188 		msr     BASEPRI, r3
 664              	@ 0 "" 2
 665              		.thumb
 666              	.LBE11:
 667 0028 FFF7FEFF 		bl	dbg_check_lock
 668              		.loc 1 309 0
 669 002c 039B     		ldr	r3, [sp, #12]
 670 002e 1B78     		ldrb	r3, [r3]	@ zero_extendqisi2
 671 0030 022B     		cmp	r3, #2
 672 0032 02D0     		beq	.L46
 673              		.loc 1 309 0 is_stmt 0 discriminator 1
ARM GAS  /home/pauba/tmp/cca1lkQP.s 			page 14


 674 0034 0B48     		ldr	r0, .L48+4
 675 0036 FFF7FEFF 		bl	chDbgPanic
 676              	.L46:
 677              		.loc 1 311 0 is_stmt 1
 678 003a 039B     		ldr	r3, [sp, #12]
 679 003c 9B78     		ldrb	r3, [r3, #2]	@ zero_extendqisi2
 680 003e 012B     		cmp	r3, #1
 681 0040 02D1     		bne	.L47
 682              		.loc 1 311 0 is_stmt 0 discriminator 1
 683 0042 0948     		ldr	r0, .L48+8
 684 0044 FFF7FEFF 		bl	chDbgPanic
 685              	.L47:
 686              		.loc 1 315 0 is_stmt 1
 687 0048 039B     		ldr	r3, [sp, #12]
 688 004a 0122     		movs	r2, #1
 689 004c 9A70     		strb	r2, [r3, #2]
 690              		.loc 1 316 0
 691 004e FFF7FEFF 		bl	dbg_check_unlock
 692              	.LBB12:
 693 0052 0023     		movs	r3, #0
 694              	@ 316 "/home/pauba/ChibiOS-RT/ext/LEDComm/ledcomm-uart.c" 1
 695 0054 83F31188 		msr     BASEPRI, r3
 696              	@ 0 "" 2
 697              		.thumb
 698              	.LBE12:
 699              		.loc 1 317 0
 700 0058 05B0     		add	sp, sp, #20
 701              		@ sp needed
 702 005a 5DF804FB 		ldr	pc, [sp], #4
 703              	.L49:
 704 005e 00BF     		.align	2
 705              	.L48:
 706 0060 20010000 		.word	.LC14
 707 0064 38010000 		.word	.LC15
 708 0068 50010000 		.word	.LC16
 709              		.cfi_endproc
 710              	.LFE76:
 711              		.size	luartStartReceive, .-luartStartReceive
 712 006c AFF30080 		.section	.rodata
 713              		.align	2
 714              	.LC17:
 715 0168 226C7561 		.ascii	"\"luartStartReceiveI\"()\000"
 715      72745374 
 715      61727452 
 715      65636569 
 715      76654922 
 716 017f 00       		.align	2
 717              	.LC18:
 718 0180 6C756172 		.ascii	"luartStartReceiveI(), #1\000"
 718      74537461 
 718      72745265 
 718      63656976 
 718      65492829 
 719 0199 000000   		.align	2
 720              	.LC19:
 721 019c 6C756172 		.ascii	"luartStartReceiveI(), #2\000"
 721      74537461 
ARM GAS  /home/pauba/tmp/cca1lkQP.s 			page 15


 721      72745265 
 721      63656976 
 721      65492829 
 722              		.section	.text.luartStartReceiveI,"ax",%progbits
 723              		.align	2
 724              		.p2align 4,,15
 725              		.global	luartStartReceiveI
 726              		.thumb
 727              		.thumb_func
 728              		.type	luartStartReceiveI, %function
 729              	luartStartReceiveI:
 730              	.LFB77:
 731              		.loc 1 331 0
 732              		.cfi_startproc
 733              		@ args = 0, pretend = 0, frame = 16
 734              		@ frame_needed = 0, uses_anonymous_args = 0
 735 0000 00B5     		push	{lr}
 736              		.cfi_def_cfa_offset 4
 737              		.cfi_offset 14, -4
 738 0002 85B0     		sub	sp, sp, #20
 739              		.cfi_def_cfa_offset 24
 740 0004 0390     		str	r0, [sp, #12]
 741 0006 0291     		str	r1, [sp, #8]
 742 0008 0192     		str	r2, [sp, #4]
 743              		.loc 1 333 0
 744 000a FFF7FEFF 		bl	chDbgCheckClassI
 745              		.loc 1 334 0
 746 000e 039B     		ldr	r3, [sp, #12]
 747 0010 002B     		cmp	r3, #0
 748 0012 05D0     		beq	.L51
 749              		.loc 1 334 0 is_stmt 0 discriminator 2
 750 0014 029B     		ldr	r3, [sp, #8]
 751 0016 002B     		cmp	r3, #0
 752 0018 02D0     		beq	.L51
 753              		.loc 1 334 0 discriminator 1
 754 001a 019B     		ldr	r3, [sp, #4]
 755 001c 002B     		cmp	r3, #0
 756 001e 02D1     		bne	.L52
 757              	.L51:
 758 0020 0B48     		ldr	r0, .L55
 759 0022 FFF7FEFF 		bl	chDbgPanic
 760              	.L52:
 761              		.loc 1 336 0 is_stmt 1
 762 0026 039B     		ldr	r3, [sp, #12]
 763 0028 1B78     		ldrb	r3, [r3]	@ zero_extendqisi2
 764 002a 022B     		cmp	r3, #2
 765 002c 02D0     		beq	.L53
 766              		.loc 1 336 0 is_stmt 0 discriminator 1
 767 002e 0948     		ldr	r0, .L55+4
 768 0030 FFF7FEFF 		bl	chDbgPanic
 769              	.L53:
 770              		.loc 1 338 0 is_stmt 1
 771 0034 039B     		ldr	r3, [sp, #12]
 772 0036 9B78     		ldrb	r3, [r3, #2]	@ zero_extendqisi2
 773 0038 012B     		cmp	r3, #1
 774 003a 02D1     		bne	.L54
 775              		.loc 1 338 0 is_stmt 0 discriminator 1
ARM GAS  /home/pauba/tmp/cca1lkQP.s 			page 16


 776 003c 0648     		ldr	r0, .L55+8
 777 003e FFF7FEFF 		bl	chDbgPanic
 778              	.L54:
 779              		.loc 1 342 0 is_stmt 1
 780 0042 039B     		ldr	r3, [sp, #12]
 781 0044 0122     		movs	r2, #1
 782 0046 9A70     		strb	r2, [r3, #2]
 783              		.loc 1 343 0
 784 0048 05B0     		add	sp, sp, #20
 785              		@ sp needed
 786 004a 5DF804FB 		ldr	pc, [sp], #4
 787              	.L56:
 788 004e 00BF     		.align	2
 789              	.L55:
 790 0050 68010000 		.word	.LC17
 791 0054 80010000 		.word	.LC18
 792 0058 9C010000 		.word	.LC19
 793              		.cfi_endproc
 794              	.LFE77:
 795              		.size	luartStartReceiveI, .-luartStartReceiveI
 796 005c AFF30080 		.section	.rodata
 797 01b5 000000   		.align	2
 798              	.LC20:
 799 01b8 226C7561 		.ascii	"\"luartStopReceive\"()\000"
 799      72745374 
 799      6F705265 
 799      63656976 
 799      65222829 
 800 01cd 000000   		.align	2
 801              	.LC21:
 802 01d0 6C756172 		.ascii	"luartStopReceive(), #1\000"
 802      7453746F 
 802      70526563 
 802      65697665 
 802      28292C20 
 803              		.section	.text.luartStopReceive,"ax",%progbits
 804              		.align	2
 805              		.p2align 4,,15
 806              		.global	luartStopReceive
 807              		.thumb
 808              		.thumb_func
 809              		.type	luartStopReceive, %function
 810              	luartStopReceive:
 811              	.LFB78:
 812              		.loc 1 357 0
 813              		.cfi_startproc
 814              		@ args = 0, pretend = 0, frame = 16
 815              		@ frame_needed = 0, uses_anonymous_args = 0
 816 0000 00B5     		push	{lr}
 817              		.cfi_def_cfa_offset 4
 818              		.cfi_offset 14, -4
 819 0002 85B0     		sub	sp, sp, #20
 820              		.cfi_def_cfa_offset 24
 821 0004 0190     		str	r0, [sp, #4]
 822              		.loc 1 360 0
 823 0006 019B     		ldr	r3, [sp, #4]
 824 0008 002B     		cmp	r3, #0
ARM GAS  /home/pauba/tmp/cca1lkQP.s 			page 17


 825 000a 02D1     		bne	.L58
 826              		.loc 1 360 0 is_stmt 0 discriminator 1
 827 000c 1148     		ldr	r0, .L63
 828 000e FFF7FEFF 		bl	chDbgPanic
 829              	.L58:
 830              	.LBB13:
 831              		.loc 1 362 0 is_stmt 1
 832 0012 2023     		movs	r3, #32
 833              	@ 362 "/home/pauba/ChibiOS-RT/ext/LEDComm/ledcomm-uart.c" 1
 834 0014 83F31188 		msr     BASEPRI, r3
 835              	@ 0 "" 2
 836              		.thumb
 837              	.LBE13:
 838 0018 FFF7FEFF 		bl	dbg_check_lock
 839              		.loc 1 363 0
 840 001c 019B     		ldr	r3, [sp, #4]
 841 001e 1B78     		ldrb	r3, [r3]	@ zero_extendqisi2
 842 0020 022B     		cmp	r3, #2
 843 0022 02D0     		beq	.L59
 844              		.loc 1 363 0 is_stmt 0 discriminator 1
 845 0024 0C48     		ldr	r0, .L63+4
 846 0026 FFF7FEFF 		bl	chDbgPanic
 847              	.L59:
 848              		.loc 1 366 0 is_stmt 1
 849 002a 019B     		ldr	r3, [sp, #4]
 850 002c 9B78     		ldrb	r3, [r3, #2]	@ zero_extendqisi2
 851 002e 012B     		cmp	r3, #1
 852 0030 03D1     		bne	.L60
 853              		.loc 1 368 0
 854 0032 019B     		ldr	r3, [sp, #4]
 855 0034 0022     		movs	r2, #0
 856 0036 9A70     		strb	r2, [r3, #2]
 857 0038 01E0     		b	.L61
 858              	.L60:
 859              		.loc 1 370 0
 860 003a 0023     		movs	r3, #0
 861 003c 0393     		str	r3, [sp, #12]
 862              	.L61:
 863              		.loc 1 372 0
 864 003e FFF7FEFF 		bl	dbg_check_unlock
 865              	.LBB14:
 866 0042 0023     		movs	r3, #0
 867              	@ 372 "/home/pauba/ChibiOS-RT/ext/LEDComm/ledcomm-uart.c" 1
 868 0044 83F31188 		msr     BASEPRI, r3
 869              	@ 0 "" 2
 870              		.thumb
 871              	.LBE14:
 872              		.loc 1 373 0
 873 0048 039B     		ldr	r3, [sp, #12]
 874              		.loc 1 374 0
 875 004a 1846     		mov	r0, r3
 876 004c 05B0     		add	sp, sp, #20
 877              		@ sp needed
 878 004e 5DF804FB 		ldr	pc, [sp], #4
 879              	.L64:
 880 0052 00BF     		.align	2
 881              	.L63:
ARM GAS  /home/pauba/tmp/cca1lkQP.s 			page 18


 882 0054 B8010000 		.word	.LC20
 883 0058 D0010000 		.word	.LC21
 884              		.cfi_endproc
 885              	.LFE78:
 886              		.size	luartStopReceive, .-luartStopReceive
 887 005c AFF30080 		.section	.rodata
 888 01e7 00       		.align	2
 889              	.LC22:
 890 01e8 226C7561 		.ascii	"\"luartStopReceiveI\"()\000"
 890      72745374 
 890      6F705265 
 890      63656976 
 890      65492228 
 891 01fe 0000     		.align	2
 892              	.LC23:
 893 0200 6C756172 		.ascii	"luartStopReceiveI(), #1\000"
 893      7453746F 
 893      70526563 
 893      65697665 
 893      4928292C 
 894              		.section	.text.luartStopReceiveI,"ax",%progbits
 895              		.align	2
 896              		.p2align 4,,15
 897              		.global	luartStopReceiveI
 898              		.thumb
 899              		.thumb_func
 900              		.type	luartStopReceiveI, %function
 901              	luartStopReceiveI:
 902              	.LFB79:
 903              		.loc 1 389 0
 904              		.cfi_startproc
 905              		@ args = 0, pretend = 0, frame = 16
 906              		@ frame_needed = 0, uses_anonymous_args = 0
 907 0000 00B5     		push	{lr}
 908              		.cfi_def_cfa_offset 4
 909              		.cfi_offset 14, -4
 910 0002 85B0     		sub	sp, sp, #20
 911              		.cfi_def_cfa_offset 24
 912 0004 0190     		str	r0, [sp, #4]
 913              		.loc 1 391 0
 914 0006 FFF7FEFF 		bl	chDbgCheckClassI
 915              		.loc 1 392 0
 916 000a 019B     		ldr	r3, [sp, #4]
 917 000c 002B     		cmp	r3, #0
 918 000e 02D1     		bne	.L66
 919              		.loc 1 392 0 is_stmt 0 discriminator 1
 920 0010 0C48     		ldr	r0, .L70
 921 0012 FFF7FEFF 		bl	chDbgPanic
 922              	.L66:
 923              		.loc 1 393 0 is_stmt 1
 924 0016 019B     		ldr	r3, [sp, #4]
 925 0018 1B78     		ldrb	r3, [r3]	@ zero_extendqisi2
 926 001a 022B     		cmp	r3, #2
 927 001c 02D0     		beq	.L67
 928              		.loc 1 393 0 is_stmt 0 discriminator 1
 929 001e 0A48     		ldr	r0, .L70+4
 930 0020 FFF7FEFF 		bl	chDbgPanic
ARM GAS  /home/pauba/tmp/cca1lkQP.s 			page 19


 931              	.L67:
 932              		.loc 1 396 0 is_stmt 1
 933 0024 019B     		ldr	r3, [sp, #4]
 934 0026 9B78     		ldrb	r3, [r3, #2]	@ zero_extendqisi2
 935 0028 012B     		cmp	r3, #1
 936 002a 06D1     		bne	.L68
 937              	.LBB15:
 938              		.loc 1 397 0
 939 002c 0023     		movs	r3, #0
 940 002e 0393     		str	r3, [sp, #12]
 941              		.loc 1 398 0
 942 0030 019B     		ldr	r3, [sp, #4]
 943 0032 0022     		movs	r2, #0
 944 0034 9A70     		strb	r2, [r3, #2]
 945              		.loc 1 399 0
 946 0036 039B     		ldr	r3, [sp, #12]
 947 0038 00E0     		b	.L69
 948              	.L68:
 949              	.LBE15:
 950              		.loc 1 401 0
 951 003a 0023     		movs	r3, #0
 952              	.L69:
 953              		.loc 1 402 0
 954 003c 1846     		mov	r0, r3
 955 003e 05B0     		add	sp, sp, #20
 956              		@ sp needed
 957 0040 5DF804FB 		ldr	pc, [sp], #4
 958              	.L71:
 959              		.align	2
 960              	.L70:
 961 0044 E8010000 		.word	.LC22
 962 0048 00020000 		.word	.LC23
 963              		.cfi_endproc
 964              	.LFE79:
 965              		.size	luartStopReceiveI, .-luartStopReceiveI
 966 004c AFF30080 		.section	.rodata
 967              		.align	2
 968              	.LC24:
 969 0218 226C7561 		.ascii	"\"luartPollLinkStatus\"()\000"
 969      7274506F 
 969      6C6C4C69 
 969      6E6B5374 
 969      61747573 
 970              		.section	.text.luartPollLinkStatus,"ax",%progbits
 971              		.align	2
 972              		.p2align 4,,15
 973              		.global	luartPollLinkStatus
 974              		.thumb
 975              		.thumb_func
 976              		.type	luartPollLinkStatus, %function
 977              	luartPollLinkStatus:
 978              	.LFB80:
 979              		.loc 1 414 0
 980              		.cfi_startproc
 981              		@ args = 0, pretend = 0, frame = 8
 982              		@ frame_needed = 0, uses_anonymous_args = 0
 983 0000 00B5     		push	{lr}
ARM GAS  /home/pauba/tmp/cca1lkQP.s 			page 20


 984              		.cfi_def_cfa_offset 4
 985              		.cfi_offset 14, -4
 986 0002 83B0     		sub	sp, sp, #12
 987              		.cfi_def_cfa_offset 16
 988 0004 0190     		str	r0, [sp, #4]
 989              		.loc 1 415 0
 990 0006 019B     		ldr	r3, [sp, #4]
 991 0008 002B     		cmp	r3, #0
 992 000a 02D1     		bne	.L73
 993              		.loc 1 415 0 is_stmt 0 discriminator 1
 994 000c 0548     		ldr	r0, .L75
 995 000e FFF7FEFF 		bl	chDbgPanic
 996              	.L73:
 997              		.loc 1 416 0 is_stmt 1
 998 0012 019B     		ldr	r3, [sp, #4]
 999 0014 1B7B     		ldrb	r3, [r3, #12]
 1000 0016 C3F30003 		ubfx	r3, r3, #0, #1
 1001 001a DBB2     		uxtb	r3, r3
 1002              		.loc 1 417 0
 1003 001c 1846     		mov	r0, r3
 1004 001e 03B0     		add	sp, sp, #12
 1005              		@ sp needed
 1006 0020 5DF804FB 		ldr	pc, [sp], #4
 1007              	.L76:
 1008              		.align	2
 1009              	.L75:
 1010 0024 18020000 		.word	.LC24
 1011              		.cfi_endproc
 1012              	.LFE80:
 1013              		.size	luartPollLinkStatus, .-luartPollLinkStatus
 1014 0028 AFF30080 		.text
 1014      AFF30080 
 1015              	.Letext0:
 1016              		.file 2 "/opt/gcc-arm-none-eabi-4_8-2014q1/lib/gcc/arm-none-eabi/4.8.3/include/stddef.h"
 1017              		.file 3 "/opt/gcc-arm-none-eabi-4_8-2014q1/arm-none-eabi/include/machine/_default_types.h"
 1018              		.file 4 "/opt/gcc-arm-none-eabi-4_8-2014q1/arm-none-eabi/include/stdint.h"
 1019              		.file 5 "/home/pauba/ChibiOS-RT/os/ports/GCC/ARMCMx/chtypes.h"
 1020              		.file 6 "/home/pauba/ChibiOS-RT/os/kernel/include/chlists.h"
 1021              		.file 7 "/home/pauba/ChibiOS-RT/os/kernel/include/chthreads.h"
 1022              		.file 8 "/home/pauba/ChibiOS-RT/os/ports/GCC/ARMCMx/chcore_v7m.h"
 1023              		.file 9 "/home/pauba/ChibiOS-RT/os/kernel/include/chmtx.h"
 1024              		.file 10 "/home/pauba/ChibiOS-RT/os/kernel/include/chevents.h"
 1025              		.file 11 "/home/pauba/ChibiOS-RT/os/hal/platforms/STM32/GPIOv2/pal_lld.h"
 1026              		.file 12 "/home/pauba/ChibiOS-RT/ext/LEDComm/ledcomm-uart.h"
 1027              		.file 13 "/home/pauba/ChibiOS-RT/os/ports/common/ARMCMx/CMSIS/include/core_cm3.h"