ARM GAS  /home/pauba/tmp/ccBU01md.s 			page 1


   1              		.syntax unified
   2              		.cpu cortex-m4
   3              		.fpu softvfp
   4              		.eabi_attribute 20, 1
   5              		.eabi_attribute 21, 1
   6              		.eabi_attribute 23, 3
   7              		.eabi_attribute 24, 1
   8              		.eabi_attribute 25, 1
   9              		.eabi_attribute 26, 1
  10              		.eabi_attribute 30, 6
  11              		.eabi_attribute 34, 1
  12              		.eabi_attribute 18, 4
  13              		.thumb
  14              		.file	"main.c"
  15              		.text
  16              	.Ltext0:
  17              		.cfi_sections	.debug_frame
  18              		.section	.text.chprintf,"ax",%progbits
  19              		.align	2
  20              		.p2align 4,,15
  21              		.thumb
  22              		.thumb_func
  23              		.type	chprintf, %function
  24              	chprintf:
  25              	.LFB63:
  26              		.file 1 "/home/pauba/ChibiOS-RT/os/various/chprintf.h"
  27              		.loc 1 69 0
  28              		.cfi_startproc
  29              		@ args = 4, pretend = 12, frame = 16
  30              		@ frame_needed = 0, uses_anonymous_args = 1
  31 0000 0EB4     		push	{r1, r2, r3}
  32              		.cfi_def_cfa_offset 12
  33              		.cfi_offset 1, -12
  34              		.cfi_offset 2, -8
  35              		.cfi_offset 3, -4
  36 0002 00B5     		push	{lr}
  37              		.cfi_def_cfa_offset 16
  38              		.cfi_offset 14, -16
  39 0004 84B0     		sub	sp, sp, #16
  40              		.cfi_def_cfa_offset 32
  41 0006 0190     		str	r0, [sp, #4]
  42              		.loc 1 72 0
  43 0008 06AB     		add	r3, sp, #24
  44 000a 0393     		str	r3, [sp, #12]
  45              		.loc 1 73 0
  46 000c 0198     		ldr	r0, [sp, #4]
  47 000e 0599     		ldr	r1, [sp, #20]
  48 0010 039A     		ldr	r2, [sp, #12]
  49 0012 FFF7FEFF 		bl	chvprintf
  50              		.loc 1 75 0
  51 0016 04B0     		add	sp, sp, #16
  52              		@ sp needed
  53 0018 5DF804EB 		ldr	lr, [sp], #4
  54 001c 03B0     		add	sp, sp, #12
  55 001e 7047     		bx	lr
  56              		.cfi_endproc
  57              	.LFE63:
ARM GAS  /home/pauba/tmp/ccBU01md.s 			page 2


  58              		.size	chprintf, .-chprintf
  59              		.section	.bss.waThread1,"aw",%nobits
  60              		.align	3
  61              		.type	waThread1, %object
  62              		.size	waThread1, 336
  63              	waThread1:
  64 0000 00000000 		.space	336
  64      00000000 
  64      00000000 
  64      00000000 
  64      00000000 
  65              		.section	.rodata
  66              		.align	2
  67              	.LC1:
  68 0000 626C696E 		.ascii	"blinker\000"
  68      6B657200 
  69              		.section	.text.Thread1,"ax",%progbits
  70              		.align	2
  71              		.p2align 4,,15
  72              		.thumb
  73              		.thumb_func
  74              		.type	Thread1, %function
  75              	Thread1:
  76              	.LFB64:
  77              		.file 2 "main.c"
  78              		.loc 2 44 0
  79              		.cfi_startproc
  80              		@ args = 0, pretend = 0, frame = 8
  81              		@ frame_needed = 0, uses_anonymous_args = 0
  82 0000 00B5     		push	{lr}
  83              		.cfi_def_cfa_offset 4
  84              		.cfi_offset 14, -4
  85 0002 83B0     		sub	sp, sp, #12
  86              		.cfi_def_cfa_offset 16
  87 0004 0190     		str	r0, [sp, #4]
  88              		.loc 2 47 0
  89 0006 044B     		ldr	r3, .L4
  90 0008 9B69     		ldr	r3, [r3, #24]
  91 000a 044A     		ldr	r2, .L4+4
  92 000c 9A61     		str	r2, [r3, #24]
  93              	.L3:
  94              		.loc 2 49 0 discriminator 1
  95 000e 4FF4FA70 		mov	r0, #500
  96 0012 FFF7FEFF 		bl	chThdSleep
  97              		.loc 2 50 0 discriminator 1
  98 0016 FAE7     		b	.L3
  99              	.L5:
 100              		.align	2
 101              	.L4:
 102 0018 00000000 		.word	rlist
 103 001c 00000000 		.word	.LC1
 104              		.cfi_endproc
 105              	.LFE64:
 106              		.size	Thread1, .-Thread1
 107              		.global	chp
 108              		.section	.bss.chp,"aw",%nobits
 109              		.align	2
ARM GAS  /home/pauba/tmp/ccBU01md.s 			page 3


 110              		.type	chp, %object
 111              		.size	chp, 4
 112              	chp:
 113 0000 00000000 		.space	4
 114              		.global	eventSource1
 115              		.section	.data.eventSource1,"aw",%progbits
 116              		.align	2
 117              		.type	eventSource1, %object
 118              		.size	eventSource1, 4
 119              	eventSource1:
 120 0000 00000000 		.word	eventSource1
 121              		.section	.rodata
 122              		.align	2
 123              	.LC2:
 124 0008 0A0A4265 		.ascii	"\012\012BeeBoard V1.0\012\000"
 124      65426F61 
 124      72642056 
 124      312E300A 
 124      00
 125 0019 000000   		.align	2
 126              	.LC3:
 127 001c 53595343 		.ascii	"SYSCLK: %d\012\000"
 127      4C4B3A20 
 127      25640A00 
 128              		.align	2
 129              	.LC4:
 130 0028 4C00     		.ascii	"L\000"
 131 002a 0000     		.align	2
 132              	.LC5:
 133 002c 4C494E4B 		.ascii	"LINK UP\012\000"
 133      2055500A 
 133      00
 134 0035 000000   		.align	2
 135              	.LC6:
 136 0038 4C494E4B 		.ascii	"LINK DOWN\012\000"
 136      20444F57 
 136      4E0A00
 137 0043 00       		.align	2
 138              	.LC7:
 139 0044 256300   		.ascii	"%c\000"
 140 0047 00       		.align	2
 141              	.LC8:
 142 0048 4F564552 		.ascii	"OVERRUN\012\000"
 142      52554E0A 
 142      00
 143 0051 000000   		.align	2
 144              	.LC9:
 145 0054 4652414D 		.ascii	"FRAMING ERROR\012\000"
 145      494E4720 
 145      4552524F 
 145      520A00
 146 0063 00       		.align	2
 147              	.LC10:
 148 0064 50415249 		.ascii	"PARITY ERROR\012\000"
 148      54592045 
 148      52524F52 
 148      0A00
ARM GAS  /home/pauba/tmp/ccBU01md.s 			page 4


 149 0072 0000     		.align	2
 150              	.LC0:
 151 0074 00040240 		.word	1073873920
 152 0078 05000000 		.word	5
 153 007c 00040240 		.word	1073873920
 154 0080 04000000 		.word	4
 155 0084 12000000 		.word	18
 156 0088 B80B     		.short	3000
 157 008a 03       		.byte	3
 158 008b 00       		.space	1
 159              		.section	.text.main,"ax",%progbits
 160              		.align	2
 161              		.p2align 4,,15
 162              		.global	main
 163              		.thumb
 164              		.thumb_func
 165              		.type	main, %function
 166              	main:
 167              	.LFB65:
 168              		.loc 2 61 0
 169              		.cfi_startproc
 170              		@ args = 0, pretend = 0, frame = 56
 171              		@ frame_needed = 0, uses_anonymous_args = 0
 172 0000 30B5     		push	{r4, r5, lr}
 173              		.cfi_def_cfa_offset 12
 174              		.cfi_offset 4, -12
 175              		.cfi_offset 5, -8
 176              		.cfi_offset 14, -4
 177 0002 91B0     		sub	sp, sp, #68
 178              		.cfi_def_cfa_offset 80
 179              		.loc 2 73 0
 180 0004 FFF7FEFF 		bl	halInit
 181              		.loc 2 74 0
 182 0008 FFF7FEFF 		bl	chSysInit
 183              		.loc 2 76 0
 184 000c 6148     		ldr	r0, .L18
 185 000e 0121     		movs	r1, #1
 186 0010 0322     		movs	r2, #3
 187 0012 FFF7FEFF 		bl	_pal_lld_setgroupmode
 188              		.loc 2 81 0
 189 0016 6048     		ldr	r0, .L18+4
 190 0018 0021     		movs	r1, #0
 191 001a FFF7FEFF 		bl	sdStart
 192              		.loc 2 82 0
 193 001e 5F4B     		ldr	r3, .L18+8
 194 0020 5D4A     		ldr	r2, .L18+4
 195 0022 1A60     		str	r2, [r3]
 196              		.loc 2 84 0
 197 0024 5E4B     		ldr	r3, .L18+12
 198 0026 0F93     		str	r3, [sp, #60]
 199              		.loc 2 85 0
 200 0028 5E4B     		ldr	r3, .L18+16
 201 002a 03AC     		add	r4, sp, #12
 202 002c 1D46     		mov	r5, r3
 203 002e 0FCD     		ldmia	r5!, {r0, r1, r2, r3}
 204 0030 0FC4     		stmia	r4!, {r0, r1, r2, r3}
 205 0032 95E80300 		ldmia	r5, {r0, r1}
ARM GAS  /home/pauba/tmp/ccBU01md.s 			page 5


 206 0036 84E80300 		stmia	r4, {r0, r1}
 207              		.loc 2 94 0
 208 003a FFF7FEFF 		bl	ldInit
 209              		.loc 2 95 0
 210 003e 03AB     		add	r3, sp, #12
 211 0040 5748     		ldr	r0, .L18+12
 212 0042 1946     		mov	r1, r3
 213 0044 FFF7FEFF 		bl	ldStart
 214              		.loc 2 97 0
 215 0048 544B     		ldr	r3, .L18+8
 216 004a 1B68     		ldr	r3, [r3]
 217 004c 1846     		mov	r0, r3
 218 004e 5649     		ldr	r1, .L18+20
 219 0050 FFF7FEFF 		bl	chprintf
 220              		.loc 2 98 0
 221 0054 514B     		ldr	r3, .L18+8
 222 0056 1B68     		ldr	r3, [r3]
 223 0058 1846     		mov	r0, r3
 224 005a 5449     		ldr	r1, .L18+24
 225 005c 544A     		ldr	r2, .L18+28
 226 005e FFF7FEFF 		bl	chprintf
 227              		.loc 2 103 0
 228 0062 0023     		movs	r3, #0
 229 0064 0093     		str	r3, [sp]
 230 0066 5348     		ldr	r0, .L18+32
 231 0068 4FF4A871 		mov	r1, #336
 232 006c 4022     		movs	r2, #64
 233 006e 524B     		ldr	r3, .L18+36
 234 0070 FFF7FEFF 		bl	chThdCreateStatic
 235              		.loc 2 105 0
 236 0074 0F9B     		ldr	r3, [sp, #60]
 237 0076 1A1D     		adds	r2, r3, #4
 238 0078 09AB     		add	r3, sp, #36
 239 007a 1046     		mov	r0, r2
 240 007c 1946     		mov	r1, r3
 241 007e 0422     		movs	r2, #4
 242 0080 FFF7FEFF 		bl	chEvtRegisterMask
 243              	.L17:
 244              		.loc 2 112 0
 245 0084 4D4B     		ldr	r3, .L18+40
 246 0086 1B69     		ldr	r3, [r3, #16]
 247 0088 5B0B     		lsrs	r3, r3, #13
 248 008a 03F00103 		and	r3, r3, #1
 249 008e 002B     		cmp	r3, #0
 250 0090 06D1     		bne	.L7
 251              		.loc 2 118 0
 252 0092 0F9B     		ldr	r3, [sp, #60]
 253 0094 1B68     		ldr	r3, [r3]
 254 0096 1B68     		ldr	r3, [r3]
 255 0098 0F98     		ldr	r0, [sp, #60]
 256 009a 4949     		ldr	r1, .L18+44
 257 009c 0122     		movs	r2, #1
 258 009e 9847     		blx	r3
 259              	.L7:
 260              		.loc 2 123 0
 261 00a0 0220     		movs	r0, #2
 262 00a2 0A21     		movs	r1, #10
ARM GAS  /home/pauba/tmp/ccBU01md.s 			page 6


 263 00a4 FFF7FEFF 		bl	chEvtWaitAllTimeout
 264              		.loc 2 124 0
 265 00a8 09AB     		add	r3, sp, #36
 266 00aa 1846     		mov	r0, r3
 267 00ac FFF7FEFF 		bl	chEvtGetAndClearFlags
 268 00b0 0E90     		str	r0, [sp, #56]
 269              		.loc 2 126 0
 270 00b2 0E9B     		ldr	r3, [sp, #56]
 271 00b4 002B     		cmp	r3, #0
 272 00b6 00D1     		bne	.L8
 273              		.loc 2 127 0
 274 00b8 6BE0     		b	.L9
 275              	.L8:
 276              		.loc 2 129 0
 277 00ba 0E9B     		ldr	r3, [sp, #56]
 278 00bc 03F00103 		and	r3, r3, #1
 279 00c0 002B     		cmp	r3, #0
 280 00c2 08D0     		beq	.L10
 281              		.loc 2 130 0
 282 00c4 354B     		ldr	r3, .L18+8
 283 00c6 1B68     		ldr	r3, [r3]
 284 00c8 1846     		mov	r0, r3
 285 00ca 3E49     		ldr	r1, .L18+48
 286 00cc FFF7FEFF 		bl	chprintf
 287              		.loc 2 131 0
 288 00d0 304B     		ldr	r3, .L18
 289 00d2 2022     		movs	r2, #32
 290 00d4 1A83     		strh	r2, [r3, #24]	@ movhi
 291              	.L10:
 292              		.loc 2 135 0
 293 00d6 0E9B     		ldr	r3, [sp, #56]
 294 00d8 03F00203 		and	r3, r3, #2
 295 00dc 002B     		cmp	r3, #0
 296 00de 08D0     		beq	.L11
 297              		.loc 2 136 0
 298 00e0 2E4B     		ldr	r3, .L18+8
 299 00e2 1B68     		ldr	r3, [r3]
 300 00e4 1846     		mov	r0, r3
 301 00e6 3849     		ldr	r1, .L18+52
 302 00e8 FFF7FEFF 		bl	chprintf
 303              		.loc 2 137 0
 304 00ec 294B     		ldr	r3, .L18
 305 00ee 2022     		movs	r2, #32
 306 00f0 5A83     		strh	r2, [r3, #26]	@ movhi
 307              	.L11:
 308              		.loc 2 139 0
 309 00f2 0E9B     		ldr	r3, [sp, #56]
 310 00f4 03F00403 		and	r3, r3, #4
 311 00f8 002B     		cmp	r3, #0
 312 00fa 1FD0     		beq	.L12
 313              	.L14:
 314              	.LBB2:
 315              		.loc 2 143 0
 316 00fc 0F9B     		ldr	r3, [sp, #60]
 317 00fe 1B68     		ldr	r3, [r3]
 318 0100 5B69     		ldr	r3, [r3, #20]
 319 0102 0F98     		ldr	r0, [sp, #60]
ARM GAS  /home/pauba/tmp/ccBU01md.s 			page 7


 320 0104 0021     		movs	r1, #0
 321 0106 9847     		blx	r3
 322 0108 0D90     		str	r0, [sp, #52]
 323              		.loc 2 144 0
 324 010a 0D9B     		ldr	r3, [sp, #52]
 325 010c B3F1FF3F 		cmp	r3, #-1
 326 0110 10D0     		beq	.L13
 327              		.loc 2 145 0
 328 0112 224B     		ldr	r3, .L18+8
 329 0114 1A68     		ldr	r2, [r3]
 330 0116 0D9B     		ldr	r3, [sp, #52]
 331 0118 DBB2     		uxtb	r3, r3
 332 011a 1046     		mov	r0, r2
 333 011c 2B49     		ldr	r1, .L18+56
 334 011e 1A46     		mov	r2, r3
 335 0120 FFF7FEFF 		bl	chprintf
 336              		.loc 2 146 0
 337 0124 0F9B     		ldr	r3, [sp, #60]
 338 0126 1B68     		ldr	r3, [r3]
 339 0128 9B68     		ldr	r3, [r3, #8]
 340 012a 0D9A     		ldr	r2, [sp, #52]
 341 012c D2B2     		uxtb	r2, r2
 342 012e 0F98     		ldr	r0, [sp, #60]
 343 0130 1146     		mov	r1, r2
 344 0132 9847     		blx	r3
 345              	.L13:
 346              		.loc 2 148 0
 347 0134 0D9B     		ldr	r3, [sp, #52]
 348 0136 B3F1FF3F 		cmp	r3, #-1
 349 013a DFD1     		bne	.L14
 350              	.L12:
 351              	.LBE2:
 352              		.loc 2 150 0
 353 013c 0E9B     		ldr	r3, [sp, #56]
 354 013e 03F08003 		and	r3, r3, #128
 355 0142 002B     		cmp	r3, #0
 356 0144 08D0     		beq	.L15
 357              		.loc 2 151 0
 358 0146 154B     		ldr	r3, .L18+8
 359 0148 1B68     		ldr	r3, [r3]
 360 014a 1846     		mov	r0, r3
 361 014c 2049     		ldr	r1, .L18+60
 362 014e FFF7FEFF 		bl	chprintf
 363              		.loc 2 152 0
 364 0152 104B     		ldr	r3, .L18
 365 0154 2022     		movs	r2, #32
 366 0156 5A83     		strh	r2, [r3, #26]	@ movhi
 367              	.L15:
 368              		.loc 2 154 0
 369 0158 0E9B     		ldr	r3, [sp, #56]
 370 015a 03F04003 		and	r3, r3, #64
 371 015e 002B     		cmp	r3, #0
 372 0160 08D0     		beq	.L16
 373              		.loc 2 155 0
 374 0162 0E4B     		ldr	r3, .L18+8
 375 0164 1B68     		ldr	r3, [r3]
 376 0166 1846     		mov	r0, r3
ARM GAS  /home/pauba/tmp/ccBU01md.s 			page 8


 377 0168 1A49     		ldr	r1, .L18+64
 378 016a FFF7FEFF 		bl	chprintf
 379              		.loc 2 156 0
 380 016e 094B     		ldr	r3, .L18
 381 0170 2022     		movs	r2, #32
 382 0172 5A83     		strh	r2, [r3, #26]	@ movhi
 383              	.L16:
 384              		.loc 2 158 0
 385 0174 0E9B     		ldr	r3, [sp, #56]
 386 0176 03F02003 		and	r3, r3, #32
 387 017a 002B     		cmp	r3, #0
 388 017c 09D0     		beq	.L9
 389              		.loc 2 159 0
 390 017e 074B     		ldr	r3, .L18+8
 391 0180 1B68     		ldr	r3, [r3]
 392 0182 1846     		mov	r0, r3
 393 0184 1449     		ldr	r1, .L18+68
 394 0186 FFF7FEFF 		bl	chprintf
 395              		.loc 2 160 0
 396 018a 024B     		ldr	r3, .L18
 397 018c 2022     		movs	r2, #32
 398 018e 5A83     		strh	r2, [r3, #26]	@ movhi
 399              		.loc 2 162 0
 400 0190 78E7     		b	.L17
 401              	.L9:
 402 0192 77E7     		b	.L17
 403              	.L19:
 404              		.align	2
 405              	.L18:
 406 0194 00000240 		.word	1073872896
 407 0198 00000000 		.word	SD2
 408 019c 00000000 		.word	chp
 409 01a0 00000000 		.word	LCOM2
 410 01a4 74000000 		.word	.LC0
 411 01a8 08000000 		.word	.LC2
 412 01ac 1C000000 		.word	.LC3
 413 01b0 0048E801 		.word	32000000
 414 01b4 00000000 		.word	waThread1
 415 01b8 00000000 		.word	Thread1
 416 01bc 00080240 		.word	1073874944
 417 01c0 28000000 		.word	.LC4
 418 01c4 2C000000 		.word	.LC5
 419 01c8 38000000 		.word	.LC6
 420 01cc 44000000 		.word	.LC7
 421 01d0 48000000 		.word	.LC8
 422 01d4 54000000 		.word	.LC9
 423 01d8 64000000 		.word	.LC10
 424              		.cfi_endproc
 425              	.LFE65:
 426              		.size	main, .-main
 427 01dc AFF30080 		.text
 428              	.Letext0:
 429              		.file 3 "/opt/gcc-arm-none-eabi-4_8-2014q1/lib/gcc/arm-none-eabi/4.8.3/include/stddef.h"
 430              		.file 4 "/opt/gcc-arm-none-eabi-4_8-2014q1/arm-none-eabi/include/machine/_default_types.h"
 431              		.file 5 "/opt/gcc-arm-none-eabi-4_8-2014q1/arm-none-eabi/include/stdint.h"
 432              		.file 6 "/home/pauba/ChibiOS-RT/os/ports/GCC/ARMCMx/chtypes.h"
 433              		.file 7 "/home/pauba/ChibiOS-RT/os/kernel/include/chlists.h"
ARM GAS  /home/pauba/tmp/ccBU01md.s 			page 9


 434              		.file 8 "/home/pauba/ChibiOS-RT/os/kernel/include/chthreads.h"
 435              		.file 9 "/home/pauba/ChibiOS-RT/os/ports/GCC/ARMCMx/chcore_v7m.h"
 436              		.file 10 "/home/pauba/ChibiOS-RT/os/kernel/include/chschd.h"
 437              		.file 11 "/home/pauba/ChibiOS-RT/os/kernel/include/chmtx.h"
 438              		.file 12 "/home/pauba/ChibiOS-RT/os/kernel/include/chevents.h"
 439              		.file 13 "/home/pauba/ChibiOS-RT/os/kernel/include/chqueues.h"
 440              		.file 14 "/home/pauba/ChibiOS-RT/os/kernel/include/chstreams.h"
 441              		.file 15 "/home/pauba/ChibiOS-RT/os/hal/platforms/STM32L1xx/stm32l1xx.h"
 442              		.file 16 "/home/pauba/ChibiOS-RT/os/hal/include/io_channel.h"
 443              		.file 17 "/home/pauba/ChibiOS-RT/os/hal/platforms/STM32/GPIOv2/pal_lld.h"
 444              		.file 18 "/home/pauba/ChibiOS-RT/os/hal/include/serial.h"
 445              		.file 19 "/opt/gcc-arm-none-eabi-4_8-2014q1/lib/gcc/arm-none-eabi/4.8.3/include/stdarg.h"
 446              		.file 20 "<built-in>"
 447              		.file 21 "/home/pauba/ChibiOS-RT/ext/LEDComm/ledcomm.h"
 448              		.file 22 "/home/pauba/ChibiOS-RT/os/ports/common/ARMCMx/CMSIS/include/core_cm3.h"
 449              		.file 23 "/home/pauba/ChibiOS-RT/os/hal/platforms/STM32/USARTv1/serial_lld.h"