ARM GAS  /home/pauba/tmp/ccBU01md.s 			page 1


   1              		.syntax unified
   2              		.cpu cortex-m4
   3              		.fpu softvfp
   4              		.eabi_attribute 20, 1
   5              		.eabi_attribute 21, 1
   6              		.eabi_attribute 23, 3
   7              		.eabi_attribute 24, 1
   8              		.eabi_attribute 25, 1
   9              		.eabi_attribute 26, 1
  10              		.eabi_attribute 30, 6
  11              		.eabi_attribute 34, 1
  12              		.eabi_attribute 18, 4
  13              		.thumb
  14              		.file	"main.c"
  15              		.text
  16              	.Ltext0:
  17              		.cfi_sections	.debug_frame
  18              		.section	.text.chprintf,"ax",%progbits
  19              		.align	2
  20              		.p2align 4,,15
  21              		.thumb
  22              		.thumb_func
  23              		.type	chprintf, %function
  24              	chprintf:
  25              	.LFB63:
  26              		.file 1 "/home/pauba/ChibiOS-RT/os/various/chprintf.h"
  27              		.loc 1 69 0
  28              		.cfi_startproc
  29              		@ args = 4, pretend = 12, frame = 16
  30              		@ frame_needed = 0, uses_anonymous_args = 1
  31 0000 0EB4     		push	{r1, r2, r3}
  32              		.cfi_def_cfa_offset 12
  33              		.cfi_offset 1, -12
  34              		.cfi_offset 2, -8
  35              		.cfi_offset 3, -4
  36 0002 00B5     		push	{lr}
  37              		.cfi_def_cfa_offset 16
  38              		.cfi_offset 14, -16
  39 0004 84B0     		sub	sp, sp, #16
  40              		.cfi_def_cfa_offset 32
  41 0006 0190     		str	r0, [sp, #4]
  42              		.loc 1 72 0
  43 0008 06AB     		add	r3, sp, #24
  44 000a 0393     		str	r3, [sp, #12]
  45              		.loc 1 73 0
  46 000c 0198     		ldr	r0, [sp, #4]
  47 000e 0599     		ldr	r1, [sp, #20]
  48 0010 039A     		ldr	r2, [sp, #12]
  49 0012 FFF7FEFF 		bl	chvprintf
  50              		.loc 1 75 0
  51 0016 04B0     		add	sp, sp, #16
  52              		@ sp needed
  53 0018 5DF804EB 		ldr	lr, [sp], #4
  54 001c 03B0     		add	sp, sp, #12
  55 001e 7047     		bx	lr
  56              		.cfi_endproc
  57              	.LFE63:
ARM GAS  /home/pauba/tmp/ccBU01md.s 			page 2


  58              		.size	chprintf, .-chprintf
  59              		.section	.bss.waThread1,"aw",%nobits
  60              		.align	3
  61              		.type	waThread1, %object
  62              		.size	waThread1, 336
  63              	waThread1:
  64 0000 00000000 		.space	336
  64      00000000 
  64      00000000 
  64      00000000 
  64      00000000 
  65              		.section	.rodata
  66              		.align	2
  67              	.LC1:
  68 0000 626C696E 		.ascii	"blinker\000"
  68      6B657200 
  69              		.section	.text.Thread1,"ax",%progbits
  70              		.align	2
  71              		.p2align 4,,15
  72              		.thumb
  73              		.thumb_func
  74              		.type	Thread1, %function
  75              	Thread1:
  76              	.LFB64:
  77              		.file 2 "main.c"
  78              		.loc 2 44 0
  79              		.cfi_startproc
  80              		@ args = 0, pretend = 0, frame = 8
  81              		@ frame_needed = 0, uses_anonymous_args = 0
  82 0000 00B5     		push	{lr}
  83              		.cfi_def_cfa_offset 4
  84              		.cfi_offset 14, -4
  85 0002 83B0     		sub	sp, sp, #12
  86              		.cfi_def_cfa_offset 16
  87 0004 0190     		str	r0, [sp, #4]
  88              		.loc 2 47 0
  89 0006 044B     		ldr	r3, .L4
  90 0008 9B69     		ldr	r3, [r3, #24]
  91 000a 044A     		ldr	r2, .L4+4
  92 000c 9A61     		str	r2, [r3, #24]
  93              	.L3:
  94              		.loc 2 49 0 discriminator 1
  95 000e 4FF4FA70 		mov	r0, #500
  96 0012 FFF7FEFF 		bl	chThdSleep
  97              		.loc 2 50 0 discriminator 1
  98 0016 FAE7     		b	.L3
  99              	.L5:
 100              		.align	2
 101              	.L4:
 102 0018 00000000 		.word	rlist
 103 001c 00000000 		.word	.LC1
 104              		.cfi_endproc
 105              	.LFE64:
 106              		.size	Thread1, .-Thread1
 107              		.global	chp
 108              		.section	.bss.chp,"aw",%nobits
 109              		.align	2
ARM GAS  /home/pauba/tmp/ccBU01md.s 			page 3


 110              		.type	chp, %object
 111              		.size	chp, 4
 112              	chp:
 113 0000 00000000 		.space	4
 114              		.global	eventSource1
 115              		.section	.data.eventSource1,"aw",%progbits
 116              		.align	2
 117              		.type	eventSource1, %object
 118              		.size	eventSource1, 4
 119              	eventSource1:
 120 0000 00000000 		.word	eventSource1
 121              		.section	.rodata
 122              		.align	2
 123              	.LC2:
 124 0008 0A0A4265 		.ascii	"\012\012BeeBoard V1.0\012\000"
 124      65426F61 
 124      72642056 
 124      312E300A 
 124      00
 125 0019 000000   		.align	2
 126              	.LC3:
 127 001c 53595343 		.ascii	"SYSCLK: %d\012\000"
 127      4C4B3A20 
 127      25640A00 
 128              		.align	2
 129              	.LC4:
 130 0028 4C00     		.ascii	"L\000"
 131 002a 0000     		.align	2
 132              	.LC5:
 133 002c 4C494E4B 		.ascii	"LINK UP\012\000"
 133      2055500A 
 133      00
 134 0035 000000   		.align	2
 135              	.LC6:
 136 0038 4C494E4B 		.ascii	"LINK DOWN\012\000"
 136      20444F57 
 136      4E0A00
 137 0043 00       		.align	2
 138              	.LC7:
 139 0044 256300   		.ascii	"%c\000"
 140 0047 00       		.align	2
 141              	.LC8:
 142 0048 4F564552 		.ascii	"OVERRUN\012\000"
 142      52554E0A 
 142      00
 143 0051 000000   		.align	2
 144              	.LC9:
 145 0054 4652414D 		.ascii	"FRAMING ERROR\012\000"
 145      494E4720 
 145      4552524F 
 145      520A00
 146 0063 00       		.align	2
 147              	.LC10:
 148 0064 50415249 		.ascii	"PARITY ERROR\012\000"
 148      54592045 
 148      52524F52 
 148      0A00
ARM GAS  /home/pauba/tmp/ccBU01md.s 			page 4


 149 0072 0000     		.align	2
 150              	.LC0:
 151 0074 00040240 		.word	1073873920
 152 0078 05000000 		.word	5
 153 007c 00040240 		.word	1073873920
 154 0080 04000000 		.word	4
 155 0084 12000000 		.word	18
 156 0088 B80B     		.short	3000
 157 008a 03       		.byte	3
 158 008b 00       		.space	1
 159              		.section	.text.main,"ax",%progbits
 160              		.align	2
 161              		.p2align 4,,15
 162              		.global	main
 163              		.thumb
 164              		.thumb_func
 165              		.type	main, %function
 166              	main:
 167              	.LFB65:
 168              		.loc 2 61 0
 169              		.cfi_startproc
 170              		@ args = 0, pretend = 0, frame = 56
 171              		@ frame_needed = 0, uses_anonymous_args = 0
 172 0000 30B5     		push	{r4, r5, lr}
 173              		.cfi_def_cfa_offset 12
 174              		.cfi_offset 4, -12
 175              		.cfi_offset 5, -8
 176              		.cfi_offset 14, -4
 177 0002 91B0     		sub	sp, sp, #68
 178              		.cfi_def_cfa_offset 80
 179              		.loc 2 73 0
 180 0004 FFF7FEFF 		bl	halInit
 181              		.loc 2 74 0
 182 0008 FFF7FEFF 		bl	chSysInit
 183              		.loc 2 76 0
 184 000c 6148     		ldr	r0, .L18
 185 000e 0121     		movs	r1, #1
 186 0010 0322     		movs	r2, #3
 187 0012 FFF7FEFF 		bl	_pal_lld_setgroupmode
 188              		.loc 2 81 0
 189 0016 6048     		ldr	r0, .L18+4
 190 0018 0021     		movs	r1, #0
 191 001a FFF7FEFF 		bl	sdStart
 192              		.loc 2 82 0
 193 001e 5F4B     		ldr	r3, .L18+8
 194 0020 5D4A     		ldr	r2, .L18+4
 195 0022 1A60     		str	r2, [r3]
 196              		.loc 2 84 0
 197 0024 5E4B     		ldr	r3, .L18+12
 198 0026 0F93     		str	r3, [sp, #60]
 199              		.loc 2 85 0
 200 0028 5E4B     		ldr	r3, .L18+16
 201 002a 03AC     		add	r4, sp, #12
 202 002c 1D46     		mov	r5, r3
 203 002e 0FCD     		ldmia	r5!, {r0, r1, r2, r3}
 204 0030 0FC4     		stmia	r4!, {r0, r1, r2, r3}
 205 0032 95E80300 		ldmia	r5, {r0, r1}
ARM GAS  /home/pauba/tmp/ccBU01md.s 			page 5


 206 0036 84E80300 		stmia	r4, {r0, r1}
 207              		.loc 2 94 0
 208 003a FFF7FEFF 		bl	ldInit
 209              		.loc 2 95 0
 210 003e 03AB     		add	r3, sp, #12
 211 0040 5748     		ldr	r0, .L18+12
 212 0042 1946     		mov	r1, r3
 213 0044 FFF7FEFF 		bl	ldStart
 214              		.loc 2 97 0
 215 0048 544B     		ldr	r3, .L18+8
 216 004a 1B68     		ldr	r3, [r3]
 217 004c 1846     		mov	r0, r3
 218 004e 5649     		ldr	r1, .L18+20
 219 0050 FFF7FEFF 		bl	chprintf
 220              		.loc 2 98 0
 221 0054 514B     		ldr	r3, .L18+8
 222 0056 1B68     		ldr	r3, [r3]
 223 0058 1846     		mov	r0, r3
 224 005a 5449     		ldr	r1, .L18+24
 225 005c 544A     		ldr	r2, .L18+28
 226 005e FFF7FEFF 		bl	chprintf
 227              		.loc 2 103 0
 228 0062 0023     		movs	r3, #0
 229 0064 0093     		str	r3, [sp]
 230 0066 5348     		ldr	r0, .L18+32
 231 0068 4FF4A871 		mov	r1, #336
 232 006c 4022     		movs	r2, #64
 233 006e 524B     		ldr	r3, .L18+36
 234 0070 FFF7FEFF 		bl	chThdCreateStatic
 235              		.loc 2 105 0
 236 0074 0F9B     		ldr	r3, [sp, #60]
 237 0076 1A1D     		adds	r2, r3, #4
 238 0078 09AB     		add	r3, sp, #36
 239 007a 1046     		mov	r0, r2
 240 007c 1946     		mov	r1, r3
 241 007e 0422     		movs	r2, #4
 242 0080 FFF7FEFF 		bl	chEvtRegisterMask
 243              	.L17:
 244              		.loc 2 112 0
 245 0084 4D4B     		ldr	r3, .L18+40
 246 0086 1B69     		ldr	r3, [r3, #16]
 247 0088 5B0B     		lsrs	r3, r3, #13
 248 008a 03F00103 		and	r3, r3, #1
 249 008e 002B     		cmp	r3, #0
 250 0090 06D1     		bne	.L7
 251              		.loc 2 118 0
 252 0092 0F9B     		ldr	r3, [sp, #60]
 253 0094 1B68     		ldr	r3, [r3]
 254 0096 1B68     		ldr	r3, [r3]
 255 0098 0F98     		ldr	r0, [sp, #60]
 256 009a 4949     		ldr	r1, .L18+44
 257 009c 0122     		movs	r2, #1
 258 009e 9847     		blx	r3
 259              	.L7:
 260              		.loc 2 123 0
 261 00a0 0220     		movs	r0, #2
 262 00a2 0A21     		movs	r1, #10
ARM GAS  /home/pauba/tmp/ccBU01md.s 			page 6


 263 00a4 FFF7FEFF 		bl	chEvtWaitAllTimeout
 264              		.loc 2 124 0
 265 00a8 09AB     		add	r3, sp, #36
 266 00aa 1846     		mov	r0, r3
 267 00ac FFF7FEFF 		bl	chEvtGetAndClearFlags
 268 00b0 0E90     		str	r0, [sp, #56]
 269              		.loc 2 126 0
 270 00b2 0E9B     		ldr	r3, [sp, #56]
 271 00b4 002B     		cmp	r3, #0
 272 00b6 00D1     		bne	.L8
 273              		.loc 2 127 0
 274 00b8 6BE0     		b	.L9
 275              	.L8:
 276              		.loc 2 129 0
 277 00ba 0E9B     		ldr	r3, [sp, #56]
 278 00bc 03F00103 		and	r3, r3, #1
 279 00c0 002B     		cmp	r3, #0
 280 00c2 08D0     		beq	.L10
 281              		.loc 2 130 0
 282 00c4 354B     		ldr	r3, .L18+8
 283 00c6 1B68     		ldr	r3, [r3]
 284 00c8 1846     		mov	r0, r3
 285 00ca 3E49     		ldr	r1, .L18+48
 286 00cc FFF7FEFF 		bl	chprintf
 287              		.loc 2 131 0
 288 00d0 304B     		ldr	r3, .L18
 289 00d2 2022     		movs	r2, #32
 290 00d4 1A83     		strh	r2, [r3, #24]	@ movhi
 291              	.L10:
 292              		.loc 2 135 0
 293 00d6 0E9B     		ldr	r3, [sp, #56]
 294 00d8 03F00203 		and	r3, r3, #2
 295 00dc 002B     		cmp	r3, #0
 296 00de 08D0     		beq	.L11
 297              		.loc 2 136 0
 298 00e0 2E4B     		ldr	r3, .L18+8
 299 00e2 1B68     		ldr	r3, [r3]
 300 00e4 1846     		mov	r0, r3
 301 00e6 3849     		ldr	r1, .L18+52
 302 00e8 FFF7FEFF 		bl	chprintf
 303              		.loc 2 137 0
 304 00ec 294B     		ldr	r3, .L18
 305 00ee 2022     		movs	r2, #32
 306 00f0 5A83     		strh	r2, [r3, #26]	@ movhi
 307              	.L11:
 308              		.loc 2 139 0
 309 00f2 0E9B     		ldr	r3, [sp, #56]
 310 00f4 03F00403 		and	r3, r3, #4
 311 00f8 002B     		cmp	r3, #0
 312 00fa 1FD0     		beq	.L12
 313              	.L14:
 314              	.LBB2:
 315              		.loc 2 143 0
 316 00fc 0F9B     		ldr	r3, [sp, #60]
 317 00fe 1B68     		ldr	r3, [r3]
 318 0100 5B69     		ldr	r3, [r3, #20]
 319 0102 0F98     		ldr	r0, [sp, #60]
ARM GAS  /home/pauba/tmp/ccBU01md.s 			page 7


 320 0104 0021     		movs	r1, #0
 321 0106 9847     		blx	r3
 322 0108 0D90     		str	r0, [sp, #52]
 323              		.loc 2 144 0
 324 010a 0D9B     		ldr	r3, [sp, #52]
 325 010c B3F1FF3F 		cmp	r3, #-1
 326 0110 10D0     		beq	.L13
 327              		.loc 2 145 0
 328 0112 224B     		ldr	r3, .L18+8
 329 0114 1A68     		ldr	r2, [r3]
 330 0116 0D9B     		ldr	r3, [sp, #52]
 331 0118 DBB2     		uxtb	r3, r3
 332 011a 1046     		mov	r0, r2
 333 011c 2B49     		ldr	r1, .L18+56
 334 011e 1A46     		mov	r2, r3
 335 0120 FFF7FEFF 		bl	chprintf
 336              		.loc 2 146 0
 337 0124 0F9B     		ldr	r3, [sp, #60]
 338 0126 1B68     		ldr	r3, [r3]
 339 0128 9B68     		ldr	r3, [r3, #8]
 340 012a 0D9A     		ldr	r2, [sp, #52]
 341 012c D2B2     		uxtb	r2, r2
 342 012e 0F98     		ldr	r0, [sp, #60]
 343 0130 1146     		mov	r1, r2
 344 0132 9847     		blx	r3
 345              	.L13:
 346              		.loc 2 148 0
 347 0134 0D9B     		ldr	r3, [sp, #52]
 348 0136 B3F1FF3F 		cmp	r3, #-1
 349 013a DFD1     		bne	.L14
 350              	.L12:
 351              	.LBE2:
 352              		.loc 2 150 0
 353 013c 0E9B     		ldr	r3, [sp, #56]
 354 013e 03F08003 		and	r3, r3, #128
 355 0142 002B     		cmp	r3, #0
 356 0144 08D0     		beq	.L15
 357              		.loc 2 151 0
 358 0146 154B     		ldr	r3, .L18+8
 359 0148 1B68     		ldr	r3, [r3]
 360 014a 1846     		mov	r0, r3
 361 014c 2049     		ldr	r1, .L18+60
 362 014e FFF7FEFF 		bl	chprintf
 363              		.loc 2 152 0
 364 0152 104B     		ldr	r3, .L18
 365 0154 2022     		movs	r2, #32
 366 0156 5A83     		strh	r2, [r3, #26]	@ movhi
 367              	.L15:
 368              		.loc 2 154 0
 369 0158 0E9B     		ldr	r3, [sp, #56]
 370 015a 03F04003 		and	r3, r3, #64
 371 015e 002B     		cmp	r3, #0
 372 0160 08D0     		beq	.L16
 373              		.loc 2 155 0
 374 0162 0E4B     		ldr	r3, .L18+8
 375 0164 1B68     		ldr	r3, [r3]
 376 0166 1846     		mov	r0, r3
ARM GAS  /home/pauba/tmp/ccBU01md.s 			page 8


 377 0168 1A49     		ldr	r1, .L18+64
 378 016a FFF7FEFF 		bl	chprintf
 379              		.loc 2 156 0
 380 016e 094B     		ldr	r3, .L18
 381 0170 2022     		movs	r2, #32
 382 0172 5A83     		strh	r2, [r3, #26]	@ movhi
 383              	.L16:
 384              		.loc 2 158 0
 385 0174 0E9B     		ldr	r3, [sp, #56]
 386 0176 03F02003 		and	r3, r3, #32
 387 017a 002B     		cmp	r3, #0
 388 017c 09D0     		beq	.L9
 389              		.loc 2 159 0
 390 017e 074B     		ldr	r3, .L18+8
 391 0180 1B68     		ldr	r3, [r3]
 392 0182 1846     		mov	r0, r3
 393 0184 1449     		ldr	r1, .L18+68
 394 0186 FFF7FEFF 		bl	chprintf
 395              		.loc 2 160 0
 396 018a 024B     		ldr	r3, .L18
 397 018c 2022     		movs	r2, #32
 398 018e 5A83     		strh	r2, [r3, #26]	@ movhi
 399              		.loc 2 162 0
 400 0190 78E7     		b	.L17
 401              	.L9:
 402 0192 77E7     		b	.L17
 403              	.L19:
 404              		.align	2
 405              	.L18:
 406 0194 00000240 		.word	1073872896
 407 0198 00000000 		.word	SD2
 408 019c 00000000 		.word	chp
 409 01a0 00000000 		.word	LCOM2
 410 01a4 74000000 		.word	.LC0
 411 01a8 08000000 		.word	.LC2
 412 01ac 1C000000 		.word	.LC3
 413 01b0 0048E801 		.word	32000000
 414 01b4 00000000 		.word	waThread1
 415 01b8 00000000 		.word	Thread1
 416 01bc 00080240 		.word	1073874944
 417 01c0 28000000 		.word	.LC4
 418 01c4 2C000000 		.word	.LC5
 419 01c8 38000000 		.word	.LC6
 420 01cc 44000000 		.word	.LC7
 421 01d0 48000000 		.word	.LC8
 422 01d4 54000000 		.word	.LC9
 423 01d8 64000000 		.word	.LC10
 424              		.cfi_endproc
 425              	.LFE65:
 426              		.size	main, .-main
 427 01dc AFF30080 		.text
 428              	.Letext0:
 429              		.file 3 "/opt/gcc-arm-none-eabi-4_8-2014q1/lib/gcc/arm-none-eabi/4.8.3/include/stddef.h"
 430              		.file 4 "/opt/gcc-arm-none-eabi-4_8-2014q1/arm-none-eabi/include/machine/_default_types.h"
 431              		.file 5 "/opt/gcc-arm-none-eabi-4_8-2014q1/arm-none-eabi/include/stdint.h"
 432              		.file 6 "/home/pauba/ChibiOS-RT/os/ports/GCC/ARMCMx/chtypes.h"
 433              		.file 7 "/home/pauba/ChibiOS-RT/os/kernel/include/chlists.h"
ARM GAS  /home/pauba/tmp/ccBU01md.s 			page 9


 434              		.file 8 "/home/pauba/ChibiOS-RT/os/kernel/include/chthreads.h"
 435              		.file 9 "/home/pauba/ChibiOS-RT/os/ports/GCC/ARMCMx/chcore_v7m.h"
 436              		.file 10 "/home/pauba/ChibiOS-RT/os/kernel/include/chschd.h"
 437              		.file 11 "/home/pauba/ChibiOS-RT/os/kernel/include/chmtx.h"
 438              		.file 12 "/home/pauba/ChibiOS-RT/os/kernel/include/chevents.h"
 439              		.file 13 "/home/pauba/ChibiOS-RT/os/kernel/include/chqueues.h"
 440              		.file 14 "/home/pauba/ChibiOS-RT/os/kernel/include/chstreams.h"
 441              		.file 15 "/home/pauba/ChibiOS-RT/os/hal/platforms/STM32L1xx/stm32l1xx.h"
 442              		.file 16 "/home/pauba/ChibiOS-RT/os/hal/include/io_channel.h"
 443              		.file 17 "/home/pauba/ChibiOS-RT/os/hal/platforms/STM32/GPIOv2/pal_lld.h"
 444              		.file 18 "/home/pauba/ChibiOS-RT/os/hal/include/serial.h"
 445              		.file 19 "/opt/gcc-arm-none-eabi-4_8-2014q1/lib/gcc/arm-none-eabi/4.8.3/include/stdarg.h"
 446              		.file 20 "<built-in>"
 447              		.file 21 "/home/pauba/ChibiOS-RT/ext/LEDComm/ledcomm.h"
 448              		.file 22 "/home/pauba/ChibiOS-RT/os/ports/common/ARMCMx/CMSIS/include/core_cm3.h"
 449              		.file 23 "/home/pauba/ChibiOS-RT/os/hal/platforms/STM32/USARTv1/serial_lld.h"
 450              		.section	.debug_info,"",%progbits
 451              	.Ldebug_info0:
 452 0000 B30E0000 		.4byte	0xeb3
 453 0004 0400     		.2byte	0x4
 454 0006 00000000 		.4byte	.Ldebug_abbrev0
 455 000a 04       		.byte	0x4
 456 000b 01       		.uleb128 0x1
 457 000c 57050000 		.4byte	.LASF179
 458 0010 01       		.byte	0x1
 459 0011 6B030000 		.4byte	.LASF180
 460 0015 25030000 		.4byte	.LASF181
 461 0019 00000000 		.4byte	.Ldebug_ranges0+0
 462 001d 00000000 		.4byte	0
 463 0021 00000000 		.4byte	.Ldebug_line0
 464 0025 02       		.uleb128 0x2
 465 0026 04       		.byte	0x4
 466 0027 05       		.byte	0x5
 467 0028 696E7400 		.ascii	"int\000"
 468 002c 03       		.uleb128 0x3
 469 002d 11000000 		.4byte	.LASF2
 470 0031 03       		.byte	0x3
 471 0032 D4       		.byte	0xd4
 472 0033 37000000 		.4byte	0x37
 473 0037 04       		.uleb128 0x4
 474 0038 04       		.byte	0x4
 475 0039 07       		.byte	0x7
 476 003a DC010000 		.4byte	.LASF0
 477 003e 04       		.uleb128 0x4
 478 003f 01       		.byte	0x1
 479 0040 06       		.byte	0x6
 480 0041 CA000000 		.4byte	.LASF1
 481 0045 03       		.uleb128 0x3
 482 0046 40000000 		.4byte	.LASF3
 483 004a 04       		.byte	0x4
 484 004b 1C       		.byte	0x1c
 485 004c 50000000 		.4byte	0x50
 486 0050 04       		.uleb128 0x4
 487 0051 01       		.byte	0x1
 488 0052 08       		.byte	0x8
 489 0053 38040000 		.4byte	.LASF4
 490 0057 04       		.uleb128 0x4
ARM GAS  /home/pauba/tmp/ccBU01md.s 			page 10


 491 0058 02       		.byte	0x2
 492 0059 05       		.byte	0x5
 493 005a 65040000 		.4byte	.LASF5
 494 005e 03       		.uleb128 0x3
 495 005f 63060000 		.4byte	.LASF6
 496 0063 04       		.byte	0x4
 497 0064 26       		.byte	0x26
 498 0065 69000000 		.4byte	0x69
 499 0069 04       		.uleb128 0x4
 500 006a 02       		.byte	0x2
 501 006b 07       		.byte	0x7
 502 006c 38020000 		.4byte	.LASF7
 503 0070 03       		.uleb128 0x3
 504 0071 90060000 		.4byte	.LASF8
 505 0075 04       		.byte	0x4
 506 0076 37       		.byte	0x37
 507 0077 7B000000 		.4byte	0x7b
 508 007b 04       		.uleb128 0x4
 509 007c 04       		.byte	0x4
 510 007d 05       		.byte	0x5
 511 007e 08010000 		.4byte	.LASF9
 512 0082 03       		.uleb128 0x3
 513 0083 9A060000 		.4byte	.LASF10
 514 0087 04       		.byte	0x4
 515 0088 38       		.byte	0x38
 516 0089 8D000000 		.4byte	0x8d
 517 008d 04       		.uleb128 0x4
 518 008e 04       		.byte	0x4
 519 008f 07       		.byte	0x7
 520 0090 2D060000 		.4byte	.LASF11
 521 0094 04       		.uleb128 0x4
 522 0095 08       		.byte	0x8
 523 0096 05       		.byte	0x5
 524 0097 BC000000 		.4byte	.LASF12
 525 009b 03       		.uleb128 0x3
 526 009c 89030000 		.4byte	.LASF13
 527 00a0 04       		.byte	0x4
 528 00a1 4E       		.byte	0x4e
 529 00a2 A6000000 		.4byte	0xa6
 530 00a6 04       		.uleb128 0x4
 531 00a7 08       		.byte	0x8
 532 00a8 07       		.byte	0x7
 533 00a9 72000000 		.4byte	.LASF14
 534 00ad 03       		.uleb128 0x3
 535 00ae 44070000 		.4byte	.LASF15
 536 00b2 05       		.byte	0x5
 537 00b3 2A       		.byte	0x2a
 538 00b4 45000000 		.4byte	0x45
 539 00b8 03       		.uleb128 0x3
 540 00b9 E9010000 		.4byte	.LASF16
 541 00bd 05       		.byte	0x5
 542 00be 36       		.byte	0x36
 543 00bf 5E000000 		.4byte	0x5e
 544 00c3 03       		.uleb128 0x3
 545 00c4 30040000 		.4byte	.LASF17
 546 00c8 05       		.byte	0x5
 547 00c9 41       		.byte	0x41
ARM GAS  /home/pauba/tmp/ccBU01md.s 			page 11


 548 00ca 70000000 		.4byte	0x70
 549 00ce 03       		.uleb128 0x3
 550 00cf FD060000 		.4byte	.LASF18
 551 00d3 05       		.byte	0x5
 552 00d4 42       		.byte	0x42
 553 00d5 82000000 		.4byte	0x82
 554 00d9 03       		.uleb128 0x3
 555 00da 1F000000 		.4byte	.LASF19
 556 00de 05       		.byte	0x5
 557 00df 4E       		.byte	0x4e
 558 00e0 9B000000 		.4byte	0x9b
 559 00e4 04       		.uleb128 0x4
 560 00e5 01       		.byte	0x1
 561 00e6 02       		.byte	0x2
 562 00e7 2A040000 		.4byte	.LASF20
 563 00eb 03       		.uleb128 0x3
 564 00ec 85020000 		.4byte	.LASF21
 565 00f0 06       		.byte	0x6
 566 00f1 2C       		.byte	0x2c
 567 00f2 AD000000 		.4byte	0xad
 568 00f6 03       		.uleb128 0x3
 569 00f7 11010000 		.4byte	.LASF22
 570 00fb 06       		.byte	0x6
 571 00fc 2D       		.byte	0x2d
 572 00fd AD000000 		.4byte	0xad
 573 0101 03       		.uleb128 0x3
 574 0102 B9030000 		.4byte	.LASF23
 575 0106 06       		.byte	0x6
 576 0107 2E       		.byte	0x2e
 577 0108 AD000000 		.4byte	0xad
 578 010c 03       		.uleb128 0x3
 579 010d F8000000 		.4byte	.LASF24
 580 0111 06       		.byte	0x6
 581 0112 2F       		.byte	0x2f
 582 0113 AD000000 		.4byte	0xad
 583 0117 03       		.uleb128 0x3
 584 0118 04040000 		.4byte	.LASF25
 585 011c 06       		.byte	0x6
 586 011d 30       		.byte	0x30
 587 011e CE000000 		.4byte	0xce
 588 0122 03       		.uleb128 0x3
 589 0123 4B020000 		.4byte	.LASF26
 590 0127 06       		.byte	0x6
 591 0128 31       		.byte	0x31
 592 0129 C3000000 		.4byte	0xc3
 593 012d 03       		.uleb128 0x3
 594 012e 34000000 		.4byte	.LASF27
 595 0132 06       		.byte	0x6
 596 0133 33       		.byte	0x33
 597 0134 CE000000 		.4byte	0xce
 598 0138 03       		.uleb128 0x3
 599 0139 F1040000 		.4byte	.LASF28
 600 013d 06       		.byte	0x6
 601 013e 34       		.byte	0x34
 602 013f CE000000 		.4byte	0xce
 603 0143 03       		.uleb128 0x3
 604 0144 7B060000 		.4byte	.LASF29
ARM GAS  /home/pauba/tmp/ccBU01md.s 			page 12


 605 0148 06       		.byte	0x6
 606 0149 35       		.byte	0x35
 607 014a CE000000 		.4byte	0xce
 608 014e 03       		.uleb128 0x3
 609 014f DD040000 		.4byte	.LASF30
 610 0153 07       		.byte	0x7
 611 0154 2A       		.byte	0x2a
 612 0155 59010000 		.4byte	0x159
 613 0159 05       		.uleb128 0x5
 614 015a DD040000 		.4byte	.LASF30
 615 015e 4C       		.byte	0x4c
 616 015f 08       		.byte	0x8
 617 0160 5E       		.byte	0x5e
 618 0161 62020000 		.4byte	0x262
 619 0165 06       		.uleb128 0x6
 620 0166 8F040000 		.4byte	.LASF31
 621 016a 08       		.byte	0x8
 622 016b 5F       		.byte	0x5f
 623 016c 83020000 		.4byte	0x283
 624 0170 00       		.byte	0
 625 0171 06       		.uleb128 0x6
 626 0172 F3030000 		.4byte	.LASF32
 627 0176 08       		.byte	0x8
 628 0177 61       		.byte	0x61
 629 0178 83020000 		.4byte	0x283
 630 017c 04       		.byte	0x4
 631 017d 06       		.uleb128 0x6
 632 017e A5000000 		.4byte	.LASF33
 633 0182 08       		.byte	0x8
 634 0183 63       		.byte	0x63
 635 0184 17010000 		.4byte	0x117
 636 0188 08       		.byte	0x8
 637 0189 06       		.uleb128 0x6
 638 018a B2070000 		.4byte	.LASF34
 639 018e 08       		.byte	0x8
 640 018f 64       		.byte	0x64
 641 0190 48030000 		.4byte	0x348
 642 0194 0C       		.byte	0xc
 643 0195 06       		.uleb128 0x6
 644 0196 63010000 		.4byte	.LASF35
 645 019a 08       		.byte	0x8
 646 019b 66       		.byte	0x66
 647 019c 83020000 		.4byte	0x283
 648 01a0 10       		.byte	0x10
 649 01a1 06       		.uleb128 0x6
 650 01a2 0A030000 		.4byte	.LASF36
 651 01a6 08       		.byte	0x8
 652 01a7 67       		.byte	0x67
 653 01a8 83020000 		.4byte	0x283
 654 01ac 14       		.byte	0x14
 655 01ad 06       		.uleb128 0x6
 656 01ae 12070000 		.4byte	.LASF37
 657 01b2 08       		.byte	0x8
 658 01b3 6E       		.byte	0x6e
 659 01b4 BF040000 		.4byte	0x4bf
 660 01b8 18       		.byte	0x18
 661 01b9 06       		.uleb128 0x6
ARM GAS  /home/pauba/tmp/ccBU01md.s 			page 13


 662 01ba 60030000 		.4byte	.LASF38
 663 01be 08       		.byte	0x8
 664 01bf 74       		.byte	0x74
 665 01c0 D1040000 		.4byte	0x4d1
 666 01c4 1C       		.byte	0x1c
 667 01c5 06       		.uleb128 0x6
 668 01c6 6F040000 		.4byte	.LASF39
 669 01ca 08       		.byte	0x8
 670 01cb 79       		.byte	0x79
 671 01cc F6000000 		.4byte	0xf6
 672 01d0 20       		.byte	0x20
 673 01d1 06       		.uleb128 0x6
 674 01d2 AE040000 		.4byte	.LASF40
 675 01d6 08       		.byte	0x8
 676 01d7 7D       		.byte	0x7d
 677 01d8 EB000000 		.4byte	0xeb
 678 01dc 21       		.byte	0x21
 679 01dd 06       		.uleb128 0x6
 680 01de 30010000 		.4byte	.LASF41
 681 01e2 08       		.byte	0x8
 682 01e3 82       		.byte	0x82
 683 01e4 01010000 		.4byte	0x101
 684 01e8 22       		.byte	0x22
 685 01e9 06       		.uleb128 0x6
 686 01ea 77040000 		.4byte	.LASF42
 687 01ee 08       		.byte	0x8
 688 01ef 88       		.byte	0x88
 689 01f0 0C010000 		.4byte	0x10c
 690 01f4 23       		.byte	0x23
 691 01f5 06       		.uleb128 0x6
 692 01f6 02020000 		.4byte	.LASF43
 693 01fa 08       		.byte	0x8
 694 01fb 8F       		.byte	0x8f
 695 01fc 75030000 		.4byte	0x375
 696 0200 24       		.byte	0x24
 697 0201 07       		.uleb128 0x7
 698 0202 705F7500 		.ascii	"p_u\000"
 699 0206 08       		.byte	0x8
 700 0207 B4       		.byte	0xb4
 701 0208 8A040000 		.4byte	0x48a
 702 020c 28       		.byte	0x28
 703 020d 06       		.uleb128 0x6
 704 020e B8070000 		.4byte	.LASF44
 705 0212 08       		.byte	0x8
 706 0213 B9       		.byte	0xb9
 707 0214 A9020000 		.4byte	0x2a9
 708 0218 2C       		.byte	0x2c
 709 0219 06       		.uleb128 0x6
 710 021a 10020000 		.4byte	.LASF45
 711 021e 08       		.byte	0x8
 712 021f BF       		.byte	0xbf
 713 0220 89020000 		.4byte	0x289
 714 0224 30       		.byte	0x30
 715 0225 06       		.uleb128 0x6
 716 0226 7A070000 		.4byte	.LASF46
 717 022a 08       		.byte	0x8
 718 022b C3       		.byte	0xc3
ARM GAS  /home/pauba/tmp/ccBU01md.s 			page 14


 719 022c 22010000 		.4byte	0x122
 720 0230 38       		.byte	0x38
 721 0231 06       		.uleb128 0x6
 722 0232 FD040000 		.4byte	.LASF47
 723 0236 08       		.byte	0x8
 724 0237 C9       		.byte	0xc9
 725 0238 2D010000 		.4byte	0x12d
 726 023c 3C       		.byte	0x3c
 727 023d 06       		.uleb128 0x6
 728 023e 5B040000 		.4byte	.LASF48
 729 0242 08       		.byte	0x8
 730 0243 D0       		.byte	0xd0
 731 0244 D7040000 		.4byte	0x4d7
 732 0248 40       		.byte	0x40
 733 0249 06       		.uleb128 0x6
 734 024a 85060000 		.4byte	.LASF49
 735 024e 08       		.byte	0x8
 736 024f D4       		.byte	0xd4
 737 0250 17010000 		.4byte	0x117
 738 0254 44       		.byte	0x44
 739 0255 06       		.uleb128 0x6
 740 0256 E8000000 		.4byte	.LASF50
 741 025a 08       		.byte	0x8
 742 025b DA       		.byte	0xda
 743 025c BF020000 		.4byte	0x2bf
 744 0260 48       		.byte	0x48
 745 0261 00       		.byte	0
 746 0262 08       		.uleb128 0x8
 747 0263 08       		.byte	0x8
 748 0264 07       		.byte	0x7
 749 0265 61       		.byte	0x61
 750 0266 83020000 		.4byte	0x283
 751 026a 06       		.uleb128 0x6
 752 026b 8F040000 		.4byte	.LASF31
 753 026f 07       		.byte	0x7
 754 0270 62       		.byte	0x62
 755 0271 83020000 		.4byte	0x283
 756 0275 00       		.byte	0
 757 0276 06       		.uleb128 0x6
 758 0277 F3030000 		.4byte	.LASF32
 759 027b 07       		.byte	0x7
 760 027c 64       		.byte	0x64
 761 027d 83020000 		.4byte	0x283
 762 0281 04       		.byte	0x4
 763 0282 00       		.byte	0
 764 0283 09       		.uleb128 0x9
 765 0284 04       		.byte	0x4
 766 0285 4E010000 		.4byte	0x14e
 767 0289 03       		.uleb128 0x3
 768 028a 18030000 		.4byte	.LASF51
 769 028e 07       		.byte	0x7
 770 028f 66       		.byte	0x66
 771 0290 62020000 		.4byte	0x262
 772 0294 08       		.uleb128 0x8
 773 0295 04       		.byte	0x4
 774 0296 07       		.byte	0x7
 775 0297 6B       		.byte	0x6b
ARM GAS  /home/pauba/tmp/ccBU01md.s 			page 15


 776 0298 A9020000 		.4byte	0x2a9
 777 029c 06       		.uleb128 0x6
 778 029d 8F040000 		.4byte	.LASF31
 779 02a1 07       		.byte	0x7
 780 02a2 6D       		.byte	0x6d
 781 02a3 83020000 		.4byte	0x283
 782 02a7 00       		.byte	0
 783 02a8 00       		.byte	0
 784 02a9 03       		.uleb128 0x3
 785 02aa 8D020000 		.4byte	.LASF52
 786 02ae 07       		.byte	0x7
 787 02af 70       		.byte	0x70
 788 02b0 94020000 		.4byte	0x294
 789 02b4 03       		.uleb128 0x3
 790 02b5 26050000 		.4byte	.LASF53
 791 02b9 09       		.byte	0x9
 792 02ba E5       		.byte	0xe5
 793 02bb BF020000 		.4byte	0x2bf
 794 02bf 0A       		.uleb128 0xa
 795 02c0 04       		.byte	0x4
 796 02c1 03       		.uleb128 0x3
 797 02c2 C1020000 		.4byte	.LASF54
 798 02c6 09       		.byte	0x9
 799 02c7 EB       		.byte	0xeb
 800 02c8 D9000000 		.4byte	0xd9
 801 02cc 0B       		.uleb128 0xb
 802 02cd BD060000 		.4byte	.LASF55
 803 02d1 24       		.byte	0x24
 804 02d2 09       		.byte	0x9
 805 02d3 0C01     		.2byte	0x10c
 806 02d5 48030000 		.4byte	0x348
 807 02d9 0C       		.uleb128 0xc
 808 02da 723400   		.ascii	"r4\000"
 809 02dd 09       		.byte	0x9
 810 02de 1F01     		.2byte	0x11f
 811 02e0 B4020000 		.4byte	0x2b4
 812 02e4 00       		.byte	0
 813 02e5 0C       		.uleb128 0xc
 814 02e6 723500   		.ascii	"r5\000"
 815 02e9 09       		.byte	0x9
 816 02ea 2001     		.2byte	0x120
 817 02ec B4020000 		.4byte	0x2b4
 818 02f0 04       		.byte	0x4
 819 02f1 0C       		.uleb128 0xc
 820 02f2 723600   		.ascii	"r6\000"
 821 02f5 09       		.byte	0x9
 822 02f6 2101     		.2byte	0x121
 823 02f8 B4020000 		.4byte	0x2b4
 824 02fc 08       		.byte	0x8
 825 02fd 0C       		.uleb128 0xc
 826 02fe 723700   		.ascii	"r7\000"
 827 0301 09       		.byte	0x9
 828 0302 2201     		.2byte	0x122
 829 0304 B4020000 		.4byte	0x2b4
 830 0308 0C       		.byte	0xc
 831 0309 0C       		.uleb128 0xc
 832 030a 723800   		.ascii	"r8\000"
ARM GAS  /home/pauba/tmp/ccBU01md.s 			page 16


 833 030d 09       		.byte	0x9
 834 030e 2301     		.2byte	0x123
 835 0310 B4020000 		.4byte	0x2b4
 836 0314 10       		.byte	0x10
 837 0315 0C       		.uleb128 0xc
 838 0316 723900   		.ascii	"r9\000"
 839 0319 09       		.byte	0x9
 840 031a 2401     		.2byte	0x124
 841 031c B4020000 		.4byte	0x2b4
 842 0320 14       		.byte	0x14
 843 0321 0C       		.uleb128 0xc
 844 0322 72313000 		.ascii	"r10\000"
 845 0326 09       		.byte	0x9
 846 0327 2501     		.2byte	0x125
 847 0329 B4020000 		.4byte	0x2b4
 848 032d 18       		.byte	0x18
 849 032e 0C       		.uleb128 0xc
 850 032f 72313100 		.ascii	"r11\000"
 851 0333 09       		.byte	0x9
 852 0334 2601     		.2byte	0x126
 853 0336 B4020000 		.4byte	0x2b4
 854 033a 1C       		.byte	0x1c
 855 033b 0C       		.uleb128 0xc
 856 033c 6C7200   		.ascii	"lr\000"
 857 033f 09       		.byte	0x9
 858 0340 2701     		.2byte	0x127
 859 0342 B4020000 		.4byte	0x2b4
 860 0346 20       		.byte	0x20
 861 0347 00       		.byte	0
 862 0348 0B       		.uleb128 0xb
 863 0349 B5060000 		.4byte	.LASF56
 864 034d 04       		.byte	0x4
 865 034e 09       		.byte	0x9
 866 034f 3101     		.2byte	0x131
 867 0351 63030000 		.4byte	0x363
 868 0355 0C       		.uleb128 0xc
 869 0356 72313300 		.ascii	"r13\000"
 870 035a 09       		.byte	0x9
 871 035b 3201     		.2byte	0x132
 872 035d 63030000 		.4byte	0x363
 873 0361 00       		.byte	0
 874 0362 00       		.byte	0
 875 0363 09       		.uleb128 0x9
 876 0364 04       		.byte	0x4
 877 0365 CC020000 		.4byte	0x2cc
 878 0369 0D       		.uleb128 0xd
 879 036a CE000000 		.4byte	0xce
 880 036e 04       		.uleb128 0x4
 881 036f 04       		.byte	0x4
 882 0370 07       		.byte	0x7
 883 0371 DF020000 		.4byte	.LASF57
 884 0375 0D       		.uleb128 0xd
 885 0376 43010000 		.4byte	0x143
 886 037a 08       		.uleb128 0x8
 887 037b 1C       		.byte	0x1c
 888 037c 0A       		.byte	0xa
 889 037d 5E       		.byte	0x5e
ARM GAS  /home/pauba/tmp/ccBU01md.s 			page 17


 890 037e CB030000 		.4byte	0x3cb
 891 0382 06       		.uleb128 0x6
 892 0383 2F050000 		.4byte	.LASF58
 893 0387 0A       		.byte	0xa
 894 0388 5F       		.byte	0x5f
 895 0389 89020000 		.4byte	0x289
 896 038d 00       		.byte	0
 897 038e 06       		.uleb128 0x6
 898 038f 81040000 		.4byte	.LASF59
 899 0393 0A       		.byte	0xa
 900 0394 60       		.byte	0x60
 901 0395 17010000 		.4byte	0x117
 902 0399 08       		.byte	0x8
 903 039a 06       		.uleb128 0x6
 904 039b 12030000 		.4byte	.LASF60
 905 039f 0A       		.byte	0xa
 906 03a0 62       		.byte	0x62
 907 03a1 48030000 		.4byte	0x348
 908 03a5 0C       		.byte	0xc
 909 03a6 06       		.uleb128 0x6
 910 03a7 7A010000 		.4byte	.LASF61
 911 03ab 0A       		.byte	0xa
 912 03ac 65       		.byte	0x65
 913 03ad 83020000 		.4byte	0x283
 914 03b1 10       		.byte	0x10
 915 03b2 06       		.uleb128 0x6
 916 03b3 72030000 		.4byte	.LASF62
 917 03b7 0A       		.byte	0xa
 918 03b8 66       		.byte	0x66
 919 03b9 83020000 		.4byte	0x283
 920 03bd 14       		.byte	0x14
 921 03be 06       		.uleb128 0x6
 922 03bf 3F060000 		.4byte	.LASF63
 923 03c3 0A       		.byte	0xa
 924 03c4 69       		.byte	0x69
 925 03c5 83020000 		.4byte	0x283
 926 03c9 18       		.byte	0x18
 927 03ca 00       		.byte	0
 928 03cb 03       		.uleb128 0x3
 929 03cc 2B070000 		.4byte	.LASF64
 930 03d0 0A       		.byte	0xa
 931 03d1 6B       		.byte	0x6b
 932 03d2 7A030000 		.4byte	0x37a
 933 03d6 05       		.uleb128 0x5
 934 03d7 EE020000 		.4byte	.LASF65
 935 03db 10       		.byte	0x10
 936 03dc 0B       		.byte	0xb
 937 03dd 2C       		.byte	0x2c
 938 03de 07040000 		.4byte	0x407
 939 03e2 06       		.uleb128 0x6
 940 03e3 F0000000 		.4byte	.LASF66
 941 03e7 0B       		.byte	0xb
 942 03e8 2D       		.byte	0x2d
 943 03e9 89020000 		.4byte	0x289
 944 03ed 00       		.byte	0
 945 03ee 06       		.uleb128 0x6
 946 03ef 98070000 		.4byte	.LASF67
ARM GAS  /home/pauba/tmp/ccBU01md.s 			page 18


 947 03f3 0B       		.byte	0xb
 948 03f4 2F       		.byte	0x2f
 949 03f5 83020000 		.4byte	0x283
 950 03f9 08       		.byte	0x8
 951 03fa 06       		.uleb128 0x6
 952 03fb 74060000 		.4byte	.LASF68
 953 03ff 0B       		.byte	0xb
 954 0400 31       		.byte	0x31
 955 0401 07040000 		.4byte	0x407
 956 0405 0C       		.byte	0xc
 957 0406 00       		.byte	0
 958 0407 09       		.uleb128 0x9
 959 0408 04       		.byte	0x4
 960 0409 D6030000 		.4byte	0x3d6
 961 040d 03       		.uleb128 0x3
 962 040e EE020000 		.4byte	.LASF65
 963 0412 0B       		.byte	0xb
 964 0413 33       		.byte	0x33
 965 0414 D6030000 		.4byte	0x3d6
 966 0418 03       		.uleb128 0x3
 967 0419 59070000 		.4byte	.LASF69
 968 041d 0C       		.byte	0xc
 969 041e 2C       		.byte	0x2c
 970 041f 23040000 		.4byte	0x423
 971 0423 05       		.uleb128 0x5
 972 0424 59070000 		.4byte	.LASF69
 973 0428 10       		.byte	0x10
 974 0429 0C       		.byte	0xc
 975 042a 31       		.byte	0x31
 976 042b 60040000 		.4byte	0x460
 977 042f 06       		.uleb128 0x6
 978 0430 B6040000 		.4byte	.LASF70
 979 0434 0C       		.byte	0xc
 980 0435 32       		.byte	0x32
 981 0436 60040000 		.4byte	0x460
 982 043a 00       		.byte	0
 983 043b 06       		.uleb128 0x6
 984 043c 46040000 		.4byte	.LASF71
 985 0440 0C       		.byte	0xc
 986 0441 35       		.byte	0x35
 987 0442 83020000 		.4byte	0x283
 988 0446 04       		.byte	0x4
 989 0447 06       		.uleb128 0x6
 990 0448 7A030000 		.4byte	.LASF72
 991 044c 0C       		.byte	0xc
 992 044d 37       		.byte	0x37
 993 044e 2D010000 		.4byte	0x12d
 994 0452 08       		.byte	0x8
 995 0453 06       		.uleb128 0x6
 996 0454 52040000 		.4byte	.LASF73
 997 0458 0C       		.byte	0xc
 998 0459 3A       		.byte	0x3a
 999 045a 38010000 		.4byte	0x138
 1000 045e 0C       		.byte	0xc
 1001 045f 00       		.byte	0
 1002 0460 09       		.uleb128 0x9
 1003 0461 04       		.byte	0x4
ARM GAS  /home/pauba/tmp/ccBU01md.s 			page 19


 1004 0462 18040000 		.4byte	0x418
 1005 0466 05       		.uleb128 0x5
 1006 0467 A0010000 		.4byte	.LASF74
 1007 046b 04       		.byte	0x4
 1008 046c 0C       		.byte	0xc
 1009 046d 41       		.byte	0x41
 1010 046e 7F040000 		.4byte	0x47f
 1011 0472 06       		.uleb128 0x6
 1012 0473 19070000 		.4byte	.LASF75
 1013 0477 0C       		.byte	0xc
 1014 0478 42       		.byte	0x42
 1015 0479 60040000 		.4byte	0x460
 1016 047d 00       		.byte	0
 1017 047e 00       		.byte	0
 1018 047f 03       		.uleb128 0x3
 1019 0480 A0010000 		.4byte	.LASF74
 1020 0484 0C       		.byte	0xc
 1021 0485 45       		.byte	0x45
 1022 0486 66040000 		.4byte	0x466
 1023 048a 0E       		.uleb128 0xe
 1024 048b 04       		.byte	0x4
 1025 048c 08       		.byte	0x8
 1026 048d 96       		.byte	0x96
 1027 048e BF040000 		.4byte	0x4bf
 1028 0492 0F       		.uleb128 0xf
 1029 0493 18000000 		.4byte	.LASF76
 1030 0497 08       		.byte	0x8
 1031 0498 9D       		.byte	0x9d
 1032 0499 22010000 		.4byte	0x122
 1033 049d 0F       		.uleb128 0xf
 1034 049e 8F000000 		.4byte	.LASF77
 1035 04a2 08       		.byte	0x8
 1036 04a3 A4       		.byte	0xa4
 1037 04a4 22010000 		.4byte	0x122
 1038 04a8 0F       		.uleb128 0xf
 1039 04a9 67070000 		.4byte	.LASF78
 1040 04ad 08       		.byte	0x8
 1041 04ae AB       		.byte	0xab
 1042 04af BF020000 		.4byte	0x2bf
 1043 04b3 0F       		.uleb128 0xf
 1044 04b4 88040000 		.4byte	.LASF79
 1045 04b8 08       		.byte	0x8
 1046 04b9 B2       		.byte	0xb2
 1047 04ba 2D010000 		.4byte	0x12d
 1048 04be 00       		.byte	0
 1049 04bf 09       		.uleb128 0x9
 1050 04c0 04       		.byte	0x4
 1051 04c1 C5040000 		.4byte	0x4c5
 1052 04c5 10       		.uleb128 0x10
 1053 04c6 CA040000 		.4byte	0x4ca
 1054 04ca 04       		.uleb128 0x4
 1055 04cb 01       		.byte	0x1
 1056 04cc 08       		.byte	0x8
 1057 04cd 4E060000 		.4byte	.LASF80
 1058 04d1 09       		.uleb128 0x9
 1059 04d2 04       		.byte	0x4
 1060 04d3 C1020000 		.4byte	0x2c1
ARM GAS  /home/pauba/tmp/ccBU01md.s 			page 20


 1061 04d7 09       		.uleb128 0x9
 1062 04d8 04       		.byte	0x4
 1063 04d9 0D040000 		.4byte	0x40d
 1064 04dd 09       		.uleb128 0x9
 1065 04de 04       		.byte	0x4
 1066 04df E3040000 		.4byte	0x4e3
 1067 04e3 11       		.uleb128 0x11
 1068 04e4 22010000 		.4byte	0x122
 1069 04e8 F2040000 		.4byte	0x4f2
 1070 04ec 12       		.uleb128 0x12
 1071 04ed BF020000 		.4byte	0x2bf
 1072 04f1 00       		.byte	0
 1073 04f2 03       		.uleb128 0x3
 1074 04f3 B4020000 		.4byte	.LASF81
 1075 04f7 0D       		.byte	0xd
 1076 04f8 37       		.byte	0x37
 1077 04f9 FD040000 		.4byte	0x4fd
 1078 04fd 05       		.uleb128 0x5
 1079 04fe B4020000 		.4byte	.LASF81
 1080 0502 24       		.byte	0x24
 1081 0503 0D       		.byte	0xd
 1082 0504 45       		.byte	0x45
 1083 0505 6A050000 		.4byte	0x56a
 1084 0509 06       		.uleb128 0x6
 1085 050a B2000000 		.4byte	.LASF82
 1086 050e 0D       		.byte	0xd
 1087 050f 46       		.byte	0x46
 1088 0510 89020000 		.4byte	0x289
 1089 0514 00       		.byte	0
 1090 0515 06       		.uleb128 0x6
 1091 0516 1C050000 		.4byte	.LASF83
 1092 051a 0D       		.byte	0xd
 1093 051b 47       		.byte	0x47
 1094 051c 2C000000 		.4byte	0x2c
 1095 0520 08       		.byte	0x8
 1096 0521 06       		.uleb128 0x6
 1097 0522 37010000 		.4byte	.LASF84
 1098 0526 0D       		.byte	0xd
 1099 0527 48       		.byte	0x48
 1100 0528 8C050000 		.4byte	0x58c
 1101 052c 0C       		.byte	0xc
 1102 052d 06       		.uleb128 0x6
 1103 052e 0C070000 		.4byte	.LASF85
 1104 0532 0D       		.byte	0xd
 1105 0533 49       		.byte	0x49
 1106 0534 8C050000 		.4byte	0x58c
 1107 0538 10       		.byte	0x10
 1108 0539 06       		.uleb128 0x6
 1109 053a 40010000 		.4byte	.LASF86
 1110 053e 0D       		.byte	0xd
 1111 053f 4B       		.byte	0x4b
 1112 0540 8C050000 		.4byte	0x58c
 1113 0544 14       		.byte	0x14
 1114 0545 06       		.uleb128 0x6
 1115 0546 0C040000 		.4byte	.LASF87
 1116 054a 0D       		.byte	0xd
 1117 054b 4C       		.byte	0x4c
ARM GAS  /home/pauba/tmp/ccBU01md.s 			page 21


 1118 054c 8C050000 		.4byte	0x58c
 1119 0550 18       		.byte	0x18
 1120 0551 06       		.uleb128 0x6
 1121 0552 35070000 		.4byte	.LASF88
 1122 0556 0D       		.byte	0xd
 1123 0557 4D       		.byte	0x4d
 1124 0558 6A050000 		.4byte	0x56a
 1125 055c 1C       		.byte	0x1c
 1126 055d 06       		.uleb128 0x6
 1127 055e 48010000 		.4byte	.LASF89
 1128 0562 0D       		.byte	0xd
 1129 0563 4E       		.byte	0x4e
 1130 0564 BF020000 		.4byte	0x2bf
 1131 0568 20       		.byte	0x20
 1132 0569 00       		.byte	0
 1133 056a 03       		.uleb128 0x3
 1134 056b AA020000 		.4byte	.LASF90
 1135 056f 0D       		.byte	0xd
 1136 0570 3A       		.byte	0x3a
 1137 0571 75050000 		.4byte	0x575
 1138 0575 09       		.uleb128 0x9
 1139 0576 04       		.byte	0x4
 1140 0577 7B050000 		.4byte	0x57b
 1141 057b 13       		.uleb128 0x13
 1142 057c 86050000 		.4byte	0x586
 1143 0580 12       		.uleb128 0x12
 1144 0581 86050000 		.4byte	0x586
 1145 0585 00       		.byte	0
 1146 0586 09       		.uleb128 0x9
 1147 0587 04       		.byte	0x4
 1148 0588 F2040000 		.4byte	0x4f2
 1149 058c 09       		.uleb128 0x9
 1150 058d 04       		.byte	0x4
 1151 058e AD000000 		.4byte	0xad
 1152 0592 03       		.uleb128 0x3
 1153 0593 9F020000 		.4byte	.LASF91
 1154 0597 0D       		.byte	0xd
 1155 0598 82       		.byte	0x82
 1156 0599 F2040000 		.4byte	0x4f2
 1157 059d 03       		.uleb128 0x3
 1158 059e 28000000 		.4byte	.LASF92
 1159 05a2 0D       		.byte	0xd
 1160 05a3 F5       		.byte	0xf5
 1161 05a4 F2040000 		.4byte	0x4f2
 1162 05a8 05       		.uleb128 0x5
 1163 05a9 96040000 		.4byte	.LASF93
 1164 05ad 10       		.byte	0x10
 1165 05ae 0E       		.byte	0xe
 1166 05af 48       		.byte	0x48
 1167 05b0 E5050000 		.4byte	0x5e5
 1168 05b4 06       		.uleb128 0x6
 1169 05b5 D4020000 		.4byte	.LASF94
 1170 05b9 0E       		.byte	0xe
 1171 05ba 49       		.byte	0x49
 1172 05bb 09060000 		.4byte	0x609
 1173 05bf 00       		.byte	0
 1174 05c0 06       		.uleb128 0x6
ARM GAS  /home/pauba/tmp/ccBU01md.s 			page 22


 1175 05c1 49060000 		.4byte	.LASF95
 1176 05c5 0E       		.byte	0xe
 1177 05c6 49       		.byte	0x49
 1178 05c7 28060000 		.4byte	0x628
 1179 05cb 04       		.byte	0x4
 1180 05cc 07       		.uleb128 0x7
 1181 05cd 70757400 		.ascii	"put\000"
 1182 05d1 0E       		.byte	0xe
 1183 05d2 49       		.byte	0x49
 1184 05d3 42060000 		.4byte	0x642
 1185 05d7 08       		.byte	0x8
 1186 05d8 07       		.uleb128 0x7
 1187 05d9 67657400 		.ascii	"get\000"
 1188 05dd 0E       		.byte	0xe
 1189 05de 49       		.byte	0x49
 1190 05df DD040000 		.4byte	0x4dd
 1191 05e3 0C       		.byte	0xc
 1192 05e4 00       		.byte	0
 1193 05e5 11       		.uleb128 0x11
 1194 05e6 2C000000 		.4byte	0x2c
 1195 05ea FE050000 		.4byte	0x5fe
 1196 05ee 12       		.uleb128 0x12
 1197 05ef BF020000 		.4byte	0x2bf
 1198 05f3 12       		.uleb128 0x12
 1199 05f4 FE050000 		.4byte	0x5fe
 1200 05f8 12       		.uleb128 0x12
 1201 05f9 2C000000 		.4byte	0x2c
 1202 05fd 00       		.byte	0
 1203 05fe 09       		.uleb128 0x9
 1204 05ff 04       		.byte	0x4
 1205 0600 04060000 		.4byte	0x604
 1206 0604 10       		.uleb128 0x10
 1207 0605 AD000000 		.4byte	0xad
 1208 0609 09       		.uleb128 0x9
 1209 060a 04       		.byte	0x4
 1210 060b E5050000 		.4byte	0x5e5
 1211 060f 11       		.uleb128 0x11
 1212 0610 2C000000 		.4byte	0x2c
 1213 0614 28060000 		.4byte	0x628
 1214 0618 12       		.uleb128 0x12
 1215 0619 BF020000 		.4byte	0x2bf
 1216 061d 12       		.uleb128 0x12
 1217 061e 8C050000 		.4byte	0x58c
 1218 0622 12       		.uleb128 0x12
 1219 0623 2C000000 		.4byte	0x2c
 1220 0627 00       		.byte	0
 1221 0628 09       		.uleb128 0x9
 1222 0629 04       		.byte	0x4
 1223 062a 0F060000 		.4byte	0x60f
 1224 062e 11       		.uleb128 0x11
 1225 062f 22010000 		.4byte	0x122
 1226 0633 42060000 		.4byte	0x642
 1227 0637 12       		.uleb128 0x12
 1228 0638 BF020000 		.4byte	0x2bf
 1229 063c 12       		.uleb128 0x12
 1230 063d AD000000 		.4byte	0xad
 1231 0641 00       		.byte	0
ARM GAS  /home/pauba/tmp/ccBU01md.s 			page 23


 1232 0642 09       		.uleb128 0x9
 1233 0643 04       		.byte	0x4
 1234 0644 2E060000 		.4byte	0x62e
 1235 0648 08       		.uleb128 0x8
 1236 0649 04       		.byte	0x4
 1237 064a 0E       		.byte	0xe
 1238 064b 51       		.byte	0x51
 1239 064c 5D060000 		.4byte	0x65d
 1240 0650 07       		.uleb128 0x7
 1241 0651 766D7400 		.ascii	"vmt\000"
 1242 0655 0E       		.byte	0xe
 1243 0656 53       		.byte	0x53
 1244 0657 5D060000 		.4byte	0x65d
 1245 065b 00       		.byte	0
 1246 065c 00       		.byte	0
 1247 065d 09       		.uleb128 0x9
 1248 065e 04       		.byte	0x4
 1249 065f 63060000 		.4byte	0x663
 1250 0663 10       		.uleb128 0x10
 1251 0664 A8050000 		.4byte	0x5a8
 1252 0668 03       		.uleb128 0x3
 1253 0669 AC010000 		.4byte	.LASF96
 1254 066d 0E       		.byte	0xe
 1255 066e 55       		.byte	0x55
 1256 066f 48060000 		.4byte	0x648
 1257 0673 0D       		.uleb128 0xd
 1258 0674 B8000000 		.4byte	0xb8
 1259 0678 14       		.uleb128 0x14
 1260 0679 1C       		.byte	0x1c
 1261 067a 0F       		.byte	0xf
 1262 067b 4703     		.2byte	0x347
 1263 067d 36070000 		.4byte	0x736
 1264 0681 0C       		.uleb128 0xc
 1265 0682 535200   		.ascii	"SR\000"
 1266 0685 0F       		.byte	0xf
 1267 0686 4903     		.2byte	0x349
 1268 0688 73060000 		.4byte	0x673
 1269 068c 00       		.byte	0
 1270 068d 15       		.uleb128 0x15
 1271 068e C1030000 		.4byte	.LASF97
 1272 0692 0F       		.byte	0xf
 1273 0693 4A03     		.2byte	0x34a
 1274 0695 B8000000 		.4byte	0xb8
 1275 0699 02       		.byte	0x2
 1276 069a 0C       		.uleb128 0xc
 1277 069b 445200   		.ascii	"DR\000"
 1278 069e 0F       		.byte	0xf
 1279 069f 4B03     		.2byte	0x34b
 1280 06a1 73060000 		.4byte	0x673
 1281 06a5 04       		.byte	0x4
 1282 06a6 15       		.uleb128 0x15
 1283 06a7 CB030000 		.4byte	.LASF98
 1284 06ab 0F       		.byte	0xf
 1285 06ac 4C03     		.2byte	0x34c
 1286 06ae B8000000 		.4byte	0xb8
 1287 06b2 06       		.byte	0x6
 1288 06b3 0C       		.uleb128 0xc
ARM GAS  /home/pauba/tmp/ccBU01md.s 			page 24


 1289 06b4 42525200 		.ascii	"BRR\000"
 1290 06b8 0F       		.byte	0xf
 1291 06b9 4D03     		.2byte	0x34d
 1292 06bb 73060000 		.4byte	0x673
 1293 06bf 08       		.byte	0x8
 1294 06c0 15       		.uleb128 0x15
 1295 06c1 D5030000 		.4byte	.LASF99
 1296 06c5 0F       		.byte	0xf
 1297 06c6 4E03     		.2byte	0x34e
 1298 06c8 B8000000 		.4byte	0xb8
 1299 06cc 0A       		.byte	0xa
 1300 06cd 0C       		.uleb128 0xc
 1301 06ce 43523100 		.ascii	"CR1\000"
 1302 06d2 0F       		.byte	0xf
 1303 06d3 4F03     		.2byte	0x34f
 1304 06d5 73060000 		.4byte	0x673
 1305 06d9 0C       		.byte	0xc
 1306 06da 15       		.uleb128 0x15
 1307 06db DF030000 		.4byte	.LASF100
 1308 06df 0F       		.byte	0xf
 1309 06e0 5003     		.2byte	0x350
 1310 06e2 B8000000 		.4byte	0xb8
 1311 06e6 0E       		.byte	0xe
 1312 06e7 0C       		.uleb128 0xc
 1313 06e8 43523200 		.ascii	"CR2\000"
 1314 06ec 0F       		.byte	0xf
 1315 06ed 5103     		.2byte	0x351
 1316 06ef 73060000 		.4byte	0x673
 1317 06f3 10       		.byte	0x10
 1318 06f4 15       		.uleb128 0x15
 1319 06f5 E9030000 		.4byte	.LASF101
 1320 06f9 0F       		.byte	0xf
 1321 06fa 5203     		.2byte	0x352
 1322 06fc B8000000 		.4byte	0xb8
 1323 0700 12       		.byte	0x12
 1324 0701 0C       		.uleb128 0xc
 1325 0702 43523300 		.ascii	"CR3\000"
 1326 0706 0F       		.byte	0xf
 1327 0707 5303     		.2byte	0x353
 1328 0709 73060000 		.4byte	0x673
 1329 070d 14       		.byte	0x14
 1330 070e 15       		.uleb128 0x15
 1331 070f 12050000 		.4byte	.LASF102
 1332 0713 0F       		.byte	0xf
 1333 0714 5403     		.2byte	0x354
 1334 0716 B8000000 		.4byte	0xb8
 1335 071a 16       		.byte	0x16
 1336 071b 15       		.uleb128 0x15
 1337 071c E3000000 		.4byte	.LASF103
 1338 0720 0F       		.byte	0xf
 1339 0721 5503     		.2byte	0x355
 1340 0723 73060000 		.4byte	0x673
 1341 0727 18       		.byte	0x18
 1342 0728 15       		.uleb128 0x15
 1343 0729 FA030000 		.4byte	.LASF104
 1344 072d 0F       		.byte	0xf
 1345 072e 5603     		.2byte	0x356
ARM GAS  /home/pauba/tmp/ccBU01md.s 			page 25


 1346 0730 B8000000 		.4byte	0xb8
 1347 0734 1A       		.byte	0x1a
 1348 0735 00       		.byte	0
 1349 0736 16       		.uleb128 0x16
 1350 0737 70020000 		.4byte	.LASF105
 1351 073b 0F       		.byte	0xf
 1352 073c 5703     		.2byte	0x357
 1353 073e 78060000 		.4byte	0x678
 1354 0742 11       		.uleb128 0x11
 1355 0743 22010000 		.4byte	0x122
 1356 0747 5B070000 		.4byte	0x75b
 1357 074b 12       		.uleb128 0x12
 1358 074c BF020000 		.4byte	0x2bf
 1359 0750 12       		.uleb128 0x12
 1360 0751 AD000000 		.4byte	0xad
 1361 0755 12       		.uleb128 0x12
 1362 0756 43010000 		.4byte	0x143
 1363 075a 00       		.byte	0
 1364 075b 09       		.uleb128 0x9
 1365 075c 04       		.byte	0x4
 1366 075d 42070000 		.4byte	0x742
 1367 0761 11       		.uleb128 0x11
 1368 0762 22010000 		.4byte	0x122
 1369 0766 75070000 		.4byte	0x775
 1370 076a 12       		.uleb128 0x12
 1371 076b BF020000 		.4byte	0x2bf
 1372 076f 12       		.uleb128 0x12
 1373 0770 43010000 		.4byte	0x143
 1374 0774 00       		.byte	0
 1375 0775 09       		.uleb128 0x9
 1376 0776 04       		.byte	0x4
 1377 0777 61070000 		.4byte	0x761
 1378 077b 11       		.uleb128 0x11
 1379 077c 2C000000 		.4byte	0x2c
 1380 0780 99070000 		.4byte	0x799
 1381 0784 12       		.uleb128 0x12
 1382 0785 BF020000 		.4byte	0x2bf
 1383 0789 12       		.uleb128 0x12
 1384 078a FE050000 		.4byte	0x5fe
 1385 078e 12       		.uleb128 0x12
 1386 078f 2C000000 		.4byte	0x2c
 1387 0793 12       		.uleb128 0x12
 1388 0794 43010000 		.4byte	0x143
 1389 0798 00       		.byte	0
 1390 0799 09       		.uleb128 0x9
 1391 079a 04       		.byte	0x4
 1392 079b 7B070000 		.4byte	0x77b
 1393 079f 11       		.uleb128 0x11
 1394 07a0 2C000000 		.4byte	0x2c
 1395 07a4 BD070000 		.4byte	0x7bd
 1396 07a8 12       		.uleb128 0x12
 1397 07a9 BF020000 		.4byte	0x2bf
 1398 07ad 12       		.uleb128 0x12
 1399 07ae 8C050000 		.4byte	0x58c
 1400 07b2 12       		.uleb128 0x12
 1401 07b3 2C000000 		.4byte	0x2c
 1402 07b7 12       		.uleb128 0x12
ARM GAS  /home/pauba/tmp/ccBU01md.s 			page 26


 1403 07b8 43010000 		.4byte	0x143
 1404 07bc 00       		.byte	0
 1405 07bd 09       		.uleb128 0x9
 1406 07be 04       		.byte	0x4
 1407 07bf 9F070000 		.4byte	0x79f
 1408 07c3 05       		.uleb128 0x5
 1409 07c4 C1010000 		.4byte	.LASF106
 1410 07c8 20       		.byte	0x20
 1411 07c9 10       		.byte	0x10
 1412 07ca F7       		.byte	0xf7
 1413 07cb 30080000 		.4byte	0x830
 1414 07cf 06       		.uleb128 0x6
 1415 07d0 D4020000 		.4byte	.LASF94
 1416 07d4 10       		.byte	0x10
 1417 07d5 F8       		.byte	0xf8
 1418 07d6 09060000 		.4byte	0x609
 1419 07da 00       		.byte	0
 1420 07db 06       		.uleb128 0x6
 1421 07dc 49060000 		.4byte	.LASF95
 1422 07e0 10       		.byte	0x10
 1423 07e1 F8       		.byte	0xf8
 1424 07e2 28060000 		.4byte	0x628
 1425 07e6 04       		.byte	0x4
 1426 07e7 07       		.uleb128 0x7
 1427 07e8 70757400 		.ascii	"put\000"
 1428 07ec 10       		.byte	0x10
 1429 07ed F8       		.byte	0xf8
 1430 07ee 42060000 		.4byte	0x642
 1431 07f2 08       		.byte	0x8
 1432 07f3 07       		.uleb128 0x7
 1433 07f4 67657400 		.ascii	"get\000"
 1434 07f8 10       		.byte	0x10
 1435 07f9 F8       		.byte	0xf8
 1436 07fa DD040000 		.4byte	0x4dd
 1437 07fe 0C       		.byte	0xc
 1438 07ff 06       		.uleb128 0x6
 1439 0800 DA020000 		.4byte	.LASF107
 1440 0804 10       		.byte	0x10
 1441 0805 F8       		.byte	0xf8
 1442 0806 5B070000 		.4byte	0x75b
 1443 080a 10       		.byte	0x10
 1444 080b 06       		.uleb128 0x6
 1445 080c 2D020000 		.4byte	.LASF108
 1446 0810 10       		.byte	0x10
 1447 0811 F8       		.byte	0xf8
 1448 0812 75070000 		.4byte	0x775
 1449 0816 14       		.byte	0x14
 1450 0817 06       		.uleb128 0x6
 1451 0818 7E020000 		.4byte	.LASF109
 1452 081c 10       		.byte	0x10
 1453 081d F8       		.byte	0xf8
 1454 081e 99070000 		.4byte	0x799
 1455 0822 18       		.byte	0x18
 1456 0823 06       		.uleb128 0x6
 1457 0824 AC000000 		.4byte	.LASF110
 1458 0828 10       		.byte	0x10
 1459 0829 F8       		.byte	0xf8
ARM GAS  /home/pauba/tmp/ccBU01md.s 			page 27


 1460 082a BD070000 		.4byte	0x7bd
 1461 082e 1C       		.byte	0x1c
 1462 082f 00       		.byte	0
 1463 0830 14       		.uleb128 0x14
 1464 0831 08       		.byte	0x8
 1465 0832 10       		.byte	0x10
 1466 0833 0201     		.2byte	0x102
 1467 0835 54080000 		.4byte	0x854
 1468 0839 0C       		.uleb128 0xc
 1469 083a 766D7400 		.ascii	"vmt\000"
 1470 083e 10       		.byte	0x10
 1471 083f 0401     		.2byte	0x104
 1472 0841 54080000 		.4byte	0x854
 1473 0845 00       		.byte	0
 1474 0846 15       		.uleb128 0x15
 1475 0847 32020000 		.4byte	.LASF111
 1476 084b 10       		.byte	0x10
 1477 084c 0501     		.2byte	0x105
 1478 084e 7F040000 		.4byte	0x47f
 1479 0852 04       		.byte	0x4
 1480 0853 00       		.byte	0
 1481 0854 09       		.uleb128 0x9
 1482 0855 04       		.byte	0x4
 1483 0856 5A080000 		.4byte	0x85a
 1484 085a 10       		.uleb128 0x10
 1485 085b C3070000 		.4byte	0x7c3
 1486 085f 16       		.uleb128 0x16
 1487 0860 58020000 		.4byte	.LASF112
 1488 0864 10       		.byte	0x10
 1489 0865 0601     		.2byte	0x106
 1490 0867 30080000 		.4byte	0x830
 1491 086b 08       		.uleb128 0x8
 1492 086c 04       		.byte	0x4
 1493 086d 11       		.byte	0x11
 1494 086e 96       		.byte	0x96
 1495 086f 8C080000 		.4byte	0x88c
 1496 0873 07       		.uleb128 0x7
 1497 0874 73657400 		.ascii	"set\000"
 1498 0878 11       		.byte	0x11
 1499 0879 97       		.byte	0x97
 1500 087a B8000000 		.4byte	0xb8
 1501 087e 00       		.byte	0
 1502 087f 06       		.uleb128 0x6
 1503 0880 E8020000 		.4byte	.LASF113
 1504 0884 11       		.byte	0x11
 1505 0885 98       		.byte	0x98
 1506 0886 B8000000 		.4byte	0xb8
 1507 088a 02       		.byte	0x2
 1508 088b 00       		.byte	0
 1509 088c 0E       		.uleb128 0xe
 1510 088d 04       		.byte	0x4
 1511 088e 11       		.byte	0x11
 1512 088f 94       		.byte	0x94
 1513 0890 A7080000 		.4byte	0x8a7
 1514 0894 17       		.uleb128 0x17
 1515 0895 5700     		.ascii	"W\000"
 1516 0897 11       		.byte	0x11
ARM GAS  /home/pauba/tmp/ccBU01md.s 			page 28


 1517 0898 95       		.byte	0x95
 1518 0899 CE000000 		.4byte	0xce
 1519 089d 17       		.uleb128 0x17
 1520 089e 4800     		.ascii	"H\000"
 1521 08a0 11       		.byte	0x11
 1522 08a1 99       		.byte	0x99
 1523 08a2 6B080000 		.4byte	0x86b
 1524 08a6 00       		.byte	0
 1525 08a7 08       		.uleb128 0x8
 1526 08a8 28       		.byte	0x28
 1527 08a9 11       		.byte	0x11
 1528 08aa 8C       		.byte	0x8c
 1529 08ab 28090000 		.4byte	0x928
 1530 08af 06       		.uleb128 0x6
 1531 08b0 6C000000 		.4byte	.LASF114
 1532 08b4 11       		.byte	0x11
 1533 08b5 8E       		.byte	0x8e
 1534 08b6 69030000 		.4byte	0x369
 1535 08ba 00       		.byte	0
 1536 08bb 06       		.uleb128 0x6
 1537 08bc 4A000000 		.4byte	.LASF115
 1538 08c0 11       		.byte	0x11
 1539 08c1 8F       		.byte	0x8f
 1540 08c2 69030000 		.4byte	0x369
 1541 08c6 04       		.byte	0x4
 1542 08c7 06       		.uleb128 0x6
 1543 08c8 72010000 		.4byte	.LASF116
 1544 08cc 11       		.byte	0x11
 1545 08cd 90       		.byte	0x90
 1546 08ce 69030000 		.4byte	0x369
 1547 08d2 08       		.byte	0x8
 1548 08d3 06       		.uleb128 0x6
 1549 08d4 89000000 		.4byte	.LASF117
 1550 08d8 11       		.byte	0x11
 1551 08d9 91       		.byte	0x91
 1552 08da 69030000 		.4byte	0x369
 1553 08de 0C       		.byte	0xc
 1554 08df 07       		.uleb128 0x7
 1555 08e0 49445200 		.ascii	"IDR\000"
 1556 08e4 11       		.byte	0x11
 1557 08e5 92       		.byte	0x92
 1558 08e6 69030000 		.4byte	0x369
 1559 08ea 10       		.byte	0x10
 1560 08eb 07       		.uleb128 0x7
 1561 08ec 4F445200 		.ascii	"ODR\000"
 1562 08f0 11       		.byte	0x11
 1563 08f1 93       		.byte	0x93
 1564 08f2 69030000 		.4byte	0x369
 1565 08f6 14       		.byte	0x14
 1566 08f7 06       		.uleb128 0x6
 1567 08f8 D6000000 		.4byte	.LASF118
 1568 08fc 11       		.byte	0x11
 1569 08fd 9A       		.byte	0x9a
 1570 08fe 28090000 		.4byte	0x928
 1571 0902 18       		.byte	0x18
 1572 0903 06       		.uleb128 0x6
 1573 0904 E4040000 		.4byte	.LASF119
ARM GAS  /home/pauba/tmp/ccBU01md.s 			page 29


 1574 0908 11       		.byte	0x11
 1575 0909 9B       		.byte	0x9b
 1576 090a 69030000 		.4byte	0x369
 1577 090e 1C       		.byte	0x1c
 1578 090f 06       		.uleb128 0x6
 1579 0910 9D030000 		.4byte	.LASF120
 1580 0914 11       		.byte	0x11
 1581 0915 9C       		.byte	0x9c
 1582 0916 69030000 		.4byte	0x369
 1583 091a 20       		.byte	0x20
 1584 091b 06       		.uleb128 0x6
 1585 091c 28020000 		.4byte	.LASF121
 1586 0920 11       		.byte	0x11
 1587 0921 9D       		.byte	0x9d
 1588 0922 69030000 		.4byte	0x369
 1589 0926 24       		.byte	0x24
 1590 0927 00       		.byte	0
 1591 0928 0D       		.uleb128 0xd
 1592 0929 8C080000 		.4byte	0x88c
 1593 092d 03       		.uleb128 0x3
 1594 092e 1B020000 		.4byte	.LASF122
 1595 0932 11       		.byte	0x11
 1596 0933 9E       		.byte	0x9e
 1597 0934 A7080000 		.4byte	0x8a7
 1598 0938 03       		.uleb128 0x3
 1599 0939 59000000 		.4byte	.LASF123
 1600 093d 11       		.byte	0x11
 1601 093e F0       		.byte	0xf0
 1602 093f CE000000 		.4byte	0xce
 1603 0943 03       		.uleb128 0x3
 1604 0944 A5060000 		.4byte	.LASF124
 1605 0948 11       		.byte	0x11
 1606 0949 FD       		.byte	0xfd
 1607 094a 4E090000 		.4byte	0x94e
 1608 094e 09       		.uleb128 0x9
 1609 094f 04       		.byte	0x4
 1610 0950 2D090000 		.4byte	0x92d
 1611 0954 18       		.uleb128 0x18
 1612 0955 01       		.byte	0x1
 1613 0956 12       		.byte	0x12
 1614 0957 64       		.byte	0x64
 1615 0958 6F090000 		.4byte	0x96f
 1616 095c 19       		.uleb128 0x19
 1617 095d 08050000 		.4byte	.LASF125
 1618 0961 00       		.sleb128 0
 1619 0962 19       		.uleb128 0x19
 1620 0963 C8040000 		.4byte	.LASF126
 1621 0967 01       		.sleb128 1
 1622 0968 19       		.uleb128 0x19
 1623 0969 94030000 		.4byte	.LASF127
 1624 096d 02       		.sleb128 2
 1625 096e 00       		.byte	0
 1626 096f 03       		.uleb128 0x3
 1627 0970 37050000 		.4byte	.LASF128
 1628 0974 12       		.byte	0x12
 1629 0975 68       		.byte	0x68
 1630 0976 54090000 		.4byte	0x954
ARM GAS  /home/pauba/tmp/ccBU01md.s 			page 30


 1631 097a 03       		.uleb128 0x3
 1632 097b 4C070000 		.4byte	.LASF129
 1633 097f 12       		.byte	0x12
 1634 0980 6D       		.byte	0x6d
 1635 0981 85090000 		.4byte	0x985
 1636 0985 05       		.uleb128 0x5
 1637 0986 4C070000 		.4byte	.LASF129
 1638 098a 78       		.byte	0x78
 1639 098b 12       		.byte	0x12
 1640 098c 87       		.byte	0x87
 1641 098d F0090000 		.4byte	0x9f0
 1642 0991 07       		.uleb128 0x7
 1643 0992 766D7400 		.ascii	"vmt\000"
 1644 0996 12       		.byte	0x12
 1645 0997 89       		.byte	0x89
 1646 0998 5D0A0000 		.4byte	0xa5d
 1647 099c 00       		.byte	0
 1648 099d 06       		.uleb128 0x6
 1649 099e 32020000 		.4byte	.LASF111
 1650 09a2 12       		.byte	0x12
 1651 09a3 8A       		.byte	0x8a
 1652 09a4 7F040000 		.4byte	0x47f
 1653 09a8 04       		.byte	0x4
 1654 09a9 06       		.uleb128 0x6
 1655 09aa 02010000 		.4byte	.LASF130
 1656 09ae 12       		.byte	0x12
 1657 09af 8A       		.byte	0x8a
 1658 09b0 6F090000 		.4byte	0x96f
 1659 09b4 08       		.byte	0x8
 1660 09b5 06       		.uleb128 0x6
 1661 09b6 09020000 		.4byte	.LASF131
 1662 09ba 12       		.byte	0x12
 1663 09bb 8A       		.byte	0x8a
 1664 09bc 92050000 		.4byte	0x592
 1665 09c0 0C       		.byte	0xc
 1666 09c1 06       		.uleb128 0x6
 1667 09c2 51020000 		.4byte	.LASF132
 1668 09c6 12       		.byte	0x12
 1669 09c7 8A       		.byte	0x8a
 1670 09c8 9D050000 		.4byte	0x59d
 1671 09cc 30       		.byte	0x30
 1672 09cd 07       		.uleb128 0x7
 1673 09ce 696200   		.ascii	"ib\000"
 1674 09d1 12       		.byte	0x12
 1675 09d2 8A       		.byte	0x8a
 1676 09d3 680A0000 		.4byte	0xa68
 1677 09d7 54       		.byte	0x54
 1678 09d8 07       		.uleb128 0x7
 1679 09d9 6F6200   		.ascii	"ob\000"
 1680 09dc 12       		.byte	0x12
 1681 09dd 8A       		.byte	0x8a
 1682 09de 680A0000 		.4byte	0xa68
 1683 09e2 64       		.byte	0x64
 1684 09e3 06       		.uleb128 0x6
 1685 09e4 99020000 		.4byte	.LASF133
 1686 09e8 12       		.byte	0x12
 1687 09e9 8A       		.byte	0x8a
ARM GAS  /home/pauba/tmp/ccBU01md.s 			page 31


 1688 09ea 780A0000 		.4byte	0xa78
 1689 09ee 74       		.byte	0x74
 1690 09ef 00       		.byte	0
 1691 09f0 05       		.uleb128 0x5
 1692 09f1 F2010000 		.4byte	.LASF134
 1693 09f5 20       		.byte	0x20
 1694 09f6 12       		.byte	0x12
 1695 09f7 7C       		.byte	0x7c
 1696 09f8 5D0A0000 		.4byte	0xa5d
 1697 09fc 06       		.uleb128 0x6
 1698 09fd D4020000 		.4byte	.LASF94
 1699 0a01 12       		.byte	0x12
 1700 0a02 7D       		.byte	0x7d
 1701 0a03 09060000 		.4byte	0x609
 1702 0a07 00       		.byte	0
 1703 0a08 06       		.uleb128 0x6
 1704 0a09 49060000 		.4byte	.LASF95
 1705 0a0d 12       		.byte	0x12
 1706 0a0e 7D       		.byte	0x7d
 1707 0a0f 28060000 		.4byte	0x628
 1708 0a13 04       		.byte	0x4
 1709 0a14 07       		.uleb128 0x7
 1710 0a15 70757400 		.ascii	"put\000"
 1711 0a19 12       		.byte	0x12
 1712 0a1a 7D       		.byte	0x7d
 1713 0a1b 42060000 		.4byte	0x642
 1714 0a1f 08       		.byte	0x8
 1715 0a20 07       		.uleb128 0x7
 1716 0a21 67657400 		.ascii	"get\000"
 1717 0a25 12       		.byte	0x12
 1718 0a26 7D       		.byte	0x7d
 1719 0a27 DD040000 		.4byte	0x4dd
 1720 0a2b 0C       		.byte	0xc
 1721 0a2c 06       		.uleb128 0x6
 1722 0a2d DA020000 		.4byte	.LASF107
 1723 0a31 12       		.byte	0x12
 1724 0a32 7D       		.byte	0x7d
 1725 0a33 5B070000 		.4byte	0x75b
 1726 0a37 10       		.byte	0x10
 1727 0a38 06       		.uleb128 0x6
 1728 0a39 2D020000 		.4byte	.LASF108
 1729 0a3d 12       		.byte	0x12
 1730 0a3e 7D       		.byte	0x7d
 1731 0a3f 75070000 		.4byte	0x775
 1732 0a43 14       		.byte	0x14
 1733 0a44 06       		.uleb128 0x6
 1734 0a45 7E020000 		.4byte	.LASF109
 1735 0a49 12       		.byte	0x12
 1736 0a4a 7D       		.byte	0x7d
 1737 0a4b 99070000 		.4byte	0x799
 1738 0a4f 18       		.byte	0x18
 1739 0a50 06       		.uleb128 0x6
 1740 0a51 AC000000 		.4byte	.LASF110
 1741 0a55 12       		.byte	0x12
 1742 0a56 7D       		.byte	0x7d
 1743 0a57 BD070000 		.4byte	0x7bd
 1744 0a5b 1C       		.byte	0x1c
ARM GAS  /home/pauba/tmp/ccBU01md.s 			page 32


 1745 0a5c 00       		.byte	0
 1746 0a5d 09       		.uleb128 0x9
 1747 0a5e 04       		.byte	0x4
 1748 0a5f 630A0000 		.4byte	0xa63
 1749 0a63 10       		.uleb128 0x10
 1750 0a64 F0090000 		.4byte	0x9f0
 1751 0a68 1A       		.uleb128 0x1a
 1752 0a69 AD000000 		.4byte	0xad
 1753 0a6d 780A0000 		.4byte	0xa78
 1754 0a71 1B       		.uleb128 0x1b
 1755 0a72 6E030000 		.4byte	0x36e
 1756 0a76 0F       		.byte	0xf
 1757 0a77 00       		.byte	0
 1758 0a78 09       		.uleb128 0x9
 1759 0a79 04       		.byte	0x4
 1760 0a7a 36070000 		.4byte	0x736
 1761 0a7e 1A       		.uleb128 0x1a
 1762 0a7f C1020000 		.4byte	0x2c1
 1763 0a83 8E0A0000 		.4byte	0xa8e
 1764 0a87 1B       		.uleb128 0x1b
 1765 0a88 6E030000 		.4byte	0x36e
 1766 0a8c 29       		.byte	0x29
 1767 0a8d 00       		.byte	0
 1768 0a8e 03       		.uleb128 0x3
 1769 0a8f FB020000 		.4byte	.LASF135
 1770 0a93 13       		.byte	0x13
 1771 0a94 28       		.byte	0x28
 1772 0a95 990A0000 		.4byte	0xa99
 1773 0a99 05       		.uleb128 0x5
 1774 0a9a 26010000 		.4byte	.LASF136
 1775 0a9e 04       		.byte	0x4
 1776 0a9f 14       		.byte	0x14
 1777 0aa0 00       		.byte	0
 1778 0aa1 B00A0000 		.4byte	0xab0
 1779 0aa5 1C       		.uleb128 0x1c
 1780 0aa6 B0060000 		.4byte	.LASF137
 1781 0aaa BF020000 		.4byte	0x2bf
 1782 0aae 00       		.byte	0
 1783 0aaf 00       		.byte	0
 1784 0ab0 03       		.uleb128 0x3
 1785 0ab1 51000000 		.4byte	.LASF138
 1786 0ab5 13       		.byte	0x13
 1787 0ab6 62       		.byte	0x62
 1788 0ab7 8E0A0000 		.4byte	0xa8e
 1789 0abb 08       		.uleb128 0x8
 1790 0abc 18       		.byte	0x18
 1791 0abd 15       		.byte	0x15
 1792 0abe A6       		.byte	0xa6
 1793 0abf 390B0000 		.4byte	0xb39
 1794 0ac3 06       		.uleb128 0x6
 1795 0ac4 06000000 		.4byte	.LASF139
 1796 0ac8 15       		.byte	0x15
 1797 0ac9 A7       		.byte	0xa7
 1798 0aca 43090000 		.4byte	0x943
 1799 0ace 00       		.byte	0
 1800 0acf 06       		.uleb128 0x6
 1801 0ad0 21070000 		.4byte	.LASF140
ARM GAS  /home/pauba/tmp/ccBU01md.s 			page 33


 1802 0ad4 15       		.byte	0x15
 1803 0ad5 A8       		.byte	0xa8
 1804 0ad6 38090000 		.4byte	0x938
 1805 0ada 04       		.byte	0x4
 1806 0adb 06       		.uleb128 0x6
 1807 0adc D0040000 		.4byte	.LASF141
 1808 0ae0 15       		.byte	0x15
 1809 0ae1 A9       		.byte	0xa9
 1810 0ae2 43090000 		.4byte	0x943
 1811 0ae6 08       		.byte	0x8
 1812 0ae7 06       		.uleb128 0x6
 1813 0ae8 A6070000 		.4byte	.LASF142
 1814 0aec 15       		.byte	0x15
 1815 0aed AA       		.byte	0xaa
 1816 0aee 38090000 		.4byte	0x938
 1817 0af2 0C       		.byte	0xc
 1818 0af3 06       		.uleb128 0x6
 1819 0af4 82010000 		.4byte	.LASF143
 1820 0af8 15       		.byte	0x15
 1821 0af9 AB       		.byte	0xab
 1822 0afa CE000000 		.4byte	0xce
 1823 0afe 10       		.byte	0x10
 1824 0aff 06       		.uleb128 0x6
 1825 0b00 14040000 		.4byte	.LASF144
 1826 0b04 15       		.byte	0x15
 1827 0b05 AC       		.byte	0xac
 1828 0b06 B8000000 		.4byte	0xb8
 1829 0b0a 14       		.byte	0x14
 1830 0b0b 1D       		.uleb128 0x1d
 1831 0b0c 56030000 		.4byte	.LASF145
 1832 0b10 15       		.byte	0x15
 1833 0b11 AF       		.byte	0xaf
 1834 0b12 AD000000 		.4byte	0xad
 1835 0b16 01       		.byte	0x1
 1836 0b17 01       		.byte	0x1
 1837 0b18 07       		.byte	0x7
 1838 0b19 16       		.byte	0x16
 1839 0b1a 1D       		.uleb128 0x1d
 1840 0b1b 6B010000 		.4byte	.LASF146
 1841 0b1f 15       		.byte	0x15
 1842 0b20 B0       		.byte	0xb0
 1843 0b21 AD000000 		.4byte	0xad
 1844 0b25 01       		.byte	0x1
 1845 0b26 01       		.byte	0x1
 1846 0b27 06       		.byte	0x6
 1847 0b28 16       		.byte	0x16
 1848 0b29 1D       		.uleb128 0x1d
 1849 0b2a 6E070000 		.4byte	.LASF147
 1850 0b2e 15       		.byte	0x15
 1851 0b2f B1       		.byte	0xb1
 1852 0b30 AD000000 		.4byte	0xad
 1853 0b34 01       		.byte	0x1
 1854 0b35 02       		.byte	0x2
 1855 0b36 04       		.byte	0x4
 1856 0b37 16       		.byte	0x16
 1857 0b38 00       		.byte	0
 1858 0b39 03       		.uleb128 0x3
ARM GAS  /home/pauba/tmp/ccBU01md.s 			page 34


 1859 0b3a 53060000 		.4byte	.LASF148
 1860 0b3e 15       		.byte	0x15
 1861 0b3f B5       		.byte	0xb5
 1862 0b40 BB0A0000 		.4byte	0xabb
 1863 0b44 18       		.uleb128 0x18
 1864 0b45 01       		.byte	0x1
 1865 0b46 15       		.byte	0x15
 1866 0b47 BA       		.byte	0xba
 1867 0b48 5F0B0000 		.4byte	0xb5f
 1868 0b4c 19       		.uleb128 0x19
 1869 0b4d 8E070000 		.4byte	.LASF149
 1870 0b51 00       		.sleb128 0
 1871 0b52 19       		.uleb128 0x19
 1872 0b53 5B010000 		.4byte	.LASF150
 1873 0b57 01       		.sleb128 1
 1874 0b58 19       		.uleb128 0x19
 1875 0b59 80070000 		.4byte	.LASF151
 1876 0b5d 02       		.sleb128 2
 1877 0b5e 00       		.byte	0
 1878 0b5f 03       		.uleb128 0x3
 1879 0b60 BE040000 		.4byte	.LASF152
 1880 0b64 15       		.byte	0x15
 1881 0b65 BE       		.byte	0xbe
 1882 0b66 440B0000 		.4byte	0xb44
 1883 0b6a 03       		.uleb128 0x3
 1884 0b6b ED060000 		.4byte	.LASF153
 1885 0b6f 15       		.byte	0x15
 1886 0b70 C3       		.byte	0xc3
 1887 0b71 750B0000 		.4byte	0xb75
 1888 0b75 05       		.uleb128 0x5
 1889 0b76 41050000 		.4byte	.LASF154
 1890 0b7a 98       		.byte	0x98
 1891 0b7b 15       		.byte	0x15
 1892 0b7c DB       		.byte	0xdb
 1893 0b7d FE0C0000 		.4byte	0xcfe
 1894 0b81 07       		.uleb128 0x7
 1895 0b82 766D7400 		.ascii	"vmt\000"
 1896 0b86 15       		.byte	0x15
 1897 0b87 DD       		.byte	0xdd
 1898 0b88 6B0D0000 		.4byte	0xd6b
 1899 0b8c 00       		.byte	0
 1900 0b8d 06       		.uleb128 0x6
 1901 0b8e 32020000 		.4byte	.LASF111
 1902 0b92 15       		.byte	0x15
 1903 0b93 DE       		.byte	0xde
 1904 0b94 7F040000 		.4byte	0x47f
 1905 0b98 04       		.byte	0x4
 1906 0b99 06       		.uleb128 0x6
 1907 0b9a 02010000 		.4byte	.LASF130
 1908 0b9e 15       		.byte	0x15
 1909 0b9f DE       		.byte	0xde
 1910 0ba0 5F0B0000 		.4byte	0xb5f
 1911 0ba4 08       		.byte	0x8
 1912 0ba5 06       		.uleb128 0x6
 1913 0ba6 09020000 		.4byte	.LASF131
 1914 0baa 15       		.byte	0x15
 1915 0bab DE       		.byte	0xde
ARM GAS  /home/pauba/tmp/ccBU01md.s 			page 35


 1916 0bac 92050000 		.4byte	0x592
 1917 0bb0 0C       		.byte	0xc
 1918 0bb1 06       		.uleb128 0x6
 1919 0bb2 51020000 		.4byte	.LASF132
 1920 0bb6 15       		.byte	0x15
 1921 0bb7 DE       		.byte	0xde
 1922 0bb8 9D050000 		.4byte	0x59d
 1923 0bbc 30       		.byte	0x30
 1924 0bbd 07       		.uleb128 0x7
 1925 0bbe 696200   		.ascii	"ib\000"
 1926 0bc1 15       		.byte	0x15
 1927 0bc2 DE       		.byte	0xde
 1928 0bc3 680A0000 		.4byte	0xa68
 1929 0bc7 54       		.byte	0x54
 1930 0bc8 07       		.uleb128 0x7
 1931 0bc9 6F6200   		.ascii	"ob\000"
 1932 0bcc 15       		.byte	0x15
 1933 0bcd DE       		.byte	0xde
 1934 0bce 680A0000 		.4byte	0xa68
 1935 0bd2 64       		.byte	0x64
 1936 0bd3 06       		.uleb128 0x6
 1937 0bd4 06000000 		.4byte	.LASF139
 1938 0bd8 15       		.byte	0x15
 1939 0bd9 DE       		.byte	0xde
 1940 0bda 43090000 		.4byte	0x943
 1941 0bde 74       		.byte	0x74
 1942 0bdf 06       		.uleb128 0x6
 1943 0be0 21070000 		.4byte	.LASF140
 1944 0be4 15       		.byte	0x15
 1945 0be5 DE       		.byte	0xde
 1946 0be6 38090000 		.4byte	0x938
 1947 0bea 78       		.byte	0x78
 1948 0beb 06       		.uleb128 0x6
 1949 0bec D0040000 		.4byte	.LASF141
 1950 0bf0 15       		.byte	0x15
 1951 0bf1 DE       		.byte	0xde
 1952 0bf2 43090000 		.4byte	0x943
 1953 0bf6 7C       		.byte	0x7c
 1954 0bf7 06       		.uleb128 0x6
 1955 0bf8 A6070000 		.4byte	.LASF142
 1956 0bfc 15       		.byte	0x15
 1957 0bfd DE       		.byte	0xde
 1958 0bfe 38090000 		.4byte	0x938
 1959 0c02 80       		.byte	0x80
 1960 0c03 06       		.uleb128 0x6
 1961 0c04 14040000 		.4byte	.LASF144
 1962 0c08 15       		.byte	0x15
 1963 0c09 DE       		.byte	0xde
 1964 0c0a B8000000 		.4byte	0xb8
 1965 0c0e 84       		.byte	0x84
 1966 0c0f 1D       		.uleb128 0x1d
 1967 0c10 66000000 		.4byte	.LASF155
 1968 0c14 15       		.byte	0x15
 1969 0c15 DE       		.byte	0xde
 1970 0c16 AD000000 		.4byte	0xad
 1971 0c1a 01       		.byte	0x1
 1972 0c1b 05       		.byte	0x5
ARM GAS  /home/pauba/tmp/ccBU01md.s 			page 36


 1973 0c1c 03       		.byte	0x3
 1974 0c1d 86       		.byte	0x86
 1975 0c1e 1D       		.uleb128 0x1d
 1976 0c1f 56030000 		.4byte	.LASF145
 1977 0c23 15       		.byte	0x15
 1978 0c24 DE       		.byte	0xde
 1979 0c25 AD000000 		.4byte	0xad
 1980 0c29 01       		.byte	0x1
 1981 0c2a 01       		.byte	0x1
 1982 0c2b 02       		.byte	0x2
 1983 0c2c 86       		.byte	0x86
 1984 0c2d 1D       		.uleb128 0x1d
 1985 0c2e 6B010000 		.4byte	.LASF146
 1986 0c32 15       		.byte	0x15
 1987 0c33 DE       		.byte	0xde
 1988 0c34 AD000000 		.4byte	0xad
 1989 0c38 01       		.byte	0x1
 1990 0c39 01       		.byte	0x1
 1991 0c3a 01       		.byte	0x1
 1992 0c3b 86       		.byte	0x86
 1993 0c3c 1D       		.uleb128 0x1d
 1994 0c3d 6E070000 		.4byte	.LASF147
 1995 0c41 15       		.byte	0x15
 1996 0c42 DE       		.byte	0xde
 1997 0c43 AD000000 		.4byte	0xad
 1998 0c47 01       		.byte	0x1
 1999 0c48 02       		.byte	0x2
 2000 0c49 06       		.byte	0x6
 2001 0c4a 87       		.byte	0x87
 2002 0c4b 1D       		.uleb128 0x1d
 2003 0c4c E1060000 		.4byte	.LASF156
 2004 0c50 15       		.byte	0x15
 2005 0c51 DE       		.byte	0xde
 2006 0c52 AD000000 		.4byte	0xad
 2007 0c56 01       		.byte	0x1
 2008 0c57 01       		.byte	0x1
 2009 0c58 05       		.byte	0x5
 2010 0c59 87       		.byte	0x87
 2011 0c5a 1D       		.uleb128 0x1d
 2012 0c5b F4020000 		.4byte	.LASF157
 2013 0c5f 15       		.byte	0x15
 2014 0c60 DE       		.byte	0xde
 2015 0c61 AD000000 		.4byte	0xad
 2016 0c65 01       		.byte	0x1
 2017 0c66 01       		.byte	0x1
 2018 0c67 04       		.byte	0x4
 2019 0c68 87       		.byte	0x87
 2020 0c69 1D       		.uleb128 0x1d
 2021 0c6a 92010000 		.4byte	.LASF158
 2022 0c6e 15       		.byte	0x15
 2023 0c6f DE       		.byte	0xde
 2024 0c70 AD000000 		.4byte	0xad
 2025 0c74 01       		.byte	0x1
 2026 0c75 01       		.byte	0x1
 2027 0c76 03       		.byte	0x3
 2028 0c77 87       		.byte	0x87
 2029 0c78 1D       		.uleb128 0x1d
ARM GAS  /home/pauba/tmp/ccBU01md.s 			page 37


 2030 0c79 55010000 		.4byte	.LASF159
 2031 0c7d 15       		.byte	0x15
 2032 0c7e DE       		.byte	0xde
 2033 0c7f AD000000 		.4byte	0xad
 2034 0c83 01       		.byte	0x1
 2035 0c84 01       		.byte	0x1
 2036 0c85 02       		.byte	0x2
 2037 0c86 87       		.byte	0x87
 2038 0c87 1D       		.uleb128 0x1d
 2039 0c88 A0070000 		.4byte	.LASF160
 2040 0c8c 15       		.byte	0x15
 2041 0c8d DE       		.byte	0xde
 2042 0c8e AD000000 		.4byte	0xad
 2043 0c92 01       		.byte	0x1
 2044 0c93 01       		.byte	0x1
 2045 0c94 01       		.byte	0x1
 2046 0c95 87       		.byte	0x87
 2047 0c96 1D       		.uleb128 0x1d
 2048 0c97 06070000 		.4byte	.LASF161
 2049 0c9b 15       		.byte	0x15
 2050 0c9c DE       		.byte	0xde
 2051 0c9d AD000000 		.4byte	0xad
 2052 0ca1 01       		.byte	0x1
 2053 0ca2 02       		.byte	0x2
 2054 0ca3 06       		.byte	0x6
 2055 0ca4 88       		.byte	0x88
 2056 0ca5 1D       		.uleb128 0x1d
 2057 0ca6 C2070000 		.4byte	.LASF162
 2058 0caa 15       		.byte	0x15
 2059 0cab DE       		.byte	0xde
 2060 0cac AD000000 		.4byte	0xad
 2061 0cb0 01       		.byte	0x1
 2062 0cb1 04       		.byte	0x4
 2063 0cb2 02       		.byte	0x2
 2064 0cb3 88       		.byte	0x88
 2065 0cb4 1D       		.uleb128 0x1d
 2066 0cb5 DB000000 		.4byte	.LASF163
 2067 0cb9 15       		.byte	0x15
 2068 0cba DE       		.byte	0xde
 2069 0cbb AD000000 		.4byte	0xad
 2070 0cbf 01       		.byte	0x1
 2071 0cc0 04       		.byte	0x4
 2072 0cc1 04       		.byte	0x4
 2073 0cc2 89       		.byte	0x89
 2074 0cc3 06       		.uleb128 0x6
 2075 0cc4 4F050000 		.4byte	.LASF164
 2076 0cc8 15       		.byte	0x15
 2077 0cc9 DE       		.byte	0xde
 2078 0cca AD000000 		.4byte	0xad
 2079 0cce 8A       		.byte	0x8a
 2080 0ccf 06       		.uleb128 0x6
 2081 0cd0 E9040000 		.4byte	.LASF165
 2082 0cd4 15       		.byte	0x15
 2083 0cd5 DE       		.byte	0xde
 2084 0cd6 AD000000 		.4byte	0xad
 2085 0cda 8B       		.byte	0x8b
 2086 0cdb 06       		.uleb128 0x6
ARM GAS  /home/pauba/tmp/ccBU01md.s 			page 38


 2087 0cdc 1A010000 		.4byte	.LASF166
 2088 0ce0 15       		.byte	0x15
 2089 0ce1 DE       		.byte	0xde
 2090 0ce2 B8000000 		.4byte	0xb8
 2091 0ce6 8C       		.byte	0x8c
 2092 0ce7 07       		.uleb128 0x7
 2093 0ce8 6300     		.ascii	"c\000"
 2094 0cea 15       		.byte	0x15
 2095 0ceb DE       		.byte	0xde
 2096 0cec CE000000 		.4byte	0xce
 2097 0cf0 90       		.byte	0x90
 2098 0cf1 06       		.uleb128 0x6
 2099 0cf2 00000000 		.4byte	.LASF167
 2100 0cf6 15       		.byte	0x15
 2101 0cf7 DE       		.byte	0xde
 2102 0cf8 AD000000 		.4byte	0xad
 2103 0cfc 94       		.byte	0x94
 2104 0cfd 00       		.byte	0
 2105 0cfe 05       		.uleb128 0x5
 2106 0cff D0060000 		.4byte	.LASF168
 2107 0d03 20       		.byte	0x20
 2108 0d04 15       		.byte	0x15
 2109 0d05 D0       		.byte	0xd0
 2110 0d06 6B0D0000 		.4byte	0xd6b
 2111 0d0a 06       		.uleb128 0x6
 2112 0d0b D4020000 		.4byte	.LASF94
 2113 0d0f 15       		.byte	0x15
 2114 0d10 D1       		.byte	0xd1
 2115 0d11 09060000 		.4byte	0x609
 2116 0d15 00       		.byte	0
 2117 0d16 06       		.uleb128 0x6
 2118 0d17 49060000 		.4byte	.LASF95
 2119 0d1b 15       		.byte	0x15
 2120 0d1c D1       		.byte	0xd1
 2121 0d1d 28060000 		.4byte	0x628
 2122 0d21 04       		.byte	0x4
 2123 0d22 07       		.uleb128 0x7
 2124 0d23 70757400 		.ascii	"put\000"
 2125 0d27 15       		.byte	0x15
 2126 0d28 D1       		.byte	0xd1
 2127 0d29 42060000 		.4byte	0x642
 2128 0d2d 08       		.byte	0x8
 2129 0d2e 07       		.uleb128 0x7
 2130 0d2f 67657400 		.ascii	"get\000"
 2131 0d33 15       		.byte	0x15
 2132 0d34 D1       		.byte	0xd1
 2133 0d35 DD040000 		.4byte	0x4dd
 2134 0d39 0C       		.byte	0xc
 2135 0d3a 06       		.uleb128 0x6
 2136 0d3b DA020000 		.4byte	.LASF107
 2137 0d3f 15       		.byte	0x15
 2138 0d40 D1       		.byte	0xd1
 2139 0d41 5B070000 		.4byte	0x75b
 2140 0d45 10       		.byte	0x10
 2141 0d46 06       		.uleb128 0x6
 2142 0d47 2D020000 		.4byte	.LASF108
 2143 0d4b 15       		.byte	0x15
ARM GAS  /home/pauba/tmp/ccBU01md.s 			page 39


 2144 0d4c D1       		.byte	0xd1
 2145 0d4d 75070000 		.4byte	0x775
 2146 0d51 14       		.byte	0x14
 2147 0d52 06       		.uleb128 0x6
 2148 0d53 7E020000 		.4byte	.LASF109
 2149 0d57 15       		.byte	0x15
 2150 0d58 D1       		.byte	0xd1
 2151 0d59 99070000 		.4byte	0x799
 2152 0d5d 18       		.byte	0x18
 2153 0d5e 06       		.uleb128 0x6
 2154 0d5f AC000000 		.4byte	.LASF110
 2155 0d63 15       		.byte	0x15
 2156 0d64 D1       		.byte	0xd1
 2157 0d65 BD070000 		.4byte	0x7bd
 2158 0d69 1C       		.byte	0x1c
 2159 0d6a 00       		.byte	0
 2160 0d6b 09       		.uleb128 0x9
 2161 0d6c 04       		.byte	0x4
 2162 0d6d 710D0000 		.4byte	0xd71
 2163 0d71 10       		.uleb128 0x10
 2164 0d72 FE0C0000 		.4byte	0xcfe
 2165 0d76 1E       		.uleb128 0x1e
 2166 0d77 CA070000 		.4byte	.LASF182
 2167 0d7b 01       		.byte	0x1
 2168 0d7c 45       		.byte	0x45
 2169 0d7d 00000000 		.4byte	.LFB63
 2170 0d81 20000000 		.4byte	.LFE63-.LFB63
 2171 0d85 01       		.uleb128 0x1
 2172 0d86 9C       		.byte	0x9c
 2173 0d87 B60D0000 		.4byte	0xdb6
 2174 0d8b 1F       		.uleb128 0x1f
 2175 0d8c 63687000 		.ascii	"chp\000"
 2176 0d90 01       		.byte	0x1
 2177 0d91 45       		.byte	0x45
 2178 0d92 B60D0000 		.4byte	0xdb6
 2179 0d96 02       		.uleb128 0x2
 2180 0d97 91       		.byte	0x91
 2181 0d98 64       		.sleb128 -28
 2182 0d99 1F       		.uleb128 0x1f
 2183 0d9a 666D7400 		.ascii	"fmt\000"
 2184 0d9e 01       		.byte	0x1
 2185 0d9f 45       		.byte	0x45
 2186 0da0 BF040000 		.4byte	0x4bf
 2187 0da4 02       		.uleb128 0x2
 2188 0da5 91       		.byte	0x91
 2189 0da6 74       		.sleb128 -12
 2190 0da7 20       		.uleb128 0x20
 2191 0da8 21       		.uleb128 0x21
 2192 0da9 617000   		.ascii	"ap\000"
 2193 0dac 01       		.byte	0x1
 2194 0dad 46       		.byte	0x46
 2195 0dae B00A0000 		.4byte	0xab0
 2196 0db2 02       		.uleb128 0x2
 2197 0db3 91       		.byte	0x91
 2198 0db4 6C       		.sleb128 -20
 2199 0db5 00       		.byte	0
 2200 0db6 09       		.uleb128 0x9
ARM GAS  /home/pauba/tmp/ccBU01md.s 			page 40


 2201 0db7 04       		.byte	0x4
 2202 0db8 68060000 		.4byte	0x668
 2203 0dbc 22       		.uleb128 0x22
 2204 0dbd CC020000 		.4byte	.LASF183
 2205 0dc1 02       		.byte	0x2
 2206 0dc2 2C       		.byte	0x2c
 2207 0dc3 22010000 		.4byte	0x122
 2208 0dc7 00000000 		.4byte	.LFB64
 2209 0dcb 20000000 		.4byte	.LFE64-.LFB64
 2210 0dcf 01       		.uleb128 0x1
 2211 0dd0 9C       		.byte	0x9c
 2212 0dd1 E40D0000 		.4byte	0xde4
 2213 0dd5 1F       		.uleb128 0x1f
 2214 0dd6 61726700 		.ascii	"arg\000"
 2215 0dda 02       		.byte	0x2
 2216 0ddb 2C       		.byte	0x2c
 2217 0ddc BF020000 		.4byte	0x2bf
 2218 0de0 02       		.uleb128 0x2
 2219 0de1 91       		.byte	0x91
 2220 0de2 74       		.sleb128 -12
 2221 0de3 00       		.byte	0
 2222 0de4 23       		.uleb128 0x23
 2223 0de5 89070000 		.4byte	.LASF184
 2224 0de9 02       		.byte	0x2
 2225 0dea 3D       		.byte	0x3d
 2226 0deb 25000000 		.4byte	0x25
 2227 0def 00000000 		.4byte	.LFB65
 2228 0df3 DC010000 		.4byte	.LFE65-.LFB65
 2229 0df7 01       		.uleb128 0x1
 2230 0df8 9C       		.byte	0x9c
 2231 0df9 4F0E0000 		.4byte	0xe4f
 2232 0dfd 24       		.uleb128 0x24
 2233 0dfe 4F010000 		.4byte	.LASF169
 2234 0e02 02       		.byte	0x2
 2235 0e03 3E       		.byte	0x3e
 2236 0e04 B60D0000 		.4byte	0xdb6
 2237 0e08 02       		.uleb128 0x2
 2238 0e09 91       		.byte	0x91
 2239 0e0a 6C       		.sleb128 -20
 2240 0e0b 24       		.uleb128 0x24
 2241 0e0c C4060000 		.4byte	.LASF170
 2242 0e10 02       		.byte	0x2
 2243 0e11 3F       		.byte	0x3f
 2244 0e12 18040000 		.4byte	0x418
 2245 0e16 02       		.uleb128 0x2
 2246 0e17 91       		.byte	0x91
 2247 0e18 54       		.sleb128 -44
 2248 0e19 24       		.uleb128 0x24
 2249 0e1a 97010000 		.4byte	.LASF171
 2250 0e1e 02       		.byte	0x2
 2251 0e1f 40       		.byte	0x40
 2252 0e20 38010000 		.4byte	0x138
 2253 0e24 02       		.uleb128 0x2
 2254 0e25 91       		.byte	0x91
 2255 0e26 68       		.sleb128 -24
 2256 0e27 24       		.uleb128 0x24
 2257 0e28 1E040000 		.4byte	.LASF172
ARM GAS  /home/pauba/tmp/ccBU01md.s 			page 41


 2258 0e2c 02       		.byte	0x2
 2259 0e2d 55       		.byte	0x55
 2260 0e2e 390B0000 		.4byte	0xb39
 2261 0e32 03       		.uleb128 0x3
 2262 0e33 91       		.byte	0x91
 2263 0e34 BC7F     		.sleb128 -68
 2264 0e36 25       		.uleb128 0x25
 2265 0e37 FC000000 		.4byte	.LBB2
 2266 0e3b 40000000 		.4byte	.LBE2-.LBB2
 2267 0e3f 24       		.uleb128 0x24
 2268 0e40 82030000 		.4byte	.LASF173
 2269 0e44 02       		.byte	0x2
 2270 0e45 8C       		.byte	0x8c
 2271 0e46 22010000 		.4byte	0x122
 2272 0e4a 02       		.uleb128 0x2
 2273 0e4b 91       		.byte	0x91
 2274 0e4c 64       		.sleb128 -28
 2275 0e4d 00       		.byte	0
 2276 0e4e 00       		.byte	0
 2277 0e4f 24       		.uleb128 0x24
 2278 0e50 A2030000 		.4byte	.LASF174
 2279 0e54 02       		.byte	0x2
 2280 0e55 2B       		.byte	0x2b
 2281 0e56 7E0A0000 		.4byte	0xa7e
 2282 0e5a 05       		.uleb128 0x5
 2283 0e5b 03       		.byte	0x3
 2284 0e5c 00000000 		.4byte	waThread1
 2285 0e60 26       		.uleb128 0x26
 2286 0e61 3E070000 		.4byte	.LASF175
 2287 0e65 0A       		.byte	0xa
 2288 0e66 6F       		.byte	0x6f
 2289 0e67 CB030000 		.4byte	0x3cb
 2290 0e6b 27       		.uleb128 0x27
 2291 0e6c 98000000 		.4byte	.LASF176
 2292 0e70 16       		.byte	0x16
 2293 0e71 0706     		.2byte	0x607
 2294 0e73 770E0000 		.4byte	0xe77
 2295 0e77 0D       		.uleb128 0xd
 2296 0e78 C3000000 		.4byte	0xc3
 2297 0e7c 28       		.uleb128 0x28
 2298 0e7d 53443200 		.ascii	"SD2\000"
 2299 0e81 17       		.byte	0x17
 2300 0e82 1201     		.2byte	0x112
 2301 0e84 7A090000 		.4byte	0x97a
 2302 0e88 27       		.uleb128 0x27
 2303 0e89 6E060000 		.4byte	.LASF177
 2304 0e8d 15       		.byte	0x15
 2305 0e8e 7201     		.2byte	0x172
 2306 0e90 6A0B0000 		.4byte	0xb6a
 2307 0e94 29       		.uleb128 0x29
 2308 0e95 63687000 		.ascii	"chp\000"
 2309 0e99 02       		.byte	0x2
 2310 0e9a 36       		.byte	0x36
 2311 0e9b B60D0000 		.4byte	0xdb6
 2312 0e9f 05       		.uleb128 0x5
 2313 0ea0 03       		.byte	0x3
 2314 0ea1 00000000 		.4byte	chp
ARM GAS  /home/pauba/tmp/ccBU01md.s 			page 42


 2315 0ea5 2A       		.uleb128 0x2a
 2316 0ea6 AC030000 		.4byte	.LASF178
 2317 0eaa 02       		.byte	0x2
 2318 0eab 38       		.byte	0x38
 2319 0eac 7F040000 		.4byte	0x47f
 2320 0eb0 05       		.uleb128 0x5
 2321 0eb1 03       		.byte	0x3
 2322 0eb2 00000000 		.4byte	eventSource1
 2323 0eb6 00       		.byte	0
 2324              		.section	.debug_abbrev,"",%progbits
 2325              	.Ldebug_abbrev0:
 2326 0000 01       		.uleb128 0x1
 2327 0001 11       		.uleb128 0x11
 2328 0002 01       		.byte	0x1
 2329 0003 25       		.uleb128 0x25
 2330 0004 0E       		.uleb128 0xe
 2331 0005 13       		.uleb128 0x13
 2332 0006 0B       		.uleb128 0xb
 2333 0007 03       		.uleb128 0x3
 2334 0008 0E       		.uleb128 0xe
 2335 0009 1B       		.uleb128 0x1b
 2336 000a 0E       		.uleb128 0xe
 2337 000b 55       		.uleb128 0x55
 2338 000c 17       		.uleb128 0x17
 2339 000d 11       		.uleb128 0x11
 2340 000e 01       		.uleb128 0x1
 2341 000f 10       		.uleb128 0x10
 2342 0010 17       		.uleb128 0x17
 2343 0011 00       		.byte	0
 2344 0012 00       		.byte	0
 2345 0013 02       		.uleb128 0x2
 2346 0014 24       		.uleb128 0x24
 2347 0015 00       		.byte	0
 2348 0016 0B       		.uleb128 0xb
 2349 0017 0B       		.uleb128 0xb
 2350 0018 3E       		.uleb128 0x3e
 2351 0019 0B       		.uleb128 0xb
 2352 001a 03       		.uleb128 0x3
 2353 001b 08       		.uleb128 0x8
 2354 001c 00       		.byte	0
 2355 001d 00       		.byte	0
 2356 001e 03       		.uleb128 0x3
 2357 001f 16       		.uleb128 0x16
 2358 0020 00       		.byte	0
 2359 0021 03       		.uleb128 0x3
 2360 0022 0E       		.uleb128 0xe
 2361 0023 3A       		.uleb128 0x3a
 2362 0024 0B       		.uleb128 0xb
 2363 0025 3B       		.uleb128 0x3b
 2364 0026 0B       		.uleb128 0xb
 2365 0027 49       		.uleb128 0x49
 2366 0028 13       		.uleb128 0x13
 2367 0029 00       		.byte	0
 2368 002a 00       		.byte	0
 2369 002b 04       		.uleb128 0x4
 2370 002c 24       		.uleb128 0x24
 2371 002d 00       		.byte	0
ARM GAS  /home/pauba/tmp/ccBU01md.s 			page 43


 2372 002e 0B       		.uleb128 0xb
 2373 002f 0B       		.uleb128 0xb
 2374 0030 3E       		.uleb128 0x3e
 2375 0031 0B       		.uleb128 0xb
 2376 0032 03       		.uleb128 0x3
 2377 0033 0E       		.uleb128 0xe
 2378 0034 00       		.byte	0
 2379 0035 00       		.byte	0
 2380 0036 05       		.uleb128 0x5
 2381 0037 13       		.uleb128 0x13
 2382 0038 01       		.byte	0x1
 2383 0039 03       		.uleb128 0x3
 2384 003a 0E       		.uleb128 0xe
 2385 003b 0B       		.uleb128 0xb
 2386 003c 0B       		.uleb128 0xb
 2387 003d 3A       		.uleb128 0x3a
 2388 003e 0B       		.uleb128 0xb
 2389 003f 3B       		.uleb128 0x3b
 2390 0040 0B       		.uleb128 0xb
 2391 0041 01       		.uleb128 0x1
 2392 0042 13       		.uleb128 0x13
 2393 0043 00       		.byte	0
 2394 0044 00       		.byte	0
 2395 0045 06       		.uleb128 0x6
 2396 0046 0D       		.uleb128 0xd
 2397 0047 00       		.byte	0
 2398 0048 03       		.uleb128 0x3
 2399 0049 0E       		.uleb128 0xe
 2400 004a 3A       		.uleb128 0x3a
 2401 004b 0B       		.uleb128 0xb
 2402 004c 3B       		.uleb128 0x3b
 2403 004d 0B       		.uleb128 0xb
 2404 004e 49       		.uleb128 0x49
 2405 004f 13       		.uleb128 0x13
 2406 0050 38       		.uleb128 0x38
 2407 0051 0B       		.uleb128 0xb
 2408 0052 00       		.byte	0
 2409 0053 00       		.byte	0
 2410 0054 07       		.uleb128 0x7
 2411 0055 0D       		.uleb128 0xd
 2412 0056 00       		.byte	0
 2413 0057 03       		.uleb128 0x3
 2414 0058 08       		.uleb128 0x8
 2415 0059 3A       		.uleb128 0x3a
 2416 005a 0B       		.uleb128 0xb
 2417 005b 3B       		.uleb128 0x3b
 2418 005c 0B       		.uleb128 0xb
 2419 005d 49       		.uleb128 0x49
 2420 005e 13       		.uleb128 0x13
 2421 005f 38       		.uleb128 0x38
 2422 0060 0B       		.uleb128 0xb
 2423 0061 00       		.byte	0
 2424 0062 00       		.byte	0
 2425 0063 08       		.uleb128 0x8
 2426 0064 13       		.uleb128 0x13
 2427 0065 01       		.byte	0x1
 2428 0066 0B       		.uleb128 0xb
ARM GAS  /home/pauba/tmp/ccBU01md.s 			page 44


 2429 0067 0B       		.uleb128 0xb
 2430 0068 3A       		.uleb128 0x3a
 2431 0069 0B       		.uleb128 0xb
 2432 006a 3B       		.uleb128 0x3b
 2433 006b 0B       		.uleb128 0xb
 2434 006c 01       		.uleb128 0x1
 2435 006d 13       		.uleb128 0x13
 2436 006e 00       		.byte	0
 2437 006f 00       		.byte	0
 2438 0070 09       		.uleb128 0x9
 2439 0071 0F       		.uleb128 0xf
 2440 0072 00       		.byte	0
 2441 0073 0B       		.uleb128 0xb
 2442 0074 0B       		.uleb128 0xb
 2443 0075 49       		.uleb128 0x49
 2444 0076 13       		.uleb128 0x13
 2445 0077 00       		.byte	0
 2446 0078 00       		.byte	0
 2447 0079 0A       		.uleb128 0xa
 2448 007a 0F       		.uleb128 0xf
 2449 007b 00       		.byte	0
 2450 007c 0B       		.uleb128 0xb
 2451 007d 0B       		.uleb128 0xb
 2452 007e 00       		.byte	0
 2453 007f 00       		.byte	0
 2454 0080 0B       		.uleb128 0xb
 2455 0081 13       		.uleb128 0x13
 2456 0082 01       		.byte	0x1
 2457 0083 03       		.uleb128 0x3
 2458 0084 0E       		.uleb128 0xe
 2459 0085 0B       		.uleb128 0xb
 2460 0086 0B       		.uleb128 0xb
 2461 0087 3A       		.uleb128 0x3a
 2462 0088 0B       		.uleb128 0xb
 2463 0089 3B       		.uleb128 0x3b
 2464 008a 05       		.uleb128 0x5
 2465 008b 01       		.uleb128 0x1
 2466 008c 13       		.uleb128 0x13
 2467 008d 00       		.byte	0
 2468 008e 00       		.byte	0
 2469 008f 0C       		.uleb128 0xc
 2470 0090 0D       		.uleb128 0xd
 2471 0091 00       		.byte	0
 2472 0092 03       		.uleb128 0x3
 2473 0093 08       		.uleb128 0x8
 2474 0094 3A       		.uleb128 0x3a
 2475 0095 0B       		.uleb128 0xb
 2476 0096 3B       		.uleb128 0x3b
 2477 0097 05       		.uleb128 0x5
 2478 0098 49       		.uleb128 0x49
 2479 0099 13       		.uleb128 0x13
 2480 009a 38       		.uleb128 0x38
 2481 009b 0B       		.uleb128 0xb
 2482 009c 00       		.byte	0
 2483 009d 00       		.byte	0
 2484 009e 0D       		.uleb128 0xd
 2485 009f 35       		.uleb128 0x35
ARM GAS  /home/pauba/tmp/ccBU01md.s 			page 45


 2486 00a0 00       		.byte	0
 2487 00a1 49       		.uleb128 0x49
 2488 00a2 13       		.uleb128 0x13
 2489 00a3 00       		.byte	0
 2490 00a4 00       		.byte	0
 2491 00a5 0E       		.uleb128 0xe
 2492 00a6 17       		.uleb128 0x17
 2493 00a7 01       		.byte	0x1
 2494 00a8 0B       		.uleb128 0xb
 2495 00a9 0B       		.uleb128 0xb
 2496 00aa 3A       		.uleb128 0x3a
 2497 00ab 0B       		.uleb128 0xb
 2498 00ac 3B       		.uleb128 0x3b
 2499 00ad 0B       		.uleb128 0xb
 2500 00ae 01       		.uleb128 0x1
 2501 00af 13       		.uleb128 0x13
 2502 00b0 00       		.byte	0
 2503 00b1 00       		.byte	0
 2504 00b2 0F       		.uleb128 0xf
 2505 00b3 0D       		.uleb128 0xd
 2506 00b4 00       		.byte	0
 2507 00b5 03       		.uleb128 0x3
 2508 00b6 0E       		.uleb128 0xe
 2509 00b7 3A       		.uleb128 0x3a
 2510 00b8 0B       		.uleb128 0xb
 2511 00b9 3B       		.uleb128 0x3b
 2512 00ba 0B       		.uleb128 0xb
 2513 00bb 49       		.uleb128 0x49
 2514 00bc 13       		.uleb128 0x13
 2515 00bd 00       		.byte	0
 2516 00be 00       		.byte	0
 2517 00bf 10       		.uleb128 0x10
 2518 00c0 26       		.uleb128 0x26
 2519 00c1 00       		.byte	0
 2520 00c2 49       		.uleb128 0x49
 2521 00c3 13       		.uleb128 0x13
 2522 00c4 00       		.byte	0
 2523 00c5 00       		.byte	0
 2524 00c6 11       		.uleb128 0x11
 2525 00c7 15       		.uleb128 0x15
 2526 00c8 01       		.byte	0x1
 2527 00c9 27       		.uleb128 0x27
 2528 00ca 19       		.uleb128 0x19
 2529 00cb 49       		.uleb128 0x49
 2530 00cc 13       		.uleb128 0x13
 2531 00cd 01       		.uleb128 0x1
 2532 00ce 13       		.uleb128 0x13
 2533 00cf 00       		.byte	0
 2534 00d0 00       		.byte	0
 2535 00d1 12       		.uleb128 0x12
 2536 00d2 05       		.uleb128 0x5
 2537 00d3 00       		.byte	0
 2538 00d4 49       		.uleb128 0x49
 2539 00d5 13       		.uleb128 0x13
 2540 00d6 00       		.byte	0
 2541 00d7 00       		.byte	0
 2542 00d8 13       		.uleb128 0x13
ARM GAS  /home/pauba/tmp/ccBU01md.s 			page 46


 2543 00d9 15       		.uleb128 0x15
 2544 00da 01       		.byte	0x1
 2545 00db 27       		.uleb128 0x27
 2546 00dc 19       		.uleb128 0x19
 2547 00dd 01       		.uleb128 0x1
 2548 00de 13       		.uleb128 0x13
 2549 00df 00       		.byte	0
 2550 00e0 00       		.byte	0
 2551 00e1 14       		.uleb128 0x14
 2552 00e2 13       		.uleb128 0x13
 2553 00e3 01       		.byte	0x1
 2554 00e4 0B       		.uleb128 0xb
 2555 00e5 0B       		.uleb128 0xb
 2556 00e6 3A       		.uleb128 0x3a
 2557 00e7 0B       		.uleb128 0xb
 2558 00e8 3B       		.uleb128 0x3b
 2559 00e9 05       		.uleb128 0x5
 2560 00ea 01       		.uleb128 0x1
 2561 00eb 13       		.uleb128 0x13
 2562 00ec 00       		.byte	0
 2563 00ed 00       		.byte	0
 2564 00ee 15       		.uleb128 0x15
 2565 00ef 0D       		.uleb128 0xd
 2566 00f0 00       		.byte	0
 2567 00f1 03       		.uleb128 0x3
 2568 00f2 0E       		.uleb128 0xe
 2569 00f3 3A       		.uleb128 0x3a
 2570 00f4 0B       		.uleb128 0xb
 2571 00f5 3B       		.uleb128 0x3b
 2572 00f6 05       		.uleb128 0x5
 2573 00f7 49       		.uleb128 0x49
 2574 00f8 13       		.uleb128 0x13
 2575 00f9 38       		.uleb128 0x38
 2576 00fa 0B       		.uleb128 0xb
 2577 00fb 00       		.byte	0
 2578 00fc 00       		.byte	0
 2579 00fd 16       		.uleb128 0x16
 2580 00fe 16       		.uleb128 0x16
 2581 00ff 00       		.byte	0
 2582 0100 03       		.uleb128 0x3
 2583 0101 0E       		.uleb128 0xe
 2584 0102 3A       		.uleb128 0x3a
 2585 0103 0B       		.uleb128 0xb
 2586 0104 3B       		.uleb128 0x3b
 2587 0105 05       		.uleb128 0x5
 2588 0106 49       		.uleb128 0x49
 2589 0107 13       		.uleb128 0x13
 2590 0108 00       		.byte	0
 2591 0109 00       		.byte	0
 2592 010a 17       		.uleb128 0x17
 2593 010b 0D       		.uleb128 0xd
 2594 010c 00       		.byte	0
 2595 010d 03       		.uleb128 0x3
 2596 010e 08       		.uleb128 0x8
 2597 010f 3A       		.uleb128 0x3a
 2598 0110 0B       		.uleb128 0xb
 2599 0111 3B       		.uleb128 0x3b
ARM GAS  /home/pauba/tmp/ccBU01md.s 			page 47


 2600 0112 0B       		.uleb128 0xb
 2601 0113 49       		.uleb128 0x49
 2602 0114 13       		.uleb128 0x13
 2603 0115 00       		.byte	0
 2604 0116 00       		.byte	0
 2605 0117 18       		.uleb128 0x18
 2606 0118 04       		.uleb128 0x4
 2607 0119 01       		.byte	0x1
 2608 011a 0B       		.uleb128 0xb
 2609 011b 0B       		.uleb128 0xb
 2610 011c 3A       		.uleb128 0x3a
 2611 011d 0B       		.uleb128 0xb
 2612 011e 3B       		.uleb128 0x3b
 2613 011f 0B       		.uleb128 0xb
 2614 0120 01       		.uleb128 0x1
 2615 0121 13       		.uleb128 0x13
 2616 0122 00       		.byte	0
 2617 0123 00       		.byte	0
 2618 0124 19       		.uleb128 0x19
 2619 0125 28       		.uleb128 0x28
 2620 0126 00       		.byte	0
 2621 0127 03       		.uleb128 0x3
 2622 0128 0E       		.uleb128 0xe
 2623 0129 1C       		.uleb128 0x1c
 2624 012a 0D       		.uleb128 0xd
 2625 012b 00       		.byte	0
 2626 012c 00       		.byte	0
 2627 012d 1A       		.uleb128 0x1a
 2628 012e 01       		.uleb128 0x1
 2629 012f 01       		.byte	0x1
 2630 0130 49       		.uleb128 0x49
 2631 0131 13       		.uleb128 0x13
 2632 0132 01       		.uleb128 0x1
 2633 0133 13       		.uleb128 0x13
 2634 0134 00       		.byte	0
 2635 0135 00       		.byte	0
 2636 0136 1B       		.uleb128 0x1b
 2637 0137 21       		.uleb128 0x21
 2638 0138 00       		.byte	0
 2639 0139 49       		.uleb128 0x49
 2640 013a 13       		.uleb128 0x13
 2641 013b 2F       		.uleb128 0x2f
 2642 013c 0B       		.uleb128 0xb
 2643 013d 00       		.byte	0
 2644 013e 00       		.byte	0
 2645 013f 1C       		.uleb128 0x1c
 2646 0140 0D       		.uleb128 0xd
 2647 0141 00       		.byte	0
 2648 0142 03       		.uleb128 0x3
 2649 0143 0E       		.uleb128 0xe
 2650 0144 49       		.uleb128 0x49
 2651 0145 13       		.uleb128 0x13
 2652 0146 38       		.uleb128 0x38
 2653 0147 0B       		.uleb128 0xb
 2654 0148 34       		.uleb128 0x34
 2655 0149 19       		.uleb128 0x19
 2656 014a 00       		.byte	0
ARM GAS  /home/pauba/tmp/ccBU01md.s 			page 48


 2657 014b 00       		.byte	0
 2658 014c 1D       		.uleb128 0x1d
 2659 014d 0D       		.uleb128 0xd
 2660 014e 00       		.byte	0
 2661 014f 03       		.uleb128 0x3
 2662 0150 0E       		.uleb128 0xe
 2663 0151 3A       		.uleb128 0x3a
 2664 0152 0B       		.uleb128 0xb
 2665 0153 3B       		.uleb128 0x3b
 2666 0154 0B       		.uleb128 0xb
 2667 0155 49       		.uleb128 0x49
 2668 0156 13       		.uleb128 0x13
 2669 0157 0B       		.uleb128 0xb
 2670 0158 0B       		.uleb128 0xb
 2671 0159 0D       		.uleb128 0xd
 2672 015a 0B       		.uleb128 0xb
 2673 015b 0C       		.uleb128 0xc
 2674 015c 0B       		.uleb128 0xb
 2675 015d 38       		.uleb128 0x38
 2676 015e 0B       		.uleb128 0xb
 2677 015f 00       		.byte	0
 2678 0160 00       		.byte	0
 2679 0161 1E       		.uleb128 0x1e
 2680 0162 2E       		.uleb128 0x2e
 2681 0163 01       		.byte	0x1
 2682 0164 03       		.uleb128 0x3
 2683 0165 0E       		.uleb128 0xe
 2684 0166 3A       		.uleb128 0x3a
 2685 0167 0B       		.uleb128 0xb
 2686 0168 3B       		.uleb128 0x3b
 2687 0169 0B       		.uleb128 0xb
 2688 016a 27       		.uleb128 0x27
 2689 016b 19       		.uleb128 0x19
 2690 016c 11       		.uleb128 0x11
 2691 016d 01       		.uleb128 0x1
 2692 016e 12       		.uleb128 0x12
 2693 016f 06       		.uleb128 0x6
 2694 0170 40       		.uleb128 0x40
 2695 0171 18       		.uleb128 0x18
 2696 0172 9642     		.uleb128 0x2116
 2697 0174 19       		.uleb128 0x19
 2698 0175 01       		.uleb128 0x1
 2699 0176 13       		.uleb128 0x13
 2700 0177 00       		.byte	0
 2701 0178 00       		.byte	0
 2702 0179 1F       		.uleb128 0x1f
 2703 017a 05       		.uleb128 0x5
 2704 017b 00       		.byte	0
 2705 017c 03       		.uleb128 0x3
 2706 017d 08       		.uleb128 0x8
 2707 017e 3A       		.uleb128 0x3a
 2708 017f 0B       		.uleb128 0xb
 2709 0180 3B       		.uleb128 0x3b
 2710 0181 0B       		.uleb128 0xb
 2711 0182 49       		.uleb128 0x49
 2712 0183 13       		.uleb128 0x13
 2713 0184 02       		.uleb128 0x2
ARM GAS  /home/pauba/tmp/ccBU01md.s 			page 49


 2714 0185 18       		.uleb128 0x18
 2715 0186 00       		.byte	0
 2716 0187 00       		.byte	0
 2717 0188 20       		.uleb128 0x20
 2718 0189 18       		.uleb128 0x18
 2719 018a 00       		.byte	0
 2720 018b 00       		.byte	0
 2721 018c 00       		.byte	0
 2722 018d 21       		.uleb128 0x21
 2723 018e 34       		.uleb128 0x34
 2724 018f 00       		.byte	0
 2725 0190 03       		.uleb128 0x3
 2726 0191 08       		.uleb128 0x8
 2727 0192 3A       		.uleb128 0x3a
 2728 0193 0B       		.uleb128 0xb
 2729 0194 3B       		.uleb128 0x3b
 2730 0195 0B       		.uleb128 0xb
 2731 0196 49       		.uleb128 0x49
 2732 0197 13       		.uleb128 0x13
 2733 0198 02       		.uleb128 0x2
 2734 0199 18       		.uleb128 0x18
 2735 019a 00       		.byte	0
 2736 019b 00       		.byte	0
 2737 019c 22       		.uleb128 0x22
 2738 019d 2E       		.uleb128 0x2e
 2739 019e 01       		.byte	0x1
 2740 019f 03       		.uleb128 0x3
 2741 01a0 0E       		.uleb128 0xe
 2742 01a1 3A       		.uleb128 0x3a
 2743 01a2 0B       		.uleb128 0xb
 2744 01a3 3B       		.uleb128 0x3b
 2745 01a4 0B       		.uleb128 0xb
 2746 01a5 27       		.uleb128 0x27
 2747 01a6 19       		.uleb128 0x19
 2748 01a7 49       		.uleb128 0x49
 2749 01a8 13       		.uleb128 0x13
 2750 01a9 11       		.uleb128 0x11
 2751 01aa 01       		.uleb128 0x1
 2752 01ab 12       		.uleb128 0x12
 2753 01ac 06       		.uleb128 0x6
 2754 01ad 40       		.uleb128 0x40
 2755 01ae 18       		.uleb128 0x18
 2756 01af 9642     		.uleb128 0x2116
 2757 01b1 19       		.uleb128 0x19
 2758 01b2 01       		.uleb128 0x1
 2759 01b3 13       		.uleb128 0x13
 2760 01b4 00       		.byte	0
 2761 01b5 00       		.byte	0
 2762 01b6 23       		.uleb128 0x23
 2763 01b7 2E       		.uleb128 0x2e
 2764 01b8 01       		.byte	0x1
 2765 01b9 3F       		.uleb128 0x3f
 2766 01ba 19       		.uleb128 0x19
 2767 01bb 03       		.uleb128 0x3
 2768 01bc 0E       		.uleb128 0xe
 2769 01bd 3A       		.uleb128 0x3a
 2770 01be 0B       		.uleb128 0xb
ARM GAS  /home/pauba/tmp/ccBU01md.s 			page 50


 2771 01bf 3B       		.uleb128 0x3b
 2772 01c0 0B       		.uleb128 0xb
 2773 01c1 27       		.uleb128 0x27
 2774 01c2 19       		.uleb128 0x19
 2775 01c3 49       		.uleb128 0x49
 2776 01c4 13       		.uleb128 0x13
 2777 01c5 11       		.uleb128 0x11
 2778 01c6 01       		.uleb128 0x1
 2779 01c7 12       		.uleb128 0x12
 2780 01c8 06       		.uleb128 0x6
 2781 01c9 40       		.uleb128 0x40
 2782 01ca 18       		.uleb128 0x18
 2783 01cb 9642     		.uleb128 0x2116
 2784 01cd 19       		.uleb128 0x19
 2785 01ce 01       		.uleb128 0x1
 2786 01cf 13       		.uleb128 0x13
 2787 01d0 00       		.byte	0
 2788 01d1 00       		.byte	0
 2789 01d2 24       		.uleb128 0x24
 2790 01d3 34       		.uleb128 0x34
 2791 01d4 00       		.byte	0
 2792 01d5 03       		.uleb128 0x3
 2793 01d6 0E       		.uleb128 0xe
 2794 01d7 3A       		.uleb128 0x3a
 2795 01d8 0B       		.uleb128 0xb
 2796 01d9 3B       		.uleb128 0x3b
 2797 01da 0B       		.uleb128 0xb
 2798 01db 49       		.uleb128 0x49
 2799 01dc 13       		.uleb128 0x13
 2800 01dd 02       		.uleb128 0x2
 2801 01de 18       		.uleb128 0x18
 2802 01df 00       		.byte	0
 2803 01e0 00       		.byte	0
 2804 01e1 25       		.uleb128 0x25
 2805 01e2 0B       		.uleb128 0xb
 2806 01e3 01       		.byte	0x1
 2807 01e4 11       		.uleb128 0x11
 2808 01e5 01       		.uleb128 0x1
 2809 01e6 12       		.uleb128 0x12
 2810 01e7 06       		.uleb128 0x6
 2811 01e8 00       		.byte	0
 2812 01e9 00       		.byte	0
 2813 01ea 26       		.uleb128 0x26
 2814 01eb 34       		.uleb128 0x34
 2815 01ec 00       		.byte	0
 2816 01ed 03       		.uleb128 0x3
 2817 01ee 0E       		.uleb128 0xe
 2818 01ef 3A       		.uleb128 0x3a
 2819 01f0 0B       		.uleb128 0xb
 2820 01f1 3B       		.uleb128 0x3b
 2821 01f2 0B       		.uleb128 0xb
 2822 01f3 49       		.uleb128 0x49
 2823 01f4 13       		.uleb128 0x13
 2824 01f5 3F       		.uleb128 0x3f
 2825 01f6 19       		.uleb128 0x19
 2826 01f7 3C       		.uleb128 0x3c
 2827 01f8 19       		.uleb128 0x19
ARM GAS  /home/pauba/tmp/ccBU01md.s 			page 51


 2828 01f9 00       		.byte	0
 2829 01fa 00       		.byte	0
 2830 01fb 27       		.uleb128 0x27
 2831 01fc 34       		.uleb128 0x34
 2832 01fd 00       		.byte	0
 2833 01fe 03       		.uleb128 0x3
 2834 01ff 0E       		.uleb128 0xe
 2835 0200 3A       		.uleb128 0x3a
 2836 0201 0B       		.uleb128 0xb
 2837 0202 3B       		.uleb128 0x3b
 2838 0203 05       		.uleb128 0x5
 2839 0204 49       		.uleb128 0x49
 2840 0205 13       		.uleb128 0x13
 2841 0206 3F       		.uleb128 0x3f
 2842 0207 19       		.uleb128 0x19
 2843 0208 3C       		.uleb128 0x3c
 2844 0209 19       		.uleb128 0x19
 2845 020a 00       		.byte	0
 2846 020b 00       		.byte	0
 2847 020c 28       		.uleb128 0x28
 2848 020d 34       		.uleb128 0x34
 2849 020e 00       		.byte	0
 2850 020f 03       		.uleb128 0x3
 2851 0210 08       		.uleb128 0x8
 2852 0211 3A       		.uleb128 0x3a
 2853 0212 0B       		.uleb128 0xb
 2854 0213 3B       		.uleb128 0x3b
 2855 0214 05       		.uleb128 0x5
 2856 0215 49       		.uleb128 0x49
 2857 0216 13       		.uleb128 0x13
 2858 0217 3F       		.uleb128 0x3f
 2859 0218 19       		.uleb128 0x19
 2860 0219 3C       		.uleb128 0x3c
 2861 021a 19       		.uleb128 0x19
 2862 021b 00       		.byte	0
 2863 021c 00       		.byte	0
 2864 021d 29       		.uleb128 0x29
 2865 021e 34       		.uleb128 0x34
 2866 021f 00       		.byte	0
 2867 0220 03       		.uleb128 0x3
 2868 0221 08       		.uleb128 0x8
 2869 0222 3A       		.uleb128 0x3a
 2870 0223 0B       		.uleb128 0xb
 2871 0224 3B       		.uleb128 0x3b
 2872 0225 0B       		.uleb128 0xb
 2873 0226 49       		.uleb128 0x49
 2874 0227 13       		.uleb128 0x13
 2875 0228 3F       		.uleb128 0x3f
 2876 0229 19       		.uleb128 0x19
 2877 022a 02       		.uleb128 0x2
 2878 022b 18       		.uleb128 0x18
 2879 022c 00       		.byte	0
 2880 022d 00       		.byte	0
 2881 022e 2A       		.uleb128 0x2a
 2882 022f 34       		.uleb128 0x34
 2883 0230 00       		.byte	0
 2884 0231 03       		.uleb128 0x3
ARM GAS  /home/pauba/tmp/ccBU01md.s 			page 52


 2885 0232 0E       		.uleb128 0xe
 2886 0233 3A       		.uleb128 0x3a
 2887 0234 0B       		.uleb128 0xb
 2888 0235 3B       		.uleb128 0x3b
 2889 0236 0B       		.uleb128 0xb
 2890 0237 49       		.uleb128 0x49
 2891 0238 13       		.uleb128 0x13
 2892 0239 3F       		.uleb128 0x3f
 2893 023a 19       		.uleb128 0x19
 2894 023b 02       		.uleb128 0x2
 2895 023c 18       		.uleb128 0x18
 2896 023d 00       		.byte	0
 2897 023e 00       		.byte	0
 2898 023f 00       		.byte	0
 2899              		.section	.debug_aranges,"",%progbits
 2900 0000 2C000000 		.4byte	0x2c
 2901 0004 0200     		.2byte	0x2
 2902 0006 00000000 		.4byte	.Ldebug_info0
 2903 000a 04       		.byte	0x4
 2904 000b 00       		.byte	0
 2905 000c 0000     		.2byte	0
 2906 000e 0000     		.2byte	0
 2907 0010 00000000 		.4byte	.LFB63
 2908 0014 20000000 		.4byte	.LFE63-.LFB63
 2909 0018 00000000 		.4byte	.LFB64
 2910 001c 20000000 		.4byte	.LFE64-.LFB64
 2911 0020 00000000 		.4byte	.LFB65
 2912 0024 DC010000 		.4byte	.LFE65-.LFB65
 2913 0028 00000000 		.4byte	0
 2914 002c 00000000 		.4byte	0
 2915              		.section	.debug_ranges,"",%progbits
 2916              	.Ldebug_ranges0:
 2917 0000 00000000 		.4byte	.LFB63
 2918 0004 20000000 		.4byte	.LFE63
 2919 0008 00000000 		.4byte	.LFB64
 2920 000c 20000000 		.4byte	.LFE64
 2921 0010 00000000 		.4byte	.LFB65
 2922 0014 DC010000 		.4byte	.LFE65
 2923 0018 00000000 		.4byte	0
 2924 001c 00000000 		.4byte	0
 2925              		.section	.debug_line,"",%progbits
 2926              	.Ldebug_line0:
 2927 0000 18040000 		.section	.debug_str,"MS",%progbits,1
 2927      0200A503 
 2927      00000201 
 2927      FB0E0D00 
 2927      01010101 
 2928              	.LASF167:
 2929 0000 636F756E 		.ascii	"count\000"
 2929      7400
 2930              	.LASF139:
 2931 0006 616E6F64 		.ascii	"anode_port\000"
 2931      655F706F 
 2931      727400
 2932              	.LASF2:
 2933 0011 73697A65 		.ascii	"size_t\000"
 2933      5F7400
ARM GAS  /home/pauba/tmp/ccBU01md.s 			page 53


 2934              	.LASF76:
 2935 0018 7264796D 		.ascii	"rdymsg\000"
 2935      736700
 2936              	.LASF19:
 2937 001f 75696E74 		.ascii	"uint64_t\000"
 2937      36345F74 
 2937      00
 2938              	.LASF92:
 2939 0028 4F757470 		.ascii	"OutputQueue\000"
 2939      75745175 
 2939      65756500 
 2940              	.LASF27:
 2941 0034 6576656E 		.ascii	"eventmask_t\000"
 2941      746D6173 
 2941      6B5F7400 
 2942              	.LASF3:
 2943 0040 5F5F7569 		.ascii	"__uint8_t\000"
 2943      6E74385F 
 2943      7400
 2944              	.LASF115:
 2945 004a 4F545950 		.ascii	"OTYPER\000"
 2945      455200
 2946              	.LASF138:
 2947 0051 76615F6C 		.ascii	"va_list\000"
 2947      69737400 
 2948              	.LASF123:
 2949 0059 696F706F 		.ascii	"ioportmask_t\000"
 2949      72746D61 
 2949      736B5F74 
 2949      00
 2950              	.LASF155:
 2951 0066 73796E63 		.ascii	"syncs\000"
 2951      7300
 2952              	.LASF114:
 2953 006c 4D4F4445 		.ascii	"MODER\000"
 2953      5200
 2954              	.LASF14:
 2955 0072 6C6F6E67 		.ascii	"long long unsigned int\000"
 2955      206C6F6E 
 2955      6720756E 
 2955      7369676E 
 2955      65642069 
 2956              	.LASF117:
 2957 0089 50555044 		.ascii	"PUPDR\000"
 2957      5200
 2958              	.LASF77:
 2959 008f 65786974 		.ascii	"exitcode\000"
 2959      636F6465 
 2959      00
 2960              	.LASF176:
 2961 0098 49544D5F 		.ascii	"ITM_RxBuffer\000"
 2961      52784275 
 2961      66666572 
 2961      00
 2962              	.LASF33:
 2963 00a5 705F7072 		.ascii	"p_prio\000"
 2963      696F00
ARM GAS  /home/pauba/tmp/ccBU01md.s 			page 54


 2964              	.LASF110:
 2965 00ac 72656164 		.ascii	"readt\000"
 2965      7400
 2966              	.LASF82:
 2967 00b2 715F7761 		.ascii	"q_waiting\000"
 2967      6974696E 
 2967      6700
 2968              	.LASF12:
 2969 00bc 6C6F6E67 		.ascii	"long long int\000"
 2969      206C6F6E 
 2969      6720696E 
 2969      7400
 2970              	.LASF1:
 2971 00ca 7369676E 		.ascii	"signed char\000"
 2971      65642063 
 2971      68617200 
 2972              	.LASF118:
 2973 00d6 42535252 		.ascii	"BSRR\000"
 2973      00
 2974              	.LASF163:
 2975 00db 72785F62 		.ascii	"rx_bits\000"
 2975      69747300 
 2976              	.LASF103:
 2977 00e3 47545052 		.ascii	"GTPR\000"
 2977      00
 2978              	.LASF50:
 2979 00e8 705F6D70 		.ascii	"p_mpool\000"
 2979      6F6F6C00 
 2980              	.LASF66:
 2981 00f0 6D5F7175 		.ascii	"m_queue\000"
 2981      65756500 
 2982              	.LASF24:
 2983 00f8 74736C69 		.ascii	"tslices_t\000"
 2983      6365735F 
 2983      7400
 2984              	.LASF130:
 2985 0102 73746174 		.ascii	"state\000"
 2985      6500
 2986              	.LASF9:
 2987 0108 6C6F6E67 		.ascii	"long int\000"
 2987      20696E74 
 2987      00
 2988              	.LASF22:
 2989 0111 74737461 		.ascii	"tstate_t\000"
 2989      74655F74 
 2989      00
 2990              	.LASF166:
 2991 011a 72785F72 		.ascii	"rx_register\000"
 2991      65676973 
 2991      74657200 
 2992              	.LASF136:
 2993 0126 5F5F7661 		.ascii	"__va_list\000"
 2993      5F6C6973 
 2993      7400
 2994              	.LASF41:
 2995 0130 705F7265 		.ascii	"p_refs\000"
 2995      667300
ARM GAS  /home/pauba/tmp/ccBU01md.s 			page 55


 2996              	.LASF84:
 2997 0137 715F6275 		.ascii	"q_buffer\000"
 2997      66666572 
 2997      00
 2998              	.LASF86:
 2999 0140 715F7772 		.ascii	"q_wrptr\000"
 2999      70747200 
 3000              	.LASF89:
 3001 0148 715F6C69 		.ascii	"q_link\000"
 3001      6E6B00
 3002              	.LASF169:
 3003 014f 6C636F6D 		.ascii	"lcom2\000"
 3003      3200
 3004              	.LASF159:
 3005 0155 74787264 		.ascii	"txrdy\000"
 3005      7900
 3006              	.LASF150:
 3007 015b 4C445F53 		.ascii	"LD_STOP\000"
 3007      544F5000 
 3008              	.LASF35:
 3009 0163 705F6E65 		.ascii	"p_newer\000"
 3009      77657200 
 3010              	.LASF146:
 3011 016b 70617269 		.ascii	"parity\000"
 3011      747900
 3012              	.LASF116:
 3013 0172 4F535045 		.ascii	"OSPEEDR\000"
 3013      45445200 
 3014              	.LASF61:
 3015 017a 725F6E65 		.ascii	"r_newer\000"
 3015      77657200 
 3016              	.LASF143:
 3017 0182 63617468 		.ascii	"cathode_extmode\000"
 3017      6F64655F 
 3017      6578746D 
 3017      6F646500 
 3018              	.LASF158:
 3019 0192 6C696E6B 		.ascii	"link\000"
 3019      00
 3020              	.LASF171:
 3021 0197 65733146 		.ascii	"es1Flags\000"
 3021      6C616773 
 3021      00
 3022              	.LASF74:
 3023 01a0 4576656E 		.ascii	"EventSource\000"
 3023      74536F75 
 3023      72636500 
 3024              	.LASF96:
 3025 01ac 42617365 		.ascii	"BaseSequentialStream\000"
 3025      53657175 
 3025      656E7469 
 3025      616C5374 
 3025      7265616D 
 3026              	.LASF106:
 3027 01c1 42617365 		.ascii	"BaseAsynchronousChannelVMT\000"
 3027      4173796E 
 3027      6368726F 
ARM GAS  /home/pauba/tmp/ccBU01md.s 			page 56


 3027      6E6F7573 
 3027      4368616E 
 3028              	.LASF0:
 3029 01dc 756E7369 		.ascii	"unsigned int\000"
 3029      676E6564 
 3029      20696E74 
 3029      00
 3030              	.LASF16:
 3031 01e9 75696E74 		.ascii	"uint16_t\000"
 3031      31365F74 
 3031      00
 3032              	.LASF134:
 3033 01f2 53657269 		.ascii	"SerialDriverVMT\000"
 3033      616C4472 
 3033      69766572 
 3033      564D5400 
 3034              	.LASF43:
 3035 0202 705F7469 		.ascii	"p_time\000"
 3035      6D6500
 3036              	.LASF131:
 3037 0209 69717565 		.ascii	"iqueue\000"
 3037      756500
 3038              	.LASF45:
 3039 0210 705F6D73 		.ascii	"p_msgqueue\000"
 3039      67717565 
 3039      756500
 3040              	.LASF122:
 3041 021b 4750494F 		.ascii	"GPIO_TypeDef\000"
 3041      5F547970 
 3041      65446566 
 3041      00
 3042              	.LASF121:
 3043 0228 41465248 		.ascii	"AFRH\000"
 3043      00
 3044              	.LASF108:
 3045 022d 67657474 		.ascii	"gett\000"
 3045      00
 3046              	.LASF111:
 3047 0232 6576656E 		.ascii	"event\000"
 3047      7400
 3048              	.LASF7:
 3049 0238 73686F72 		.ascii	"short unsigned int\000"
 3049      7420756E 
 3049      7369676E 
 3049      65642069 
 3049      6E7400
 3050              	.LASF26:
 3051 024b 6D73675F 		.ascii	"msg_t\000"
 3051      7400
 3052              	.LASF132:
 3053 0251 6F717565 		.ascii	"oqueue\000"
 3053      756500
 3054              	.LASF112:
 3055 0258 42617365 		.ascii	"BaseAsynchronousChannel\000"
 3055      4173796E 
 3055      6368726F 
 3055      6E6F7573 
ARM GAS  /home/pauba/tmp/ccBU01md.s 			page 57


 3055      4368616E 
 3056              	.LASF105:
 3057 0270 55534152 		.ascii	"USART_TypeDef\000"
 3057      545F5479 
 3057      70654465 
 3057      6600
 3058              	.LASF109:
 3059 027e 77726974 		.ascii	"writet\000"
 3059      657400
 3060              	.LASF21:
 3061 0285 746D6F64 		.ascii	"tmode_t\000"
 3061      655F7400 
 3062              	.LASF52:
 3063 028d 54687265 		.ascii	"ThreadsList\000"
 3063      6164734C 
 3063      69737400 
 3064              	.LASF133:
 3065 0299 75736172 		.ascii	"usart\000"
 3065      7400
 3066              	.LASF91:
 3067 029f 496E7075 		.ascii	"InputQueue\000"
 3067      74517565 
 3067      756500
 3068              	.LASF90:
 3069 02aa 716E6F74 		.ascii	"qnotify_t\000"
 3069      6966795F 
 3069      7400
 3070              	.LASF81:
 3071 02b4 47656E65 		.ascii	"GenericQueue\000"
 3071      72696351 
 3071      75657565 
 3071      00
 3072              	.LASF54:
 3073 02c1 73746B61 		.ascii	"stkalign_t\000"
 3073      6C69676E 
 3073      5F7400
 3074              	.LASF183:
 3075 02cc 54687265 		.ascii	"Thread1\000"
 3075      61643100 
 3076              	.LASF94:
 3077 02d4 77726974 		.ascii	"write\000"
 3077      6500
 3078              	.LASF107:
 3079 02da 70757474 		.ascii	"putt\000"
 3079      00
 3080              	.LASF57:
 3081 02df 73697A65 		.ascii	"sizetype\000"
 3081      74797065 
 3081      00
 3082              	.LASF113:
 3083 02e8 636C6561 		.ascii	"clear\000"
 3083      7200
 3084              	.LASF65:
 3085 02ee 4D757465 		.ascii	"Mutex\000"
 3085      7800
 3086              	.LASF157:
 3087 02f4 656E6162 		.ascii	"enable\000"
ARM GAS  /home/pauba/tmp/ccBU01md.s 			page 58


 3087      6C6500
 3088              	.LASF135:
 3089 02fb 5F5F676E 		.ascii	"__gnuc_va_list\000"
 3089      75635F76 
 3089      615F6C69 
 3089      737400
 3090              	.LASF36:
 3091 030a 705F6F6C 		.ascii	"p_older\000"
 3091      64657200 
 3092              	.LASF60:
 3093 0312 725F6374 		.ascii	"r_ctx\000"
 3093      7800
 3094              	.LASF51:
 3095 0318 54687265 		.ascii	"ThreadsQueue\000"
 3095      61647351 
 3095      75657565 
 3095      00
 3096              	.LASF181:
 3097 0325 2F686F6D 		.ascii	"/home/pauba/ChibiOS-RT/ext/LEDComm/examples/test\000"
 3097      652F7061 
 3097      7562612F 
 3097      43686962 
 3097      694F532D 
 3098              	.LASF145:
 3099 0356 64617461 		.ascii	"data_bits\000"
 3099      5F626974 
 3099      7300
 3100              	.LASF38:
 3101 0360 705F7374 		.ascii	"p_stklimit\000"
 3101      6B6C696D 
 3101      697400
 3102              	.LASF180:
 3103 036b 6D61696E 		.ascii	"main.c\000"
 3103      2E6300
 3104              	.LASF62:
 3105 0372 725F6F6C 		.ascii	"r_older\000"
 3105      64657200 
 3106              	.LASF72:
 3107 037a 656C5F6D 		.ascii	"el_mask\000"
 3107      61736B00 
 3108              	.LASF173:
 3109 0382 72786368 		.ascii	"rxchar\000"
 3109      617200
 3110              	.LASF13:
 3111 0389 5F5F7569 		.ascii	"__uint64_t\000"
 3111      6E743634 
 3111      5F7400
 3112              	.LASF127:
 3113 0394 53445F52 		.ascii	"SD_READY\000"
 3113      45414459 
 3113      00
 3114              	.LASF120:
 3115 039d 4146524C 		.ascii	"AFRL\000"
 3115      00
 3116              	.LASF174:
 3117 03a2 77615468 		.ascii	"waThread1\000"
 3117      72656164 
ARM GAS  /home/pauba/tmp/ccBU01md.s 			page 59


 3117      3100
 3118              	.LASF178:
 3119 03ac 6576656E 		.ascii	"eventSource1\000"
 3119      74536F75 
 3119      72636531 
 3119      00
 3120              	.LASF23:
 3121 03b9 74726566 		.ascii	"trefs_t\000"
 3121      735F7400 
 3122              	.LASF97:
 3123 03c1 52455345 		.ascii	"RESERVED0\000"
 3123      52564544 
 3123      3000
 3124              	.LASF98:
 3125 03cb 52455345 		.ascii	"RESERVED1\000"
 3125      52564544 
 3125      3100
 3126              	.LASF99:
 3127 03d5 52455345 		.ascii	"RESERVED2\000"
 3127      52564544 
 3127      3200
 3128              	.LASF100:
 3129 03df 52455345 		.ascii	"RESERVED3\000"
 3129      52564544 
 3129      3300
 3130              	.LASF101:
 3131 03e9 52455345 		.ascii	"RESERVED4\000"
 3131      52564544 
 3131      3400
 3132              	.LASF32:
 3133 03f3 705F7072 		.ascii	"p_prev\000"
 3133      657600
 3134              	.LASF104:
 3135 03fa 52455345 		.ascii	"RESERVED6\000"
 3135      52564544 
 3135      3600
 3136              	.LASF25:
 3137 0404 74707269 		.ascii	"tprio_t\000"
 3137      6F5F7400 
 3138              	.LASF87:
 3139 040c 715F7264 		.ascii	"q_rdptr\000"
 3139      70747200 
 3140              	.LASF144:
 3141 0414 74687265 		.ascii	"threshold\000"
 3141      73686F6C 
 3141      6400
 3142              	.LASF172:
 3143 041e 4C434F4D 		.ascii	"LCOM2Config\000"
 3143      32436F6E 
 3143      66696700 
 3144              	.LASF20:
 3145 042a 5F426F6F 		.ascii	"_Bool\000"
 3145      6C00
 3146              	.LASF17:
 3147 0430 696E7433 		.ascii	"int32_t\000"
 3147      325F7400 
 3148              	.LASF4:
ARM GAS  /home/pauba/tmp/ccBU01md.s 			page 60


 3149 0438 756E7369 		.ascii	"unsigned char\000"
 3149      676E6564 
 3149      20636861 
 3149      7200
 3150              	.LASF71:
 3151 0446 656C5F6C 		.ascii	"el_listener\000"
 3151      69737465 
 3151      6E657200 
 3152              	.LASF73:
 3153 0452 656C5F66 		.ascii	"el_flags\000"
 3153      6C616773 
 3153      00
 3154              	.LASF48:
 3155 045b 705F6D74 		.ascii	"p_mtxlist\000"
 3155      786C6973 
 3155      7400
 3156              	.LASF5:
 3157 0465 73686F72 		.ascii	"short int\000"
 3157      7420696E 
 3157      7400
 3158              	.LASF39:
 3159 046f 705F7374 		.ascii	"p_state\000"
 3159      61746500 
 3160              	.LASF42:
 3161 0477 705F7072 		.ascii	"p_preempt\000"
 3161      65656D70 
 3161      7400
 3162              	.LASF59:
 3163 0481 725F7072 		.ascii	"r_prio\000"
 3163      696F00
 3164              	.LASF79:
 3165 0488 65776D61 		.ascii	"ewmask\000"
 3165      736B00
 3166              	.LASF31:
 3167 048f 705F6E65 		.ascii	"p_next\000"
 3167      787400
 3168              	.LASF93:
 3169 0496 42617365 		.ascii	"BaseSequentialStreamVMT\000"
 3169      53657175 
 3169      656E7469 
 3169      616C5374 
 3169      7265616D 
 3170              	.LASF40:
 3171 04ae 705F666C 		.ascii	"p_flags\000"
 3171      61677300 
 3172              	.LASF70:
 3173 04b6 656C5F6E 		.ascii	"el_next\000"
 3173      65787400 
 3174              	.LASF152:
 3175 04be 6C647374 		.ascii	"ldstate_t\000"
 3175      6174655F 
 3175      7400
 3176              	.LASF126:
 3177 04c8 53445F53 		.ascii	"SD_STOP\000"
 3177      544F5000 
 3178              	.LASF141:
 3179 04d0 63617468 		.ascii	"cathode_port\000"
ARM GAS  /home/pauba/tmp/ccBU01md.s 			page 61


 3179      6F64655F 
 3179      706F7274 
 3179      00
 3180              	.LASF30:
 3181 04dd 54687265 		.ascii	"Thread\000"
 3181      616400
 3182              	.LASF119:
 3183 04e4 4C434B52 		.ascii	"LCKR\000"
 3183      00
 3184              	.LASF165:
 3185 04e9 72785F63 		.ascii	"rx_char\000"
 3185      68617200 
 3186              	.LASF28:
 3187 04f1 666C6167 		.ascii	"flagsmask_t\000"
 3187      736D6173 
 3187      6B5F7400 
 3188              	.LASF47:
 3189 04fd 705F6570 		.ascii	"p_epending\000"
 3189      656E6469 
 3189      6E6700
 3190              	.LASF125:
 3191 0508 53445F55 		.ascii	"SD_UNINIT\000"
 3191      4E494E49 
 3191      5400
 3192              	.LASF102:
 3193 0512 52455345 		.ascii	"RESERVED5\000"
 3193      52564544 
 3193      3500
 3194              	.LASF83:
 3195 051c 715F636F 		.ascii	"q_counter\000"
 3195      756E7465 
 3195      7200
 3196              	.LASF53:
 3197 0526 72656761 		.ascii	"regarm_t\000"
 3197      726D5F74 
 3197      00
 3198              	.LASF58:
 3199 052f 725F7175 		.ascii	"r_queue\000"
 3199      65756500 
 3200              	.LASF128:
 3201 0537 73647374 		.ascii	"sdstate_t\000"
 3201      6174655F 
 3201      7400
 3202              	.LASF154:
 3203 0541 4C454443 		.ascii	"LEDCommDriver\000"
 3203      6F6D6D44 
 3203      72697665 
 3203      7200
 3204              	.LASF164:
 3205 054f 74785F63 		.ascii	"tx_char\000"
 3205      68617200 
 3206              	.LASF179:
 3207 0557 474E5520 		.ascii	"GNU C 4.8.3 20140228 (release) [ARM/embedded-4_8-br"
 3207      4320342E 
 3207      382E3320 
 3207      32303134 
 3207      30323238 
ARM GAS  /home/pauba/tmp/ccBU01md.s 			page 62


 3208 058a 616E6368 		.ascii	"anch revision 208322] -mcpu=cortex-m4 -mno-thumb-in"
 3208      20726576 
 3208      6973696F 
 3208      6E203230 
 3208      38333232 
 3209 05bd 74657277 		.ascii	"terwork -mthumb -ggdb -fomit-frame-pointer -falign-"
 3209      6F726B20 
 3209      2D6D7468 
 3209      756D6220 
 3209      2D676764 
 3210 05f0 66756E63 		.ascii	"functions=16 -ffunction-sections -fdata-sections -f"
 3210      74696F6E 
 3210      733D3136 
 3210      202D6666 
 3210      756E6374 
 3211 0623 6E6F2D63 		.ascii	"no-common\000"
 3211      6F6D6D6F 
 3211      6E00
 3212              	.LASF11:
 3213 062d 6C6F6E67 		.ascii	"long unsigned int\000"
 3213      20756E73 
 3213      69676E65 
 3213      6420696E 
 3213      7400
 3214              	.LASF63:
 3215 063f 725F6375 		.ascii	"r_current\000"
 3215      7272656E 
 3215      7400
 3216              	.LASF95:
 3217 0649 72656164 		.ascii	"read\000"
 3217      00
 3218              	.LASF80:
 3219 064e 63686172 		.ascii	"char\000"
 3219      00
 3220              	.LASF148:
 3221 0653 4C454443 		.ascii	"LEDCommConfig_t\000"
 3221      6F6D6D43 
 3221      6F6E6669 
 3221      675F7400 
 3222              	.LASF6:
 3223 0663 5F5F7569 		.ascii	"__uint16_t\000"
 3223      6E743136 
 3223      5F7400
 3224              	.LASF177:
 3225 066e 4C434F4D 		.ascii	"LCOM2\000"
 3225      3200
 3226              	.LASF68:
 3227 0674 6D5F6E65 		.ascii	"m_next\000"
 3227      787400
 3228              	.LASF29:
 3229 067b 73797374 		.ascii	"systime_t\000"
 3229      696D655F 
 3229      7400
 3230              	.LASF49:
 3231 0685 705F7265 		.ascii	"p_realprio\000"
 3231      616C7072 
 3231      696F00
ARM GAS  /home/pauba/tmp/ccBU01md.s 			page 63


 3232              	.LASF8:
 3233 0690 5F5F696E 		.ascii	"__int32_t\000"
 3233      7433325F 
 3233      7400
 3234              	.LASF10:
 3235 069a 5F5F7569 		.ascii	"__uint32_t\000"
 3235      6E743332 
 3235      5F7400
 3236              	.LASF124:
 3237 06a5 696F706F 		.ascii	"ioportid_t\000"
 3237      72746964 
 3237      5F7400
 3238              	.LASF137:
 3239 06b0 5F5F6170 		.ascii	"__ap\000"
 3239      00
 3240              	.LASF56:
 3241 06b5 636F6E74 		.ascii	"context\000"
 3241      65787400 
 3242              	.LASF55:
 3243 06bd 696E7463 		.ascii	"intctx\000"
 3243      747800
 3244              	.LASF170:
 3245 06c4 6573314C 		.ascii	"es1Listener\000"
 3245      69737465 
 3245      6E657200 
 3246              	.LASF168:
 3247 06d0 4C454443 		.ascii	"LEDCommDriverVMT\000"
 3247      6F6D6D44 
 3247      72697665 
 3247      72564D54 
 3247      00
 3248              	.LASF156:
 3249 06e1 70617269 		.ascii	"parity_flag\000"
 3249      74795F66 
 3249      6C616700 
 3250              	.LASF153:
 3251 06ed 4C454443 		.ascii	"LEDCommDriver_t\000"
 3251      6F6D6D44 
 3251      72697665 
 3251      725F7400 
 3252              	.LASF18:
 3253 06fd 75696E74 		.ascii	"uint32_t\000"
 3253      33325F74 
 3253      00
 3254              	.LASF161:
 3255 0706 74786269 		.ascii	"txbit\000"
 3255      7400
 3256              	.LASF85:
 3257 070c 715F746F 		.ascii	"q_top\000"
 3257      7000
 3258              	.LASF37:
 3259 0712 705F6E61 		.ascii	"p_name\000"
 3259      6D6500
 3260              	.LASF75:
 3261 0719 65735F6E 		.ascii	"es_next\000"
 3261      65787400 
 3262              	.LASF140:
ARM GAS  /home/pauba/tmp/ccBU01md.s 			page 64


 3263 0721 616E6F64 		.ascii	"anode_pad\000"
 3263      655F7061 
 3263      6400
 3264              	.LASF64:
 3265 072b 52656164 		.ascii	"ReadyList\000"
 3265      794C6973 
 3265      7400
 3266              	.LASF88:
 3267 0735 715F6E6F 		.ascii	"q_notify\000"
 3267      74696679 
 3267      00
 3268              	.LASF175:
 3269 073e 726C6973 		.ascii	"rlist\000"
 3269      7400
 3270              	.LASF15:
 3271 0744 75696E74 		.ascii	"uint8_t\000"
 3271      385F7400 
 3272              	.LASF129:
 3273 074c 53657269 		.ascii	"SerialDriver\000"
 3273      616C4472 
 3273      69766572 
 3273      00
 3274              	.LASF69:
 3275 0759 4576656E 		.ascii	"EventListener\000"
 3275      744C6973 
 3275      74656E65 
 3275      7200
 3276              	.LASF78:
 3277 0767 77746F62 		.ascii	"wtobjp\000"
 3277      6A7000
 3278              	.LASF147:
 3279 076e 70617269 		.ascii	"parity_type\000"
 3279      74795F74 
 3279      79706500 
 3280              	.LASF46:
 3281 077a 705F6D73 		.ascii	"p_msg\000"
 3281      6700
 3282              	.LASF151:
 3283 0780 4C445F52 		.ascii	"LD_READY\000"
 3283      45414459 
 3283      00
 3284              	.LASF184:
 3285 0789 6D61696E 		.ascii	"main\000"
 3285      00
 3286              	.LASF149:
 3287 078e 4C445F55 		.ascii	"LD_UNINIT\000"
 3287      4E494E49 
 3287      5400
 3288              	.LASF67:
 3289 0798 6D5F6F77 		.ascii	"m_owner\000"
 3289      6E657200 
 3290              	.LASF160:
 3291 07a0 72787264 		.ascii	"rxrdy\000"
 3291      7900
 3292              	.LASF142:
 3293 07a6 63617468 		.ascii	"cathode_pad\000"
 3293      6F64655F 
ARM GAS  /home/pauba/tmp/ccBU01md.s 			page 65


 3293      70616400 
 3294              	.LASF34:
 3295 07b2 705F6374 		.ascii	"p_ctx\000"
 3295      7800
 3296              	.LASF44:
 3297 07b8 705F7761 		.ascii	"p_waiting\000"
 3297      6974696E 
 3297      6700
 3298              	.LASF162:
 3299 07c2 74785F62 		.ascii	"tx_bits\000"
 3299      69747300 
 3300              	.LASF182:
 3301 07ca 63687072 		.ascii	"chprintf\000"
 3301      696E7466 
 3301      00
 3302              		.ident	"GCC: (GNU Tools for ARM Embedded Processors) 4.8.3 20140228 (release) [ARM/embedded-4_8-br
ARM GAS  /home/pauba/tmp/ccBU01md.s 			page 66


DEFINED SYMBOLS
                            *ABS*:00000000 main.c
/home/pauba/tmp/ccBU01md.s:19     .text.chprintf:00000000 $t
/home/pauba/tmp/ccBU01md.s:24     .text.chprintf:00000000 chprintf
/home/pauba/tmp/ccBU01md.s:60     .bss.waThread1:00000000 $d
/home/pauba/tmp/ccBU01md.s:63     .bss.waThread1:00000000 waThread1
/home/pauba/tmp/ccBU01md.s:66     .rodata:00000000 $d
/home/pauba/tmp/ccBU01md.s:70     .text.Thread1:00000000 $t
/home/pauba/tmp/ccBU01md.s:75     .text.Thread1:00000000 Thread1
/home/pauba/tmp/ccBU01md.s:102    .text.Thread1:00000018 $d
/home/pauba/tmp/ccBU01md.s:112    .bss.chp:00000000 chp
/home/pauba/tmp/ccBU01md.s:109    .bss.chp:00000000 $d
/home/pauba/tmp/ccBU01md.s:119    .data.eventSource1:00000000 eventSource1
/home/pauba/tmp/ccBU01md.s:116    .data.eventSource1:00000000 $d
/home/pauba/tmp/ccBU01md.s:160    .text.main:00000000 $t
/home/pauba/tmp/ccBU01md.s:166    .text.main:00000000 main
/home/pauba/tmp/ccBU01md.s:406    .text.main:00000194 $d
                     .debug_frame:00000010 $d
/home/pauba/tmp/ccBU01md.s:427    .text.main:000001dc $t

UNDEFINED SYMBOLS
chvprintf
chThdSleep
rlist
halInit
chSysInit
_pal_lld_setgroupmode
sdStart
ldInit
ldStart
chThdCreateStatic
chEvtRegisterMask
chEvtWaitAllTimeout
chEvtGetAndClearFlags
SD2
LCOM2
