ARM GAS  /home/pauba/tmp/ccu0oLid.s 			page 1


   1              		.syntax unified
   2              		.cpu cortex-m4
   3              		.fpu softvfp
   4              		.eabi_attribute 20, 1
   5              		.eabi_attribute 21, 1
   6              		.eabi_attribute 23, 3
   7              		.eabi_attribute 24, 1
   8              		.eabi_attribute 25, 1
   9              		.eabi_attribute 26, 1
  10              		.eabi_attribute 30, 6
  11              		.eabi_attribute 34, 1
  12              		.eabi_attribute 18, 4
  13              		.thumb
  14              		.file	"pal.c"
  15              		.text
  16              	.Ltext0:
  17              		.cfi_sections	.debug_frame
  18              		.section	.rodata
  19              		.align	2
  20              	.LC0:
  21 0000 2270616C 		.ascii	"\"palReadBus\"()\000"
  21      52656164 
  21      42757322 
  21      282900
  22              		.section	.text.palReadBus,"ax",%progbits
  23              		.align	2
  24              		.p2align 4,,15
  25              		.global	palReadBus
  26              		.thumb
  27              		.thumb_func
  28              		.type	palReadBus, %function
  29              	palReadBus:
  30              	.LFB63:
  31              		.file 1 "/home/pauba/ChibiOS-RT/os/hal/src/pal.c"
  32              		.loc 1 77 0
  33              		.cfi_startproc
  34              		@ args = 0, pretend = 0, frame = 8
  35              		@ frame_needed = 0, uses_anonymous_args = 0
  36 0000 00B5     		push	{lr}
  37              		.cfi_def_cfa_offset 4
  38              		.cfi_offset 14, -4
  39 0002 83B0     		sub	sp, sp, #12
  40              		.cfi_def_cfa_offset 16
  41 0004 0190     		str	r0, [sp, #4]
  42              		.loc 1 79 0
  43 0006 019B     		ldr	r3, [sp, #4]
  44 0008 002B     		cmp	r3, #0
  45 000a 03D0     		beq	.L2
  46              		.loc 1 79 0 is_stmt 0 discriminator 2
  47 000c 019B     		ldr	r3, [sp, #4]
  48 000e 9B68     		ldr	r3, [r3, #8]
  49 0010 0F2B     		cmp	r3, #15
  50 0012 02D9     		bls	.L3
  51              	.L2:
  52              		.loc 1 79 0 discriminator 1
  53 0014 0748     		ldr	r0, .L5
  54 0016 FFF7FEFF 		bl	chDbgPanic
ARM GAS  /home/pauba/tmp/ccu0oLid.s 			page 2


  55              	.L3:
  56              		.loc 1 82 0 is_stmt 1
  57 001a 019B     		ldr	r3, [sp, #4]
  58 001c 1B68     		ldr	r3, [r3]
  59 001e 1A69     		ldr	r2, [r3, #16]
  60 0020 019B     		ldr	r3, [sp, #4]
  61 0022 9B68     		ldr	r3, [r3, #8]
  62 0024 DA40     		lsrs	r2, r2, r3
  63 0026 019B     		ldr	r3, [sp, #4]
  64 0028 5B68     		ldr	r3, [r3, #4]
  65 002a 1340     		ands	r3, r3, r2
  66              		.loc 1 83 0
  67 002c 1846     		mov	r0, r3
  68 002e 03B0     		add	sp, sp, #12
  69              		@ sp needed
  70 0030 5DF804FB 		ldr	pc, [sp], #4
  71              	.L6:
  72              		.align	2
  73              	.L5:
  74 0034 00000000 		.word	.LC0
  75              		.cfi_endproc
  76              	.LFE63:
  77              		.size	palReadBus, .-palReadBus
  78 0038 AFF30080 		.section	.rodata
  78      AFF30080 
  79 000f 00       		.align	2
  80              	.LC1:
  81 0010 2270616C 		.ascii	"\"palWriteBus\"()\000"
  81      57726974 
  81      65427573 
  81      22282900 
  82              		.section	.text.palWriteBus,"ax",%progbits
  83              		.align	2
  84              		.p2align 4,,15
  85              		.global	palWriteBus
  86              		.thumb
  87              		.thumb_func
  88              		.type	palWriteBus, %function
  89              	palWriteBus:
  90              	.LFB64:
  91              		.loc 1 103 0
  92              		.cfi_startproc
  93              		@ args = 0, pretend = 0, frame = 8
  94              		@ frame_needed = 0, uses_anonymous_args = 0
  95 0000 00B5     		push	{lr}
  96              		.cfi_def_cfa_offset 4
  97              		.cfi_offset 14, -4
  98 0002 83B0     		sub	sp, sp, #12
  99              		.cfi_def_cfa_offset 16
 100 0004 0190     		str	r0, [sp, #4]
 101 0006 0091     		str	r1, [sp]
 102              		.loc 1 105 0
 103 0008 019B     		ldr	r3, [sp, #4]
 104 000a 002B     		cmp	r3, #0
 105 000c 03D0     		beq	.L8
 106              		.loc 1 105 0 is_stmt 0 discriminator 2
 107 000e 019B     		ldr	r3, [sp, #4]
ARM GAS  /home/pauba/tmp/ccu0oLid.s 			page 3


 108 0010 9B68     		ldr	r3, [r3, #8]
 109 0012 0F2B     		cmp	r3, #15
 110 0014 02D9     		bls	.L9
 111              	.L8:
 112              		.loc 1 105 0 discriminator 1
 113 0016 0D48     		ldr	r0, .L10
 114 0018 FFF7FEFF 		bl	chDbgPanic
 115              	.L9:
 116              		.loc 1 108 0 is_stmt 1
 117 001c 019B     		ldr	r3, [sp, #4]
 118 001e 1B68     		ldr	r3, [r3]
 119 0020 009A     		ldr	r2, [sp]
 120 0022 D143     		mvns	r1, r2
 121 0024 019A     		ldr	r2, [sp, #4]
 122 0026 5268     		ldr	r2, [r2, #4]
 123 0028 1140     		ands	r1, r1, r2
 124 002a 019A     		ldr	r2, [sp, #4]
 125 002c 9268     		ldr	r2, [r2, #8]
 126 002e 1032     		adds	r2, r2, #16
 127 0030 9140     		lsls	r1, r1, r2
 128 0032 019A     		ldr	r2, [sp, #4]
 129 0034 5068     		ldr	r0, [r2, #4]
 130 0036 009A     		ldr	r2, [sp]
 131 0038 1040     		ands	r0, r0, r2
 132 003a 019A     		ldr	r2, [sp, #4]
 133 003c 9268     		ldr	r2, [r2, #8]
 134 003e 00FA02F2 		lsl	r2, r0, r2
 135 0042 0A43     		orrs	r2, r2, r1
 136 0044 9A61     		str	r2, [r3, #24]
 137              		.loc 1 109 0
 138 0046 03B0     		add	sp, sp, #12
 139              		@ sp needed
 140 0048 5DF804FB 		ldr	pc, [sp], #4
 141              	.L11:
 142              		.align	2
 143              	.L10:
 144 004c 10000000 		.word	.LC1
 145              		.cfi_endproc
 146              	.LFE64:
 147              		.size	palWriteBus, .-palWriteBus
 148              		.section	.rodata
 149              		.align	2
 150              	.LC2:
 151 0020 2270616C 		.ascii	"\"palSetBusMode\"()\000"
 151      53657442 
 151      75734D6F 
 151      64652228 
 151      2900
 152 0032 0000     		.section	.text.palSetBusMode,"ax",%progbits
 153              		.align	2
 154              		.p2align 4,,15
 155              		.global	palSetBusMode
 156              		.thumb
 157              		.thumb_func
 158              		.type	palSetBusMode, %function
 159              	palSetBusMode:
 160              	.LFB65:
ARM GAS  /home/pauba/tmp/ccu0oLid.s 			page 4


 161              		.loc 1 127 0
 162              		.cfi_startproc
 163              		@ args = 0, pretend = 0, frame = 8
 164              		@ frame_needed = 0, uses_anonymous_args = 0
 165 0000 00B5     		push	{lr}
 166              		.cfi_def_cfa_offset 4
 167              		.cfi_offset 14, -4
 168 0002 83B0     		sub	sp, sp, #12
 169              		.cfi_def_cfa_offset 16
 170 0004 0190     		str	r0, [sp, #4]
 171 0006 0091     		str	r1, [sp]
 172              		.loc 1 129 0
 173 0008 019B     		ldr	r3, [sp, #4]
 174 000a 002B     		cmp	r3, #0
 175 000c 03D0     		beq	.L13
 176              		.loc 1 129 0 is_stmt 0 discriminator 2
 177 000e 019B     		ldr	r3, [sp, #4]
 178 0010 9B68     		ldr	r3, [r3, #8]
 179 0012 0F2B     		cmp	r3, #15
 180 0014 02D9     		bls	.L14
 181              	.L13:
 182              		.loc 1 129 0 discriminator 1
 183 0016 0948     		ldr	r0, .L15
 184 0018 FFF7FEFF 		bl	chDbgPanic
 185              	.L14:
 186              		.loc 1 132 0 is_stmt 1
 187 001c 019B     		ldr	r3, [sp, #4]
 188 001e 1A68     		ldr	r2, [r3]
 189 0020 019B     		ldr	r3, [sp, #4]
 190 0022 5968     		ldr	r1, [r3, #4]
 191 0024 019B     		ldr	r3, [sp, #4]
 192 0026 9B68     		ldr	r3, [r3, #8]
 193 0028 01FA03F3 		lsl	r3, r1, r3
 194 002c 1046     		mov	r0, r2
 195 002e 1946     		mov	r1, r3
 196 0030 009A     		ldr	r2, [sp]
 197 0032 FFF7FEFF 		bl	_pal_lld_setgroupmode
 198              		.loc 1 133 0
 199 0036 03B0     		add	sp, sp, #12
 200              		@ sp needed
 201 0038 5DF804FB 		ldr	pc, [sp], #4
 202              	.L16:
 203              		.align	2
 204              	.L15:
 205 003c 20000000 		.word	.LC2
 206              		.cfi_endproc
 207              	.LFE65:
 208              		.size	palSetBusMode, .-palSetBusMode
 209              		.text
 210              	.Letext0:
 211              		.file 2 "/opt/gcc-arm-none-eabi-4_8-2014q1/arm-none-eabi/include/machine/_default_types.h"
 212              		.file 3 "/opt/gcc-arm-none-eabi-4_8-2014q1/arm-none-eabi/include/stdint.h"
 213              		.file 4 "/home/pauba/ChibiOS-RT/os/hal/platforms/STM32/GPIOv2/pal_lld.h"
 214              		.file 5 "/home/pauba/ChibiOS-RT/os/hal/include/pal.h"
 215              		.file 6 "/home/pauba/ChibiOS-RT/os/ports/common/ARMCMx/CMSIS/include/core_cm3.h"
 216              		.section	.debug_info,"",%progbits
 217              	.Ldebug_info0:
ARM GAS  /home/pauba/tmp/ccu0oLid.s 			page 5


 218 0000 9A020000 		.4byte	0x29a
 219 0004 0400     		.2byte	0x4
 220 0006 00000000 		.4byte	.Ldebug_abbrev0
 221 000a 04       		.byte	0x4
 222 000b 01       		.uleb128 0x1
 223 000c 0C010000 		.4byte	.LASF40
 224 0010 01       		.byte	0x1
 225 0011 4A020000 		.4byte	.LASF41
 226 0015 00000000 		.4byte	.Ldebug_ranges0+0
 227 0019 00000000 		.4byte	0
 228 001d 00000000 		.4byte	.Ldebug_line0
 229 0021 02       		.uleb128 0x2
 230 0022 04       		.byte	0x4
 231 0023 05       		.byte	0x5
 232 0024 696E7400 		.ascii	"int\000"
 233 0028 03       		.uleb128 0x3
 234 0029 04       		.byte	0x4
 235 002a 07       		.byte	0x7
 236 002b E8000000 		.4byte	.LASF0
 237 002f 03       		.uleb128 0x3
 238 0030 01       		.byte	0x1
 239 0031 06       		.byte	0x6
 240 0032 3E020000 		.4byte	.LASF1
 241 0036 03       		.uleb128 0x3
 242 0037 01       		.byte	0x1
 243 0038 08       		.byte	0x8
 244 0039 80000000 		.4byte	.LASF2
 245 003d 03       		.uleb128 0x3
 246 003e 02       		.byte	0x2
 247 003f 05       		.byte	0x5
 248 0040 44000000 		.4byte	.LASF3
 249 0044 04       		.uleb128 0x4
 250 0045 CA000000 		.4byte	.LASF5
 251 0049 02       		.byte	0x2
 252 004a 26       		.byte	0x26
 253 004b 4F000000 		.4byte	0x4f
 254 004f 03       		.uleb128 0x3
 255 0050 02       		.byte	0x2
 256 0051 07       		.byte	0x7
 257 0052 A5000000 		.4byte	.LASF4
 258 0056 04       		.uleb128 0x4
 259 0057 1C000000 		.4byte	.LASF6
 260 005b 02       		.byte	0x2
 261 005c 37       		.byte	0x37
 262 005d 61000000 		.4byte	0x61
 263 0061 03       		.uleb128 0x3
 264 0062 04       		.byte	0x4
 265 0063 05       		.byte	0x5
 266 0064 35020000 		.4byte	.LASF7
 267 0068 04       		.uleb128 0x4
 268 0069 D5000000 		.4byte	.LASF8
 269 006d 02       		.byte	0x2
 270 006e 38       		.byte	0x38
 271 006f 73000000 		.4byte	0x73
 272 0073 03       		.uleb128 0x3
 273 0074 04       		.byte	0x4
 274 0075 07       		.byte	0x7
ARM GAS  /home/pauba/tmp/ccu0oLid.s 			page 6


 275 0076 93000000 		.4byte	.LASF9
 276 007a 03       		.uleb128 0x3
 277 007b 08       		.byte	0x8
 278 007c 05       		.byte	0x5
 279 007d F9010000 		.4byte	.LASF10
 280 0081 03       		.uleb128 0x3
 281 0082 08       		.byte	0x8
 282 0083 07       		.byte	0x7
 283 0084 78020000 		.4byte	.LASF11
 284 0088 04       		.uleb128 0x4
 285 0089 23020000 		.4byte	.LASF12
 286 008d 03       		.byte	0x3
 287 008e 36       		.byte	0x36
 288 008f 44000000 		.4byte	0x44
 289 0093 04       		.uleb128 0x4
 290 0094 E2010000 		.4byte	.LASF13
 291 0098 03       		.byte	0x3
 292 0099 41       		.byte	0x41
 293 009a 56000000 		.4byte	0x56
 294 009e 04       		.uleb128 0x4
 295 009f 2C020000 		.4byte	.LASF14
 296 00a3 03       		.byte	0x3
 297 00a4 42       		.byte	0x42
 298 00a5 68000000 		.4byte	0x68
 299 00a9 04       		.uleb128 0x4
 300 00aa 26000000 		.4byte	.LASF15
 301 00ae 03       		.byte	0x3
 302 00af 60       		.byte	0x60
 303 00b0 28000000 		.4byte	0x28
 304 00b4 03       		.uleb128 0x3
 305 00b5 01       		.byte	0x1
 306 00b6 02       		.byte	0x2
 307 00b7 72020000 		.4byte	.LASF16
 308 00bb 05       		.uleb128 0x5
 309 00bc 9E000000 		.4byte	0x9e
 310 00c0 03       		.uleb128 0x3
 311 00c1 04       		.byte	0x4
 312 00c2 07       		.byte	0x7
 313 00c3 EA010000 		.4byte	.LASF17
 314 00c7 03       		.uleb128 0x3
 315 00c8 01       		.byte	0x1
 316 00c9 08       		.byte	0x8
 317 00ca 02010000 		.4byte	.LASF18
 318 00ce 06       		.uleb128 0x6
 319 00cf 04       		.byte	0x4
 320 00d0 04       		.byte	0x4
 321 00d1 96       		.byte	0x96
 322 00d2 EF000000 		.4byte	0xef
 323 00d6 07       		.uleb128 0x7
 324 00d7 73657400 		.ascii	"set\000"
 325 00db 04       		.byte	0x4
 326 00dc 97       		.byte	0x97
 327 00dd 88000000 		.4byte	0x88
 328 00e1 00       		.byte	0
 329 00e2 08       		.uleb128 0x8
 330 00e3 05000000 		.4byte	.LASF19
 331 00e7 04       		.byte	0x4
ARM GAS  /home/pauba/tmp/ccu0oLid.s 			page 7


 332 00e8 98       		.byte	0x98
 333 00e9 88000000 		.4byte	0x88
 334 00ed 02       		.byte	0x2
 335 00ee 00       		.byte	0
 336 00ef 09       		.uleb128 0x9
 337 00f0 04       		.byte	0x4
 338 00f1 04       		.byte	0x4
 339 00f2 94       		.byte	0x94
 340 00f3 0A010000 		.4byte	0x10a
 341 00f7 0A       		.uleb128 0xa
 342 00f8 5700     		.ascii	"W\000"
 343 00fa 04       		.byte	0x4
 344 00fb 95       		.byte	0x95
 345 00fc 9E000000 		.4byte	0x9e
 346 0100 0A       		.uleb128 0xa
 347 0101 4800     		.ascii	"H\000"
 348 0103 04       		.byte	0x4
 349 0104 99       		.byte	0x99
 350 0105 CE000000 		.4byte	0xce
 351 0109 00       		.byte	0
 352 010a 06       		.uleb128 0x6
 353 010b 28       		.byte	0x28
 354 010c 04       		.byte	0x4
 355 010d 8C       		.byte	0x8c
 356 010e 8B010000 		.4byte	0x18b
 357 0112 08       		.uleb128 0x8
 358 0113 0B000000 		.4byte	.LASF20
 359 0117 04       		.byte	0x4
 360 0118 8E       		.byte	0x8e
 361 0119 BB000000 		.4byte	0xbb
 362 011d 00       		.byte	0
 363 011e 08       		.uleb128 0x8
 364 011f 70000000 		.4byte	.LASF21
 365 0123 04       		.byte	0x4
 366 0124 8F       		.byte	0x8f
 367 0125 BB000000 		.4byte	0xbb
 368 0129 04       		.byte	0x4
 369 012a 08       		.uleb128 0x8
 370 012b E0000000 		.4byte	.LASF22
 371 012f 04       		.byte	0x4
 372 0130 90       		.byte	0x90
 373 0131 BB000000 		.4byte	0xbb
 374 0135 08       		.byte	0x8
 375 0136 08       		.uleb128 0x8
 376 0137 F3010000 		.4byte	.LASF23
 377 013b 04       		.byte	0x4
 378 013c 91       		.byte	0x91
 379 013d BB000000 		.4byte	0xbb
 380 0141 0C       		.byte	0xc
 381 0142 07       		.uleb128 0x7
 382 0143 49445200 		.ascii	"IDR\000"
 383 0147 04       		.byte	0x4
 384 0148 92       		.byte	0x92
 385 0149 BB000000 		.4byte	0xbb
 386 014d 10       		.byte	0x10
 387 014e 07       		.uleb128 0x7
 388 014f 4F445200 		.ascii	"ODR\000"
ARM GAS  /home/pauba/tmp/ccu0oLid.s 			page 8


 389 0153 04       		.byte	0x4
 390 0154 93       		.byte	0x93
 391 0155 BB000000 		.4byte	0xbb
 392 0159 14       		.byte	0x14
 393 015a 08       		.uleb128 0x8
 394 015b 33000000 		.4byte	.LASF24
 395 015f 04       		.byte	0x4
 396 0160 9A       		.byte	0x9a
 397 0161 8B010000 		.4byte	0x18b
 398 0165 18       		.byte	0x18
 399 0166 08       		.uleb128 0x8
 400 0167 00000000 		.4byte	.LASF25
 401 016b 04       		.byte	0x4
 402 016c 9B       		.byte	0x9b
 403 016d BB000000 		.4byte	0xbb
 404 0171 1C       		.byte	0x1c
 405 0172 08       		.uleb128 0x8
 406 0173 B8000000 		.4byte	.LASF26
 407 0177 04       		.byte	0x4
 408 0178 9C       		.byte	0x9c
 409 0179 BB000000 		.4byte	0xbb
 410 017d 20       		.byte	0x20
 411 017e 08       		.uleb128 0x8
 412 017f 8E000000 		.4byte	.LASF27
 413 0183 04       		.byte	0x4
 414 0184 9D       		.byte	0x9d
 415 0185 BB000000 		.4byte	0xbb
 416 0189 24       		.byte	0x24
 417 018a 00       		.byte	0
 418 018b 05       		.uleb128 0x5
 419 018c EF000000 		.4byte	0xef
 420 0190 04       		.uleb128 0x4
 421 0191 F5000000 		.4byte	.LASF28
 422 0195 04       		.byte	0x4
 423 0196 9E       		.byte	0x9e
 424 0197 0A010000 		.4byte	0x10a
 425 019b 04       		.uleb128 0x4
 426 019c 63000000 		.4byte	.LASF29
 427 01a0 04       		.byte	0x4
 428 01a1 F0       		.byte	0xf0
 429 01a2 9E000000 		.4byte	0x9e
 430 01a6 04       		.uleb128 0x4
 431 01a7 77000000 		.4byte	.LASF30
 432 01ab 04       		.byte	0x4
 433 01ac F5       		.byte	0xf5
 434 01ad 9E000000 		.4byte	0x9e
 435 01b1 04       		.uleb128 0x4
 436 01b2 18020000 		.4byte	.LASF31
 437 01b6 04       		.byte	0x4
 438 01b7 FD       		.byte	0xfd
 439 01b8 BC010000 		.4byte	0x1bc
 440 01bc 0B       		.uleb128 0xb
 441 01bd 04       		.byte	0x4
 442 01be 90010000 		.4byte	0x190
 443 01c2 06       		.uleb128 0x6
 444 01c3 0C       		.byte	0xc
 445 01c4 05       		.byte	0x5
ARM GAS  /home/pauba/tmp/ccu0oLid.s 			page 9


 446 01c5 85       		.byte	0x85
 447 01c6 EF010000 		.4byte	0x1ef
 448 01ca 08       		.uleb128 0x8
 449 01cb 5C000000 		.4byte	.LASF32
 450 01cf 05       		.byte	0x5
 451 01d0 89       		.byte	0x89
 452 01d1 B1010000 		.4byte	0x1b1
 453 01d5 00       		.byte	0
 454 01d6 08       		.uleb128 0x8
 455 01d7 07020000 		.4byte	.LASF33
 456 01db 05       		.byte	0x5
 457 01dc 8F       		.byte	0x8f
 458 01dd 9B010000 		.4byte	0x19b
 459 01e1 04       		.byte	0x4
 460 01e2 08       		.uleb128 0x8
 461 01e3 11020000 		.4byte	.LASF34
 462 01e7 05       		.byte	0x5
 463 01e8 93       		.byte	0x93
 464 01e9 A9000000 		.4byte	0xa9
 465 01ed 08       		.byte	0x8
 466 01ee 00       		.byte	0
 467 01ef 04       		.uleb128 0x4
 468 01f0 8F020000 		.4byte	.LASF35
 469 01f4 05       		.byte	0x5
 470 01f5 94       		.byte	0x94
 471 01f6 C2010000 		.4byte	0x1c2
 472 01fa 0C       		.uleb128 0xc
 473 01fb 11000000 		.4byte	.LASF42
 474 01ff 01       		.byte	0x1
 475 0200 4D       		.byte	0x4d
 476 0201 9B010000 		.4byte	0x19b
 477 0205 00000000 		.4byte	.LFB63
 478 0209 38000000 		.4byte	.LFE63-.LFB63
 479 020d 01       		.uleb128 0x1
 480 020e 9C       		.byte	0x9c
 481 020f 22020000 		.4byte	0x222
 482 0213 0D       		.uleb128 0xd
 483 0214 62757300 		.ascii	"bus\000"
 484 0218 01       		.byte	0x1
 485 0219 4D       		.byte	0x4d
 486 021a 22020000 		.4byte	0x222
 487 021e 02       		.uleb128 0x2
 488 021f 91       		.byte	0x91
 489 0220 74       		.sleb128 -12
 490 0221 00       		.byte	0
 491 0222 0B       		.uleb128 0xb
 492 0223 04       		.byte	0x4
 493 0224 EF010000 		.4byte	0x1ef
 494 0228 0E       		.uleb128 0xe
 495 0229 38000000 		.4byte	.LASF37
 496 022d 01       		.byte	0x1
 497 022e 67       		.byte	0x67
 498 022f 00000000 		.4byte	.LFB64
 499 0233 50000000 		.4byte	.LFE64-.LFB64
 500 0237 01       		.uleb128 0x1
 501 0238 9C       		.byte	0x9c
 502 0239 5A020000 		.4byte	0x25a
ARM GAS  /home/pauba/tmp/ccu0oLid.s 			page 10


 503 023d 0D       		.uleb128 0xd
 504 023e 62757300 		.ascii	"bus\000"
 505 0242 01       		.byte	0x1
 506 0243 67       		.byte	0x67
 507 0244 22020000 		.4byte	0x222
 508 0248 02       		.uleb128 0x2
 509 0249 91       		.byte	0x91
 510 024a 74       		.sleb128 -12
 511 024b 0F       		.uleb128 0xf
 512 024c 0C020000 		.4byte	.LASF36
 513 0250 01       		.byte	0x1
 514 0251 67       		.byte	0x67
 515 0252 9B010000 		.4byte	0x19b
 516 0256 02       		.uleb128 0x2
 517 0257 91       		.byte	0x91
 518 0258 70       		.sleb128 -16
 519 0259 00       		.byte	0
 520 025a 0E       		.uleb128 0xe
 521 025b 4E000000 		.4byte	.LASF38
 522 025f 01       		.byte	0x1
 523 0260 7F       		.byte	0x7f
 524 0261 00000000 		.4byte	.LFB65
 525 0265 40000000 		.4byte	.LFE65-.LFB65
 526 0269 01       		.uleb128 0x1
 527 026a 9C       		.byte	0x9c
 528 026b 8C020000 		.4byte	0x28c
 529 026f 0D       		.uleb128 0xd
 530 0270 62757300 		.ascii	"bus\000"
 531 0274 01       		.byte	0x1
 532 0275 7F       		.byte	0x7f
 533 0276 22020000 		.4byte	0x222
 534 027a 02       		.uleb128 0x2
 535 027b 91       		.byte	0x91
 536 027c 74       		.sleb128 -12
 537 027d 0F       		.uleb128 0xf
 538 027e 07010000 		.4byte	.LASF39
 539 0282 01       		.byte	0x1
 540 0283 7F       		.byte	0x7f
 541 0284 A6010000 		.4byte	0x1a6
 542 0288 02       		.uleb128 0x2
 543 0289 91       		.byte	0x91
 544 028a 70       		.sleb128 -16
 545 028b 00       		.byte	0
 546 028c 10       		.uleb128 0x10
 547 028d BD000000 		.4byte	.LASF43
 548 0291 06       		.byte	0x6
 549 0292 0706     		.2byte	0x607
 550 0294 98020000 		.4byte	0x298
 551 0298 05       		.uleb128 0x5
 552 0299 93000000 		.4byte	0x93
 553 029d 00       		.byte	0
 554              		.section	.debug_abbrev,"",%progbits
 555              	.Ldebug_abbrev0:
 556 0000 01       		.uleb128 0x1
 557 0001 11       		.uleb128 0x11
 558 0002 01       		.byte	0x1
 559 0003 25       		.uleb128 0x25
ARM GAS  /home/pauba/tmp/ccu0oLid.s 			page 11


 560 0004 0E       		.uleb128 0xe
 561 0005 13       		.uleb128 0x13
 562 0006 0B       		.uleb128 0xb
 563 0007 03       		.uleb128 0x3
 564 0008 0E       		.uleb128 0xe
 565 0009 55       		.uleb128 0x55
 566 000a 17       		.uleb128 0x17
 567 000b 11       		.uleb128 0x11
 568 000c 01       		.uleb128 0x1
 569 000d 10       		.uleb128 0x10
 570 000e 17       		.uleb128 0x17
 571 000f 00       		.byte	0
 572 0010 00       		.byte	0
 573 0011 02       		.uleb128 0x2
 574 0012 24       		.uleb128 0x24
 575 0013 00       		.byte	0
 576 0014 0B       		.uleb128 0xb
 577 0015 0B       		.uleb128 0xb
 578 0016 3E       		.uleb128 0x3e
 579 0017 0B       		.uleb128 0xb
 580 0018 03       		.uleb128 0x3
 581 0019 08       		.uleb128 0x8
 582 001a 00       		.byte	0
 583 001b 00       		.byte	0
 584 001c 03       		.uleb128 0x3
 585 001d 24       		.uleb128 0x24
 586 001e 00       		.byte	0
 587 001f 0B       		.uleb128 0xb
 588 0020 0B       		.uleb128 0xb
 589 0021 3E       		.uleb128 0x3e
 590 0022 0B       		.uleb128 0xb
 591 0023 03       		.uleb128 0x3
 592 0024 0E       		.uleb128 0xe
 593 0025 00       		.byte	0
 594 0026 00       		.byte	0
 595 0027 04       		.uleb128 0x4
 596 0028 16       		.uleb128 0x16
 597 0029 00       		.byte	0
 598 002a 03       		.uleb128 0x3
 599 002b 0E       		.uleb128 0xe
 600 002c 3A       		.uleb128 0x3a
 601 002d 0B       		.uleb128 0xb
 602 002e 3B       		.uleb128 0x3b
 603 002f 0B       		.uleb128 0xb
 604 0030 49       		.uleb128 0x49
 605 0031 13       		.uleb128 0x13
 606 0032 00       		.byte	0
 607 0033 00       		.byte	0
 608 0034 05       		.uleb128 0x5
 609 0035 35       		.uleb128 0x35
 610 0036 00       		.byte	0
 611 0037 49       		.uleb128 0x49
 612 0038 13       		.uleb128 0x13
 613 0039 00       		.byte	0
 614 003a 00       		.byte	0
 615 003b 06       		.uleb128 0x6
 616 003c 13       		.uleb128 0x13
ARM GAS  /home/pauba/tmp/ccu0oLid.s 			page 12


 617 003d 01       		.byte	0x1
 618 003e 0B       		.uleb128 0xb
 619 003f 0B       		.uleb128 0xb
 620 0040 3A       		.uleb128 0x3a
 621 0041 0B       		.uleb128 0xb
 622 0042 3B       		.uleb128 0x3b
 623 0043 0B       		.uleb128 0xb
 624 0044 01       		.uleb128 0x1
 625 0045 13       		.uleb128 0x13
 626 0046 00       		.byte	0
 627 0047 00       		.byte	0
 628 0048 07       		.uleb128 0x7
 629 0049 0D       		.uleb128 0xd
 630 004a 00       		.byte	0
 631 004b 03       		.uleb128 0x3
 632 004c 08       		.uleb128 0x8
 633 004d 3A       		.uleb128 0x3a
 634 004e 0B       		.uleb128 0xb
 635 004f 3B       		.uleb128 0x3b
 636 0050 0B       		.uleb128 0xb
 637 0051 49       		.uleb128 0x49
 638 0052 13       		.uleb128 0x13
 639 0053 38       		.uleb128 0x38
 640 0054 0B       		.uleb128 0xb
 641 0055 00       		.byte	0
 642 0056 00       		.byte	0
 643 0057 08       		.uleb128 0x8
 644 0058 0D       		.uleb128 0xd
 645 0059 00       		.byte	0
 646 005a 03       		.uleb128 0x3
 647 005b 0E       		.uleb128 0xe
 648 005c 3A       		.uleb128 0x3a
 649 005d 0B       		.uleb128 0xb
 650 005e 3B       		.uleb128 0x3b
 651 005f 0B       		.uleb128 0xb
 652 0060 49       		.uleb128 0x49
 653 0061 13       		.uleb128 0x13
 654 0062 38       		.uleb128 0x38
 655 0063 0B       		.uleb128 0xb
 656 0064 00       		.byte	0
 657 0065 00       		.byte	0
 658 0066 09       		.uleb128 0x9
 659 0067 17       		.uleb128 0x17
 660 0068 01       		.byte	0x1
 661 0069 0B       		.uleb128 0xb
 662 006a 0B       		.uleb128 0xb
 663 006b 3A       		.uleb128 0x3a
 664 006c 0B       		.uleb128 0xb
 665 006d 3B       		.uleb128 0x3b
 666 006e 0B       		.uleb128 0xb
 667 006f 01       		.uleb128 0x1
 668 0070 13       		.uleb128 0x13
 669 0071 00       		.byte	0
 670 0072 00       		.byte	0
 671 0073 0A       		.uleb128 0xa
 672 0074 0D       		.uleb128 0xd
 673 0075 00       		.byte	0
ARM GAS  /home/pauba/tmp/ccu0oLid.s 			page 13


 674 0076 03       		.uleb128 0x3
 675 0077 08       		.uleb128 0x8
 676 0078 3A       		.uleb128 0x3a
 677 0079 0B       		.uleb128 0xb
 678 007a 3B       		.uleb128 0x3b
 679 007b 0B       		.uleb128 0xb
 680 007c 49       		.uleb128 0x49
 681 007d 13       		.uleb128 0x13
 682 007e 00       		.byte	0
 683 007f 00       		.byte	0
 684 0080 0B       		.uleb128 0xb
 685 0081 0F       		.uleb128 0xf
 686 0082 00       		.byte	0
 687 0083 0B       		.uleb128 0xb
 688 0084 0B       		.uleb128 0xb
 689 0085 49       		.uleb128 0x49
 690 0086 13       		.uleb128 0x13
 691 0087 00       		.byte	0
 692 0088 00       		.byte	0
 693 0089 0C       		.uleb128 0xc
 694 008a 2E       		.uleb128 0x2e
 695 008b 01       		.byte	0x1
 696 008c 3F       		.uleb128 0x3f
 697 008d 19       		.uleb128 0x19
 698 008e 03       		.uleb128 0x3
 699 008f 0E       		.uleb128 0xe
 700 0090 3A       		.uleb128 0x3a
 701 0091 0B       		.uleb128 0xb
 702 0092 3B       		.uleb128 0x3b
 703 0093 0B       		.uleb128 0xb
 704 0094 27       		.uleb128 0x27
 705 0095 19       		.uleb128 0x19
 706 0096 49       		.uleb128 0x49
 707 0097 13       		.uleb128 0x13
 708 0098 11       		.uleb128 0x11
 709 0099 01       		.uleb128 0x1
 710 009a 12       		.uleb128 0x12
 711 009b 06       		.uleb128 0x6
 712 009c 40       		.uleb128 0x40
 713 009d 18       		.uleb128 0x18
 714 009e 9642     		.uleb128 0x2116
 715 00a0 19       		.uleb128 0x19
 716 00a1 01       		.uleb128 0x1
 717 00a2 13       		.uleb128 0x13
 718 00a3 00       		.byte	0
 719 00a4 00       		.byte	0
 720 00a5 0D       		.uleb128 0xd
 721 00a6 05       		.uleb128 0x5
 722 00a7 00       		.byte	0
 723 00a8 03       		.uleb128 0x3
 724 00a9 08       		.uleb128 0x8
 725 00aa 3A       		.uleb128 0x3a
 726 00ab 0B       		.uleb128 0xb
 727 00ac 3B       		.uleb128 0x3b
 728 00ad 0B       		.uleb128 0xb
 729 00ae 49       		.uleb128 0x49
 730 00af 13       		.uleb128 0x13
ARM GAS  /home/pauba/tmp/ccu0oLid.s 			page 14


 731 00b0 02       		.uleb128 0x2
 732 00b1 18       		.uleb128 0x18
 733 00b2 00       		.byte	0
 734 00b3 00       		.byte	0
 735 00b4 0E       		.uleb128 0xe
 736 00b5 2E       		.uleb128 0x2e
 737 00b6 01       		.byte	0x1
 738 00b7 3F       		.uleb128 0x3f
 739 00b8 19       		.uleb128 0x19
 740 00b9 03       		.uleb128 0x3
 741 00ba 0E       		.uleb128 0xe
 742 00bb 3A       		.uleb128 0x3a
 743 00bc 0B       		.uleb128 0xb
 744 00bd 3B       		.uleb128 0x3b
 745 00be 0B       		.uleb128 0xb
 746 00bf 27       		.uleb128 0x27
 747 00c0 19       		.uleb128 0x19
 748 00c1 11       		.uleb128 0x11
 749 00c2 01       		.uleb128 0x1
 750 00c3 12       		.uleb128 0x12
 751 00c4 06       		.uleb128 0x6
 752 00c5 40       		.uleb128 0x40
 753 00c6 18       		.uleb128 0x18
 754 00c7 9642     		.uleb128 0x2116
 755 00c9 19       		.uleb128 0x19
 756 00ca 01       		.uleb128 0x1
 757 00cb 13       		.uleb128 0x13
 758 00cc 00       		.byte	0
 759 00cd 00       		.byte	0
 760 00ce 0F       		.uleb128 0xf
 761 00cf 05       		.uleb128 0x5
 762 00d0 00       		.byte	0
 763 00d1 03       		.uleb128 0x3
 764 00d2 0E       		.uleb128 0xe
 765 00d3 3A       		.uleb128 0x3a
 766 00d4 0B       		.uleb128 0xb
 767 00d5 3B       		.uleb128 0x3b
 768 00d6 0B       		.uleb128 0xb
 769 00d7 49       		.uleb128 0x49
 770 00d8 13       		.uleb128 0x13
 771 00d9 02       		.uleb128 0x2
 772 00da 18       		.uleb128 0x18
 773 00db 00       		.byte	0
 774 00dc 00       		.byte	0
 775 00dd 10       		.uleb128 0x10
 776 00de 34       		.uleb128 0x34
 777 00df 00       		.byte	0
 778 00e0 03       		.uleb128 0x3
 779 00e1 0E       		.uleb128 0xe
 780 00e2 3A       		.uleb128 0x3a
 781 00e3 0B       		.uleb128 0xb
 782 00e4 3B       		.uleb128 0x3b
 783 00e5 05       		.uleb128 0x5
 784 00e6 49       		.uleb128 0x49
 785 00e7 13       		.uleb128 0x13
 786 00e8 3F       		.uleb128 0x3f
 787 00e9 19       		.uleb128 0x19
ARM GAS  /home/pauba/tmp/ccu0oLid.s 			page 15


 788 00ea 3C       		.uleb128 0x3c
 789 00eb 19       		.uleb128 0x19
 790 00ec 00       		.byte	0
 791 00ed 00       		.byte	0
 792 00ee 00       		.byte	0
 793              		.section	.debug_aranges,"",%progbits
 794 0000 2C000000 		.4byte	0x2c
 795 0004 0200     		.2byte	0x2
 796 0006 00000000 		.4byte	.Ldebug_info0
 797 000a 04       		.byte	0x4
 798 000b 00       		.byte	0
 799 000c 0000     		.2byte	0
 800 000e 0000     		.2byte	0
 801 0010 00000000 		.4byte	.LFB63
 802 0014 38000000 		.4byte	.LFE63-.LFB63
 803 0018 00000000 		.4byte	.LFB64
 804 001c 50000000 		.4byte	.LFE64-.LFB64
 805 0020 00000000 		.4byte	.LFB65
 806 0024 40000000 		.4byte	.LFE65-.LFB65
 807 0028 00000000 		.4byte	0
 808 002c 00000000 		.4byte	0
 809              		.section	.debug_ranges,"",%progbits
 810              	.Ldebug_ranges0:
 811 0000 00000000 		.4byte	.LFB63
 812 0004 38000000 		.4byte	.LFE63
 813 0008 00000000 		.4byte	.LFB64
 814 000c 50000000 		.4byte	.LFE64
 815 0010 00000000 		.4byte	.LFB65
 816 0014 40000000 		.4byte	.LFE65
 817 0018 00000000 		.4byte	0
 818 001c 00000000 		.4byte	0
 819              		.section	.debug_line,"",%progbits
 820              	.Ldebug_line0:
 821 0000 F5010000 		.section	.debug_str,"MS",%progbits,1
 821      02009101 
 821      00000201 
 821      FB0E0D00 
 821      01010101 
 822              	.LASF25:
 823 0000 4C434B52 		.ascii	"LCKR\000"
 823      00
 824              	.LASF19:
 825 0005 636C6561 		.ascii	"clear\000"
 825      7200
 826              	.LASF20:
 827 000b 4D4F4445 		.ascii	"MODER\000"
 827      5200
 828              	.LASF42:
 829 0011 70616C52 		.ascii	"palReadBus\000"
 829      65616442 
 829      757300
 830              	.LASF6:
 831 001c 5F5F696E 		.ascii	"__int32_t\000"
 831      7433325F 
 831      7400
 832              	.LASF15:
 833 0026 75696E74 		.ascii	"uint_fast8_t\000"
ARM GAS  /home/pauba/tmp/ccu0oLid.s 			page 16


 833      5F666173 
 833      74385F74 
 833      00
 834              	.LASF24:
 835 0033 42535252 		.ascii	"BSRR\000"
 835      00
 836              	.LASF37:
 837 0038 70616C57 		.ascii	"palWriteBus\000"
 837      72697465 
 837      42757300 
 838              	.LASF3:
 839 0044 73686F72 		.ascii	"short int\000"
 839      7420696E 
 839      7400
 840              	.LASF38:
 841 004e 70616C53 		.ascii	"palSetBusMode\000"
 841      65744275 
 841      734D6F64 
 841      6500
 842              	.LASF32:
 843 005c 706F7274 		.ascii	"portid\000"
 843      696400
 844              	.LASF29:
 845 0063 696F706F 		.ascii	"ioportmask_t\000"
 845      72746D61 
 845      736B5F74 
 845      00
 846              	.LASF21:
 847 0070 4F545950 		.ascii	"OTYPER\000"
 847      455200
 848              	.LASF30:
 849 0077 696F6D6F 		.ascii	"iomode_t\000"
 849      64655F74 
 849      00
 850              	.LASF2:
 851 0080 756E7369 		.ascii	"unsigned char\000"
 851      676E6564 
 851      20636861 
 851      7200
 852              	.LASF27:
 853 008e 41465248 		.ascii	"AFRH\000"
 853      00
 854              	.LASF9:
 855 0093 6C6F6E67 		.ascii	"long unsigned int\000"
 855      20756E73 
 855      69676E65 
 855      6420696E 
 855      7400
 856              	.LASF4:
 857 00a5 73686F72 		.ascii	"short unsigned int\000"
 857      7420756E 
 857      7369676E 
 857      65642069 
 857      6E7400
 858              	.LASF26:
 859 00b8 4146524C 		.ascii	"AFRL\000"
 859      00
ARM GAS  /home/pauba/tmp/ccu0oLid.s 			page 17


 860              	.LASF43:
 861 00bd 49544D5F 		.ascii	"ITM_RxBuffer\000"
 861      52784275 
 861      66666572 
 861      00
 862              	.LASF5:
 863 00ca 5F5F7569 		.ascii	"__uint16_t\000"
 863      6E743136 
 863      5F7400
 864              	.LASF8:
 865 00d5 5F5F7569 		.ascii	"__uint32_t\000"
 865      6E743332 
 865      5F7400
 866              	.LASF22:
 867 00e0 4F535045 		.ascii	"OSPEEDR\000"
 867      45445200 
 868              	.LASF0:
 869 00e8 756E7369 		.ascii	"unsigned int\000"
 869      676E6564 
 869      20696E74 
 869      00
 870              	.LASF28:
 871 00f5 4750494F 		.ascii	"GPIO_TypeDef\000"
 871      5F547970 
 871      65446566 
 871      00
 872              	.LASF18:
 873 0102 63686172 		.ascii	"char\000"
 873      00
 874              	.LASF39:
 875 0107 6D6F6465 		.ascii	"mode\000"
 875      00
 876              	.LASF40:
 877 010c 474E5520 		.ascii	"GNU C 4.8.3 20140228 (release) [ARM/embedded-4_8-br"
 877      4320342E 
 877      382E3320 
 877      32303134 
 877      30323238 
 878 013f 616E6368 		.ascii	"anch revision 208322] -mcpu=cortex-m4 -mno-thumb-in"
 878      20726576 
 878      6973696F 
 878      6E203230 
 878      38333232 
 879 0172 74657277 		.ascii	"terwork -mthumb -ggdb -fomit-frame-pointer -falign-"
 879      6F726B20 
 879      2D6D7468 
 879      756D6220 
 879      2D676764 
 880 01a5 66756E63 		.ascii	"functions=16 -ffunction-sections -fdata-sections -f"
 880      74696F6E 
 880      733D3136 
 880      202D6666 
 880      756E6374 
 881 01d8 6E6F2D63 		.ascii	"no-common\000"
 881      6F6D6D6F 
 881      6E00
 882              	.LASF13:
ARM GAS  /home/pauba/tmp/ccu0oLid.s 			page 18


 883 01e2 696E7433 		.ascii	"int32_t\000"
 883      325F7400 
 884              	.LASF17:
 885 01ea 73697A65 		.ascii	"sizetype\000"
 885      74797065 
 885      00
 886              	.LASF23:
 887 01f3 50555044 		.ascii	"PUPDR\000"
 887      5200
 888              	.LASF10:
 889 01f9 6C6F6E67 		.ascii	"long long int\000"
 889      206C6F6E 
 889      6720696E 
 889      7400
 890              	.LASF33:
 891 0207 6D61736B 		.ascii	"mask\000"
 891      00
 892              	.LASF36:
 893 020c 62697473 		.ascii	"bits\000"
 893      00
 894              	.LASF34:
 895 0211 6F666673 		.ascii	"offset\000"
 895      657400
 896              	.LASF31:
 897 0218 696F706F 		.ascii	"ioportid_t\000"
 897      72746964 
 897      5F7400
 898              	.LASF12:
 899 0223 75696E74 		.ascii	"uint16_t\000"
 899      31365F74 
 899      00
 900              	.LASF14:
 901 022c 75696E74 		.ascii	"uint32_t\000"
 901      33325F74 
 901      00
 902              	.LASF7:
 903 0235 6C6F6E67 		.ascii	"long int\000"
 903      20696E74 
 903      00
 904              	.LASF1:
 905 023e 7369676E 		.ascii	"signed char\000"
 905      65642063 
 905      68617200 
 906              	.LASF41:
 907 024a 2F686F6D 		.ascii	"/home/pauba/ChibiOS-RT/os/hal/src/pal.c\000"
 907      652F7061 
 907      7562612F 
 907      43686962 
 907      694F532D 
 908              	.LASF16:
 909 0272 5F426F6F 		.ascii	"_Bool\000"
 909      6C00
 910              	.LASF11:
 911 0278 6C6F6E67 		.ascii	"long long unsigned int\000"
 911      206C6F6E 
 911      6720756E 
 911      7369676E 
ARM GAS  /home/pauba/tmp/ccu0oLid.s 			page 19


 911      65642069 
 912              	.LASF35:
 913 028f 494F4275 		.ascii	"IOBus\000"
 913      7300
 914              		.ident	"GCC: (GNU Tools for ARM Embedded Processors) 4.8.3 20140228 (release) [ARM/embedded-4_8-br
ARM GAS  /home/pauba/tmp/ccu0oLid.s 			page 20


DEFINED SYMBOLS
                            *ABS*:00000000 pal.c
/home/pauba/tmp/ccu0oLid.s:19     .rodata:00000000 $d
/home/pauba/tmp/ccu0oLid.s:23     .text.palReadBus:00000000 $t
/home/pauba/tmp/ccu0oLid.s:29     .text.palReadBus:00000000 palReadBus
/home/pauba/tmp/ccu0oLid.s:74     .text.palReadBus:00000034 $d
/home/pauba/tmp/ccu0oLid.s:83     .text.palWriteBus:00000000 $t
/home/pauba/tmp/ccu0oLid.s:89     .text.palWriteBus:00000000 palWriteBus
/home/pauba/tmp/ccu0oLid.s:144    .text.palWriteBus:0000004c $d
/home/pauba/tmp/ccu0oLid.s:153    .text.palSetBusMode:00000000 $t
/home/pauba/tmp/ccu0oLid.s:159    .text.palSetBusMode:00000000 palSetBusMode
/home/pauba/tmp/ccu0oLid.s:205    .text.palSetBusMode:0000003c $d
                     .debug_frame:00000010 $d
/home/pauba/tmp/ccu0oLid.s:78     .text.palReadBus:00000038 $t

UNDEFINED SYMBOLS
chDbgPanic
_pal_lld_setgroupmode
