ARM GAS  /home/pauba/tmp/ccu0oLid.s 			page 1


   1              		.syntax unified
   2              		.cpu cortex-m4
   3              		.fpu softvfp
   4              		.eabi_attribute 20, 1
   5              		.eabi_attribute 21, 1
   6              		.eabi_attribute 23, 3
   7              		.eabi_attribute 24, 1
   8              		.eabi_attribute 25, 1
   9              		.eabi_attribute 26, 1
  10              		.eabi_attribute 30, 6
  11              		.eabi_attribute 34, 1
  12              		.eabi_attribute 18, 4
  13              		.thumb
  14              		.file	"pal.c"
  15              		.text
  16              	.Ltext0:
  17              		.cfi_sections	.debug_frame
  18              		.section	.rodata
  19              		.align	2
  20              	.LC0:
  21 0000 2270616C 		.ascii	"\"palReadBus\"()\000"
  21      52656164 
  21      42757322 
  21      282900
  22              		.section	.text.palReadBus,"ax",%progbits
  23              		.align	2
  24              		.p2align 4,,15
  25              		.global	palReadBus
  26              		.thumb
  27              		.thumb_func
  28              		.type	palReadBus, %function
  29              	palReadBus:
  30              	.LFB63:
  31              		.file 1 "/home/pauba/ChibiOS-RT/os/hal/src/pal.c"
  32              		.loc 1 77 0
  33              		.cfi_startproc
  34              		@ args = 0, pretend = 0, frame = 8
  35              		@ frame_needed = 0, uses_anonymous_args = 0
  36 0000 00B5     		push	{lr}
  37              		.cfi_def_cfa_offset 4
  38              		.cfi_offset 14, -4
  39 0002 83B0     		sub	sp, sp, #12
  40              		.cfi_def_cfa_offset 16
  41 0004 0190     		str	r0, [sp, #4]
  42              		.loc 1 79 0
  43 0006 019B     		ldr	r3, [sp, #4]
  44 0008 002B     		cmp	r3, #0
  45 000a 03D0     		beq	.L2
  46              		.loc 1 79 0 is_stmt 0 discriminator 2
  47 000c 019B     		ldr	r3, [sp, #4]
  48 000e 9B68     		ldr	r3, [r3, #8]
  49 0010 0F2B     		cmp	r3, #15
  50 0012 02D9     		bls	.L3
  51              	.L2:
  52              		.loc 1 79 0 discriminator 1
  53 0014 0748     		ldr	r0, .L5
  54 0016 FFF7FEFF 		bl	chDbgPanic
ARM GAS  /home/pauba/tmp/ccu0oLid.s 			page 2


  55              	.L3:
  56              		.loc 1 82 0 is_stmt 1
  57 001a 019B     		ldr	r3, [sp, #4]
  58 001c 1B68     		ldr	r3, [r3]
  59 001e 1A69     		ldr	r2, [r3, #16]
  60 0020 019B     		ldr	r3, [sp, #4]
  61 0022 9B68     		ldr	r3, [r3, #8]
  62 0024 DA40     		lsrs	r2, r2, r3
  63 0026 019B     		ldr	r3, [sp, #4]
  64 0028 5B68     		ldr	r3, [r3, #4]
  65 002a 1340     		ands	r3, r3, r2
  66              		.loc 1 83 0
  67 002c 1846     		mov	r0, r3
  68 002e 03B0     		add	sp, sp, #12
  69              		@ sp needed
  70 0030 5DF804FB 		ldr	pc, [sp], #4
  71              	.L6:
  72              		.align	2
  73              	.L5:
  74 0034 00000000 		.word	.LC0
  75              		.cfi_endproc
  76              	.LFE63:
  77              		.size	palReadBus, .-palReadBus
  78 0038 AFF30080 		.section	.rodata
  78      AFF30080 
  79 000f 00       		.align	2
  80              	.LC1:
  81 0010 2270616C 		.ascii	"\"palWriteBus\"()\000"
  81      57726974 
  81      65427573 
  81      22282900 
  82              		.section	.text.palWriteBus,"ax",%progbits
  83              		.align	2
  84              		.p2align 4,,15
  85              		.global	palWriteBus
  86              		.thumb
  87              		.thumb_func
  88              		.type	palWriteBus, %function
  89              	palWriteBus:
  90              	.LFB64:
  91              		.loc 1 103 0
  92              		.cfi_startproc
  93              		@ args = 0, pretend = 0, frame = 8
  94              		@ frame_needed = 0, uses_anonymous_args = 0
  95 0000 00B5     		push	{lr}
  96              		.cfi_def_cfa_offset 4
  97              		.cfi_offset 14, -4
  98 0002 83B0     		sub	sp, sp, #12
  99              		.cfi_def_cfa_offset 16
 100 0004 0190     		str	r0, [sp, #4]
 101 0006 0091     		str	r1, [sp]
 102              		.loc 1 105 0
 103 0008 019B     		ldr	r3, [sp, #4]
 104 000a 002B     		cmp	r3, #0
 105 000c 03D0     		beq	.L8
 106              		.loc 1 105 0 is_stmt 0 discriminator 2
 107 000e 019B     		ldr	r3, [sp, #4]
ARM GAS  /home/pauba/tmp/ccu0oLid.s 			page 3


 108 0010 9B68     		ldr	r3, [r3, #8]
 109 0012 0F2B     		cmp	r3, #15
 110 0014 02D9     		bls	.L9
 111              	.L8:
 112              		.loc 1 105 0 discriminator 1
 113 0016 0D48     		ldr	r0, .L10
 114 0018 FFF7FEFF 		bl	chDbgPanic
 115              	.L9:
 116              		.loc 1 108 0 is_stmt 1
 117 001c 019B     		ldr	r3, [sp, #4]
 118 001e 1B68     		ldr	r3, [r3]
 119 0020 009A     		ldr	r2, [sp]
 120 0022 D143     		mvns	r1, r2
 121 0024 019A     		ldr	r2, [sp, #4]
 122 0026 5268     		ldr	r2, [r2, #4]
 123 0028 1140     		ands	r1, r1, r2
 124 002a 019A     		ldr	r2, [sp, #4]
 125 002c 9268     		ldr	r2, [r2, #8]
 126 002e 1032     		adds	r2, r2, #16
 127 0030 9140     		lsls	r1, r1, r2
 128 0032 019A     		ldr	r2, [sp, #4]
 129 0034 5068     		ldr	r0, [r2, #4]
 130 0036 009A     		ldr	r2, [sp]
 131 0038 1040     		ands	r0, r0, r2
 132 003a 019A     		ldr	r2, [sp, #4]
 133 003c 9268     		ldr	r2, [r2, #8]
 134 003e 00FA02F2 		lsl	r2, r0, r2
 135 0042 0A43     		orrs	r2, r2, r1
 136 0044 9A61     		str	r2, [r3, #24]
 137              		.loc 1 109 0
 138 0046 03B0     		add	sp, sp, #12
 139              		@ sp needed
 140 0048 5DF804FB 		ldr	pc, [sp], #4
 141              	.L11:
 142              		.align	2
 143              	.L10:
 144 004c 10000000 		.word	.LC1
 145              		.cfi_endproc
 146              	.LFE64:
 147              		.size	palWriteBus, .-palWriteBus
 148              		.section	.rodata
 149              		.align	2
 150              	.LC2:
 151 0020 2270616C 		.ascii	"\"palSetBusMode\"()\000"
 151      53657442 
 151      75734D6F 
 151      64652228 
 151      2900
 152 0032 0000     		.section	.text.palSetBusMode,"ax",%progbits
 153              		.align	2
 154              		.p2align 4,,15
 155              		.global	palSetBusMode
 156              		.thumb
 157              		.thumb_func
 158              		.type	palSetBusMode, %function
 159              	palSetBusMode:
 160              	.LFB65:
ARM GAS  /home/pauba/tmp/ccu0oLid.s 			page 4


 161              		.loc 1 127 0
 162              		.cfi_startproc
 163              		@ args = 0, pretend = 0, frame = 8
 164              		@ frame_needed = 0, uses_anonymous_args = 0
 165 0000 00B5     		push	{lr}
 166              		.cfi_def_cfa_offset 4
 167              		.cfi_offset 14, -4
 168 0002 83B0     		sub	sp, sp, #12
 169              		.cfi_def_cfa_offset 16
 170 0004 0190     		str	r0, [sp, #4]
 171 0006 0091     		str	r1, [sp]
 172              		.loc 1 129 0
 173 0008 019B     		ldr	r3, [sp, #4]
 174 000a 002B     		cmp	r3, #0
 175 000c 03D0     		beq	.L13
 176              		.loc 1 129 0 is_stmt 0 discriminator 2
 177 000e 019B     		ldr	r3, [sp, #4]
 178 0010 9B68     		ldr	r3, [r3, #8]
 179 0012 0F2B     		cmp	r3, #15
 180 0014 02D9     		bls	.L14
 181              	.L13:
 182              		.loc 1 129 0 discriminator 1
 183 0016 0948     		ldr	r0, .L15
 184 0018 FFF7FEFF 		bl	chDbgPanic
 185              	.L14:
 186              		.loc 1 132 0 is_stmt 1
 187 001c 019B     		ldr	r3, [sp, #4]
 188 001e 1A68     		ldr	r2, [r3]
 189 0020 019B     		ldr	r3, [sp, #4]
 190 0022 5968     		ldr	r1, [r3, #4]
 191 0024 019B     		ldr	r3, [sp, #4]
 192 0026 9B68     		ldr	r3, [r3, #8]
 193 0028 01FA03F3 		lsl	r3, r1, r3
 194 002c 1046     		mov	r0, r2
 195 002e 1946     		mov	r1, r3
 196 0030 009A     		ldr	r2, [sp]
 197 0032 FFF7FEFF 		bl	_pal_lld_setgroupmode
 198              		.loc 1 133 0
 199 0036 03B0     		add	sp, sp, #12
 200              		@ sp needed
 201 0038 5DF804FB 		ldr	pc, [sp], #4
 202              	.L16:
 203              		.align	2
 204              	.L15:
 205 003c 20000000 		.word	.LC2
 206              		.cfi_endproc
 207              	.LFE65:
 208              		.size	palSetBusMode, .-palSetBusMode
 209              		.text
 210              	.Letext0:
 211              		.file 2 "/opt/gcc-arm-none-eabi-4_8-2014q1/arm-none-eabi/include/machine/_default_types.h"
 212              		.file 3 "/opt/gcc-arm-none-eabi-4_8-2014q1/arm-none-eabi/include/stdint.h"
 213              		.file 4 "/home/pauba/ChibiOS-RT/os/hal/platforms/STM32/GPIOv2/pal_lld.h"
 214              		.file 5 "/home/pauba/ChibiOS-RT/os/hal/include/pal.h"
 215              		.file 6 "/home/pauba/ChibiOS-RT/os/ports/common/ARMCMx/CMSIS/include/core_cm3.h"