ARM GAS  /home/pauba/tmp/cc9cWTy6.s 			page 1


   1              		.syntax unified
   2              		.cpu cortex-m4
   3              		.fpu softvfp
   4              		.eabi_attribute 20, 1
   5              		.eabi_attribute 21, 1
   6              		.eabi_attribute 23, 3
   7              		.eabi_attribute 24, 1
   8              		.eabi_attribute 25, 1
   9              		.eabi_attribute 26, 1
  10              		.eabi_attribute 30, 6
  11              		.eabi_attribute 34, 1
  12              		.eabi_attribute 18, 4
  13              		.thumb
  14              		.file	"pal_lld.c"
  15              		.text
  16              	.Ltext0:
  17              		.cfi_sections	.debug_frame
  18              		.section	.text.initgpio,"ax",%progbits
  19              		.align	2
  20              		.p2align 4,,15
  21              		.thumb
  22              		.thumb_func
  23              		.type	initgpio, %function
  24              	initgpio:
  25              	.LFB63:
  26              		.file 1 "/home/pauba/ChibiOS-RT/os/hal/platforms/STM32/GPIOv2/pal_lld.c"
  27              		.loc 1 86 0
  28              		.cfi_startproc
  29              		@ args = 0, pretend = 0, frame = 8
  30              		@ frame_needed = 0, uses_anonymous_args = 0
  31              		@ link register save eliminated.
  32 0000 82B0     		sub	sp, sp, #8
  33              		.cfi_def_cfa_offset 8
  34 0002 0190     		str	r0, [sp, #4]
  35 0004 0091     		str	r1, [sp]
  36              		.loc 1 88 0
  37 0006 009B     		ldr	r3, [sp]
  38 0008 5A68     		ldr	r2, [r3, #4]
  39 000a 019B     		ldr	r3, [sp, #4]
  40 000c 5A60     		str	r2, [r3, #4]
  41              		.loc 1 89 0
  42 000e 009B     		ldr	r3, [sp]
  43 0010 9A68     		ldr	r2, [r3, #8]
  44 0012 019B     		ldr	r3, [sp, #4]
  45 0014 9A60     		str	r2, [r3, #8]
  46              		.loc 1 90 0
  47 0016 009B     		ldr	r3, [sp]
  48 0018 DA68     		ldr	r2, [r3, #12]
  49 001a 019B     		ldr	r3, [sp, #4]
  50 001c DA60     		str	r2, [r3, #12]
  51              		.loc 1 91 0
  52 001e 009B     		ldr	r3, [sp]
  53 0020 1A69     		ldr	r2, [r3, #16]
  54 0022 019B     		ldr	r3, [sp, #4]
  55 0024 5A61     		str	r2, [r3, #20]
  56              		.loc 1 92 0
  57 0026 009B     		ldr	r3, [sp]
ARM GAS  /home/pauba/tmp/cc9cWTy6.s 			page 2


  58 0028 5A69     		ldr	r2, [r3, #20]
  59 002a 019B     		ldr	r3, [sp, #4]
  60 002c 1A62     		str	r2, [r3, #32]
  61              		.loc 1 93 0
  62 002e 009B     		ldr	r3, [sp]
  63 0030 9A69     		ldr	r2, [r3, #24]
  64 0032 019B     		ldr	r3, [sp, #4]
  65 0034 5A62     		str	r2, [r3, #36]
  66              		.loc 1 94 0
  67 0036 009B     		ldr	r3, [sp]
  68 0038 1A68     		ldr	r2, [r3]
  69 003a 019B     		ldr	r3, [sp, #4]
  70 003c 1A60     		str	r2, [r3]
  71              		.loc 1 95 0
  72 003e 02B0     		add	sp, sp, #8
  73              		@ sp needed
  74 0040 7047     		bx	lr
  75              		.cfi_endproc
  76              	.LFE63:
  77              		.size	initgpio, .-initgpio
  78 0042 00BFAFF3 		.section	.text._pal_lld_init,"ax",%progbits
  78      0080AFF3 
  78      0080AFF3 
  78      0080
  79              		.align	2
  80              		.p2align 4,,15
  81              		.global	_pal_lld_init
  82              		.thumb
  83              		.thumb_func
  84              		.type	_pal_lld_init, %function
  85              	_pal_lld_init:
  86              	.LFB64:
  87              		.loc 1 113 0
  88              		.cfi_startproc
  89              		@ args = 0, pretend = 0, frame = 8
  90              		@ frame_needed = 0, uses_anonymous_args = 0
  91 0000 00B5     		push	{lr}
  92              		.cfi_def_cfa_offset 4
  93              		.cfi_offset 14, -4
  94 0002 83B0     		sub	sp, sp, #12
  95              		.cfi_def_cfa_offset 16
  96 0004 0190     		str	r0, [sp, #4]
  97              		.loc 1 119 0
  98 0006 1C4B     		ldr	r3, .L3
  99 0008 1B4A     		ldr	r2, .L3
 100 000a D269     		ldr	r2, [r2, #28]
 101 000c 42F03F02 		orr	r2, r2, #63
 102 0010 DA61     		str	r2, [r3, #28]
 103 0012 194B     		ldr	r3, .L3
 104 0014 184A     		ldr	r2, .L3
 105 0016 926A     		ldr	r2, [r2, #40]
 106 0018 42F03F02 		orr	r2, r2, #63
 107 001c 9A62     		str	r2, [r3, #40]
 108              		.loc 1 120 0
 109 001e 164B     		ldr	r3, .L3
 110 0020 154A     		ldr	r2, .L3
 111 0022 926A     		ldr	r2, [r2, #40]
ARM GAS  /home/pauba/tmp/cc9cWTy6.s 			page 3


 112 0024 42F03F02 		orr	r2, r2, #63
 113 0028 9A62     		str	r2, [r3, #40]
 114              		.loc 1 134 0
 115 002a 019B     		ldr	r3, [sp, #4]
 116 002c 1348     		ldr	r0, .L3+4
 117 002e 1946     		mov	r1, r3
 118 0030 FFF7FEFF 		bl	initgpio
 119              		.loc 1 137 0
 120 0034 019B     		ldr	r3, [sp, #4]
 121 0036 1C33     		adds	r3, r3, #28
 122 0038 1148     		ldr	r0, .L3+8
 123 003a 1946     		mov	r1, r3
 124 003c FFF7FEFF 		bl	initgpio
 125              		.loc 1 140 0
 126 0040 019B     		ldr	r3, [sp, #4]
 127 0042 3833     		adds	r3, r3, #56
 128 0044 0F48     		ldr	r0, .L3+12
 129 0046 1946     		mov	r1, r3
 130 0048 FFF7FEFF 		bl	initgpio
 131              		.loc 1 143 0
 132 004c 019B     		ldr	r3, [sp, #4]
 133 004e 5433     		adds	r3, r3, #84
 134 0050 0D48     		ldr	r0, .L3+16
 135 0052 1946     		mov	r1, r3
 136 0054 FFF7FEFF 		bl	initgpio
 137              		.loc 1 146 0
 138 0058 019B     		ldr	r3, [sp, #4]
 139 005a 7033     		adds	r3, r3, #112
 140 005c 0B48     		ldr	r0, .L3+20
 141 005e 1946     		mov	r1, r3
 142 0060 FFF7FEFF 		bl	initgpio
 143              		.loc 1 155 0
 144 0064 019B     		ldr	r3, [sp, #4]
 145 0066 8C33     		adds	r3, r3, #140
 146 0068 0948     		ldr	r0, .L3+24
 147 006a 1946     		mov	r1, r3
 148 006c FFF7FEFF 		bl	initgpio
 149              		.loc 1 160 0
 150 0070 03B0     		add	sp, sp, #12
 151              		@ sp needed
 152 0072 5DF804FB 		ldr	pc, [sp], #4
 153              	.L4:
 154 0076 00BF     		.align	2
 155              	.L3:
 156 0078 00380240 		.word	1073887232
 157 007c 00000240 		.word	1073872896
 158 0080 00040240 		.word	1073873920
 159 0084 00080240 		.word	1073874944
 160 0088 000C0240 		.word	1073875968
 161 008c 00100240 		.word	1073876992
 162 0090 00140240 		.word	1073878016
 163              		.cfi_endproc
 164              	.LFE64:
 165              		.size	_pal_lld_init, .-_pal_lld_init
 166 0094 AFF30080 		.section	.text._pal_lld_setgroupmode,"ax",%progbits
 166      AFF30080 
 166      AFF30080 
ARM GAS  /home/pauba/tmp/cc9cWTy6.s 			page 4


 167              		.align	2
 168              		.p2align 4,,15
 169              		.global	_pal_lld_setgroupmode
 170              		.thumb
 171              		.thumb_func
 172              		.type	_pal_lld_setgroupmode, %function
 173              	_pal_lld_setgroupmode:
 174              	.LFB65:
 175              		.loc 1 178 0
 176              		.cfi_startproc
 177              		@ args = 0, pretend = 0, frame = 56
 178              		@ frame_needed = 0, uses_anonymous_args = 0
 179              		@ link register save eliminated.
 180 0000 8EB0     		sub	sp, sp, #56
 181              		.cfi_def_cfa_offset 56
 182 0002 0390     		str	r0, [sp, #12]
 183 0004 0291     		str	r1, [sp, #8]
 184 0006 0192     		str	r2, [sp, #4]
 185              		.loc 1 180 0
 186 0008 019B     		ldr	r3, [sp, #4]
 187 000a 03F00303 		and	r3, r3, #3
 188 000e 0D93     		str	r3, [sp, #52]
 189              		.loc 1 181 0
 190 0010 019B     		ldr	r3, [sp, #4]
 191 0012 03F00403 		and	r3, r3, #4
 192 0016 9B08     		lsrs	r3, r3, #2
 193 0018 0C93     		str	r3, [sp, #48]
 194              		.loc 1 182 0
 195 001a 019B     		ldr	r3, [sp, #4]
 196 001c 03F01803 		and	r3, r3, #24
 197 0020 DB08     		lsrs	r3, r3, #3
 198 0022 0B93     		str	r3, [sp, #44]
 199              		.loc 1 183 0
 200 0024 019B     		ldr	r3, [sp, #4]
 201 0026 03F06003 		and	r3, r3, #96
 202 002a 5B09     		lsrs	r3, r3, #5
 203 002c 0A93     		str	r3, [sp, #40]
 204              		.loc 1 184 0
 205 002e 019B     		ldr	r3, [sp, #4]
 206 0030 03F4F063 		and	r3, r3, #1920
 207 0034 DB09     		lsrs	r3, r3, #7
 208 0036 0893     		str	r3, [sp, #32]
 209              		.loc 1 185 0
 210 0038 0023     		movs	r3, #0
 211 003a 0993     		str	r3, [sp, #36]
 212              	.L11:
 213              		.loc 1 187 0
 214 003c 029B     		ldr	r3, [sp, #8]
 215 003e 03F00103 		and	r3, r3, #1
 216 0042 002B     		cmp	r3, #0
 217 0044 54D0     		beq	.L6
 218              	.LBB2:
 219              		.loc 1 190 0
 220 0046 099B     		ldr	r3, [sp, #36]
 221 0048 03F00703 		and	r3, r3, #7
 222 004c 9B00     		lsls	r3, r3, #2
 223 004e 089A     		ldr	r2, [sp, #32]
ARM GAS  /home/pauba/tmp/cc9cWTy6.s 			page 5


 224 0050 02FA03F3 		lsl	r3, r2, r3
 225 0054 0793     		str	r3, [sp, #28]
 226              		.loc 1 191 0
 227 0056 099B     		ldr	r3, [sp, #36]
 228 0058 03F00703 		and	r3, r3, #7
 229 005c 9B00     		lsls	r3, r3, #2
 230 005e 0F22     		movs	r2, #15
 231 0060 02FA03F3 		lsl	r3, r2, r3
 232 0064 0693     		str	r3, [sp, #24]
 233              		.loc 1 192 0
 234 0066 099B     		ldr	r3, [sp, #36]
 235 0068 072B     		cmp	r3, #7
 236 006a 09D8     		bhi	.L7
 237              		.loc 1 193 0
 238 006c 039B     		ldr	r3, [sp, #12]
 239 006e 1A6A     		ldr	r2, [r3, #32]
 240 0070 069B     		ldr	r3, [sp, #24]
 241 0072 DB43     		mvns	r3, r3
 242 0074 1A40     		ands	r2, r2, r3
 243 0076 079B     		ldr	r3, [sp, #28]
 244 0078 1A43     		orrs	r2, r2, r3
 245 007a 039B     		ldr	r3, [sp, #12]
 246 007c 1A62     		str	r2, [r3, #32]
 247 007e 08E0     		b	.L8
 248              	.L7:
 249              		.loc 1 195 0
 250 0080 039B     		ldr	r3, [sp, #12]
 251 0082 5A6A     		ldr	r2, [r3, #36]
 252 0084 069B     		ldr	r3, [sp, #24]
 253 0086 DB43     		mvns	r3, r3
 254 0088 1A40     		ands	r2, r2, r3
 255 008a 079B     		ldr	r3, [sp, #28]
 256 008c 1A43     		orrs	r2, r2, r3
 257 008e 039B     		ldr	r3, [sp, #12]
 258 0090 5A62     		str	r2, [r3, #36]
 259              	.L8:
 260              		.loc 1 196 0
 261 0092 099B     		ldr	r3, [sp, #36]
 262 0094 0122     		movs	r2, #1
 263 0096 02FA03F3 		lsl	r3, r2, r3
 264 009a 0593     		str	r3, [sp, #20]
 265              		.loc 1 197 0
 266 009c 039B     		ldr	r3, [sp, #12]
 267 009e 5A68     		ldr	r2, [r3, #4]
 268 00a0 059B     		ldr	r3, [sp, #20]
 269 00a2 DB43     		mvns	r3, r3
 270 00a4 1A40     		ands	r2, r2, r3
 271 00a6 0C9B     		ldr	r3, [sp, #48]
 272 00a8 1A43     		orrs	r2, r2, r3
 273 00aa 039B     		ldr	r3, [sp, #12]
 274 00ac 5A60     		str	r2, [r3, #4]
 275              		.loc 1 198 0
 276 00ae 099B     		ldr	r3, [sp, #36]
 277 00b0 5B00     		lsls	r3, r3, #1
 278 00b2 0322     		movs	r2, #3
 279 00b4 02FA03F3 		lsl	r3, r2, r3
 280 00b8 0493     		str	r3, [sp, #16]
ARM GAS  /home/pauba/tmp/cc9cWTy6.s 			page 6


 281              		.loc 1 199 0
 282 00ba 039B     		ldr	r3, [sp, #12]
 283 00bc 9A68     		ldr	r2, [r3, #8]
 284 00be 049B     		ldr	r3, [sp, #16]
 285 00c0 DB43     		mvns	r3, r3
 286 00c2 1A40     		ands	r2, r2, r3
 287 00c4 0B9B     		ldr	r3, [sp, #44]
 288 00c6 1A43     		orrs	r2, r2, r3
 289 00c8 039B     		ldr	r3, [sp, #12]
 290 00ca 9A60     		str	r2, [r3, #8]
 291              		.loc 1 200 0
 292 00cc 039B     		ldr	r3, [sp, #12]
 293 00ce DA68     		ldr	r2, [r3, #12]
 294 00d0 049B     		ldr	r3, [sp, #16]
 295 00d2 DB43     		mvns	r3, r3
 296 00d4 1A40     		ands	r2, r2, r3
 297 00d6 0A9B     		ldr	r3, [sp, #40]
 298 00d8 1A43     		orrs	r2, r2, r3
 299 00da 039B     		ldr	r3, [sp, #12]
 300 00dc DA60     		str	r2, [r3, #12]
 301              		.loc 1 201 0
 302 00de 039B     		ldr	r3, [sp, #12]
 303 00e0 1A68     		ldr	r2, [r3]
 304 00e2 049B     		ldr	r3, [sp, #16]
 305 00e4 DB43     		mvns	r3, r3
 306 00e6 1A40     		ands	r2, r2, r3
 307 00e8 0D9B     		ldr	r3, [sp, #52]
 308 00ea 1A43     		orrs	r2, r2, r3
 309 00ec 039B     		ldr	r3, [sp, #12]
 310 00ee 1A60     		str	r2, [r3]
 311              	.L6:
 312              	.LBE2:
 313              		.loc 1 203 0
 314 00f0 029B     		ldr	r3, [sp, #8]
 315 00f2 5B08     		lsrs	r3, r3, #1
 316 00f4 0293     		str	r3, [sp, #8]
 317              		.loc 1 204 0
 318 00f6 029B     		ldr	r3, [sp, #8]
 319 00f8 002B     		cmp	r3, #0
 320 00fa 00D1     		bne	.L9
 321              		.loc 1 205 0
 322 00fc 0FE0     		b	.L12
 323              	.L9:
 324              		.loc 1 206 0
 325 00fe 0C9B     		ldr	r3, [sp, #48]
 326 0100 5B00     		lsls	r3, r3, #1
 327 0102 0C93     		str	r3, [sp, #48]
 328              		.loc 1 207 0
 329 0104 0B9B     		ldr	r3, [sp, #44]
 330 0106 9B00     		lsls	r3, r3, #2
 331 0108 0B93     		str	r3, [sp, #44]
 332              		.loc 1 208 0
 333 010a 0A9B     		ldr	r3, [sp, #40]
 334 010c 9B00     		lsls	r3, r3, #2
 335 010e 0A93     		str	r3, [sp, #40]
 336              		.loc 1 209 0
 337 0110 0D9B     		ldr	r3, [sp, #52]
ARM GAS  /home/pauba/tmp/cc9cWTy6.s 			page 7


 338 0112 9B00     		lsls	r3, r3, #2
 339 0114 0D93     		str	r3, [sp, #52]
 340              		.loc 1 210 0
 341 0116 099B     		ldr	r3, [sp, #36]
 342 0118 0133     		adds	r3, r3, #1
 343 011a 0993     		str	r3, [sp, #36]
 344              		.loc 1 211 0
 345 011c 8EE7     		b	.L11
 346              	.L12:
 347              		.loc 1 212 0
 348 011e 0EB0     		add	sp, sp, #56
 349              		@ sp needed
 350 0120 7047     		bx	lr
 351              		.cfi_endproc
 352              	.LFE65:
 353              		.size	_pal_lld_setgroupmode, .-_pal_lld_setgroupmode
 354 0122 00BFAFF3 		.text
 354      0080AFF3 
 354      0080AFF3 
 354      0080
 355              	.Letext0:
 356              		.file 2 "/opt/gcc-arm-none-eabi-4_8-2014q1/arm-none-eabi/include/machine/_default_types.h"
 357              		.file 3 "/opt/gcc-arm-none-eabi-4_8-2014q1/arm-none-eabi/include/stdint.h"
 358              		.file 4 "/home/pauba/ChibiOS-RT/os/hal/platforms/STM32L1xx/stm32l1xx.h"
 359              		.file 5 "/home/pauba/ChibiOS-RT/os/hal/platforms/STM32/GPIOv2/pal_lld.h"
 360              		.file 6 "/home/pauba/ChibiOS-RT/os/ports/common/ARMCMx/CMSIS/include/core_cm3.h"