ARM GAS  /home/pauba/tmp/ccCykAzR.s 			page 1


   1              		.syntax unified
   2              		.cpu cortex-m4
   3              		.fpu softvfp
   4              		.eabi_attribute 20, 1
   5              		.eabi_attribute 21, 1
   6              		.eabi_attribute 23, 3
   7              		.eabi_attribute 24, 1
   8              		.eabi_attribute 25, 1
   9              		.eabi_attribute 26, 1
  10              		.eabi_attribute 30, 6
  11              		.eabi_attribute 34, 1
  12              		.eabi_attribute 18, 4
  13              		.thumb
  14              		.file	"serial_lld.c"
  15              		.text
  16              	.Ltext0:
  17              		.cfi_sections	.debug_frame
  18              		.global	SD2
  19              		.section	.bss.SD2,"aw",%nobits
  20              		.align	2
  21              		.type	SD2, %object
  22              		.size	SD2, 120
  23              	SD2:
  24 0000 00000000 		.space	120
  24      00000000 
  24      00000000 
  24      00000000 
  24      00000000 
  25              		.section	.rodata.default_config,"a",%progbits
  26              		.align	2
  27              		.type	default_config, %object
  28              		.size	default_config, 12
  29              	default_config:
  30 0000 00960000 		.word	38400
  31 0004 0000     		.short	0
  32 0006 0040     		.short	16384
  33 0008 0000     		.short	0
  34 000a 0000     		.space	2
  35              		.section	.text.usart_init,"ax",%progbits
  36              		.align	2
  37              		.p2align 4,,15
  38              		.thumb
  39              		.thumb_func
  40              		.type	usart_init, %function
  41              	usart_init:
  42              	.LFB63:
  43              		.file 1 "/home/pauba/ChibiOS-RT/os/hal/platforms/STM32/USARTv1/serial_lld.c"
  44              		.loc 1 92 0
  45              		.cfi_startproc
  46              		@ args = 0, pretend = 0, frame = 16
  47              		@ frame_needed = 0, uses_anonymous_args = 0
  48              		@ link register save eliminated.
  49 0000 84B0     		sub	sp, sp, #16
  50              		.cfi_def_cfa_offset 16
  51 0002 0190     		str	r0, [sp, #4]
  52 0004 0091     		str	r1, [sp]
  53              		.loc 1 93 0
ARM GAS  /home/pauba/tmp/ccCykAzR.s 			page 2


  54 0006 019B     		ldr	r3, [sp, #4]
  55 0008 5B6F     		ldr	r3, [r3, #116]
  56 000a 0393     		str	r3, [sp, #12]
  57              		.loc 1 99 0
  58 000c 019B     		ldr	r3, [sp, #4]
  59 000e 5A6F     		ldr	r2, [r3, #116]
  60 0010 194B     		ldr	r3, .L4
  61 0012 9A42     		cmp	r2, r3
  62 0014 08D1     		bne	.L2
  63              		.loc 1 101 0
  64 0016 009B     		ldr	r3, [sp]
  65 0018 1B68     		ldr	r3, [r3]
  66 001a 184A     		ldr	r2, .L4+4
  67 001c B2FBF3F3 		udiv	r3, r2, r3
  68 0020 9AB2     		uxth	r2, r3
  69 0022 039B     		ldr	r3, [sp, #12]
  70 0024 1A81     		strh	r2, [r3, #8]	@ movhi
  71 0026 07E0     		b	.L3
  72              	.L2:
  73              		.loc 1 103 0
  74 0028 009B     		ldr	r3, [sp]
  75 002a 1B68     		ldr	r3, [r3]
  76 002c 134A     		ldr	r2, .L4+4
  77 002e B2FBF3F3 		udiv	r3, r2, r3
  78 0032 9AB2     		uxth	r2, r3
  79 0034 039B     		ldr	r3, [sp, #12]
  80 0036 1A81     		strh	r2, [r3, #8]	@ movhi
  81              	.L3:
  82              		.loc 1 106 0
  83 0038 009B     		ldr	r3, [sp]
  84 003a DB88     		ldrh	r3, [r3, #6]
  85 003c 43F04003 		orr	r3, r3, #64
  86 0040 9AB2     		uxth	r2, r3
  87 0042 039B     		ldr	r3, [sp, #12]
  88 0044 1A82     		strh	r2, [r3, #16]	@ movhi
  89              		.loc 1 107 0
  90 0046 009B     		ldr	r3, [sp]
  91 0048 1B89     		ldrh	r3, [r3, #8]
  92 004a 43F00103 		orr	r3, r3, #1
  93 004e 9AB2     		uxth	r2, r3
  94 0050 039B     		ldr	r3, [sp, #12]
  95 0052 9A82     		strh	r2, [r3, #20]	@ movhi
  96              		.loc 1 108 0
  97 0054 009B     		ldr	r3, [sp]
  98 0056 9B88     		ldrh	r3, [r3, #4]
  99 0058 43F40453 		orr	r3, r3, #8448
 100 005c 43F02C03 		orr	r3, r3, #44
 101 0060 9AB2     		uxth	r2, r3
 102 0062 039B     		ldr	r3, [sp, #12]
 103 0064 9A81     		strh	r2, [r3, #12]	@ movhi
 104              		.loc 1 111 0
 105 0066 039B     		ldr	r3, [sp, #12]
 106 0068 0022     		movs	r2, #0
 107 006a 1A80     		strh	r2, [r3]	@ movhi
 108              		.loc 1 112 0
 109 006c 039B     		ldr	r3, [sp, #12]
 110 006e 1B88     		ldrh	r3, [r3]	@ movhi
ARM GAS  /home/pauba/tmp/ccCykAzR.s 			page 3


 111              		.loc 1 113 0
 112 0070 039B     		ldr	r3, [sp, #12]
 113 0072 9B88     		ldrh	r3, [r3, #4]	@ movhi
 114              		.loc 1 114 0
 115 0074 04B0     		add	sp, sp, #16
 116              		@ sp needed
 117 0076 7047     		bx	lr
 118              	.L5:
 119              		.align	2
 120              	.L4:
 121 0078 00380140 		.word	1073821696
 122 007c 0048E801 		.word	32000000
 123              		.cfi_endproc
 124              	.LFE63:
 125              		.size	usart_init, .-usart_init
 126              		.section	.text.usart_deinit,"ax",%progbits
 127              		.align	2
 128              		.p2align 4,,15
 129              		.thumb
 130              		.thumb_func
 131              		.type	usart_deinit, %function
 132              	usart_deinit:
 133              	.LFB64:
 134              		.loc 1 122 0
 135              		.cfi_startproc
 136              		@ args = 0, pretend = 0, frame = 8
 137              		@ frame_needed = 0, uses_anonymous_args = 0
 138              		@ link register save eliminated.
 139 0000 82B0     		sub	sp, sp, #8
 140              		.cfi_def_cfa_offset 8
 141 0002 0190     		str	r0, [sp, #4]
 142              		.loc 1 124 0
 143 0004 019B     		ldr	r3, [sp, #4]
 144 0006 0022     		movs	r2, #0
 145 0008 9A81     		strh	r2, [r3, #12]	@ movhi
 146              		.loc 1 125 0
 147 000a 019B     		ldr	r3, [sp, #4]
 148 000c 0022     		movs	r2, #0
 149 000e 1A82     		strh	r2, [r3, #16]	@ movhi
 150              		.loc 1 126 0
 151 0010 019B     		ldr	r3, [sp, #4]
 152 0012 0022     		movs	r2, #0
 153 0014 9A82     		strh	r2, [r3, #20]	@ movhi
 154              		.loc 1 127 0
 155 0016 02B0     		add	sp, sp, #8
 156              		@ sp needed
 157 0018 7047     		bx	lr
 158              		.cfi_endproc
 159              	.LFE64:
 160              		.size	usart_deinit, .-usart_deinit
 161 001a 00BFAFF3 		.section	.text.set_error,"ax",%progbits
 161      0080
 162              		.align	2
 163              		.p2align 4,,15
 164              		.thumb
 165              		.thumb_func
 166              		.type	set_error, %function
ARM GAS  /home/pauba/tmp/ccCykAzR.s 			page 4


 167              	set_error:
 168              	.LFB65:
 169              		.loc 1 135 0
 170              		.cfi_startproc
 171              		@ args = 0, pretend = 0, frame = 16
 172              		@ frame_needed = 0, uses_anonymous_args = 0
 173 0000 00B5     		push	{lr}
 174              		.cfi_def_cfa_offset 4
 175              		.cfi_offset 14, -4
 176 0002 85B0     		sub	sp, sp, #20
 177              		.cfi_def_cfa_offset 24
 178 0004 0190     		str	r0, [sp, #4]
 179 0006 0B46     		mov	r3, r1
 180 0008 ADF80230 		strh	r3, [sp, #2]	@ movhi
 181              		.loc 1 136 0
 182 000c 0023     		movs	r3, #0
 183 000e 0393     		str	r3, [sp, #12]
 184              		.loc 1 138 0
 185 0010 BDF80230 		ldrh	r3, [sp, #2]
 186 0014 03F00803 		and	r3, r3, #8
 187 0018 002B     		cmp	r3, #0
 188 001a 03D0     		beq	.L8
 189              		.loc 1 139 0
 190 001c 039B     		ldr	r3, [sp, #12]
 191 001e 43F08003 		orr	r3, r3, #128
 192 0022 0393     		str	r3, [sp, #12]
 193              	.L8:
 194              		.loc 1 140 0
 195 0024 BDF80230 		ldrh	r3, [sp, #2]
 196 0028 03F00103 		and	r3, r3, #1
 197 002c 002B     		cmp	r3, #0
 198 002e 03D0     		beq	.L9
 199              		.loc 1 141 0
 200 0030 039B     		ldr	r3, [sp, #12]
 201 0032 43F02003 		orr	r3, r3, #32
 202 0036 0393     		str	r3, [sp, #12]
 203              	.L9:
 204              		.loc 1 142 0
 205 0038 BDF80230 		ldrh	r3, [sp, #2]
 206 003c 03F00203 		and	r3, r3, #2
 207 0040 002B     		cmp	r3, #0
 208 0042 03D0     		beq	.L10
 209              		.loc 1 143 0
 210 0044 039B     		ldr	r3, [sp, #12]
 211 0046 43F04003 		orr	r3, r3, #64
 212 004a 0393     		str	r3, [sp, #12]
 213              	.L10:
 214              		.loc 1 144 0
 215 004c BDF80230 		ldrh	r3, [sp, #2]
 216 0050 03F00403 		and	r3, r3, #4
 217 0054 002B     		cmp	r3, #0
 218 0056 03D0     		beq	.L11
 219              		.loc 1 145 0
 220 0058 039B     		ldr	r3, [sp, #12]
 221 005a 43F48073 		orr	r3, r3, #256
 222 005e 0393     		str	r3, [sp, #12]
 223              	.L11:
ARM GAS  /home/pauba/tmp/ccCykAzR.s 			page 5


 224              		.loc 1 146 0
 225 0060 019B     		ldr	r3, [sp, #4]
 226 0062 0433     		adds	r3, r3, #4
 227 0064 1846     		mov	r0, r3
 228 0066 0399     		ldr	r1, [sp, #12]
 229 0068 FFF7FEFF 		bl	chEvtBroadcastFlagsI
 230              		.loc 1 147 0
 231 006c 05B0     		add	sp, sp, #20
 232              		@ sp needed
 233 006e 5DF804FB 		ldr	pc, [sp], #4
 234              		.cfi_endproc
 235              	.LFE65:
 236              		.size	set_error, .-set_error
 237 0072 00BFAFF3 		.section	.text.serve_interrupt,"ax",%progbits
 237      0080AFF3 
 237      0080AFF3 
 237      0080
 238              		.align	2
 239              		.p2align 4,,15
 240              		.thumb
 241              		.thumb_func
 242              		.type	serve_interrupt, %function
 243              	serve_interrupt:
 244              	.LFB66:
 245              		.loc 1 154 0
 246              		.cfi_startproc
 247              		@ args = 0, pretend = 0, frame = 24
 248              		@ frame_needed = 0, uses_anonymous_args = 0
 249 0000 00B5     		push	{lr}
 250              		.cfi_def_cfa_offset 4
 251              		.cfi_offset 14, -4
 252 0002 87B0     		sub	sp, sp, #28
 253              		.cfi_def_cfa_offset 32
 254 0004 0190     		str	r0, [sp, #4]
 255              		.loc 1 155 0
 256 0006 019B     		ldr	r3, [sp, #4]
 257 0008 5B6F     		ldr	r3, [r3, #116]
 258 000a 0493     		str	r3, [sp, #16]
 259              		.loc 1 156 0
 260 000c 049B     		ldr	r3, [sp, #16]
 261 000e 9B89     		ldrh	r3, [r3, #12]	@ movhi
 262 0010 ADF80E30 		strh	r3, [sp, #14]	@ movhi
 263              		.loc 1 157 0
 264 0014 049B     		ldr	r3, [sp, #16]
 265 0016 1B88     		ldrh	r3, [r3]	@ movhi
 266 0018 ADF81630 		strh	r3, [sp, #22]	@ movhi
 267              		.loc 1 160 0
 268 001c BDF81630 		ldrh	r3, [sp, #22]
 269 0020 03F48073 		and	r3, r3, #256
 270 0024 002B     		cmp	r3, #0
 271 0026 14D0     		beq	.L13
 272              	.LBB2:
 273              		.loc 1 161 0
 274 0028 2023     		movs	r3, #32
 275              	@ 161 "/home/pauba/ChibiOS-RT/os/hal/platforms/STM32/USARTv1/serial_lld.c" 1
 276 002a 83F31188 		msr     BASEPRI, r3
 277              	@ 0 "" 2
ARM GAS  /home/pauba/tmp/ccCykAzR.s 			page 6


 278              		.thumb
 279              	.LBE2:
 280 002e FFF7FEFF 		bl	dbg_check_lock_from_isr
 281              		.loc 1 162 0
 282 0032 019B     		ldr	r3, [sp, #4]
 283 0034 0433     		adds	r3, r3, #4
 284 0036 1846     		mov	r0, r3
 285 0038 4FF40071 		mov	r1, #512
 286 003c FFF7FEFF 		bl	chEvtBroadcastFlagsI
 287              		.loc 1 163 0
 288 0040 FFF7FEFF 		bl	dbg_check_unlock_from_isr
 289              	.LBB3:
 290 0044 0023     		movs	r3, #0
 291              	@ 163 "/home/pauba/ChibiOS-RT/os/hal/platforms/STM32/USARTv1/serial_lld.c" 1
 292 0046 83F31188 		msr     BASEPRI, r3
 293              	@ 0 "" 2
 294              		.thumb
 295              	.LBE3:
 296              		.loc 1 164 0
 297 004a 049B     		ldr	r3, [sp, #16]
 298 004c 4FF6FF62 		movw	r2, #65279
 299 0050 1A80     		strh	r2, [r3]	@ movhi
 300              	.L13:
 301              	.LBB4:
 302              		.loc 1 168 0
 303 0052 2023     		movs	r3, #32
 304              	@ 168 "/home/pauba/ChibiOS-RT/os/hal/platforms/STM32/USARTv1/serial_lld.c" 1
 305 0054 83F31188 		msr     BASEPRI, r3
 306              	@ 0 "" 2
 307              		.thumb
 308              	.LBE4:
 309 0058 FFF7FEFF 		bl	dbg_check_lock_from_isr
 310              		.loc 1 169 0
 311 005c 17E0     		b	.L14
 312              	.L16:
 313              		.loc 1 171 0
 314 005e BDF81630 		ldrh	r3, [sp, #22]
 315 0062 03F00F03 		and	r3, r3, #15
 316 0066 002B     		cmp	r3, #0
 317 0068 05D0     		beq	.L15
 318              		.loc 1 172 0
 319 006a BDF81630 		ldrh	r3, [sp, #22]
 320 006e 0198     		ldr	r0, [sp, #4]
 321 0070 1946     		mov	r1, r3
 322 0072 FFF7FEFF 		bl	set_error
 323              	.L15:
 324              		.loc 1 173 0
 325 0076 049B     		ldr	r3, [sp, #16]
 326 0078 9B88     		ldrh	r3, [r3, #4]	@ movhi
 327 007a 9BB2     		uxth	r3, r3
 328 007c DBB2     		uxtb	r3, r3
 329 007e 0198     		ldr	r0, [sp, #4]
 330 0080 1946     		mov	r1, r3
 331 0082 FFF7FEFF 		bl	sdIncomingDataI
 332              		.loc 1 174 0
 333 0086 049B     		ldr	r3, [sp, #16]
 334 0088 1B88     		ldrh	r3, [r3]	@ movhi
ARM GAS  /home/pauba/tmp/ccCykAzR.s 			page 7


 335 008a ADF81630 		strh	r3, [sp, #22]	@ movhi
 336              	.L14:
 337              		.loc 1 169 0 discriminator 1
 338 008e BDF81630 		ldrh	r3, [sp, #22]
 339 0092 03F02003 		and	r3, r3, #32
 340 0096 002B     		cmp	r3, #0
 341 0098 E1D1     		bne	.L16
 342              		.loc 1 176 0
 343 009a FFF7FEFF 		bl	dbg_check_unlock_from_isr
 344              	.LBB5:
 345 009e 0023     		movs	r3, #0
 346              	@ 176 "/home/pauba/ChibiOS-RT/os/hal/platforms/STM32/USARTv1/serial_lld.c" 1
 347 00a0 83F31188 		msr     BASEPRI, r3
 348              	@ 0 "" 2
 349              		.thumb
 350              	.LBE5:
 351              		.loc 1 179 0
 352 00a4 BDF80E30 		ldrh	r3, [sp, #14]
 353 00a8 03F08003 		and	r3, r3, #128
 354 00ac 002B     		cmp	r3, #0
 355 00ae 2ED0     		beq	.L17
 356              		.loc 1 179 0 is_stmt 0 discriminator 1
 357 00b0 BDF81630 		ldrh	r3, [sp, #22]
 358 00b4 03F08003 		and	r3, r3, #128
 359 00b8 002B     		cmp	r3, #0
 360 00ba 28D0     		beq	.L17
 361              	.LBB6:
 362              	.LBB7:
 363              		.loc 1 181 0 is_stmt 1
 364 00bc 2023     		movs	r3, #32
 365              	@ 181 "/home/pauba/ChibiOS-RT/os/hal/platforms/STM32/USARTv1/serial_lld.c" 1
 366 00be 83F31188 		msr     BASEPRI, r3
 367              	@ 0 "" 2
 368              		.thumb
 369              	.LBE7:
 370 00c2 FFF7FEFF 		bl	dbg_check_lock_from_isr
 371              		.loc 1 182 0
 372 00c6 019B     		ldr	r3, [sp, #4]
 373 00c8 3033     		adds	r3, r3, #48
 374 00ca 1846     		mov	r0, r3
 375 00cc FFF7FEFF 		bl	chOQGetI
 376 00d0 0290     		str	r0, [sp, #8]
 377              		.loc 1 183 0
 378 00d2 029B     		ldr	r3, [sp, #8]
 379 00d4 002B     		cmp	r3, #0
 380 00d6 11DA     		bge	.L18
 381              		.loc 1 184 0
 382 00d8 019B     		ldr	r3, [sp, #4]
 383 00da 0433     		adds	r3, r3, #4
 384 00dc 1846     		mov	r0, r3
 385 00de 0821     		movs	r1, #8
 386 00e0 FFF7FEFF 		bl	chEvtBroadcastFlagsI
 387              		.loc 1 185 0
 388 00e4 BDF80E30 		ldrh	r3, [sp, #14]
 389 00e8 23F0C003 		bic	r3, r3, #192
 390 00ec 9BB2     		uxth	r3, r3
 391 00ee 43F04003 		orr	r3, r3, #64
ARM GAS  /home/pauba/tmp/ccCykAzR.s 			page 8


 392 00f2 9BB2     		uxth	r3, r3
 393 00f4 9AB2     		uxth	r2, r3
 394 00f6 049B     		ldr	r3, [sp, #16]
 395 00f8 9A81     		strh	r2, [r3, #12]	@ movhi
 396 00fa 03E0     		b	.L19
 397              	.L18:
 398              		.loc 1 188 0
 399 00fc 029B     		ldr	r3, [sp, #8]
 400 00fe 9AB2     		uxth	r2, r3
 401 0100 049B     		ldr	r3, [sp, #16]
 402 0102 9A80     		strh	r2, [r3, #4]	@ movhi
 403              	.L19:
 404              		.loc 1 189 0
 405 0104 FFF7FEFF 		bl	dbg_check_unlock_from_isr
 406              	.LBB8:
 407 0108 0023     		movs	r3, #0
 408              	@ 189 "/home/pauba/ChibiOS-RT/os/hal/platforms/STM32/USARTv1/serial_lld.c" 1
 409 010a 83F31188 		msr     BASEPRI, r3
 410              	@ 0 "" 2
 411              		.thumb
 412              	.L17:
 413              	.LBE8:
 414              	.LBE6:
 415              		.loc 1 193 0
 416 010e BDF81630 		ldrh	r3, [sp, #22]
 417 0112 03F04003 		and	r3, r3, #64
 418 0116 002B     		cmp	r3, #0
 419 0118 2CD0     		beq	.L12
 420              	.LBB9:
 421              		.loc 1 194 0
 422 011a 2023     		movs	r3, #32
 423              	@ 194 "/home/pauba/ChibiOS-RT/os/hal/platforms/STM32/USARTv1/serial_lld.c" 1
 424 011c 83F31188 		msr     BASEPRI, r3
 425              	@ 0 "" 2
 426              		.thumb
 427              	.LBE9:
 428 0120 FFF7FEFF 		bl	dbg_check_lock_from_isr
 429              		.loc 1 195 0
 430 0124 019B     		ldr	r3, [sp, #4]
 431 0126 5A6C     		ldr	r2, [r3, #68]
 432 0128 019B     		ldr	r3, [sp, #4]
 433 012a 9B6C     		ldr	r3, [r3, #72]
 434 012c 9A42     		cmp	r2, r3
 435 012e 05D1     		bne	.L21
 436              		.loc 1 195 0 is_stmt 0 discriminator 1
 437 0130 019B     		ldr	r3, [sp, #4]
 438 0132 9B6B     		ldr	r3, [r3, #56]
 439 0134 002B     		cmp	r3, #0
 440 0136 01D0     		beq	.L21
 441              		.loc 1 195 0 discriminator 3
 442 0138 0123     		movs	r3, #1
 443 013a 00E0     		b	.L22
 444              	.L21:
 445              		.loc 1 195 0 discriminator 2
 446 013c 0023     		movs	r3, #0
 447              	.L22:
 448              		.loc 1 195 0 discriminator 4
ARM GAS  /home/pauba/tmp/ccCykAzR.s 			page 9


 449 013e 03F00103 		and	r3, r3, #1
 450 0142 DBB2     		uxtb	r3, r3
 451 0144 002B     		cmp	r3, #0
 452 0146 05D0     		beq	.L23
 453              		.loc 1 196 0 is_stmt 1
 454 0148 019B     		ldr	r3, [sp, #4]
 455 014a 0433     		adds	r3, r3, #4
 456 014c 1846     		mov	r0, r3
 457 014e 1021     		movs	r1, #16
 458 0150 FFF7FEFF 		bl	chEvtBroadcastFlagsI
 459              	.L23:
 460              		.loc 1 197 0
 461 0154 BDF80E30 		ldrh	r3, [sp, #14]	@ movhi
 462 0158 23F04003 		bic	r3, r3, #64
 463 015c 9AB2     		uxth	r2, r3
 464 015e 049B     		ldr	r3, [sp, #16]
 465 0160 9A81     		strh	r2, [r3, #12]	@ movhi
 466              		.loc 1 198 0
 467 0162 049B     		ldr	r3, [sp, #16]
 468 0164 4FF6BF72 		movw	r2, #65471
 469 0168 1A80     		strh	r2, [r3]	@ movhi
 470              		.loc 1 199 0
 471 016a FFF7FEFF 		bl	dbg_check_unlock_from_isr
 472              	.LBB10:
 473 016e 0023     		movs	r3, #0
 474              	@ 199 "/home/pauba/ChibiOS-RT/os/hal/platforms/STM32/USARTv1/serial_lld.c" 1
 475 0170 83F31188 		msr     BASEPRI, r3
 476              	@ 0 "" 2
 477              		.thumb
 478              	.L12:
 479              	.LBE10:
 480              		.loc 1 201 0
 481 0174 07B0     		add	sp, sp, #28
 482              		@ sp needed
 483 0176 5DF804FB 		ldr	pc, [sp], #4
 484              		.cfi_endproc
 485              	.LFE66:
 486              		.size	serve_interrupt, .-serve_interrupt
 487 017a 00BFAFF3 		.section	.text.notify2,"ax",%progbits
 487      0080
 488              		.align	2
 489              		.p2align 4,,15
 490              		.thumb
 491              		.thumb_func
 492              		.type	notify2, %function
 493              	notify2:
 494              	.LFB67:
 495              		.loc 1 212 0
 496              		.cfi_startproc
 497              		@ args = 0, pretend = 0, frame = 8
 498              		@ frame_needed = 0, uses_anonymous_args = 0
 499              		@ link register save eliminated.
 500 0000 82B0     		sub	sp, sp, #8
 501              		.cfi_def_cfa_offset 8
 502 0002 0190     		str	r0, [sp, #4]
 503              		.loc 1 215 0
 504 0004 044B     		ldr	r3, .L25
ARM GAS  /home/pauba/tmp/ccCykAzR.s 			page 10


 505 0006 044A     		ldr	r2, .L25
 506 0008 9289     		ldrh	r2, [r2, #12]	@ movhi
 507 000a 92B2     		uxth	r2, r2
 508 000c 42F08002 		orr	r2, r2, #128
 509 0010 92B2     		uxth	r2, r2
 510 0012 9A81     		strh	r2, [r3, #12]	@ movhi
 511              		.loc 1 216 0
 512 0014 02B0     		add	sp, sp, #8
 513              		@ sp needed
 514 0016 7047     		bx	lr
 515              	.L26:
 516              		.align	2
 517              	.L25:
 518 0018 00440040 		.word	1073759232
 519              		.cfi_endproc
 520              	.LFE67:
 521              		.size	notify2, .-notify2
 522 001c AFF30080 		.section	.text.VectorD8,"ax",%progbits
 523              		.align	2
 524              		.p2align 4,,15
 525              		.global	VectorD8
 526              		.thumb
 527              		.thumb_func
 528              		.type	VectorD8, %function
 529              	VectorD8:
 530              	.LFB68:
 531              		.loc 1 283 0
 532              		.cfi_startproc
 533              		@ args = 0, pretend = 0, frame = 0
 534              		@ frame_needed = 0, uses_anonymous_args = 0
 535 0000 08B5     		push	{r3, lr}
 536              		.cfi_def_cfa_offset 8
 537              		.cfi_offset 3, -8
 538              		.cfi_offset 14, -4
 539              		.loc 1 285 0
 540 0002 FFF7FEFF 		bl	dbg_check_enter_isr
 541              		.loc 1 287 0
 542 0006 0448     		ldr	r0, .L28
 543 0008 FFF7FEFF 		bl	serve_interrupt
 544              		.loc 1 289 0
 545 000c FFF7FEFF 		bl	dbg_check_leave_isr
 546 0010 FFF7FEFF 		bl	_port_irq_epilogue
 547              		.loc 1 290 0
 548 0014 08BD     		pop	{r3, pc}
 549              	.L29:
 550 0016 00BF     		.align	2
 551              	.L28:
 552 0018 00000000 		.word	SD2
 553              		.cfi_endproc
 554              	.LFE68:
 555              		.size	VectorD8, .-VectorD8
 556 001c AFF30080 		.section	.text.sd_lld_init,"ax",%progbits
 557              		.align	2
 558              		.p2align 4,,15
 559              		.global	sd_lld_init
 560              		.thumb
 561              		.thumb_func
ARM GAS  /home/pauba/tmp/ccCykAzR.s 			page 11


 562              		.type	sd_lld_init, %function
 563              	sd_lld_init:
 564              	.LFB69:
 565              		.loc 1 378 0
 566              		.cfi_startproc
 567              		@ args = 0, pretend = 0, frame = 0
 568              		@ frame_needed = 0, uses_anonymous_args = 0
 569 0000 08B5     		push	{r3, lr}
 570              		.cfi_def_cfa_offset 8
 571              		.cfi_offset 3, -8
 572              		.cfi_offset 14, -4
 573              		.loc 1 386 0
 574 0002 0448     		ldr	r0, .L31
 575 0004 0021     		movs	r1, #0
 576 0006 044A     		ldr	r2, .L31+4
 577 0008 FFF7FEFF 		bl	sdObjectInit
 578              		.loc 1 387 0
 579 000c 014B     		ldr	r3, .L31
 580 000e 034A     		ldr	r2, .L31+8
 581 0010 5A67     		str	r2, [r3, #116]
 582              		.loc 1 409 0
 583 0012 08BD     		pop	{r3, pc}
 584              	.L32:
 585              		.align	2
 586              	.L31:
 587 0014 00000000 		.word	SD2
 588 0018 00000000 		.word	notify2
 589 001c 00440040 		.word	1073759232
 590              		.cfi_endproc
 591              	.LFE69:
 592              		.size	sd_lld_init, .-sd_lld_init
 593              		.section	.text.sd_lld_start,"ax",%progbits
 594              		.align	2
 595              		.p2align 4,,15
 596              		.global	sd_lld_start
 597              		.thumb
 598              		.thumb_func
 599              		.type	sd_lld_start, %function
 600              	sd_lld_start:
 601              	.LFB70:
 602              		.loc 1 421 0
 603              		.cfi_startproc
 604              		@ args = 0, pretend = 0, frame = 8
 605              		@ frame_needed = 0, uses_anonymous_args = 0
 606 0000 00B5     		push	{lr}
 607              		.cfi_def_cfa_offset 4
 608              		.cfi_offset 14, -4
 609 0002 83B0     		sub	sp, sp, #12
 610              		.cfi_def_cfa_offset 16
 611 0004 0190     		str	r0, [sp, #4]
 612 0006 0091     		str	r1, [sp]
 613              		.loc 1 423 0
 614 0008 009B     		ldr	r3, [sp]
 615 000a 002B     		cmp	r3, #0
 616 000c 01D1     		bne	.L34
 617              		.loc 1 424 0
 618 000e 0D4B     		ldr	r3, .L36
ARM GAS  /home/pauba/tmp/ccCykAzR.s 			page 12


 619 0010 0093     		str	r3, [sp]
 620              	.L34:
 621              		.loc 1 426 0
 622 0012 019B     		ldr	r3, [sp, #4]
 623 0014 1B7A     		ldrb	r3, [r3, #8]	@ zero_extendqisi2
 624 0016 012B     		cmp	r3, #1
 625 0018 0DD1     		bne	.L35
 626              		.loc 1 435 0
 627 001a 019A     		ldr	r2, [sp, #4]
 628 001c 0A4B     		ldr	r3, .L36+4
 629 001e 9A42     		cmp	r2, r3
 630 0020 09D1     		bne	.L35
 631              		.loc 1 436 0
 632 0022 0A4B     		ldr	r3, .L36+8
 633 0024 094A     		ldr	r2, .L36+8
 634 0026 526A     		ldr	r2, [r2, #36]
 635 0028 42F40032 		orr	r2, r2, #131072
 636 002c 5A62     		str	r2, [r3, #36]
 637              		.loc 1 437 0
 638 002e 2620     		movs	r0, #38
 639 0030 C021     		movs	r1, #192
 640 0032 FFF7FEFF 		bl	nvicEnableVector
 641              	.L35:
 642              		.loc 1 470 0
 643 0036 0198     		ldr	r0, [sp, #4]
 644 0038 0099     		ldr	r1, [sp]
 645 003a FFF7FEFF 		bl	usart_init
 646              		.loc 1 471 0
 647 003e 03B0     		add	sp, sp, #12
 648              		@ sp needed
 649 0040 5DF804FB 		ldr	pc, [sp], #4
 650              	.L37:
 651              		.align	2
 652              	.L36:
 653 0044 00000000 		.word	default_config
 654 0048 00000000 		.word	SD2
 655 004c 00380240 		.word	1073887232
 656              		.cfi_endproc
 657              	.LFE70:
 658              		.size	sd_lld_start, .-sd_lld_start
 659              		.section	.text.sd_lld_stop,"ax",%progbits
 660              		.align	2
 661              		.p2align 4,,15
 662              		.global	sd_lld_stop
 663              		.thumb
 664              		.thumb_func
 665              		.type	sd_lld_stop, %function
 666              	sd_lld_stop:
 667              	.LFB71:
 668              		.loc 1 482 0
 669              		.cfi_startproc
 670              		@ args = 0, pretend = 0, frame = 8
 671              		@ frame_needed = 0, uses_anonymous_args = 0
 672 0000 00B5     		push	{lr}
 673              		.cfi_def_cfa_offset 4
 674              		.cfi_offset 14, -4
 675 0002 83B0     		sub	sp, sp, #12
ARM GAS  /home/pauba/tmp/ccCykAzR.s 			page 13


 676              		.cfi_def_cfa_offset 16
 677 0004 0190     		str	r0, [sp, #4]
 678              		.loc 1 484 0
 679 0006 019B     		ldr	r3, [sp, #4]
 680 0008 1B7A     		ldrb	r3, [r3, #8]	@ zero_extendqisi2
 681 000a 022B     		cmp	r3, #2
 682 000c 12D1     		bne	.L38
 683              		.loc 1 485 0
 684 000e 019B     		ldr	r3, [sp, #4]
 685 0010 5B6F     		ldr	r3, [r3, #116]
 686 0012 1846     		mov	r0, r3
 687 0014 FFF7FEFF 		bl	usart_deinit
 688              		.loc 1 494 0
 689 0018 019A     		ldr	r2, [sp, #4]
 690 001a 084B     		ldr	r3, .L40
 691 001c 9A42     		cmp	r2, r3
 692 001e 09D1     		bne	.L38
 693              		.loc 1 495 0
 694 0020 074B     		ldr	r3, .L40+4
 695 0022 074A     		ldr	r2, .L40+4
 696 0024 526A     		ldr	r2, [r2, #36]
 697 0026 22F40032 		bic	r2, r2, #131072
 698 002a 5A62     		str	r2, [r3, #36]
 699              		.loc 1 496 0
 700 002c 2620     		movs	r0, #38
 701 002e FFF7FEFF 		bl	nvicDisableVector
 702              		.loc 1 497 0
 703 0032 00BF     		nop
 704              	.L38:
 705              		.loc 1 529 0
 706 0034 03B0     		add	sp, sp, #12
 707              		@ sp needed
 708 0036 5DF804FB 		ldr	pc, [sp], #4
 709              	.L41:
 710 003a 00BF     		.align	2
 711              	.L40:
 712 003c 00000000 		.word	SD2
 713 0040 00380240 		.word	1073887232
 714              		.cfi_endproc
 715              	.LFE71:
 716              		.size	sd_lld_stop, .-sd_lld_stop
 717 0044 AFF30080 		.text
 717      AFF30080 
 717      AFF30080 
 718              	.Letext0:
 719              		.file 2 "/opt/gcc-arm-none-eabi-4_8-2014q1/lib/gcc/arm-none-eabi/4.8.3/include/stddef.h"
 720              		.file 3 "/opt/gcc-arm-none-eabi-4_8-2014q1/arm-none-eabi/include/machine/_default_types.h"
 721              		.file 4 "/opt/gcc-arm-none-eabi-4_8-2014q1/arm-none-eabi/include/stdint.h"
 722              		.file 5 "/home/pauba/ChibiOS-RT/os/ports/GCC/ARMCMx/chtypes.h"
 723              		.file 6 "/home/pauba/ChibiOS-RT/os/kernel/include/chlists.h"
 724              		.file 7 "/home/pauba/ChibiOS-RT/os/kernel/include/chthreads.h"
 725              		.file 8 "/home/pauba/ChibiOS-RT/os/ports/GCC/ARMCMx/chcore_v7m.h"
 726              		.file 9 "/home/pauba/ChibiOS-RT/os/kernel/include/chmtx.h"
 727              		.file 10 "/home/pauba/ChibiOS-RT/os/kernel/include/chevents.h"
 728              		.file 11 "/home/pauba/ChibiOS-RT/os/kernel/include/chqueues.h"
 729              		.file 12 "/home/pauba/ChibiOS-RT/os/hal/platforms/STM32L1xx/stm32l1xx.h"
 730              		.file 13 "/home/pauba/ChibiOS-RT/os/hal/include/serial.h"
ARM GAS  /home/pauba/tmp/ccCykAzR.s 			page 14


 731              		.file 14 "/home/pauba/ChibiOS-RT/os/hal/platforms/STM32/USARTv1/serial_lld.h"
 732              		.file 15 "/home/pauba/ChibiOS-RT/os/ports/common/ARMCMx/CMSIS/include/core_cm3.h"