ARM GAS  /home/pauba/tmp/ccXKPANz.s 			page 1


   1              		.syntax unified
   2              		.cpu cortex-m4
   3              		.fpu softvfp
   4              		.eabi_attribute 20, 1
   5              		.eabi_attribute 21, 1
   6              		.eabi_attribute 23, 3
   7              		.eabi_attribute 24, 1
   8              		.eabi_attribute 25, 1
   9              		.eabi_attribute 26, 1
  10              		.eabi_attribute 30, 6
  11              		.eabi_attribute 34, 1
  12              		.eabi_attribute 18, 4
  13              		.thumb
  14              		.file	"serial.c"
  15              		.text
  16              	.Ltext0:
  17              		.cfi_sections	.debug_frame
  18              		.section	.text.write,"ax",%progbits
  19              		.align	2
  20              		.p2align 4,,15
  21              		.thumb
  22              		.thumb_func
  23              		.type	write, %function
  24              	write:
  25              	.LFB63:
  26              		.file 1 "/home/pauba/ChibiOS-RT/os/hal/src/serial.c"
  27              		.loc 1 62 0
  28              		.cfi_startproc
  29              		@ args = 0, pretend = 0, frame = 16
  30              		@ frame_needed = 0, uses_anonymous_args = 0
  31 0000 00B5     		push	{lr}
  32              		.cfi_def_cfa_offset 4
  33              		.cfi_offset 14, -4
  34 0002 85B0     		sub	sp, sp, #20
  35              		.cfi_def_cfa_offset 24
  36 0004 0390     		str	r0, [sp, #12]
  37 0006 0291     		str	r1, [sp, #8]
  38 0008 0192     		str	r2, [sp, #4]
  39              		.loc 1 64 0
  40 000a 039B     		ldr	r3, [sp, #12]
  41 000c 3033     		adds	r3, r3, #48
  42 000e 1846     		mov	r0, r3
  43 0010 0299     		ldr	r1, [sp, #8]
  44 0012 019A     		ldr	r2, [sp, #4]
  45 0014 4FF0FF33 		mov	r3, #-1
  46 0018 FFF7FEFF 		bl	chOQWriteTimeout
  47 001c 0346     		mov	r3, r0
  48              		.loc 1 66 0
  49 001e 1846     		mov	r0, r3
  50 0020 05B0     		add	sp, sp, #20
  51              		@ sp needed
  52 0022 5DF804FB 		ldr	pc, [sp], #4
  53              		.cfi_endproc
  54              	.LFE63:
  55              		.size	write, .-write
  56 0026 00BFAFF3 		.section	.text.read,"ax",%progbits
  56      0080AFF3 
ARM GAS  /home/pauba/tmp/ccXKPANz.s 			page 2


  56      0080
  57              		.align	2
  58              		.p2align 4,,15
  59              		.thumb
  60              		.thumb_func
  61              		.type	read, %function
  62              	read:
  63              	.LFB64:
  64              		.loc 1 68 0
  65              		.cfi_startproc
  66              		@ args = 0, pretend = 0, frame = 16
  67              		@ frame_needed = 0, uses_anonymous_args = 0
  68 0000 00B5     		push	{lr}
  69              		.cfi_def_cfa_offset 4
  70              		.cfi_offset 14, -4
  71 0002 85B0     		sub	sp, sp, #20
  72              		.cfi_def_cfa_offset 24
  73 0004 0390     		str	r0, [sp, #12]
  74 0006 0291     		str	r1, [sp, #8]
  75 0008 0192     		str	r2, [sp, #4]
  76              		.loc 1 70 0
  77 000a 039B     		ldr	r3, [sp, #12]
  78 000c 0C33     		adds	r3, r3, #12
  79 000e 1846     		mov	r0, r3
  80 0010 0299     		ldr	r1, [sp, #8]
  81 0012 019A     		ldr	r2, [sp, #4]
  82 0014 4FF0FF33 		mov	r3, #-1
  83 0018 FFF7FEFF 		bl	chIQReadTimeout
  84 001c 0346     		mov	r3, r0
  85              		.loc 1 72 0
  86 001e 1846     		mov	r0, r3
  87 0020 05B0     		add	sp, sp, #20
  88              		@ sp needed
  89 0022 5DF804FB 		ldr	pc, [sp], #4
  90              		.cfi_endproc
  91              	.LFE64:
  92              		.size	read, .-read
  93 0026 00BFAFF3 		.section	.text.put,"ax",%progbits
  93      0080AFF3 
  93      0080
  94              		.align	2
  95              		.p2align 4,,15
  96              		.thumb
  97              		.thumb_func
  98              		.type	put, %function
  99              	put:
 100              	.LFB65:
 101              		.loc 1 74 0
 102              		.cfi_startproc
 103              		@ args = 0, pretend = 0, frame = 8
 104              		@ frame_needed = 0, uses_anonymous_args = 0
 105 0000 00B5     		push	{lr}
 106              		.cfi_def_cfa_offset 4
 107              		.cfi_offset 14, -4
 108 0002 83B0     		sub	sp, sp, #12
 109              		.cfi_def_cfa_offset 16
 110 0004 0190     		str	r0, [sp, #4]
ARM GAS  /home/pauba/tmp/ccXKPANz.s 			page 3


 111 0006 0B46     		mov	r3, r1
 112 0008 8DF80330 		strb	r3, [sp, #3]
 113              		.loc 1 76 0
 114 000c 019B     		ldr	r3, [sp, #4]
 115 000e 03F13002 		add	r2, r3, #48
 116 0012 9DF80330 		ldrb	r3, [sp, #3]	@ zero_extendqisi2
 117 0016 1046     		mov	r0, r2
 118 0018 1946     		mov	r1, r3
 119 001a 4FF0FF32 		mov	r2, #-1
 120 001e FFF7FEFF 		bl	chOQPutTimeout
 121 0022 0346     		mov	r3, r0
 122              		.loc 1 77 0
 123 0024 1846     		mov	r0, r3
 124 0026 03B0     		add	sp, sp, #12
 125              		@ sp needed
 126 0028 5DF804FB 		ldr	pc, [sp], #4
 127              		.cfi_endproc
 128              	.LFE65:
 129              		.size	put, .-put
 130 002c AFF30080 		.section	.text.get,"ax",%progbits
 131              		.align	2
 132              		.p2align 4,,15
 133              		.thumb
 134              		.thumb_func
 135              		.type	get, %function
 136              	get:
 137              	.LFB66:
 138              		.loc 1 79 0
 139              		.cfi_startproc
 140              		@ args = 0, pretend = 0, frame = 8
 141              		@ frame_needed = 0, uses_anonymous_args = 0
 142 0000 00B5     		push	{lr}
 143              		.cfi_def_cfa_offset 4
 144              		.cfi_offset 14, -4
 145 0002 83B0     		sub	sp, sp, #12
 146              		.cfi_def_cfa_offset 16
 147 0004 0190     		str	r0, [sp, #4]
 148              		.loc 1 81 0
 149 0006 019B     		ldr	r3, [sp, #4]
 150 0008 0C33     		adds	r3, r3, #12
 151 000a 1846     		mov	r0, r3
 152 000c 4FF0FF31 		mov	r1, #-1
 153 0010 FFF7FEFF 		bl	chIQGetTimeout
 154 0014 0346     		mov	r3, r0
 155              		.loc 1 82 0
 156 0016 1846     		mov	r0, r3
 157 0018 03B0     		add	sp, sp, #12
 158              		@ sp needed
 159 001a 5DF804FB 		ldr	pc, [sp], #4
 160              		.cfi_endproc
 161              	.LFE66:
 162              		.size	get, .-get
 163 001e 00BF     		.section	.text.putt,"ax",%progbits
 164              		.align	2
 165              		.p2align 4,,15
 166              		.thumb
 167              		.thumb_func
ARM GAS  /home/pauba/tmp/ccXKPANz.s 			page 4


 168              		.type	putt, %function
 169              	putt:
 170              	.LFB67:
 171              		.loc 1 84 0
 172              		.cfi_startproc
 173              		@ args = 0, pretend = 0, frame = 16
 174              		@ frame_needed = 0, uses_anonymous_args = 0
 175 0000 00B5     		push	{lr}
 176              		.cfi_def_cfa_offset 4
 177              		.cfi_offset 14, -4
 178 0002 85B0     		sub	sp, sp, #20
 179              		.cfi_def_cfa_offset 24
 180 0004 0390     		str	r0, [sp, #12]
 181 0006 0B46     		mov	r3, r1
 182 0008 0192     		str	r2, [sp, #4]
 183 000a 8DF80B30 		strb	r3, [sp, #11]
 184              		.loc 1 86 0
 185 000e 039B     		ldr	r3, [sp, #12]
 186 0010 03F13002 		add	r2, r3, #48
 187 0014 9DF80B30 		ldrb	r3, [sp, #11]	@ zero_extendqisi2
 188 0018 1046     		mov	r0, r2
 189 001a 1946     		mov	r1, r3
 190 001c 019A     		ldr	r2, [sp, #4]
 191 001e FFF7FEFF 		bl	chOQPutTimeout
 192 0022 0346     		mov	r3, r0
 193              		.loc 1 87 0
 194 0024 1846     		mov	r0, r3
 195 0026 05B0     		add	sp, sp, #20
 196              		@ sp needed
 197 0028 5DF804FB 		ldr	pc, [sp], #4
 198              		.cfi_endproc
 199              	.LFE67:
 200              		.size	putt, .-putt
 201 002c AFF30080 		.section	.text.gett,"ax",%progbits
 202              		.align	2
 203              		.p2align 4,,15
 204              		.thumb
 205              		.thumb_func
 206              		.type	gett, %function
 207              	gett:
 208              	.LFB68:
 209              		.loc 1 89 0
 210              		.cfi_startproc
 211              		@ args = 0, pretend = 0, frame = 8
 212              		@ frame_needed = 0, uses_anonymous_args = 0
 213 0000 00B5     		push	{lr}
 214              		.cfi_def_cfa_offset 4
 215              		.cfi_offset 14, -4
 216 0002 83B0     		sub	sp, sp, #12
 217              		.cfi_def_cfa_offset 16
 218 0004 0190     		str	r0, [sp, #4]
 219 0006 0091     		str	r1, [sp]
 220              		.loc 1 91 0
 221 0008 019B     		ldr	r3, [sp, #4]
 222 000a 0C33     		adds	r3, r3, #12
 223 000c 1846     		mov	r0, r3
 224 000e 0099     		ldr	r1, [sp]
ARM GAS  /home/pauba/tmp/ccXKPANz.s 			page 5


 225 0010 FFF7FEFF 		bl	chIQGetTimeout
 226 0014 0346     		mov	r3, r0
 227              		.loc 1 92 0
 228 0016 1846     		mov	r0, r3
 229 0018 03B0     		add	sp, sp, #12
 230              		@ sp needed
 231 001a 5DF804FB 		ldr	pc, [sp], #4
 232              		.cfi_endproc
 233              	.LFE68:
 234              		.size	gett, .-gett
 235 001e 00BF     		.section	.text.writet,"ax",%progbits
 236              		.align	2
 237              		.p2align 4,,15
 238              		.thumb
 239              		.thumb_func
 240              		.type	writet, %function
 241              	writet:
 242              	.LFB69:
 243              		.loc 1 94 0
 244              		.cfi_startproc
 245              		@ args = 0, pretend = 0, frame = 16
 246              		@ frame_needed = 0, uses_anonymous_args = 0
 247 0000 00B5     		push	{lr}
 248              		.cfi_def_cfa_offset 4
 249              		.cfi_offset 14, -4
 250 0002 85B0     		sub	sp, sp, #20
 251              		.cfi_def_cfa_offset 24
 252 0004 0390     		str	r0, [sp, #12]
 253 0006 0291     		str	r1, [sp, #8]
 254 0008 0192     		str	r2, [sp, #4]
 255 000a 0093     		str	r3, [sp]
 256              		.loc 1 96 0
 257 000c 039B     		ldr	r3, [sp, #12]
 258 000e 3033     		adds	r3, r3, #48
 259 0010 1846     		mov	r0, r3
 260 0012 0299     		ldr	r1, [sp, #8]
 261 0014 019A     		ldr	r2, [sp, #4]
 262 0016 009B     		ldr	r3, [sp]
 263 0018 FFF7FEFF 		bl	chOQWriteTimeout
 264 001c 0346     		mov	r3, r0
 265              		.loc 1 97 0
 266 001e 1846     		mov	r0, r3
 267 0020 05B0     		add	sp, sp, #20
 268              		@ sp needed
 269 0022 5DF804FB 		ldr	pc, [sp], #4
 270              		.cfi_endproc
 271              	.LFE69:
 272              		.size	writet, .-writet
 273 0026 00BFAFF3 		.section	.text.readt,"ax",%progbits
 273      0080AFF3 
 273      0080
 274              		.align	2
 275              		.p2align 4,,15
 276              		.thumb
 277              		.thumb_func
 278              		.type	readt, %function
 279              	readt:
ARM GAS  /home/pauba/tmp/ccXKPANz.s 			page 6


 280              	.LFB70:
 281              		.loc 1 99 0
 282              		.cfi_startproc
 283              		@ args = 0, pretend = 0, frame = 16
 284              		@ frame_needed = 0, uses_anonymous_args = 0
 285 0000 00B5     		push	{lr}
 286              		.cfi_def_cfa_offset 4
 287              		.cfi_offset 14, -4
 288 0002 85B0     		sub	sp, sp, #20
 289              		.cfi_def_cfa_offset 24
 290 0004 0390     		str	r0, [sp, #12]
 291 0006 0291     		str	r1, [sp, #8]
 292 0008 0192     		str	r2, [sp, #4]
 293 000a 0093     		str	r3, [sp]
 294              		.loc 1 101 0
 295 000c 039B     		ldr	r3, [sp, #12]
 296 000e 0C33     		adds	r3, r3, #12
 297 0010 1846     		mov	r0, r3
 298 0012 0299     		ldr	r1, [sp, #8]
 299 0014 019A     		ldr	r2, [sp, #4]
 300 0016 009B     		ldr	r3, [sp]
 301 0018 FFF7FEFF 		bl	chIQReadTimeout
 302 001c 0346     		mov	r3, r0
 303              		.loc 1 102 0
 304 001e 1846     		mov	r0, r3
 305 0020 05B0     		add	sp, sp, #20
 306              		@ sp needed
 307 0022 5DF804FB 		ldr	pc, [sp], #4
 308              		.cfi_endproc
 309              	.LFE70:
 310              		.size	readt, .-readt
 311 0026 00BFAFF3 		.section	.rodata.vmt,"a",%progbits
 311      0080AFF3 
 311      0080
 312              		.align	2
 313              		.type	vmt, %object
 314              		.size	vmt, 32
 315              	vmt:
 316 0000 00000000 		.word	write
 317 0004 00000000 		.word	read
 318 0008 00000000 		.word	put
 319 000c 00000000 		.word	get
 320 0010 00000000 		.word	putt
 321 0014 00000000 		.word	gett
 322 0018 00000000 		.word	writet
 323 001c 00000000 		.word	readt
 324              		.section	.text.sdInit,"ax",%progbits
 325              		.align	2
 326              		.p2align 4,,15
 327              		.global	sdInit
 328              		.thumb
 329              		.thumb_func
 330              		.type	sdInit, %function
 331              	sdInit:
 332              	.LFB71:
 333              		.loc 1 120 0
 334              		.cfi_startproc
ARM GAS  /home/pauba/tmp/ccXKPANz.s 			page 7


 335              		@ args = 0, pretend = 0, frame = 0
 336              		@ frame_needed = 0, uses_anonymous_args = 0
 337 0000 08B5     		push	{r3, lr}
 338              		.cfi_def_cfa_offset 8
 339              		.cfi_offset 3, -8
 340              		.cfi_offset 14, -4
 341              		.loc 1 122 0
 342 0002 FFF7FEFF 		bl	sd_lld_init
 343              		.loc 1 123 0
 344 0006 08BD     		pop	{r3, pc}
 345              		.cfi_endproc
 346              	.LFE71:
 347              		.size	sdInit, .-sdInit
 348              		.section	.text.sdObjectInit,"ax",%progbits
 349              		.align	2
 350              		.p2align 4,,15
 351              		.global	sdObjectInit
 352              		.thumb
 353              		.thumb_func
 354              		.type	sdObjectInit, %function
 355              	sdObjectInit:
 356              	.LFB72:
 357              		.loc 1 140 0
 358              		.cfi_startproc
 359              		@ args = 0, pretend = 0, frame = 16
 360              		@ frame_needed = 0, uses_anonymous_args = 0
 361 0000 00B5     		push	{lr}
 362              		.cfi_def_cfa_offset 4
 363              		.cfi_offset 14, -4
 364 0002 87B0     		sub	sp, sp, #28
 365              		.cfi_def_cfa_offset 32
 366 0004 0590     		str	r0, [sp, #20]
 367 0006 0491     		str	r1, [sp, #16]
 368 0008 0392     		str	r2, [sp, #12]
 369              		.loc 1 142 0
 370 000a 059B     		ldr	r3, [sp, #20]
 371 000c 124A     		ldr	r2, .L19
 372 000e 1A60     		str	r2, [r3]
 373              		.loc 1 143 0
 374 0010 059B     		ldr	r3, [sp, #20]
 375 0012 1A1D     		adds	r2, r3, #4
 376 0014 059B     		ldr	r3, [sp, #20]
 377 0016 5A60     		str	r2, [r3, #4]
 378              		.loc 1 144 0
 379 0018 059B     		ldr	r3, [sp, #20]
 380 001a 0122     		movs	r2, #1
 381 001c 1A72     		strb	r2, [r3, #8]
 382              		.loc 1 145 0
 383 001e 059B     		ldr	r3, [sp, #20]
 384 0020 03F10C02 		add	r2, r3, #12
 385 0024 059B     		ldr	r3, [sp, #20]
 386 0026 5433     		adds	r3, r3, #84
 387 0028 0599     		ldr	r1, [sp, #20]
 388 002a 0091     		str	r1, [sp]
 389 002c 1046     		mov	r0, r2
 390 002e 1946     		mov	r1, r3
 391 0030 1022     		movs	r2, #16
ARM GAS  /home/pauba/tmp/ccXKPANz.s 			page 8


 392 0032 049B     		ldr	r3, [sp, #16]
 393 0034 FFF7FEFF 		bl	chIQInit
 394              		.loc 1 146 0
 395 0038 059B     		ldr	r3, [sp, #20]
 396 003a 03F13002 		add	r2, r3, #48
 397 003e 059B     		ldr	r3, [sp, #20]
 398 0040 6433     		adds	r3, r3, #100
 399 0042 0599     		ldr	r1, [sp, #20]
 400 0044 0091     		str	r1, [sp]
 401 0046 1046     		mov	r0, r2
 402 0048 1946     		mov	r1, r3
 403 004a 1022     		movs	r2, #16
 404 004c 039B     		ldr	r3, [sp, #12]
 405 004e FFF7FEFF 		bl	chOQInit
 406              		.loc 1 147 0
 407 0052 07B0     		add	sp, sp, #28
 408              		@ sp needed
 409 0054 5DF804FB 		ldr	pc, [sp], #4
 410              	.L20:
 411              		.align	2
 412              	.L19:
 413 0058 00000000 		.word	vmt
 414              		.cfi_endproc
 415              	.LFE72:
 416              		.size	sdObjectInit, .-sdObjectInit
 417 005c AFF30080 		.section	.rodata
 418              		.align	2
 419              	.LC0:
 420 0000 22736453 		.ascii	"\"sdStart\"()\000"
 420      74617274 
 420      22282900 
 421              		.align	2
 422              	.LC1:
 423 000c 73645374 		.ascii	"sdStart(), #1\000"
 423      61727428 
 423      292C2023 
 423      3100
 424              		.section	.text.sdStart,"ax",%progbits
 425              		.align	2
 426              		.p2align 4,,15
 427              		.global	sdStart
 428              		.thumb
 429              		.thumb_func
 430              		.type	sdStart, %function
 431              	sdStart:
 432              	.LFB73:
 433              		.loc 1 159 0
 434              		.cfi_startproc
 435              		@ args = 0, pretend = 0, frame = 8
 436              		@ frame_needed = 0, uses_anonymous_args = 0
 437 0000 00B5     		push	{lr}
 438              		.cfi_def_cfa_offset 4
 439              		.cfi_offset 14, -4
 440 0002 83B0     		sub	sp, sp, #12
 441              		.cfi_def_cfa_offset 16
 442 0004 0190     		str	r0, [sp, #4]
 443 0006 0091     		str	r1, [sp]
ARM GAS  /home/pauba/tmp/ccXKPANz.s 			page 9


 444              		.loc 1 161 0
 445 0008 019B     		ldr	r3, [sp, #4]
 446 000a 002B     		cmp	r3, #0
 447 000c 02D1     		bne	.L22
 448              		.loc 1 161 0 is_stmt 0 discriminator 1
 449 000e 1148     		ldr	r0, .L24
 450 0010 FFF7FEFF 		bl	chDbgPanic
 451              	.L22:
 452              	.LBB2:
 453              		.loc 1 163 0 is_stmt 1
 454 0014 2023     		movs	r3, #32
 455              	@ 163 "/home/pauba/ChibiOS-RT/os/hal/src/serial.c" 1
 456 0016 83F31188 		msr     BASEPRI, r3
 457              	@ 0 "" 2
 458              		.thumb
 459              	.LBE2:
 460 001a FFF7FEFF 		bl	dbg_check_lock
 461              		.loc 1 164 0
 462 001e 019B     		ldr	r3, [sp, #4]
 463 0020 1B7A     		ldrb	r3, [r3, #8]	@ zero_extendqisi2
 464 0022 012B     		cmp	r3, #1
 465 0024 06D0     		beq	.L23
 466              		.loc 1 164 0 is_stmt 0 discriminator 1
 467 0026 019B     		ldr	r3, [sp, #4]
 468 0028 1B7A     		ldrb	r3, [r3, #8]	@ zero_extendqisi2
 469 002a 022B     		cmp	r3, #2
 470 002c 02D0     		beq	.L23
 471 002e 0A48     		ldr	r0, .L24+4
 472 0030 FFF7FEFF 		bl	chDbgPanic
 473              	.L23:
 474              		.loc 1 167 0 is_stmt 1
 475 0034 0198     		ldr	r0, [sp, #4]
 476 0036 0099     		ldr	r1, [sp]
 477 0038 FFF7FEFF 		bl	sd_lld_start
 478              		.loc 1 168 0
 479 003c 019B     		ldr	r3, [sp, #4]
 480 003e 0222     		movs	r2, #2
 481 0040 1A72     		strb	r2, [r3, #8]
 482              		.loc 1 169 0
 483 0042 FFF7FEFF 		bl	dbg_check_unlock
 484              	.LBB3:
 485 0046 0023     		movs	r3, #0
 486              	@ 169 "/home/pauba/ChibiOS-RT/os/hal/src/serial.c" 1
 487 0048 83F31188 		msr     BASEPRI, r3
 488              	@ 0 "" 2
 489              		.thumb
 490              	.LBE3:
 491              		.loc 1 170 0
 492 004c 03B0     		add	sp, sp, #12
 493              		@ sp needed
 494 004e 5DF804FB 		ldr	pc, [sp], #4
 495              	.L25:
 496 0052 00BF     		.align	2
 497              	.L24:
 498 0054 00000000 		.word	.LC0
 499 0058 0C000000 		.word	.LC1
 500              		.cfi_endproc
ARM GAS  /home/pauba/tmp/ccXKPANz.s 			page 10


 501              	.LFE73:
 502              		.size	sdStart, .-sdStart
 503 005c AFF30080 		.section	.rodata
 504 001a 0000     		.align	2
 505              	.LC2:
 506 001c 22736453 		.ascii	"\"sdStop\"()\000"
 506      746F7022 
 506      282900
 507 0027 00       		.align	2
 508              	.LC3:
 509 0028 73645374 		.ascii	"sdStop(), #1\000"
 509      6F702829 
 509      2C202331 
 509      00
 510              		.section	.text.sdStop,"ax",%progbits
 511              		.align	2
 512              		.p2align 4,,15
 513              		.global	sdStop
 514              		.thumb
 515              		.thumb_func
 516              		.type	sdStop, %function
 517              	sdStop:
 518              	.LFB74:
 519              		.loc 1 181 0
 520              		.cfi_startproc
 521              		@ args = 0, pretend = 0, frame = 8
 522              		@ frame_needed = 0, uses_anonymous_args = 0
 523 0000 00B5     		push	{lr}
 524              		.cfi_def_cfa_offset 4
 525              		.cfi_offset 14, -4
 526 0002 83B0     		sub	sp, sp, #12
 527              		.cfi_def_cfa_offset 16
 528 0004 0190     		str	r0, [sp, #4]
 529              		.loc 1 183 0
 530 0006 019B     		ldr	r3, [sp, #4]
 531 0008 002B     		cmp	r3, #0
 532 000a 02D1     		bne	.L27
 533              		.loc 1 183 0 is_stmt 0 discriminator 1
 534 000c 1648     		ldr	r0, .L29
 535 000e FFF7FEFF 		bl	chDbgPanic
 536              	.L27:
 537              	.LBB4:
 538              		.loc 1 185 0 is_stmt 1
 539 0012 2023     		movs	r3, #32
 540              	@ 185 "/home/pauba/ChibiOS-RT/os/hal/src/serial.c" 1
 541 0014 83F31188 		msr     BASEPRI, r3
 542              	@ 0 "" 2
 543              		.thumb
 544              	.LBE4:
 545 0018 FFF7FEFF 		bl	dbg_check_lock
 546              		.loc 1 186 0
 547 001c 019B     		ldr	r3, [sp, #4]
 548 001e 1B7A     		ldrb	r3, [r3, #8]	@ zero_extendqisi2
 549 0020 012B     		cmp	r3, #1
 550 0022 06D0     		beq	.L28
 551              		.loc 1 186 0 is_stmt 0 discriminator 1
 552 0024 019B     		ldr	r3, [sp, #4]
ARM GAS  /home/pauba/tmp/ccXKPANz.s 			page 11


 553 0026 1B7A     		ldrb	r3, [r3, #8]	@ zero_extendqisi2
 554 0028 022B     		cmp	r3, #2
 555 002a 02D0     		beq	.L28
 556 002c 0F48     		ldr	r0, .L29+4
 557 002e FFF7FEFF 		bl	chDbgPanic
 558              	.L28:
 559              		.loc 1 189 0 is_stmt 1
 560 0032 0198     		ldr	r0, [sp, #4]
 561 0034 FFF7FEFF 		bl	sd_lld_stop
 562              		.loc 1 190 0
 563 0038 019B     		ldr	r3, [sp, #4]
 564 003a 0122     		movs	r2, #1
 565 003c 1A72     		strb	r2, [r3, #8]
 566              		.loc 1 191 0
 567 003e 019B     		ldr	r3, [sp, #4]
 568 0040 3033     		adds	r3, r3, #48
 569 0042 1846     		mov	r0, r3
 570 0044 FFF7FEFF 		bl	chOQResetI
 571              		.loc 1 192 0
 572 0048 019B     		ldr	r3, [sp, #4]
 573 004a 0C33     		adds	r3, r3, #12
 574 004c 1846     		mov	r0, r3
 575 004e FFF7FEFF 		bl	chIQResetI
 576              		.loc 1 193 0
 577 0052 FFF7FEFF 		bl	chSchRescheduleS
 578              		.loc 1 194 0
 579 0056 FFF7FEFF 		bl	dbg_check_unlock
 580              	.LBB5:
 581 005a 0023     		movs	r3, #0
 582              	@ 194 "/home/pauba/ChibiOS-RT/os/hal/src/serial.c" 1
 583 005c 83F31188 		msr     BASEPRI, r3
 584              	@ 0 "" 2
 585              		.thumb
 586              	.LBE5:
 587              		.loc 1 195 0
 588 0060 03B0     		add	sp, sp, #12
 589              		@ sp needed
 590 0062 5DF804FB 		ldr	pc, [sp], #4
 591              	.L30:
 592 0066 00BF     		.align	2
 593              	.L29:
 594 0068 1C000000 		.word	.LC2
 595 006c 28000000 		.word	.LC3
 596              		.cfi_endproc
 597              	.LFE74:
 598              		.size	sdStop, .-sdStop
 599              		.section	.rodata
 600 0035 000000   		.align	2
 601              	.LC4:
 602 0038 22736449 		.ascii	"\"sdIncomingDataI\"()\000"
 602      6E636F6D 
 602      696E6744 
 602      61746149 
 602      22282900 
 603              		.section	.text.sdIncomingDataI,"ax",%progbits
 604              		.align	2
 605              		.p2align 4,,15
ARM GAS  /home/pauba/tmp/ccXKPANz.s 			page 12


 606              		.global	sdIncomingDataI
 607              		.thumb
 608              		.thumb_func
 609              		.type	sdIncomingDataI, %function
 610              	sdIncomingDataI:
 611              	.LFB75:
 612              		.loc 1 213 0
 613              		.cfi_startproc
 614              		@ args = 0, pretend = 0, frame = 8
 615              		@ frame_needed = 0, uses_anonymous_args = 0
 616 0000 00B5     		push	{lr}
 617              		.cfi_def_cfa_offset 4
 618              		.cfi_offset 14, -4
 619 0002 83B0     		sub	sp, sp, #12
 620              		.cfi_def_cfa_offset 16
 621 0004 0190     		str	r0, [sp, #4]
 622 0006 0B46     		mov	r3, r1
 623 0008 8DF80330 		strb	r3, [sp, #3]
 624              		.loc 1 215 0
 625 000c FFF7FEFF 		bl	chDbgCheckClassI
 626              		.loc 1 216 0
 627 0010 019B     		ldr	r3, [sp, #4]
 628 0012 002B     		cmp	r3, #0
 629 0014 02D1     		bne	.L32
 630              		.loc 1 216 0 is_stmt 0 discriminator 1
 631 0016 1148     		ldr	r0, .L35
 632 0018 FFF7FEFF 		bl	chDbgPanic
 633              	.L32:
 634              		.loc 1 218 0 is_stmt 1
 635 001c 019B     		ldr	r3, [sp, #4]
 636 001e 5B69     		ldr	r3, [r3, #20]
 637 0020 002B     		cmp	r3, #0
 638 0022 05D1     		bne	.L33
 639              		.loc 1 219 0
 640 0024 019B     		ldr	r3, [sp, #4]
 641 0026 0433     		adds	r3, r3, #4
 642 0028 1846     		mov	r0, r3
 643 002a 0421     		movs	r1, #4
 644 002c FFF7FEFF 		bl	chEvtBroadcastFlagsI
 645              	.L33:
 646              		.loc 1 220 0
 647 0030 019B     		ldr	r3, [sp, #4]
 648 0032 03F10C02 		add	r2, r3, #12
 649 0036 9DF80330 		ldrb	r3, [sp, #3]	@ zero_extendqisi2
 650 003a 1046     		mov	r0, r2
 651 003c 1946     		mov	r1, r3
 652 003e FFF7FEFF 		bl	chIQPutI
 653 0042 0346     		mov	r3, r0
 654 0044 002B     		cmp	r3, #0
 655 0046 05DA     		bge	.L31
 656              		.loc 1 221 0
 657 0048 019B     		ldr	r3, [sp, #4]
 658 004a 0433     		adds	r3, r3, #4
 659 004c 1846     		mov	r0, r3
 660 004e 8021     		movs	r1, #128
 661 0050 FFF7FEFF 		bl	chEvtBroadcastFlagsI
 662              	.L31:
ARM GAS  /home/pauba/tmp/ccXKPANz.s 			page 13


 663              		.loc 1 222 0
 664 0054 03B0     		add	sp, sp, #12
 665              		@ sp needed
 666 0056 5DF804FB 		ldr	pc, [sp], #4
 667              	.L36:
 668 005a 00BF     		.align	2
 669              	.L35:
 670 005c 38000000 		.word	.LC4
 671              		.cfi_endproc
 672              	.LFE75:
 673              		.size	sdIncomingDataI, .-sdIncomingDataI
 674              		.section	.rodata
 675              		.align	2
 676              	.LC5:
 677 004c 22736452 		.ascii	"\"sdRequestDataI\"()\000"
 677      65717565 
 677      73744461 
 677      74614922 
 677      282900
 678 005f 00       		.section	.text.sdRequestDataI,"ax",%progbits
 679              		.align	2
 680              		.p2align 4,,15
 681              		.global	sdRequestDataI
 682              		.thumb
 683              		.thumb_func
 684              		.type	sdRequestDataI, %function
 685              	sdRequestDataI:
 686              	.LFB76:
 687              		.loc 1 239 0
 688              		.cfi_startproc
 689              		@ args = 0, pretend = 0, frame = 16
 690              		@ frame_needed = 0, uses_anonymous_args = 0
 691 0000 00B5     		push	{lr}
 692              		.cfi_def_cfa_offset 4
 693              		.cfi_offset 14, -4
 694 0002 85B0     		sub	sp, sp, #20
 695              		.cfi_def_cfa_offset 24
 696 0004 0190     		str	r0, [sp, #4]
 697              		.loc 1 242 0
 698 0006 FFF7FEFF 		bl	chDbgCheckClassI
 699              		.loc 1 243 0
 700 000a 019B     		ldr	r3, [sp, #4]
 701 000c 002B     		cmp	r3, #0
 702 000e 02D1     		bne	.L38
 703              		.loc 1 243 0 is_stmt 0 discriminator 1
 704 0010 0B48     		ldr	r0, .L41
 705 0012 FFF7FEFF 		bl	chDbgPanic
 706              	.L38:
 707              		.loc 1 245 0 is_stmt 1
 708 0016 019B     		ldr	r3, [sp, #4]
 709 0018 3033     		adds	r3, r3, #48
 710 001a 1846     		mov	r0, r3
 711 001c FFF7FEFF 		bl	chOQGetI
 712 0020 0390     		str	r0, [sp, #12]
 713              		.loc 1 246 0
 714 0022 039B     		ldr	r3, [sp, #12]
 715 0024 002B     		cmp	r3, #0
ARM GAS  /home/pauba/tmp/ccXKPANz.s 			page 14


 716 0026 05DA     		bge	.L39
 717              		.loc 1 247 0
 718 0028 019B     		ldr	r3, [sp, #4]
 719 002a 0433     		adds	r3, r3, #4
 720 002c 1846     		mov	r0, r3
 721 002e 0821     		movs	r1, #8
 722 0030 FFF7FEFF 		bl	chEvtBroadcastFlagsI
 723              	.L39:
 724              		.loc 1 248 0
 725 0034 039B     		ldr	r3, [sp, #12]
 726              		.loc 1 249 0
 727 0036 1846     		mov	r0, r3
 728 0038 05B0     		add	sp, sp, #20
 729              		@ sp needed
 730 003a 5DF804FB 		ldr	pc, [sp], #4
 731              	.L42:
 732 003e 00BF     		.align	2
 733              	.L41:
 734 0040 4C000000 		.word	.LC5
 735              		.cfi_endproc
 736              	.LFE76:
 737              		.size	sdRequestDataI, .-sdRequestDataI
 738 0044 AFF30080 		.text
 738      AFF30080 
 738      AFF30080 
 739              	.Letext0:
 740              		.file 2 "/opt/gcc-arm-none-eabi-4_8-2014q1/lib/gcc/arm-none-eabi/4.8.3/include/stddef.h"
 741              		.file 3 "/opt/gcc-arm-none-eabi-4_8-2014q1/arm-none-eabi/include/machine/_default_types.h"
 742              		.file 4 "/opt/gcc-arm-none-eabi-4_8-2014q1/arm-none-eabi/include/stdint.h"
 743              		.file 5 "/home/pauba/ChibiOS-RT/os/ports/GCC/ARMCMx/chtypes.h"
 744              		.file 6 "/home/pauba/ChibiOS-RT/os/kernel/include/chlists.h"
 745              		.file 7 "/home/pauba/ChibiOS-RT/os/kernel/include/chthreads.h"
 746              		.file 8 "/home/pauba/ChibiOS-RT/os/ports/GCC/ARMCMx/chcore_v7m.h"
 747              		.file 9 "/home/pauba/ChibiOS-RT/os/kernel/include/chmtx.h"
 748              		.file 10 "/home/pauba/ChibiOS-RT/os/kernel/include/chevents.h"
 749              		.file 11 "/home/pauba/ChibiOS-RT/os/kernel/include/chqueues.h"
 750              		.file 12 "/home/pauba/ChibiOS-RT/os/hal/platforms/STM32L1xx/stm32l1xx.h"
 751              		.file 13 "/home/pauba/ChibiOS-RT/os/hal/include/serial.h"
 752              		.file 14 "/home/pauba/ChibiOS-RT/os/hal/platforms/STM32/USARTv1/serial_lld.h"
 753              		.file 15 "/home/pauba/ChibiOS-RT/os/ports/common/ARMCMx/CMSIS/include/core_cm3.h"