ARM GAS  /home/pauba/tmp/ccCykAzR.s 			page 1


   1              		.syntax unified
   2              		.cpu cortex-m4
   3              		.fpu softvfp
   4              		.eabi_attribute 20, 1
   5              		.eabi_attribute 21, 1
   6              		.eabi_attribute 23, 3
   7              		.eabi_attribute 24, 1
   8              		.eabi_attribute 25, 1
   9              		.eabi_attribute 26, 1
  10              		.eabi_attribute 30, 6
  11              		.eabi_attribute 34, 1
  12              		.eabi_attribute 18, 4
  13              		.thumb
  14              		.file	"serial_lld.c"
  15              		.text
  16              	.Ltext0:
  17              		.cfi_sections	.debug_frame
  18              		.global	SD2
  19              		.section	.bss.SD2,"aw",%nobits
  20              		.align	2
  21              		.type	SD2, %object
  22              		.size	SD2, 120
  23              	SD2:
  24 0000 00000000 		.space	120
  24      00000000 
  24      00000000 
  24      00000000 
  24      00000000 
  25              		.section	.rodata.default_config,"a",%progbits
  26              		.align	2
  27              		.type	default_config, %object
  28              		.size	default_config, 12
  29              	default_config:
  30 0000 00960000 		.word	38400
  31 0004 0000     		.short	0
  32 0006 0040     		.short	16384
  33 0008 0000     		.short	0
  34 000a 0000     		.space	2
  35              		.section	.text.usart_init,"ax",%progbits
  36              		.align	2
  37              		.p2align 4,,15
  38              		.thumb
  39              		.thumb_func
  40              		.type	usart_init, %function
  41              	usart_init:
  42              	.LFB63:
  43              		.file 1 "/home/pauba/ChibiOS-RT/os/hal/platforms/STM32/USARTv1/serial_lld.c"
  44              		.loc 1 92 0
  45              		.cfi_startproc
  46              		@ args = 0, pretend = 0, frame = 16
  47              		@ frame_needed = 0, uses_anonymous_args = 0
  48              		@ link register save eliminated.
  49 0000 84B0     		sub	sp, sp, #16
  50              		.cfi_def_cfa_offset 16
  51 0002 0190     		str	r0, [sp, #4]
  52 0004 0091     		str	r1, [sp]
  53              		.loc 1 93 0
ARM GAS  /home/pauba/tmp/ccCykAzR.s 			page 2


  54 0006 019B     		ldr	r3, [sp, #4]
  55 0008 5B6F     		ldr	r3, [r3, #116]
  56 000a 0393     		str	r3, [sp, #12]
  57              		.loc 1 99 0
  58 000c 019B     		ldr	r3, [sp, #4]
  59 000e 5A6F     		ldr	r2, [r3, #116]
  60 0010 194B     		ldr	r3, .L4
  61 0012 9A42     		cmp	r2, r3
  62 0014 08D1     		bne	.L2
  63              		.loc 1 101 0
  64 0016 009B     		ldr	r3, [sp]
  65 0018 1B68     		ldr	r3, [r3]
  66 001a 184A     		ldr	r2, .L4+4
  67 001c B2FBF3F3 		udiv	r3, r2, r3
  68 0020 9AB2     		uxth	r2, r3
  69 0022 039B     		ldr	r3, [sp, #12]
  70 0024 1A81     		strh	r2, [r3, #8]	@ movhi
  71 0026 07E0     		b	.L3
  72              	.L2:
  73              		.loc 1 103 0
  74 0028 009B     		ldr	r3, [sp]
  75 002a 1B68     		ldr	r3, [r3]
  76 002c 134A     		ldr	r2, .L4+4
  77 002e B2FBF3F3 		udiv	r3, r2, r3
  78 0032 9AB2     		uxth	r2, r3
  79 0034 039B     		ldr	r3, [sp, #12]
  80 0036 1A81     		strh	r2, [r3, #8]	@ movhi
  81              	.L3:
  82              		.loc 1 106 0
  83 0038 009B     		ldr	r3, [sp]
  84 003a DB88     		ldrh	r3, [r3, #6]
  85 003c 43F04003 		orr	r3, r3, #64
  86 0040 9AB2     		uxth	r2, r3
  87 0042 039B     		ldr	r3, [sp, #12]
  88 0044 1A82     		strh	r2, [r3, #16]	@ movhi
  89              		.loc 1 107 0
  90 0046 009B     		ldr	r3, [sp]
  91 0048 1B89     		ldrh	r3, [r3, #8]
  92 004a 43F00103 		orr	r3, r3, #1
  93 004e 9AB2     		uxth	r2, r3
  94 0050 039B     		ldr	r3, [sp, #12]
  95 0052 9A82     		strh	r2, [r3, #20]	@ movhi
  96              		.loc 1 108 0
  97 0054 009B     		ldr	r3, [sp]
  98 0056 9B88     		ldrh	r3, [r3, #4]
  99 0058 43F40453 		orr	r3, r3, #8448
 100 005c 43F02C03 		orr	r3, r3, #44
 101 0060 9AB2     		uxth	r2, r3
 102 0062 039B     		ldr	r3, [sp, #12]
 103 0064 9A81     		strh	r2, [r3, #12]	@ movhi
 104              		.loc 1 111 0
 105 0066 039B     		ldr	r3, [sp, #12]
 106 0068 0022     		movs	r2, #0
 107 006a 1A80     		strh	r2, [r3]	@ movhi
 108              		.loc 1 112 0
 109 006c 039B     		ldr	r3, [sp, #12]
 110 006e 1B88     		ldrh	r3, [r3]	@ movhi
ARM GAS  /home/pauba/tmp/ccCykAzR.s 			page 3


 111              		.loc 1 113 0
 112 0070 039B     		ldr	r3, [sp, #12]
 113 0072 9B88     		ldrh	r3, [r3, #4]	@ movhi
 114              		.loc 1 114 0
 115 0074 04B0     		add	sp, sp, #16
 116              		@ sp needed
 117 0076 7047     		bx	lr
 118              	.L5:
 119              		.align	2
 120              	.L4:
 121 0078 00380140 		.word	1073821696
 122 007c 0048E801 		.word	32000000
 123              		.cfi_endproc
 124              	.LFE63:
 125              		.size	usart_init, .-usart_init
 126              		.section	.text.usart_deinit,"ax",%progbits
 127              		.align	2
 128              		.p2align 4,,15
 129              		.thumb
 130              		.thumb_func
 131              		.type	usart_deinit, %function
 132              	usart_deinit:
 133              	.LFB64:
 134              		.loc 1 122 0
 135              		.cfi_startproc
 136              		@ args = 0, pretend = 0, frame = 8
 137              		@ frame_needed = 0, uses_anonymous_args = 0
 138              		@ link register save eliminated.
 139 0000 82B0     		sub	sp, sp, #8
 140              		.cfi_def_cfa_offset 8
 141 0002 0190     		str	r0, [sp, #4]
 142              		.loc 1 124 0
 143 0004 019B     		ldr	r3, [sp, #4]
 144 0006 0022     		movs	r2, #0
 145 0008 9A81     		strh	r2, [r3, #12]	@ movhi
 146              		.loc 1 125 0
 147 000a 019B     		ldr	r3, [sp, #4]
 148 000c 0022     		movs	r2, #0
 149 000e 1A82     		strh	r2, [r3, #16]	@ movhi
 150              		.loc 1 126 0
 151 0010 019B     		ldr	r3, [sp, #4]
 152 0012 0022     		movs	r2, #0
 153 0014 9A82     		strh	r2, [r3, #20]	@ movhi
 154              		.loc 1 127 0
 155 0016 02B0     		add	sp, sp, #8
 156              		@ sp needed
 157 0018 7047     		bx	lr
 158              		.cfi_endproc
 159              	.LFE64:
 160              		.size	usart_deinit, .-usart_deinit
 161 001a 00BFAFF3 		.section	.text.set_error,"ax",%progbits
 161      0080
 162              		.align	2
 163              		.p2align 4,,15
 164              		.thumb
 165              		.thumb_func
 166              		.type	set_error, %function
ARM GAS  /home/pauba/tmp/ccCykAzR.s 			page 4


 167              	set_error:
 168              	.LFB65:
 169              		.loc 1 135 0
 170              		.cfi_startproc
 171              		@ args = 0, pretend = 0, frame = 16
 172              		@ frame_needed = 0, uses_anonymous_args = 0
 173 0000 00B5     		push	{lr}
 174              		.cfi_def_cfa_offset 4
 175              		.cfi_offset 14, -4
 176 0002 85B0     		sub	sp, sp, #20
 177              		.cfi_def_cfa_offset 24
 178 0004 0190     		str	r0, [sp, #4]
 179 0006 0B46     		mov	r3, r1
 180 0008 ADF80230 		strh	r3, [sp, #2]	@ movhi
 181              		.loc 1 136 0
 182 000c 0023     		movs	r3, #0
 183 000e 0393     		str	r3, [sp, #12]
 184              		.loc 1 138 0
 185 0010 BDF80230 		ldrh	r3, [sp, #2]
 186 0014 03F00803 		and	r3, r3, #8
 187 0018 002B     		cmp	r3, #0
 188 001a 03D0     		beq	.L8
 189              		.loc 1 139 0
 190 001c 039B     		ldr	r3, [sp, #12]
 191 001e 43F08003 		orr	r3, r3, #128
 192 0022 0393     		str	r3, [sp, #12]
 193              	.L8:
 194              		.loc 1 140 0
 195 0024 BDF80230 		ldrh	r3, [sp, #2]
 196 0028 03F00103 		and	r3, r3, #1
 197 002c 002B     		cmp	r3, #0
 198 002e 03D0     		beq	.L9
 199              		.loc 1 141 0
 200 0030 039B     		ldr	r3, [sp, #12]
 201 0032 43F02003 		orr	r3, r3, #32
 202 0036 0393     		str	r3, [sp, #12]
 203              	.L9:
 204              		.loc 1 142 0
 205 0038 BDF80230 		ldrh	r3, [sp, #2]
 206 003c 03F00203 		and	r3, r3, #2
 207 0040 002B     		cmp	r3, #0
 208 0042 03D0     		beq	.L10
 209              		.loc 1 143 0
 210 0044 039B     		ldr	r3, [sp, #12]
 211 0046 43F04003 		orr	r3, r3, #64
 212 004a 0393     		str	r3, [sp, #12]
 213              	.L10:
 214              		.loc 1 144 0
 215 004c BDF80230 		ldrh	r3, [sp, #2]
 216 0050 03F00403 		and	r3, r3, #4
 217 0054 002B     		cmp	r3, #0
 218 0056 03D0     		beq	.L11
 219              		.loc 1 145 0
 220 0058 039B     		ldr	r3, [sp, #12]
 221 005a 43F48073 		orr	r3, r3, #256
 222 005e 0393     		str	r3, [sp, #12]
 223              	.L11:
ARM GAS  /home/pauba/tmp/ccCykAzR.s 			page 5


 224              		.loc 1 146 0
 225 0060 019B     		ldr	r3, [sp, #4]
 226 0062 0433     		adds	r3, r3, #4
 227 0064 1846     		mov	r0, r3
 228 0066 0399     		ldr	r1, [sp, #12]
 229 0068 FFF7FEFF 		bl	chEvtBroadcastFlagsI
 230              		.loc 1 147 0
 231 006c 05B0     		add	sp, sp, #20
 232              		@ sp needed
 233 006e 5DF804FB 		ldr	pc, [sp], #4
 234              		.cfi_endproc
 235              	.LFE65:
 236              		.size	set_error, .-set_error
 237 0072 00BFAFF3 		.section	.text.serve_interrupt,"ax",%progbits
 237      0080AFF3 
 237      0080AFF3 
 237      0080
 238              		.align	2
 239              		.p2align 4,,15
 240              		.thumb
 241              		.thumb_func
 242              		.type	serve_interrupt, %function
 243              	serve_interrupt:
 244              	.LFB66:
 245              		.loc 1 154 0
 246              		.cfi_startproc
 247              		@ args = 0, pretend = 0, frame = 24
 248              		@ frame_needed = 0, uses_anonymous_args = 0
 249 0000 00B5     		push	{lr}
 250              		.cfi_def_cfa_offset 4
 251              		.cfi_offset 14, -4
 252 0002 87B0     		sub	sp, sp, #28
 253              		.cfi_def_cfa_offset 32
 254 0004 0190     		str	r0, [sp, #4]
 255              		.loc 1 155 0
 256 0006 019B     		ldr	r3, [sp, #4]
 257 0008 5B6F     		ldr	r3, [r3, #116]
 258 000a 0493     		str	r3, [sp, #16]
 259              		.loc 1 156 0
 260 000c 049B     		ldr	r3, [sp, #16]
 261 000e 9B89     		ldrh	r3, [r3, #12]	@ movhi
 262 0010 ADF80E30 		strh	r3, [sp, #14]	@ movhi
 263              		.loc 1 157 0
 264 0014 049B     		ldr	r3, [sp, #16]
 265 0016 1B88     		ldrh	r3, [r3]	@ movhi
 266 0018 ADF81630 		strh	r3, [sp, #22]	@ movhi
 267              		.loc 1 160 0
 268 001c BDF81630 		ldrh	r3, [sp, #22]
 269 0020 03F48073 		and	r3, r3, #256
 270 0024 002B     		cmp	r3, #0
 271 0026 14D0     		beq	.L13
 272              	.LBB2:
 273              		.loc 1 161 0
 274 0028 2023     		movs	r3, #32
 275              	@ 161 "/home/pauba/ChibiOS-RT/os/hal/platforms/STM32/USARTv1/serial_lld.c" 1
 276 002a 83F31188 		msr     BASEPRI, r3
 277              	@ 0 "" 2
ARM GAS  /home/pauba/tmp/ccCykAzR.s 			page 6


 278              		.thumb
 279              	.LBE2:
 280 002e FFF7FEFF 		bl	dbg_check_lock_from_isr
 281              		.loc 1 162 0
 282 0032 019B     		ldr	r3, [sp, #4]
 283 0034 0433     		adds	r3, r3, #4
 284 0036 1846     		mov	r0, r3
 285 0038 4FF40071 		mov	r1, #512
 286 003c FFF7FEFF 		bl	chEvtBroadcastFlagsI
 287              		.loc 1 163 0
 288 0040 FFF7FEFF 		bl	dbg_check_unlock_from_isr
 289              	.LBB3:
 290 0044 0023     		movs	r3, #0
 291              	@ 163 "/home/pauba/ChibiOS-RT/os/hal/platforms/STM32/USARTv1/serial_lld.c" 1
 292 0046 83F31188 		msr     BASEPRI, r3
 293              	@ 0 "" 2
 294              		.thumb
 295              	.LBE3:
 296              		.loc 1 164 0
 297 004a 049B     		ldr	r3, [sp, #16]
 298 004c 4FF6FF62 		movw	r2, #65279
 299 0050 1A80     		strh	r2, [r3]	@ movhi
 300              	.L13:
 301              	.LBB4:
 302              		.loc 1 168 0
 303 0052 2023     		movs	r3, #32
 304              	@ 168 "/home/pauba/ChibiOS-RT/os/hal/platforms/STM32/USARTv1/serial_lld.c" 1
 305 0054 83F31188 		msr     BASEPRI, r3
 306              	@ 0 "" 2
 307              		.thumb
 308              	.LBE4:
 309 0058 FFF7FEFF 		bl	dbg_check_lock_from_isr
 310              		.loc 1 169 0
 311 005c 17E0     		b	.L14
 312              	.L16:
 313              		.loc 1 171 0
 314 005e BDF81630 		ldrh	r3, [sp, #22]
 315 0062 03F00F03 		and	r3, r3, #15
 316 0066 002B     		cmp	r3, #0
 317 0068 05D0     		beq	.L15
 318              		.loc 1 172 0
 319 006a BDF81630 		ldrh	r3, [sp, #22]
 320 006e 0198     		ldr	r0, [sp, #4]
 321 0070 1946     		mov	r1, r3
 322 0072 FFF7FEFF 		bl	set_error
 323              	.L15:
 324              		.loc 1 173 0
 325 0076 049B     		ldr	r3, [sp, #16]
 326 0078 9B88     		ldrh	r3, [r3, #4]	@ movhi
 327 007a 9BB2     		uxth	r3, r3
 328 007c DBB2     		uxtb	r3, r3
 329 007e 0198     		ldr	r0, [sp, #4]
 330 0080 1946     		mov	r1, r3
 331 0082 FFF7FEFF 		bl	sdIncomingDataI
 332              		.loc 1 174 0
 333 0086 049B     		ldr	r3, [sp, #16]
 334 0088 1B88     		ldrh	r3, [r3]	@ movhi
ARM GAS  /home/pauba/tmp/ccCykAzR.s 			page 7


 335 008a ADF81630 		strh	r3, [sp, #22]	@ movhi
 336              	.L14:
 337              		.loc 1 169 0 discriminator 1
 338 008e BDF81630 		ldrh	r3, [sp, #22]
 339 0092 03F02003 		and	r3, r3, #32
 340 0096 002B     		cmp	r3, #0
 341 0098 E1D1     		bne	.L16
 342              		.loc 1 176 0
 343 009a FFF7FEFF 		bl	dbg_check_unlock_from_isr
 344              	.LBB5:
 345 009e 0023     		movs	r3, #0
 346              	@ 176 "/home/pauba/ChibiOS-RT/os/hal/platforms/STM32/USARTv1/serial_lld.c" 1
 347 00a0 83F31188 		msr     BASEPRI, r3
 348              	@ 0 "" 2
 349              		.thumb
 350              	.LBE5:
 351              		.loc 1 179 0
 352 00a4 BDF80E30 		ldrh	r3, [sp, #14]
 353 00a8 03F08003 		and	r3, r3, #128
 354 00ac 002B     		cmp	r3, #0
 355 00ae 2ED0     		beq	.L17
 356              		.loc 1 179 0 is_stmt 0 discriminator 1
 357 00b0 BDF81630 		ldrh	r3, [sp, #22]
 358 00b4 03F08003 		and	r3, r3, #128
 359 00b8 002B     		cmp	r3, #0
 360 00ba 28D0     		beq	.L17
 361              	.LBB6:
 362              	.LBB7:
 363              		.loc 1 181 0 is_stmt 1
 364 00bc 2023     		movs	r3, #32
 365              	@ 181 "/home/pauba/ChibiOS-RT/os/hal/platforms/STM32/USARTv1/serial_lld.c" 1
 366 00be 83F31188 		msr     BASEPRI, r3
 367              	@ 0 "" 2
 368              		.thumb
 369              	.LBE7:
 370 00c2 FFF7FEFF 		bl	dbg_check_lock_from_isr
 371              		.loc 1 182 0
 372 00c6 019B     		ldr	r3, [sp, #4]
 373 00c8 3033     		adds	r3, r3, #48
 374 00ca 1846     		mov	r0, r3
 375 00cc FFF7FEFF 		bl	chOQGetI
 376 00d0 0290     		str	r0, [sp, #8]
 377              		.loc 1 183 0
 378 00d2 029B     		ldr	r3, [sp, #8]
 379 00d4 002B     		cmp	r3, #0
 380 00d6 11DA     		bge	.L18
 381              		.loc 1 184 0
 382 00d8 019B     		ldr	r3, [sp, #4]
 383 00da 0433     		adds	r3, r3, #4
 384 00dc 1846     		mov	r0, r3
 385 00de 0821     		movs	r1, #8
 386 00e0 FFF7FEFF 		bl	chEvtBroadcastFlagsI
 387              		.loc 1 185 0
 388 00e4 BDF80E30 		ldrh	r3, [sp, #14]
 389 00e8 23F0C003 		bic	r3, r3, #192
 390 00ec 9BB2     		uxth	r3, r3
 391 00ee 43F04003 		orr	r3, r3, #64
ARM GAS  /home/pauba/tmp/ccCykAzR.s 			page 8


 392 00f2 9BB2     		uxth	r3, r3
 393 00f4 9AB2     		uxth	r2, r3
 394 00f6 049B     		ldr	r3, [sp, #16]
 395 00f8 9A81     		strh	r2, [r3, #12]	@ movhi
 396 00fa 03E0     		b	.L19
 397              	.L18:
 398              		.loc 1 188 0
 399 00fc 029B     		ldr	r3, [sp, #8]
 400 00fe 9AB2     		uxth	r2, r3
 401 0100 049B     		ldr	r3, [sp, #16]
 402 0102 9A80     		strh	r2, [r3, #4]	@ movhi
 403              	.L19:
 404              		.loc 1 189 0
 405 0104 FFF7FEFF 		bl	dbg_check_unlock_from_isr
 406              	.LBB8:
 407 0108 0023     		movs	r3, #0
 408              	@ 189 "/home/pauba/ChibiOS-RT/os/hal/platforms/STM32/USARTv1/serial_lld.c" 1
 409 010a 83F31188 		msr     BASEPRI, r3
 410              	@ 0 "" 2
 411              		.thumb
 412              	.L17:
 413              	.LBE8:
 414              	.LBE6:
 415              		.loc 1 193 0
 416 010e BDF81630 		ldrh	r3, [sp, #22]
 417 0112 03F04003 		and	r3, r3, #64
 418 0116 002B     		cmp	r3, #0
 419 0118 2CD0     		beq	.L12
 420              	.LBB9:
 421              		.loc 1 194 0
 422 011a 2023     		movs	r3, #32
 423              	@ 194 "/home/pauba/ChibiOS-RT/os/hal/platforms/STM32/USARTv1/serial_lld.c" 1
 424 011c 83F31188 		msr     BASEPRI, r3
 425              	@ 0 "" 2
 426              		.thumb
 427              	.LBE9:
 428 0120 FFF7FEFF 		bl	dbg_check_lock_from_isr
 429              		.loc 1 195 0
 430 0124 019B     		ldr	r3, [sp, #4]
 431 0126 5A6C     		ldr	r2, [r3, #68]
 432 0128 019B     		ldr	r3, [sp, #4]
 433 012a 9B6C     		ldr	r3, [r3, #72]
 434 012c 9A42     		cmp	r2, r3
 435 012e 05D1     		bne	.L21
 436              		.loc 1 195 0 is_stmt 0 discriminator 1
 437 0130 019B     		ldr	r3, [sp, #4]
 438 0132 9B6B     		ldr	r3, [r3, #56]
 439 0134 002B     		cmp	r3, #0
 440 0136 01D0     		beq	.L21
 441              		.loc 1 195 0 discriminator 3
 442 0138 0123     		movs	r3, #1
 443 013a 00E0     		b	.L22
 444              	.L21:
 445              		.loc 1 195 0 discriminator 2
 446 013c 0023     		movs	r3, #0
 447              	.L22:
 448              		.loc 1 195 0 discriminator 4
ARM GAS  /home/pauba/tmp/ccCykAzR.s 			page 9


 449 013e 03F00103 		and	r3, r3, #1
 450 0142 DBB2     		uxtb	r3, r3
 451 0144 002B     		cmp	r3, #0
 452 0146 05D0     		beq	.L23
 453              		.loc 1 196 0 is_stmt 1
 454 0148 019B     		ldr	r3, [sp, #4]
 455 014a 0433     		adds	r3, r3, #4
 456 014c 1846     		mov	r0, r3
 457 014e 1021     		movs	r1, #16
 458 0150 FFF7FEFF 		bl	chEvtBroadcastFlagsI
 459              	.L23:
 460              		.loc 1 197 0
 461 0154 BDF80E30 		ldrh	r3, [sp, #14]	@ movhi
 462 0158 23F04003 		bic	r3, r3, #64
 463 015c 9AB2     		uxth	r2, r3
 464 015e 049B     		ldr	r3, [sp, #16]
 465 0160 9A81     		strh	r2, [r3, #12]	@ movhi
 466              		.loc 1 198 0
 467 0162 049B     		ldr	r3, [sp, #16]
 468 0164 4FF6BF72 		movw	r2, #65471
 469 0168 1A80     		strh	r2, [r3]	@ movhi
 470              		.loc 1 199 0
 471 016a FFF7FEFF 		bl	dbg_check_unlock_from_isr
 472              	.LBB10:
 473 016e 0023     		movs	r3, #0
 474              	@ 199 "/home/pauba/ChibiOS-RT/os/hal/platforms/STM32/USARTv1/serial_lld.c" 1
 475 0170 83F31188 		msr     BASEPRI, r3
 476              	@ 0 "" 2
 477              		.thumb
 478              	.L12:
 479              	.LBE10:
 480              		.loc 1 201 0
 481 0174 07B0     		add	sp, sp, #28
 482              		@ sp needed
 483 0176 5DF804FB 		ldr	pc, [sp], #4
 484              		.cfi_endproc
 485              	.LFE66:
 486              		.size	serve_interrupt, .-serve_interrupt
 487 017a 00BFAFF3 		.section	.text.notify2,"ax",%progbits
 487      0080
 488              		.align	2
 489              		.p2align 4,,15
 490              		.thumb
 491              		.thumb_func
 492              		.type	notify2, %function
 493              	notify2:
 494              	.LFB67:
 495              		.loc 1 212 0
 496              		.cfi_startproc
 497              		@ args = 0, pretend = 0, frame = 8
 498              		@ frame_needed = 0, uses_anonymous_args = 0
 499              		@ link register save eliminated.
 500 0000 82B0     		sub	sp, sp, #8
 501              		.cfi_def_cfa_offset 8
 502 0002 0190     		str	r0, [sp, #4]
 503              		.loc 1 215 0
 504 0004 044B     		ldr	r3, .L25
ARM GAS  /home/pauba/tmp/ccCykAzR.s 			page 10


 505 0006 044A     		ldr	r2, .L25
 506 0008 9289     		ldrh	r2, [r2, #12]	@ movhi
 507 000a 92B2     		uxth	r2, r2
 508 000c 42F08002 		orr	r2, r2, #128
 509 0010 92B2     		uxth	r2, r2
 510 0012 9A81     		strh	r2, [r3, #12]	@ movhi
 511              		.loc 1 216 0
 512 0014 02B0     		add	sp, sp, #8
 513              		@ sp needed
 514 0016 7047     		bx	lr
 515              	.L26:
 516              		.align	2
 517              	.L25:
 518 0018 00440040 		.word	1073759232
 519              		.cfi_endproc
 520              	.LFE67:
 521              		.size	notify2, .-notify2
 522 001c AFF30080 		.section	.text.VectorD8,"ax",%progbits
 523              		.align	2
 524              		.p2align 4,,15
 525              		.global	VectorD8
 526              		.thumb
 527              		.thumb_func
 528              		.type	VectorD8, %function
 529              	VectorD8:
 530              	.LFB68:
 531              		.loc 1 283 0
 532              		.cfi_startproc
 533              		@ args = 0, pretend = 0, frame = 0
 534              		@ frame_needed = 0, uses_anonymous_args = 0
 535 0000 08B5     		push	{r3, lr}
 536              		.cfi_def_cfa_offset 8
 537              		.cfi_offset 3, -8
 538              		.cfi_offset 14, -4
 539              		.loc 1 285 0
 540 0002 FFF7FEFF 		bl	dbg_check_enter_isr
 541              		.loc 1 287 0
 542 0006 0448     		ldr	r0, .L28
 543 0008 FFF7FEFF 		bl	serve_interrupt
 544              		.loc 1 289 0
 545 000c FFF7FEFF 		bl	dbg_check_leave_isr
 546 0010 FFF7FEFF 		bl	_port_irq_epilogue
 547              		.loc 1 290 0
 548 0014 08BD     		pop	{r3, pc}
 549              	.L29:
 550 0016 00BF     		.align	2
 551              	.L28:
 552 0018 00000000 		.word	SD2
 553              		.cfi_endproc
 554              	.LFE68:
 555              		.size	VectorD8, .-VectorD8
 556 001c AFF30080 		.section	.text.sd_lld_init,"ax",%progbits
 557              		.align	2
 558              		.p2align 4,,15
 559              		.global	sd_lld_init
 560              		.thumb
 561              		.thumb_func
ARM GAS  /home/pauba/tmp/ccCykAzR.s 			page 11


 562              		.type	sd_lld_init, %function
 563              	sd_lld_init:
 564              	.LFB69:
 565              		.loc 1 378 0
 566              		.cfi_startproc
 567              		@ args = 0, pretend = 0, frame = 0
 568              		@ frame_needed = 0, uses_anonymous_args = 0
 569 0000 08B5     		push	{r3, lr}
 570              		.cfi_def_cfa_offset 8
 571              		.cfi_offset 3, -8
 572              		.cfi_offset 14, -4
 573              		.loc 1 386 0
 574 0002 0448     		ldr	r0, .L31
 575 0004 0021     		movs	r1, #0
 576 0006 044A     		ldr	r2, .L31+4
 577 0008 FFF7FEFF 		bl	sdObjectInit
 578              		.loc 1 387 0
 579 000c 014B     		ldr	r3, .L31
 580 000e 034A     		ldr	r2, .L31+8
 581 0010 5A67     		str	r2, [r3, #116]
 582              		.loc 1 409 0
 583 0012 08BD     		pop	{r3, pc}
 584              	.L32:
 585              		.align	2
 586              	.L31:
 587 0014 00000000 		.word	SD2
 588 0018 00000000 		.word	notify2
 589 001c 00440040 		.word	1073759232
 590              		.cfi_endproc
 591              	.LFE69:
 592              		.size	sd_lld_init, .-sd_lld_init
 593              		.section	.text.sd_lld_start,"ax",%progbits
 594              		.align	2
 595              		.p2align 4,,15
 596              		.global	sd_lld_start
 597              		.thumb
 598              		.thumb_func
 599              		.type	sd_lld_start, %function
 600              	sd_lld_start:
 601              	.LFB70:
 602              		.loc 1 421 0
 603              		.cfi_startproc
 604              		@ args = 0, pretend = 0, frame = 8
 605              		@ frame_needed = 0, uses_anonymous_args = 0
 606 0000 00B5     		push	{lr}
 607              		.cfi_def_cfa_offset 4
 608              		.cfi_offset 14, -4
 609 0002 83B0     		sub	sp, sp, #12
 610              		.cfi_def_cfa_offset 16
 611 0004 0190     		str	r0, [sp, #4]
 612 0006 0091     		str	r1, [sp]
 613              		.loc 1 423 0
 614 0008 009B     		ldr	r3, [sp]
 615 000a 002B     		cmp	r3, #0
 616 000c 01D1     		bne	.L34
 617              		.loc 1 424 0
 618 000e 0D4B     		ldr	r3, .L36
ARM GAS  /home/pauba/tmp/ccCykAzR.s 			page 12


 619 0010 0093     		str	r3, [sp]
 620              	.L34:
 621              		.loc 1 426 0
 622 0012 019B     		ldr	r3, [sp, #4]
 623 0014 1B7A     		ldrb	r3, [r3, #8]	@ zero_extendqisi2
 624 0016 012B     		cmp	r3, #1
 625 0018 0DD1     		bne	.L35
 626              		.loc 1 435 0
 627 001a 019A     		ldr	r2, [sp, #4]
 628 001c 0A4B     		ldr	r3, .L36+4
 629 001e 9A42     		cmp	r2, r3
 630 0020 09D1     		bne	.L35
 631              		.loc 1 436 0
 632 0022 0A4B     		ldr	r3, .L36+8
 633 0024 094A     		ldr	r2, .L36+8
 634 0026 526A     		ldr	r2, [r2, #36]
 635 0028 42F40032 		orr	r2, r2, #131072
 636 002c 5A62     		str	r2, [r3, #36]
 637              		.loc 1 437 0
 638 002e 2620     		movs	r0, #38
 639 0030 C021     		movs	r1, #192
 640 0032 FFF7FEFF 		bl	nvicEnableVector
 641              	.L35:
 642              		.loc 1 470 0
 643 0036 0198     		ldr	r0, [sp, #4]
 644 0038 0099     		ldr	r1, [sp]
 645 003a FFF7FEFF 		bl	usart_init
 646              		.loc 1 471 0
 647 003e 03B0     		add	sp, sp, #12
 648              		@ sp needed
 649 0040 5DF804FB 		ldr	pc, [sp], #4
 650              	.L37:
 651              		.align	2
 652              	.L36:
 653 0044 00000000 		.word	default_config
 654 0048 00000000 		.word	SD2
 655 004c 00380240 		.word	1073887232
 656              		.cfi_endproc
 657              	.LFE70:
 658              		.size	sd_lld_start, .-sd_lld_start
 659              		.section	.text.sd_lld_stop,"ax",%progbits
 660              		.align	2
 661              		.p2align 4,,15
 662              		.global	sd_lld_stop
 663              		.thumb
 664              		.thumb_func
 665              		.type	sd_lld_stop, %function
 666              	sd_lld_stop:
 667              	.LFB71:
 668              		.loc 1 482 0
 669              		.cfi_startproc
 670              		@ args = 0, pretend = 0, frame = 8
 671              		@ frame_needed = 0, uses_anonymous_args = 0
 672 0000 00B5     		push	{lr}
 673              		.cfi_def_cfa_offset 4
 674              		.cfi_offset 14, -4
 675 0002 83B0     		sub	sp, sp, #12
ARM GAS  /home/pauba/tmp/ccCykAzR.s 			page 13


 676              		.cfi_def_cfa_offset 16
 677 0004 0190     		str	r0, [sp, #4]
 678              		.loc 1 484 0
 679 0006 019B     		ldr	r3, [sp, #4]
 680 0008 1B7A     		ldrb	r3, [r3, #8]	@ zero_extendqisi2
 681 000a 022B     		cmp	r3, #2
 682 000c 12D1     		bne	.L38
 683              		.loc 1 485 0
 684 000e 019B     		ldr	r3, [sp, #4]
 685 0010 5B6F     		ldr	r3, [r3, #116]
 686 0012 1846     		mov	r0, r3
 687 0014 FFF7FEFF 		bl	usart_deinit
 688              		.loc 1 494 0
 689 0018 019A     		ldr	r2, [sp, #4]
 690 001a 084B     		ldr	r3, .L40
 691 001c 9A42     		cmp	r2, r3
 692 001e 09D1     		bne	.L38
 693              		.loc 1 495 0
 694 0020 074B     		ldr	r3, .L40+4
 695 0022 074A     		ldr	r2, .L40+4
 696 0024 526A     		ldr	r2, [r2, #36]
 697 0026 22F40032 		bic	r2, r2, #131072
 698 002a 5A62     		str	r2, [r3, #36]
 699              		.loc 1 496 0
 700 002c 2620     		movs	r0, #38
 701 002e FFF7FEFF 		bl	nvicDisableVector
 702              		.loc 1 497 0
 703 0032 00BF     		nop
 704              	.L38:
 705              		.loc 1 529 0
 706 0034 03B0     		add	sp, sp, #12
 707              		@ sp needed
 708 0036 5DF804FB 		ldr	pc, [sp], #4
 709              	.L41:
 710 003a 00BF     		.align	2
 711              	.L40:
 712 003c 00000000 		.word	SD2
 713 0040 00380240 		.word	1073887232
 714              		.cfi_endproc
 715              	.LFE71:
 716              		.size	sd_lld_stop, .-sd_lld_stop
 717 0044 AFF30080 		.text
 717      AFF30080 
 717      AFF30080 
 718              	.Letext0:
 719              		.file 2 "/opt/gcc-arm-none-eabi-4_8-2014q1/lib/gcc/arm-none-eabi/4.8.3/include/stddef.h"
 720              		.file 3 "/opt/gcc-arm-none-eabi-4_8-2014q1/arm-none-eabi/include/machine/_default_types.h"
 721              		.file 4 "/opt/gcc-arm-none-eabi-4_8-2014q1/arm-none-eabi/include/stdint.h"
 722              		.file 5 "/home/pauba/ChibiOS-RT/os/ports/GCC/ARMCMx/chtypes.h"
 723              		.file 6 "/home/pauba/ChibiOS-RT/os/kernel/include/chlists.h"
 724              		.file 7 "/home/pauba/ChibiOS-RT/os/kernel/include/chthreads.h"
 725              		.file 8 "/home/pauba/ChibiOS-RT/os/ports/GCC/ARMCMx/chcore_v7m.h"
 726              		.file 9 "/home/pauba/ChibiOS-RT/os/kernel/include/chmtx.h"
 727              		.file 10 "/home/pauba/ChibiOS-RT/os/kernel/include/chevents.h"
 728              		.file 11 "/home/pauba/ChibiOS-RT/os/kernel/include/chqueues.h"
 729              		.file 12 "/home/pauba/ChibiOS-RT/os/hal/platforms/STM32L1xx/stm32l1xx.h"
 730              		.file 13 "/home/pauba/ChibiOS-RT/os/hal/include/serial.h"
ARM GAS  /home/pauba/tmp/ccCykAzR.s 			page 14


 731              		.file 14 "/home/pauba/ChibiOS-RT/os/hal/platforms/STM32/USARTv1/serial_lld.h"
 732              		.file 15 "/home/pauba/ChibiOS-RT/os/ports/common/ARMCMx/CMSIS/include/core_cm3.h"
 733              		.section	.debug_info,"",%progbits
 734              	.Ldebug_info0:
 735 0000 410D0000 		.4byte	0xd41
 736 0004 0400     		.2byte	0x4
 737 0006 00000000 		.4byte	.Ldebug_abbrev0
 738 000a 04       		.byte	0x4
 739 000b 01       		.uleb128 0x1
 740 000c C5050000 		.4byte	.LASF192
 741 0010 01       		.byte	0x1
 742 0011 E5070000 		.4byte	.LASF193
 743 0015 00000000 		.4byte	.Ldebug_ranges0+0
 744 0019 00000000 		.4byte	0
 745 001d 00000000 		.4byte	.Ldebug_line0
 746 0021 02       		.uleb128 0x2
 747 0022 04       		.byte	0x4
 748 0023 05       		.byte	0x5
 749 0024 696E7400 		.ascii	"int\000"
 750 0028 03       		.uleb128 0x3
 751 0029 14000000 		.4byte	.LASF2
 752 002d 02       		.byte	0x2
 753 002e D4       		.byte	0xd4
 754 002f 33000000 		.4byte	0x33
 755 0033 04       		.uleb128 0x4
 756 0034 04       		.byte	0x4
 757 0035 07       		.byte	0x7
 758 0036 7C010000 		.4byte	.LASF0
 759 003a 04       		.uleb128 0x4
 760 003b 01       		.byte	0x1
 761 003c 06       		.byte	0x6
 762 003d FC000000 		.4byte	.LASF1
 763 0041 03       		.uleb128 0x3
 764 0042 51000000 		.4byte	.LASF3
 765 0046 03       		.byte	0x3
 766 0047 1C       		.byte	0x1c
 767 0048 4C000000 		.4byte	0x4c
 768 004c 04       		.uleb128 0x4
 769 004d 01       		.byte	0x1
 770 004e 08       		.byte	0x8
 771 004f 9A040000 		.4byte	.LASF4
 772 0053 04       		.uleb128 0x4
 773 0054 02       		.byte	0x2
 774 0055 05       		.byte	0x5
 775 0056 DF040000 		.4byte	.LASF5
 776 005a 03       		.uleb128 0x3
 777 005b D6060000 		.4byte	.LASF6
 778 005f 03       		.byte	0x3
 779 0060 26       		.byte	0x26
 780 0061 65000000 		.4byte	0x65
 781 0065 04       		.uleb128 0x4
 782 0066 02       		.byte	0x2
 783 0067 07       		.byte	0x7
 784 0068 92020000 		.4byte	.LASF7
 785 006c 03       		.uleb128 0x3
 786 006d 10070000 		.4byte	.LASF8
 787 0071 03       		.byte	0x3
ARM GAS  /home/pauba/tmp/ccCykAzR.s 			page 15


 788 0072 37       		.byte	0x37
 789 0073 77000000 		.4byte	0x77
 790 0077 04       		.uleb128 0x4
 791 0078 04       		.byte	0x4
 792 0079 05       		.byte	0x5
 793 007a 57010000 		.4byte	.LASF9
 794 007e 03       		.uleb128 0x3
 795 007f CD010000 		.4byte	.LASF10
 796 0083 03       		.byte	0x3
 797 0084 38       		.byte	0x38
 798 0085 89000000 		.4byte	0x89
 799 0089 04       		.uleb128 0x4
 800 008a 04       		.byte	0x4
 801 008b 07       		.byte	0x7
 802 008c 9B060000 		.4byte	.LASF11
 803 0090 04       		.uleb128 0x4
 804 0091 08       		.byte	0x8
 805 0092 05       		.byte	0x5
 806 0093 EE000000 		.4byte	.LASF12
 807 0097 03       		.uleb128 0x3
 808 0098 0B040000 		.4byte	.LASF13
 809 009c 03       		.byte	0x3
 810 009d 4E       		.byte	0x4e
 811 009e A2000000 		.4byte	0xa2
 812 00a2 04       		.uleb128 0x4
 813 00a3 08       		.byte	0x8
 814 00a4 07       		.byte	0x7
 815 00a5 7D000000 		.4byte	.LASF14
 816 00a9 03       		.uleb128 0x3
 817 00aa 28080000 		.4byte	.LASF15
 818 00ae 04       		.byte	0x4
 819 00af 2A       		.byte	0x2a
 820 00b0 41000000 		.4byte	0x41
 821 00b4 03       		.uleb128 0x3
 822 00b5 20020000 		.4byte	.LASF16
 823 00b9 04       		.byte	0x4
 824 00ba 36       		.byte	0x36
 825 00bb 5A000000 		.4byte	0x5a
 826 00bf 03       		.uleb128 0x3
 827 00c0 92040000 		.4byte	.LASF17
 828 00c4 04       		.byte	0x4
 829 00c5 41       		.byte	0x41
 830 00c6 6C000000 		.4byte	0x6c
 831 00ca 03       		.uleb128 0x3
 832 00cb 8B050000 		.4byte	.LASF18
 833 00cf 04       		.byte	0x4
 834 00d0 42       		.byte	0x42
 835 00d1 7E000000 		.4byte	0x7e
 836 00d5 03       		.uleb128 0x3
 837 00d6 2F000000 		.4byte	.LASF19
 838 00da 04       		.byte	0x4
 839 00db 4E       		.byte	0x4e
 840 00dc 97000000 		.4byte	0x97
 841 00e0 03       		.uleb128 0x3
 842 00e1 1D010000 		.4byte	.LASF20
 843 00e5 05       		.byte	0x5
 844 00e6 2B       		.byte	0x2b
ARM GAS  /home/pauba/tmp/ccCykAzR.s 			page 16


 845 00e7 EB000000 		.4byte	0xeb
 846 00eb 04       		.uleb128 0x4
 847 00ec 01       		.byte	0x1
 848 00ed 02       		.byte	0x2
 849 00ee 8C040000 		.4byte	.LASF21
 850 00f2 03       		.uleb128 0x3
 851 00f3 EE020000 		.4byte	.LASF22
 852 00f7 05       		.byte	0x5
 853 00f8 2C       		.byte	0x2c
 854 00f9 A9000000 		.4byte	0xa9
 855 00fd 03       		.uleb128 0x3
 856 00fe 73010000 		.4byte	.LASF23
 857 0102 05       		.byte	0x5
 858 0103 2D       		.byte	0x2d
 859 0104 A9000000 		.4byte	0xa9
 860 0108 03       		.uleb128 0x3
 861 0109 31040000 		.4byte	.LASF24
 862 010d 05       		.byte	0x5
 863 010e 2E       		.byte	0x2e
 864 010f A9000000 		.4byte	0xa9
 865 0113 03       		.uleb128 0x3
 866 0114 2C010000 		.4byte	.LASF25
 867 0118 05       		.byte	0x5
 868 0119 2F       		.byte	0x2f
 869 011a A9000000 		.4byte	0xa9
 870 011e 03       		.uleb128 0x3
 871 011f 7C040000 		.4byte	.LASF26
 872 0123 05       		.byte	0x5
 873 0124 30       		.byte	0x30
 874 0125 CA000000 		.4byte	0xca
 875 0129 03       		.uleb128 0x3
 876 012a B3020000 		.4byte	.LASF27
 877 012e 05       		.byte	0x5
 878 012f 31       		.byte	0x31
 879 0130 BF000000 		.4byte	0xbf
 880 0134 03       		.uleb128 0x3
 881 0135 0C030000 		.4byte	.LASF28
 882 0139 05       		.byte	0x5
 883 013a 33       		.byte	0x33
 884 013b CA000000 		.4byte	0xca
 885 013f 03       		.uleb128 0x3
 886 0140 94000000 		.4byte	.LASF29
 887 0144 05       		.byte	0x5
 888 0145 34       		.byte	0x34
 889 0146 CA000000 		.4byte	0xca
 890 014a 03       		.uleb128 0x3
 891 014b F2060000 		.4byte	.LASF30
 892 014f 05       		.byte	0x5
 893 0150 35       		.byte	0x35
 894 0151 CA000000 		.4byte	0xca
 895 0155 03       		.uleb128 0x3
 896 0156 4A050000 		.4byte	.LASF31
 897 015a 06       		.byte	0x6
 898 015b 2A       		.byte	0x2a
 899 015c 60010000 		.4byte	0x160
 900 0160 05       		.uleb128 0x5
 901 0161 4A050000 		.4byte	.LASF31
ARM GAS  /home/pauba/tmp/ccCykAzR.s 			page 17


 902 0165 4C       		.byte	0x4c
 903 0166 07       		.byte	0x7
 904 0167 5E       		.byte	0x5e
 905 0168 69020000 		.4byte	0x269
 906 016c 06       		.uleb128 0x6
 907 016d A4030000 		.4byte	.LASF32
 908 0171 07       		.byte	0x7
 909 0172 5F       		.byte	0x5f
 910 0173 8A020000 		.4byte	0x28a
 911 0177 00       		.byte	0
 912 0178 06       		.uleb128 0x6
 913 0179 6B040000 		.4byte	.LASF33
 914 017d 07       		.byte	0x7
 915 017e 61       		.byte	0x61
 916 017f 8A020000 		.4byte	0x28a
 917 0183 04       		.byte	0x4
 918 0184 06       		.uleb128 0x6
 919 0185 D7000000 		.4byte	.LASF34
 920 0189 07       		.byte	0x7
 921 018a 63       		.byte	0x63
 922 018b 1E010000 		.4byte	0x11e
 923 018f 08       		.byte	0x8
 924 0190 06       		.uleb128 0x6
 925 0191 CC080000 		.4byte	.LASF35
 926 0195 07       		.byte	0x7
 927 0196 64       		.byte	0x64
 928 0197 4F030000 		.4byte	0x34f
 929 019b 0C       		.byte	0xc
 930 019c 06       		.uleb128 0x6
 931 019d AC010000 		.4byte	.LASF36
 932 01a1 07       		.byte	0x7
 933 01a2 66       		.byte	0x66
 934 01a3 8A020000 		.4byte	0x28a
 935 01a7 10       		.byte	0x10
 936 01a8 06       		.uleb128 0x6
 937 01a9 FD040000 		.4byte	.LASF37
 938 01ad 07       		.byte	0x7
 939 01ae 67       		.byte	0x67
 940 01af 8A020000 		.4byte	0x28a
 941 01b3 14       		.byte	0x14
 942 01b4 06       		.uleb128 0x6
 943 01b5 38070000 		.4byte	.LASF38
 944 01b9 07       		.byte	0x7
 945 01ba 6E       		.byte	0x6e
 946 01bb 6A040000 		.4byte	0x46a
 947 01bf 18       		.byte	0x18
 948 01c0 06       		.uleb128 0x6
 949 01c1 1A070000 		.4byte	.LASF39
 950 01c5 07       		.byte	0x7
 951 01c6 74       		.byte	0x74
 952 01c7 7C040000 		.4byte	0x47c
 953 01cb 1C       		.byte	0x1c
 954 01cc 06       		.uleb128 0x6
 955 01cd 0D010000 		.4byte	.LASF40
 956 01d1 07       		.byte	0x7
 957 01d2 79       		.byte	0x79
 958 01d3 FD000000 		.4byte	0xfd
ARM GAS  /home/pauba/tmp/ccCykAzR.s 			page 18


 959 01d7 20       		.byte	0x20
 960 01d8 06       		.uleb128 0x6
 961 01d9 1F050000 		.4byte	.LASF41
 962 01dd 07       		.byte	0x7
 963 01de 7D       		.byte	0x7d
 964 01df F2000000 		.4byte	0xf2
 965 01e3 21       		.byte	0x21
 966 01e4 06       		.uleb128 0x6
 967 01e5 89010000 		.4byte	.LASF42
 968 01e9 07       		.byte	0x7
 969 01ea 82       		.byte	0x82
 970 01eb 08010000 		.4byte	0x108
 971 01ef 22       		.byte	0x22
 972 01f0 06       		.uleb128 0x6
 973 01f1 F3040000 		.4byte	.LASF43
 974 01f5 07       		.byte	0x7
 975 01f6 88       		.byte	0x88
 976 01f7 13010000 		.4byte	0x113
 977 01fb 23       		.byte	0x23
 978 01fc 06       		.uleb128 0x6
 979 01fd 39020000 		.4byte	.LASF44
 980 0201 07       		.byte	0x7
 981 0202 8F       		.byte	0x8f
 982 0203 7C030000 		.4byte	0x37c
 983 0207 24       		.byte	0x24
 984 0208 07       		.uleb128 0x7
 985 0209 705F7500 		.ascii	"p_u\000"
 986 020d 07       		.byte	0x7
 987 020e B4       		.byte	0xb4
 988 020f 35040000 		.4byte	0x435
 989 0213 28       		.byte	0x28
 990 0214 06       		.uleb128 0x6
 991 0215 D2080000 		.4byte	.LASF45
 992 0219 07       		.byte	0x7
 993 021a B9       		.byte	0xb9
 994 021b B0020000 		.4byte	0x2b0
 995 021f 2C       		.byte	0x2c
 996 0220 06       		.uleb128 0x6
 997 0221 5D020000 		.4byte	.LASF46
 998 0225 07       		.byte	0x7
 999 0226 BF       		.byte	0xbf
 1000 0227 90020000 		.4byte	0x290
 1001 022b 30       		.byte	0x30
 1002 022c 06       		.uleb128 0x6
 1003 022d 83080000 		.4byte	.LASF47
 1004 0231 07       		.byte	0x7
 1005 0232 C3       		.byte	0xc3
 1006 0233 29010000 		.4byte	0x129
 1007 0237 38       		.byte	0x38
 1008 0238 06       		.uleb128 0x6
 1009 0239 6C050000 		.4byte	.LASF48
 1010 023d 07       		.byte	0x7
 1011 023e C9       		.byte	0xc9
 1012 023f 34010000 		.4byte	0x134
 1013 0243 3C       		.byte	0x3c
 1014 0244 06       		.uleb128 0x6
 1015 0245 D5040000 		.4byte	.LASF49
ARM GAS  /home/pauba/tmp/ccCykAzR.s 			page 19


 1016 0249 07       		.byte	0x7
 1017 024a D0       		.byte	0xd0
 1018 024b 82040000 		.4byte	0x482
 1019 024f 40       		.byte	0x40
 1020 0250 06       		.uleb128 0x6
 1021 0251 09000000 		.4byte	.LASF50
 1022 0255 07       		.byte	0x7
 1023 0256 D4       		.byte	0xd4
 1024 0257 1E010000 		.4byte	0x11e
 1025 025b 44       		.byte	0x44
 1026 025c 06       		.uleb128 0x6
 1027 025d 15010000 		.4byte	.LASF51
 1028 0261 07       		.byte	0x7
 1029 0262 DA       		.byte	0xda
 1030 0263 C6020000 		.4byte	0x2c6
 1031 0267 48       		.byte	0x48
 1032 0268 00       		.byte	0
 1033 0269 08       		.uleb128 0x8
 1034 026a 08       		.byte	0x8
 1035 026b 06       		.byte	0x6
 1036 026c 61       		.byte	0x61
 1037 026d 8A020000 		.4byte	0x28a
 1038 0271 06       		.uleb128 0x6
 1039 0272 A4030000 		.4byte	.LASF32
 1040 0276 06       		.byte	0x6
 1041 0277 62       		.byte	0x62
 1042 0278 8A020000 		.4byte	0x28a
 1043 027c 00       		.byte	0
 1044 027d 06       		.uleb128 0x6
 1045 027e 6B040000 		.4byte	.LASF33
 1046 0282 06       		.byte	0x6
 1047 0283 64       		.byte	0x64
 1048 0284 8A020000 		.4byte	0x28a
 1049 0288 04       		.byte	0x4
 1050 0289 00       		.byte	0
 1051 028a 09       		.uleb128 0x9
 1052 028b 04       		.byte	0x4
 1053 028c 55010000 		.4byte	0x155
 1054 0290 03       		.uleb128 0x3
 1055 0291 C7030000 		.4byte	.LASF52
 1056 0295 06       		.byte	0x6
 1057 0296 66       		.byte	0x66
 1058 0297 69020000 		.4byte	0x269
 1059 029b 08       		.uleb128 0x8
 1060 029c 04       		.byte	0x4
 1061 029d 06       		.byte	0x6
 1062 029e 6B       		.byte	0x6b
 1063 029f B0020000 		.4byte	0x2b0
 1064 02a3 06       		.uleb128 0x6
 1065 02a4 A4030000 		.4byte	.LASF32
 1066 02a8 06       		.byte	0x6
 1067 02a9 6D       		.byte	0x6d
 1068 02aa 8A020000 		.4byte	0x28a
 1069 02ae 00       		.byte	0
 1070 02af 00       		.byte	0
 1071 02b0 03       		.uleb128 0x3
 1072 02b1 00030000 		.4byte	.LASF53
ARM GAS  /home/pauba/tmp/ccCykAzR.s 			page 20


 1073 02b5 06       		.byte	0x6
 1074 02b6 70       		.byte	0x70
 1075 02b7 9B020000 		.4byte	0x29b
 1076 02bb 03       		.uleb128 0x3
 1077 02bc D8010000 		.4byte	.LASF54
 1078 02c0 08       		.byte	0x8
 1079 02c1 E5       		.byte	0xe5
 1080 02c2 C6020000 		.4byte	0x2c6
 1081 02c6 0A       		.uleb128 0xa
 1082 02c7 04       		.byte	0x4
 1083 02c8 03       		.uleb128 0x3
 1084 02c9 52030000 		.4byte	.LASF55
 1085 02cd 08       		.byte	0x8
 1086 02ce EB       		.byte	0xeb
 1087 02cf D5000000 		.4byte	0xd5
 1088 02d3 0B       		.uleb128 0xb
 1089 02d4 5C070000 		.4byte	.LASF56
 1090 02d8 24       		.byte	0x24
 1091 02d9 08       		.byte	0x8
 1092 02da 0C01     		.2byte	0x10c
 1093 02dc 4F030000 		.4byte	0x34f
 1094 02e0 0C       		.uleb128 0xc
 1095 02e1 723400   		.ascii	"r4\000"
 1096 02e4 08       		.byte	0x8
 1097 02e5 1F01     		.2byte	0x11f
 1098 02e7 BB020000 		.4byte	0x2bb
 1099 02eb 00       		.byte	0
 1100 02ec 0C       		.uleb128 0xc
 1101 02ed 723500   		.ascii	"r5\000"
 1102 02f0 08       		.byte	0x8
 1103 02f1 2001     		.2byte	0x120
 1104 02f3 BB020000 		.4byte	0x2bb
 1105 02f7 04       		.byte	0x4
 1106 02f8 0C       		.uleb128 0xc
 1107 02f9 723600   		.ascii	"r6\000"
 1108 02fc 08       		.byte	0x8
 1109 02fd 2101     		.2byte	0x121
 1110 02ff BB020000 		.4byte	0x2bb
 1111 0303 08       		.byte	0x8
 1112 0304 0C       		.uleb128 0xc
 1113 0305 723700   		.ascii	"r7\000"
 1114 0308 08       		.byte	0x8
 1115 0309 2201     		.2byte	0x122
 1116 030b BB020000 		.4byte	0x2bb
 1117 030f 0C       		.byte	0xc
 1118 0310 0C       		.uleb128 0xc
 1119 0311 723800   		.ascii	"r8\000"
 1120 0314 08       		.byte	0x8
 1121 0315 2301     		.2byte	0x123
 1122 0317 BB020000 		.4byte	0x2bb
 1123 031b 10       		.byte	0x10
 1124 031c 0C       		.uleb128 0xc
 1125 031d 723900   		.ascii	"r9\000"
 1126 0320 08       		.byte	0x8
 1127 0321 2401     		.2byte	0x124
 1128 0323 BB020000 		.4byte	0x2bb
 1129 0327 14       		.byte	0x14
ARM GAS  /home/pauba/tmp/ccCykAzR.s 			page 21


 1130 0328 0C       		.uleb128 0xc
 1131 0329 72313000 		.ascii	"r10\000"
 1132 032d 08       		.byte	0x8
 1133 032e 2501     		.2byte	0x125
 1134 0330 BB020000 		.4byte	0x2bb
 1135 0334 18       		.byte	0x18
 1136 0335 0C       		.uleb128 0xc
 1137 0336 72313100 		.ascii	"r11\000"
 1138 033a 08       		.byte	0x8
 1139 033b 2601     		.2byte	0x126
 1140 033d BB020000 		.4byte	0x2bb
 1141 0341 1C       		.byte	0x1c
 1142 0342 0C       		.uleb128 0xc
 1143 0343 6C7200   		.ascii	"lr\000"
 1144 0346 08       		.byte	0x8
 1145 0347 2701     		.2byte	0x127
 1146 0349 BB020000 		.4byte	0x2bb
 1147 034d 20       		.byte	0x20
 1148 034e 00       		.byte	0
 1149 034f 0B       		.uleb128 0xb
 1150 0350 54070000 		.4byte	.LASF57
 1151 0354 04       		.byte	0x4
 1152 0355 08       		.byte	0x8
 1153 0356 3101     		.2byte	0x131
 1154 0358 6A030000 		.4byte	0x36a
 1155 035c 0C       		.uleb128 0xc
 1156 035d 72313300 		.ascii	"r13\000"
 1157 0361 08       		.byte	0x8
 1158 0362 3201     		.2byte	0x132
 1159 0364 6A030000 		.4byte	0x36a
 1160 0368 00       		.byte	0
 1161 0369 00       		.byte	0
 1162 036a 09       		.uleb128 0x9
 1163 036b 04       		.byte	0x4
 1164 036c D3020000 		.4byte	0x2d3
 1165 0370 0D       		.uleb128 0xd
 1166 0371 CA000000 		.4byte	0xca
 1167 0375 04       		.uleb128 0x4
 1168 0376 04       		.byte	0x4
 1169 0377 07       		.byte	0x7
 1170 0378 8B030000 		.4byte	.LASF58
 1171 037c 0D       		.uleb128 0xd
 1172 037d 4A010000 		.4byte	0x14a
 1173 0381 05       		.uleb128 0x5
 1174 0382 9E030000 		.4byte	.LASF59
 1175 0386 10       		.byte	0x10
 1176 0387 09       		.byte	0x9
 1177 0388 2C       		.byte	0x2c
 1178 0389 B2030000 		.4byte	0x3b2
 1179 038d 06       		.uleb128 0x6
 1180 038e 24010000 		.4byte	.LASF60
 1181 0392 09       		.byte	0x9
 1182 0393 2D       		.byte	0x2d
 1183 0394 90020000 		.4byte	0x290
 1184 0398 00       		.byte	0
 1185 0399 06       		.uleb128 0x6
 1186 039a B9080000 		.4byte	.LASF61
ARM GAS  /home/pauba/tmp/ccCykAzR.s 			page 22


 1187 039e 09       		.byte	0x9
 1188 039f 2F       		.byte	0x2f
 1189 03a0 8A020000 		.4byte	0x28a
 1190 03a4 08       		.byte	0x8
 1191 03a5 06       		.uleb128 0x6
 1192 03a6 EB060000 		.4byte	.LASF62
 1193 03aa 09       		.byte	0x9
 1194 03ab 31       		.byte	0x31
 1195 03ac B2030000 		.4byte	0x3b2
 1196 03b0 0C       		.byte	0xc
 1197 03b1 00       		.byte	0
 1198 03b2 09       		.uleb128 0x9
 1199 03b3 04       		.byte	0x4
 1200 03b4 81030000 		.4byte	0x381
 1201 03b8 03       		.uleb128 0x3
 1202 03b9 9E030000 		.4byte	.LASF59
 1203 03bd 09       		.byte	0x9
 1204 03be 33       		.byte	0x33
 1205 03bf 81030000 		.4byte	0x381
 1206 03c3 03       		.uleb128 0x3
 1207 03c4 3F080000 		.4byte	.LASF63
 1208 03c8 0A       		.byte	0xa
 1209 03c9 2C       		.byte	0x2c
 1210 03ca CE030000 		.4byte	0x3ce
 1211 03ce 05       		.uleb128 0x5
 1212 03cf 3F080000 		.4byte	.LASF63
 1213 03d3 10       		.byte	0x10
 1214 03d4 0A       		.byte	0xa
 1215 03d5 31       		.byte	0x31
 1216 03d6 0B040000 		.4byte	0x40b
 1217 03da 06       		.uleb128 0x6
 1218 03db 27050000 		.4byte	.LASF64
 1219 03df 0A       		.byte	0xa
 1220 03e0 32       		.byte	0x32
 1221 03e1 0B040000 		.4byte	0x40b
 1222 03e5 00       		.byte	0
 1223 03e6 06       		.uleb128 0x6
 1224 03e7 B5040000 		.4byte	.LASF65
 1225 03eb 0A       		.byte	0xa
 1226 03ec 35       		.byte	0x35
 1227 03ed 8A020000 		.4byte	0x28a
 1228 03f1 04       		.byte	0x4
 1229 03f2 06       		.uleb128 0x6
 1230 03f3 F6030000 		.4byte	.LASF66
 1231 03f7 0A       		.byte	0xa
 1232 03f8 37       		.byte	0x37
 1233 03f9 34010000 		.4byte	0x134
 1234 03fd 08       		.byte	0x8
 1235 03fe 06       		.uleb128 0x6
 1236 03ff C1040000 		.4byte	.LASF67
 1237 0403 0A       		.byte	0xa
 1238 0404 3A       		.byte	0x3a
 1239 0405 3F010000 		.4byte	0x13f
 1240 0409 0C       		.byte	0xc
 1241 040a 00       		.byte	0
 1242 040b 09       		.uleb128 0x9
 1243 040c 04       		.byte	0x4
ARM GAS  /home/pauba/tmp/ccCykAzR.s 			page 23


 1244 040d C3030000 		.4byte	0x3c3
 1245 0411 05       		.uleb128 0x5
 1246 0412 04020000 		.4byte	.LASF68
 1247 0416 04       		.byte	0x4
 1248 0417 0A       		.byte	0xa
 1249 0418 41       		.byte	0x41
 1250 0419 2A040000 		.4byte	0x42a
 1251 041d 06       		.uleb128 0x6
 1252 041e B3070000 		.4byte	.LASF69
 1253 0422 0A       		.byte	0xa
 1254 0423 42       		.byte	0x42
 1255 0424 0B040000 		.4byte	0x40b
 1256 0428 00       		.byte	0
 1257 0429 00       		.byte	0
 1258 042a 03       		.uleb128 0x3
 1259 042b 04020000 		.4byte	.LASF68
 1260 042f 0A       		.byte	0xa
 1261 0430 45       		.byte	0x45
 1262 0431 11040000 		.4byte	0x411
 1263 0435 0E       		.uleb128 0xe
 1264 0436 04       		.byte	0x4
 1265 0437 07       		.byte	0x7
 1266 0438 96       		.byte	0x96
 1267 0439 6A040000 		.4byte	0x46a
 1268 043d 0F       		.uleb128 0xf
 1269 043e 28000000 		.4byte	.LASF70
 1270 0442 07       		.byte	0x7
 1271 0443 9D       		.byte	0x9d
 1272 0444 29010000 		.4byte	0x129
 1273 0448 0F       		.uleb128 0xf
 1274 0449 A0000000 		.4byte	.LASF71
 1275 044d 07       		.byte	0x7
 1276 044e A4       		.byte	0xa4
 1277 044f 29010000 		.4byte	0x129
 1278 0453 0F       		.uleb128 0xf
 1279 0454 58080000 		.4byte	.LASF72
 1280 0458 07       		.byte	0x7
 1281 0459 AB       		.byte	0xab
 1282 045a C6020000 		.4byte	0x2c6
 1283 045e 0F       		.uleb128 0xf
 1284 045f 18050000 		.4byte	.LASF73
 1285 0463 07       		.byte	0x7
 1286 0464 B2       		.byte	0xb2
 1287 0465 34010000 		.4byte	0x134
 1288 0469 00       		.byte	0
 1289 046a 09       		.uleb128 0x9
 1290 046b 04       		.byte	0x4
 1291 046c 70040000 		.4byte	0x470
 1292 0470 10       		.uleb128 0x10
 1293 0471 75040000 		.4byte	0x475
 1294 0475 04       		.uleb128 0x4
 1295 0476 01       		.byte	0x1
 1296 0477 08       		.byte	0x8
 1297 0478 B2060000 		.4byte	.LASF74
 1298 047c 09       		.uleb128 0x9
 1299 047d 04       		.byte	0x4
 1300 047e C8020000 		.4byte	0x2c8
ARM GAS  /home/pauba/tmp/ccCykAzR.s 			page 24


 1301 0482 09       		.uleb128 0x9
 1302 0483 04       		.byte	0x4
 1303 0484 B8030000 		.4byte	0x3b8
 1304 0488 09       		.uleb128 0x9
 1305 0489 04       		.byte	0x4
 1306 048a 8E040000 		.4byte	0x48e
 1307 048e 11       		.uleb128 0x11
 1308 048f 29010000 		.4byte	0x129
 1309 0493 9D040000 		.4byte	0x49d
 1310 0497 12       		.uleb128 0x12
 1311 0498 C6020000 		.4byte	0x2c6
 1312 049c 00       		.byte	0
 1313 049d 03       		.uleb128 0x3
 1314 049e B4010000 		.4byte	.LASF75
 1315 04a2 0B       		.byte	0xb
 1316 04a3 37       		.byte	0x37
 1317 04a4 A8040000 		.4byte	0x4a8
 1318 04a8 05       		.uleb128 0x5
 1319 04a9 B4010000 		.4byte	.LASF75
 1320 04ad 24       		.byte	0x24
 1321 04ae 0B       		.byte	0xb
 1322 04af 45       		.byte	0x45
 1323 04b0 15050000 		.4byte	0x515
 1324 04b4 06       		.uleb128 0x6
 1325 04b5 E4000000 		.4byte	.LASF76
 1326 04b9 0B       		.byte	0xb
 1327 04ba 46       		.byte	0x46
 1328 04bb 90020000 		.4byte	0x290
 1329 04bf 00       		.byte	0
 1330 04c0 06       		.uleb128 0x6
 1331 04c1 94030000 		.4byte	.LASF77
 1332 04c5 0B       		.byte	0xb
 1333 04c6 47       		.byte	0x47
 1334 04c7 28000000 		.4byte	0x28
 1335 04cb 08       		.byte	0x8
 1336 04cc 06       		.uleb128 0x6
 1337 04cd 90010000 		.4byte	.LASF78
 1338 04d1 0B       		.byte	0xb
 1339 04d2 48       		.byte	0x48
 1340 04d3 37050000 		.4byte	0x537
 1341 04d7 0C       		.byte	0xc
 1342 04d8 06       		.uleb128 0x6
 1343 04d9 A2070000 		.4byte	.LASF79
 1344 04dd 0B       		.byte	0xb
 1345 04de 49       		.byte	0x49
 1346 04df 37050000 		.4byte	0x537
 1347 04e3 10       		.byte	0x10
 1348 04e4 06       		.uleb128 0x6
 1349 04e5 99010000 		.4byte	.LASF80
 1350 04e9 0B       		.byte	0xb
 1351 04ea 4B       		.byte	0x4b
 1352 04eb 37050000 		.4byte	0x537
 1353 04ef 14       		.byte	0x14
 1354 04f0 06       		.uleb128 0x6
 1355 04f1 84040000 		.4byte	.LASF81
 1356 04f5 0B       		.byte	0xb
 1357 04f6 4C       		.byte	0x4c
ARM GAS  /home/pauba/tmp/ccCykAzR.s 			page 25


 1358 04f7 37050000 		.4byte	0x537
 1359 04fb 18       		.byte	0x18
 1360 04fc 06       		.uleb128 0x6
 1361 04fd D1070000 		.4byte	.LASF82
 1362 0501 0B       		.byte	0xb
 1363 0502 4D       		.byte	0x4d
 1364 0503 15050000 		.4byte	0x515
 1365 0507 1C       		.byte	0x1c
 1366 0508 06       		.uleb128 0x6
 1367 0509 A8080000 		.4byte	.LASF83
 1368 050d 0B       		.byte	0xb
 1369 050e 4E       		.byte	0x4e
 1370 050f C6020000 		.4byte	0x2c6
 1371 0513 20       		.byte	0x20
 1372 0514 00       		.byte	0
 1373 0515 03       		.uleb128 0x3
 1374 0516 ED010000 		.4byte	.LASF84
 1375 051a 0B       		.byte	0xb
 1376 051b 3A       		.byte	0x3a
 1377 051c 20050000 		.4byte	0x520
 1378 0520 09       		.uleb128 0x9
 1379 0521 04       		.byte	0x4
 1380 0522 26050000 		.4byte	0x526
 1381 0526 13       		.uleb128 0x13
 1382 0527 31050000 		.4byte	0x531
 1383 052b 12       		.uleb128 0x12
 1384 052c 31050000 		.4byte	0x531
 1385 0530 00       		.byte	0
 1386 0531 09       		.uleb128 0x9
 1387 0532 04       		.byte	0x4
 1388 0533 9D040000 		.4byte	0x49d
 1389 0537 09       		.uleb128 0x9
 1390 0538 04       		.byte	0x4
 1391 0539 A9000000 		.4byte	0xa9
 1392 053d 03       		.uleb128 0x3
 1393 053e 18030000 		.4byte	.LASF85
 1394 0542 0B       		.byte	0xb
 1395 0543 82       		.byte	0x82
 1396 0544 9D040000 		.4byte	0x49d
 1397 0548 03       		.uleb128 0x3
 1398 0549 38000000 		.4byte	.LASF86
 1399 054d 0B       		.byte	0xb
 1400 054e F5       		.byte	0xf5
 1401 054f 9D040000 		.4byte	0x49d
 1402 0553 11       		.uleb128 0x11
 1403 0554 28000000 		.4byte	0x28
 1404 0558 6C050000 		.4byte	0x56c
 1405 055c 12       		.uleb128 0x12
 1406 055d C6020000 		.4byte	0x2c6
 1407 0561 12       		.uleb128 0x12
 1408 0562 6C050000 		.4byte	0x56c
 1409 0566 12       		.uleb128 0x12
 1410 0567 28000000 		.4byte	0x28
 1411 056b 00       		.byte	0
 1412 056c 09       		.uleb128 0x9
 1413 056d 04       		.byte	0x4
 1414 056e 72050000 		.4byte	0x572
ARM GAS  /home/pauba/tmp/ccCykAzR.s 			page 26


 1415 0572 10       		.uleb128 0x10
 1416 0573 A9000000 		.4byte	0xa9
 1417 0577 09       		.uleb128 0x9
 1418 0578 04       		.byte	0x4
 1419 0579 53050000 		.4byte	0x553
 1420 057d 11       		.uleb128 0x11
 1421 057e 28000000 		.4byte	0x28
 1422 0582 96050000 		.4byte	0x596
 1423 0586 12       		.uleb128 0x12
 1424 0587 C6020000 		.4byte	0x2c6
 1425 058b 12       		.uleb128 0x12
 1426 058c 37050000 		.4byte	0x537
 1427 0590 12       		.uleb128 0x12
 1428 0591 28000000 		.4byte	0x28
 1429 0595 00       		.byte	0
 1430 0596 09       		.uleb128 0x9
 1431 0597 04       		.byte	0x4
 1432 0598 7D050000 		.4byte	0x57d
 1433 059c 11       		.uleb128 0x11
 1434 059d 29010000 		.4byte	0x129
 1435 05a1 B0050000 		.4byte	0x5b0
 1436 05a5 12       		.uleb128 0x12
 1437 05a6 C6020000 		.4byte	0x2c6
 1438 05aa 12       		.uleb128 0x12
 1439 05ab A9000000 		.4byte	0xa9
 1440 05af 00       		.byte	0
 1441 05b0 09       		.uleb128 0x9
 1442 05b1 04       		.byte	0x4
 1443 05b2 9C050000 		.4byte	0x59c
 1444 05b6 14       		.uleb128 0x14
 1445 05b7 63030000 		.4byte	.LASF194
 1446 05bb 01       		.byte	0x1
 1447 05bc 0C       		.byte	0xc
 1448 05bd AB       		.byte	0xab
 1449 05be 01070000 		.4byte	0x701
 1450 05c2 15       		.uleb128 0x15
 1451 05c3 FC060000 		.4byte	.LASF87
 1452 05c7 72       		.sleb128 -14
 1453 05c8 15       		.uleb128 0x15
 1454 05c9 40020000 		.4byte	.LASF88
 1455 05cd 74       		.sleb128 -12
 1456 05ce 15       		.uleb128 0x15
 1457 05cf B7060000 		.4byte	.LASF89
 1458 05d3 75       		.sleb128 -11
 1459 05d4 15       		.uleb128 0x15
 1460 05d5 A0050000 		.4byte	.LASF90
 1461 05d9 76       		.sleb128 -10
 1462 05da 15       		.uleb128 0x15
 1463 05db E3080000 		.4byte	.LASF91
 1464 05df 7B       		.sleb128 -5
 1465 05e0 15       		.uleb128 0x15
 1466 05e1 AB030000 		.4byte	.LASF92
 1467 05e5 7C       		.sleb128 -4
 1468 05e6 15       		.uleb128 0x15
 1469 05e7 C1010000 		.4byte	.LASF93
 1470 05eb 7E       		.sleb128 -2
 1471 05ec 15       		.uleb128 0x15
ARM GAS  /home/pauba/tmp/ccCykAzR.s 			page 27


 1472 05ed 45030000 		.4byte	.LASF94
 1473 05f1 7F       		.sleb128 -1
 1474 05f2 15       		.uleb128 0x15
 1475 05f3 CD000000 		.4byte	.LASF95
 1476 05f7 00       		.sleb128 0
 1477 05f8 15       		.uleb128 0x15
 1478 05f9 00000000 		.4byte	.LASF96
 1479 05fd 01       		.sleb128 1
 1480 05fe 15       		.uleb128 0x15
 1481 05ff 96080000 		.4byte	.LASF97
 1482 0603 02       		.sleb128 2
 1483 0604 15       		.uleb128 0x15
 1484 0605 A5020000 		.4byte	.LASF98
 1485 0609 03       		.sleb128 3
 1486 060a 15       		.uleb128 0x15
 1487 060b 61050000 		.4byte	.LASF99
 1488 060f 04       		.sleb128 4
 1489 0610 15       		.uleb128 0x15
 1490 0611 30080000 		.4byte	.LASF100
 1491 0615 05       		.sleb128 5
 1492 0616 15       		.uleb128 0x15
 1493 0617 A8070000 		.4byte	.LASF101
 1494 061b 06       		.sleb128 6
 1495 061c 15       		.uleb128 0x15
 1496 061d 4D080000 		.4byte	.LASF102
 1497 0621 07       		.sleb128 7
 1498 0622 15       		.uleb128 0x15
 1499 0623 2F050000 		.4byte	.LASF103
 1500 0627 08       		.sleb128 8
 1501 0628 15       		.uleb128 0x15
 1502 0629 DA070000 		.4byte	.LASF104
 1503 062d 09       		.sleb128 9
 1504 062e 15       		.uleb128 0x15
 1505 062f CA040000 		.4byte	.LASF105
 1506 0633 0A       		.sleb128 10
 1507 0634 15       		.uleb128 0x15
 1508 0635 1E040000 		.4byte	.LASF106
 1509 0639 0B       		.sleb128 11
 1510 063a 15       		.uleb128 0x15
 1511 063b 78030000 		.4byte	.LASF107
 1512 063f 0C       		.sleb128 12
 1513 0640 15       		.uleb128 0x15
 1514 0641 05050000 		.4byte	.LASF108
 1515 0645 0D       		.sleb128 13
 1516 0646 15       		.uleb128 0x15
 1517 0647 32030000 		.4byte	.LASF109
 1518 064b 0E       		.sleb128 14
 1519 064c 15       		.uleb128 0x15
 1520 064d 7F020000 		.4byte	.LASF110
 1521 0651 0F       		.sleb128 15
 1522 0652 15       		.uleb128 0x15
 1523 0653 25070000 		.4byte	.LASF111
 1524 0657 10       		.sleb128 16
 1525 0658 15       		.uleb128 0x15
 1526 0659 5F080000 		.4byte	.LASF112
 1527 065d 11       		.sleb128 17
 1528 065e 15       		.uleb128 0x15
ARM GAS  /home/pauba/tmp/ccCykAzR.s 			page 28


 1529 065f E9040000 		.4byte	.LASF113
 1530 0663 12       		.sleb128 18
 1531 0664 15       		.uleb128 0x15
 1532 0665 E1010000 		.4byte	.LASF114
 1533 0669 13       		.sleb128 19
 1534 066a 15       		.uleb128 0x15
 1535 066b 48070000 		.4byte	.LASF115
 1536 066f 14       		.sleb128 20
 1537 0670 15       		.uleb128 0x15
 1538 0671 3F070000 		.4byte	.LASF116
 1539 0675 15       		.sleb128 21
 1540 0676 15       		.uleb128 0x15
 1541 0677 C7070000 		.4byte	.LASF117
 1542 067b 16       		.sleb128 22
 1543 067c 15       		.uleb128 0x15
 1544 067d 1B000000 		.4byte	.LASF118
 1545 0681 17       		.sleb128 23
 1546 0682 15       		.uleb128 0x15
 1547 0683 6C070000 		.4byte	.LASF119
 1548 0687 18       		.sleb128 24
 1549 0688 15       		.uleb128 0x15
 1550 0689 16020000 		.4byte	.LASF120
 1551 068d 19       		.sleb128 25
 1552 068e 15       		.uleb128 0x15
 1553 068f A1010000 		.4byte	.LASF121
 1554 0693 1A       		.sleb128 26
 1555 0694 15       		.uleb128 0x15
 1556 0695 C1080000 		.4byte	.LASF122
 1557 0699 1B       		.sleb128 27
 1558 069a 15       		.uleb128 0x15
 1559 069b 98070000 		.4byte	.LASF123
 1560 069f 1C       		.sleb128 28
 1561 06a0 15       		.uleb128 0x15
 1562 06a1 AF080000 		.4byte	.LASF124
 1563 06a5 1D       		.sleb128 29
 1564 06a6 15       		.uleb128 0x15
 1565 06a7 B6000000 		.4byte	.LASF125
 1566 06ab 1E       		.sleb128 30
 1567 06ac 15       		.uleb128 0x15
 1568 06ad 44000000 		.4byte	.LASF126
 1569 06b1 1F       		.sleb128 31
 1570 06b2 15       		.uleb128 0x15
 1571 06b3 89080000 		.4byte	.LASF127
 1572 06b7 20       		.sleb128 32
 1573 06b8 15       		.uleb128 0x15
 1574 06b9 75070000 		.4byte	.LASF128
 1575 06bd 21       		.sleb128 33
 1576 06be 15       		.uleb128 0x15
 1577 06bf A9000000 		.4byte	.LASF129
 1578 06c3 22       		.sleb128 34
 1579 06c4 15       		.uleb128 0x15
 1580 06c5 CF020000 		.4byte	.LASF130
 1581 06c9 23       		.sleb128 35
 1582 06ca 15       		.uleb128 0x15
 1583 06cb BD030000 		.4byte	.LASF131
 1584 06cf 24       		.sleb128 36
 1585 06d0 15       		.uleb128 0x15
ARM GAS  /home/pauba/tmp/ccCykAzR.s 			page 29


 1586 06d1 BB070000 		.4byte	.LASF132
 1587 06d5 25       		.sleb128 37
 1588 06d6 15       		.uleb128 0x15
 1589 06d7 94050000 		.4byte	.LASF133
 1590 06db 26       		.sleb128 38
 1591 06dc 15       		.uleb128 0x15
 1592 06dd 82070000 		.4byte	.LASF134
 1593 06e1 27       		.sleb128 39
 1594 06e2 15       		.uleb128 0x15
 1595 06e3 C0020000 		.4byte	.LASF135
 1596 06e7 28       		.sleb128 40
 1597 06e8 15       		.uleb128 0x15
 1598 06e9 5B000000 		.4byte	.LASF136
 1599 06ed 29       		.sleb128 41
 1600 06ee 15       		.uleb128 0x15
 1601 06ef DC030000 		.4byte	.LASF137
 1602 06f3 2A       		.sleb128 42
 1603 06f4 15       		.uleb128 0x15
 1604 06f5 C5060000 		.4byte	.LASF138
 1605 06f9 2B       		.sleb128 43
 1606 06fa 15       		.uleb128 0x15
 1607 06fb E1060000 		.4byte	.LASF139
 1608 06ff 2C       		.sleb128 44
 1609 0700 00       		.byte	0
 1610 0701 0D       		.uleb128 0xd
 1611 0702 B4000000 		.4byte	0xb4
 1612 0706 16       		.uleb128 0x16
 1613 0707 38       		.byte	0x38
 1614 0708 0C       		.byte	0xc
 1615 0709 8602     		.2byte	0x286
 1616 070b C5070000 		.4byte	0x7c5
 1617 070f 0C       		.uleb128 0xc
 1618 0710 435200   		.ascii	"CR\000"
 1619 0713 0C       		.byte	0xc
 1620 0714 8802     		.2byte	0x288
 1621 0716 70030000 		.4byte	0x370
 1622 071a 00       		.byte	0
 1623 071b 17       		.uleb128 0x17
 1624 071c 39080000 		.4byte	.LASF140
 1625 0720 0C       		.byte	0xc
 1626 0721 8902     		.2byte	0x289
 1627 0723 70030000 		.4byte	0x370
 1628 0727 04       		.byte	0x4
 1629 0728 17       		.uleb128 0x17
 1630 0729 7E080000 		.4byte	.LASF141
 1631 072d 0C       		.byte	0xc
 1632 072e 8A02     		.2byte	0x28a
 1633 0730 70030000 		.4byte	0x370
 1634 0734 08       		.byte	0x8
 1635 0735 0C       		.uleb128 0xc
 1636 0736 43495200 		.ascii	"CIR\000"
 1637 073a 0C       		.byte	0xc
 1638 073b 8B02     		.2byte	0x28b
 1639 073d 70030000 		.4byte	0x370
 1640 0741 0C       		.byte	0xc
 1641 0742 17       		.uleb128 0x17
 1642 0743 D4030000 		.4byte	.LASF142
ARM GAS  /home/pauba/tmp/ccCykAzR.s 			page 30


 1643 0747 0C       		.byte	0xc
 1644 0748 8C02     		.2byte	0x28c
 1645 074a 70030000 		.4byte	0x370
 1646 074e 10       		.byte	0x10
 1647 074f 17       		.uleb128 0x17
 1648 0750 60010000 		.4byte	.LASF143
 1649 0754 0C       		.byte	0xc
 1650 0755 8D02     		.2byte	0x28d
 1651 0757 70030000 		.4byte	0x370
 1652 075b 14       		.byte	0x14
 1653 075c 17       		.uleb128 0x17
 1654 075d ED030000 		.4byte	.LASF144
 1655 0761 0C       		.byte	0xc
 1656 0762 8E02     		.2byte	0x28e
 1657 0764 70030000 		.4byte	0x370
 1658 0768 18       		.byte	0x18
 1659 0769 17       		.uleb128 0x17
 1660 076a DC080000 		.4byte	.LASF145
 1661 076e 0C       		.byte	0xc
 1662 076f 8F02     		.2byte	0x28f
 1663 0771 70030000 		.4byte	0x370
 1664 0775 1C       		.byte	0x1c
 1665 0776 17       		.uleb128 0x17
 1666 0777 42050000 		.4byte	.LASF146
 1667 077b 0C       		.byte	0xc
 1668 077c 9002     		.2byte	0x290
 1669 077e 70030000 		.4byte	0x370
 1670 0782 20       		.byte	0x20
 1671 0783 17       		.uleb128 0x17
 1672 0784 BD050000 		.4byte	.LASF147
 1673 0788 0C       		.byte	0xc
 1674 0789 9102     		.2byte	0x291
 1675 078b 70030000 		.4byte	0x370
 1676 078f 24       		.byte	0x24
 1677 0790 17       		.uleb128 0x17
 1678 0791 74000000 		.4byte	.LASF148
 1679 0795 0C       		.byte	0xc
 1680 0796 9202     		.2byte	0x292
 1681 0798 70030000 		.4byte	0x370
 1682 079c 28       		.byte	0x28
 1683 079d 17       		.uleb128 0x17
 1684 079e F6020000 		.4byte	.LASF149
 1685 07a2 0C       		.byte	0xc
 1686 07a3 9302     		.2byte	0x293
 1687 07a5 70030000 		.4byte	0x370
 1688 07a9 2C       		.byte	0x2c
 1689 07aa 17       		.uleb128 0x17
 1690 07ab 69010000 		.4byte	.LASF150
 1691 07af 0C       		.byte	0xc
 1692 07b0 9402     		.2byte	0x294
 1693 07b2 70030000 		.4byte	0x370
 1694 07b6 30       		.byte	0x30
 1695 07b7 0C       		.uleb128 0xc
 1696 07b8 43535200 		.ascii	"CSR\000"
 1697 07bc 0C       		.byte	0xc
 1698 07bd 9502     		.2byte	0x295
 1699 07bf 70030000 		.4byte	0x370
ARM GAS  /home/pauba/tmp/ccCykAzR.s 			page 31


 1700 07c3 34       		.byte	0x34
 1701 07c4 00       		.byte	0
 1702 07c5 18       		.uleb128 0x18
 1703 07c6 36010000 		.4byte	.LASF151
 1704 07ca 0C       		.byte	0xc
 1705 07cb 9602     		.2byte	0x296
 1706 07cd 06070000 		.4byte	0x706
 1707 07d1 16       		.uleb128 0x16
 1708 07d2 1C       		.byte	0x1c
 1709 07d3 0C       		.byte	0xc
 1710 07d4 4703     		.2byte	0x347
 1711 07d6 8F080000 		.4byte	0x88f
 1712 07da 0C       		.uleb128 0xc
 1713 07db 535200   		.ascii	"SR\000"
 1714 07de 0C       		.byte	0xc
 1715 07df 4903     		.2byte	0x349
 1716 07e1 01070000 		.4byte	0x701
 1717 07e5 00       		.byte	0
 1718 07e6 17       		.uleb128 0x17
 1719 07e7 39040000 		.4byte	.LASF152
 1720 07eb 0C       		.byte	0xc
 1721 07ec 4A03     		.2byte	0x34a
 1722 07ee B4000000 		.4byte	0xb4
 1723 07f2 02       		.byte	0x2
 1724 07f3 0C       		.uleb128 0xc
 1725 07f4 445200   		.ascii	"DR\000"
 1726 07f7 0C       		.byte	0xc
 1727 07f8 4B03     		.2byte	0x34b
 1728 07fa 01070000 		.4byte	0x701
 1729 07fe 04       		.byte	0x4
 1730 07ff 17       		.uleb128 0x17
 1731 0800 43040000 		.4byte	.LASF153
 1732 0804 0C       		.byte	0xc
 1733 0805 4C03     		.2byte	0x34c
 1734 0807 B4000000 		.4byte	0xb4
 1735 080b 06       		.byte	0x6
 1736 080c 0C       		.uleb128 0xc
 1737 080d 42525200 		.ascii	"BRR\000"
 1738 0811 0C       		.byte	0xc
 1739 0812 4D03     		.2byte	0x34d
 1740 0814 01070000 		.4byte	0x701
 1741 0818 08       		.byte	0x8
 1742 0819 17       		.uleb128 0x17
 1743 081a 4D040000 		.4byte	.LASF154
 1744 081e 0C       		.byte	0xc
 1745 081f 4E03     		.2byte	0x34e
 1746 0821 B4000000 		.4byte	0xb4
 1747 0825 0A       		.byte	0xa
 1748 0826 0C       		.uleb128 0xc
 1749 0827 43523100 		.ascii	"CR1\000"
 1750 082b 0C       		.byte	0xc
 1751 082c 4F03     		.2byte	0x34f
 1752 082e 01070000 		.4byte	0x701
 1753 0832 0C       		.byte	0xc
 1754 0833 17       		.uleb128 0x17
 1755 0834 57040000 		.4byte	.LASF155
 1756 0838 0C       		.byte	0xc
ARM GAS  /home/pauba/tmp/ccCykAzR.s 			page 32


 1757 0839 5003     		.2byte	0x350
 1758 083b B4000000 		.4byte	0xb4
 1759 083f 0E       		.byte	0xe
 1760 0840 0C       		.uleb128 0xc
 1761 0841 43523200 		.ascii	"CR2\000"
 1762 0845 0C       		.byte	0xc
 1763 0846 5103     		.2byte	0x351
 1764 0848 01070000 		.4byte	0x701
 1765 084c 10       		.byte	0x10
 1766 084d 17       		.uleb128 0x17
 1767 084e 61040000 		.4byte	.LASF156
 1768 0852 0C       		.byte	0xc
 1769 0853 5203     		.2byte	0x352
 1770 0855 B4000000 		.4byte	0xb4
 1771 0859 12       		.byte	0x12
 1772 085a 0C       		.uleb128 0xc
 1773 085b 43523300 		.ascii	"CR3\000"
 1774 085f 0C       		.byte	0xc
 1775 0860 5303     		.2byte	0x353
 1776 0862 01070000 		.4byte	0x701
 1777 0866 14       		.byte	0x14
 1778 0867 17       		.uleb128 0x17
 1779 0868 81050000 		.4byte	.LASF157
 1780 086c 0C       		.byte	0xc
 1781 086d 5403     		.2byte	0x354
 1782 086f B4000000 		.4byte	0xb4
 1783 0873 16       		.byte	0x16
 1784 0874 17       		.uleb128 0x17
 1785 0875 08010000 		.4byte	.LASF158
 1786 0879 0C       		.byte	0xc
 1787 087a 5503     		.2byte	0x355
 1788 087c 01070000 		.4byte	0x701
 1789 0880 18       		.byte	0x18
 1790 0881 17       		.uleb128 0x17
 1791 0882 72040000 		.4byte	.LASF159
 1792 0886 0C       		.byte	0xc
 1793 0887 5603     		.2byte	0x356
 1794 0889 B4000000 		.4byte	0xb4
 1795 088d 1A       		.byte	0x1a
 1796 088e 00       		.byte	0
 1797 088f 18       		.uleb128 0x18
 1798 0890 D9020000 		.4byte	.LASF160
 1799 0894 0C       		.byte	0xc
 1800 0895 5703     		.2byte	0x357
 1801 0897 D1070000 		.4byte	0x7d1
 1802 089b 11       		.uleb128 0x11
 1803 089c 29010000 		.4byte	0x129
 1804 08a0 B4080000 		.4byte	0x8b4
 1805 08a4 12       		.uleb128 0x12
 1806 08a5 C6020000 		.4byte	0x2c6
 1807 08a9 12       		.uleb128 0x12
 1808 08aa A9000000 		.4byte	0xa9
 1809 08ae 12       		.uleb128 0x12
 1810 08af 4A010000 		.4byte	0x14a
 1811 08b3 00       		.byte	0
 1812 08b4 09       		.uleb128 0x9
 1813 08b5 04       		.byte	0x4
ARM GAS  /home/pauba/tmp/ccCykAzR.s 			page 33


 1814 08b6 9B080000 		.4byte	0x89b
 1815 08ba 11       		.uleb128 0x11
 1816 08bb 29010000 		.4byte	0x129
 1817 08bf CE080000 		.4byte	0x8ce
 1818 08c3 12       		.uleb128 0x12
 1819 08c4 C6020000 		.4byte	0x2c6
 1820 08c8 12       		.uleb128 0x12
 1821 08c9 4A010000 		.4byte	0x14a
 1822 08cd 00       		.byte	0
 1823 08ce 09       		.uleb128 0x9
 1824 08cf 04       		.byte	0x4
 1825 08d0 BA080000 		.4byte	0x8ba
 1826 08d4 11       		.uleb128 0x11
 1827 08d5 28000000 		.4byte	0x28
 1828 08d9 F2080000 		.4byte	0x8f2
 1829 08dd 12       		.uleb128 0x12
 1830 08de C6020000 		.4byte	0x2c6
 1831 08e2 12       		.uleb128 0x12
 1832 08e3 6C050000 		.4byte	0x56c
 1833 08e7 12       		.uleb128 0x12
 1834 08e8 28000000 		.4byte	0x28
 1835 08ec 12       		.uleb128 0x12
 1836 08ed 4A010000 		.4byte	0x14a
 1837 08f1 00       		.byte	0
 1838 08f2 09       		.uleb128 0x9
 1839 08f3 04       		.byte	0x4
 1840 08f4 D4080000 		.4byte	0x8d4
 1841 08f8 11       		.uleb128 0x11
 1842 08f9 28000000 		.4byte	0x28
 1843 08fd 16090000 		.4byte	0x916
 1844 0901 12       		.uleb128 0x12
 1845 0902 C6020000 		.4byte	0x2c6
 1846 0906 12       		.uleb128 0x12
 1847 0907 37050000 		.4byte	0x537
 1848 090b 12       		.uleb128 0x12
 1849 090c 28000000 		.4byte	0x28
 1850 0910 12       		.uleb128 0x12
 1851 0911 4A010000 		.4byte	0x14a
 1852 0915 00       		.byte	0
 1853 0916 09       		.uleb128 0x9
 1854 0917 04       		.byte	0x4
 1855 0918 F8080000 		.4byte	0x8f8
 1856 091c 19       		.uleb128 0x19
 1857 091d 01       		.byte	0x1
 1858 091e 0D       		.byte	0xd
 1859 091f 64       		.byte	0x64
 1860 0920 37090000 		.4byte	0x937
 1861 0924 15       		.uleb128 0x15
 1862 0925 77050000 		.4byte	.LASF161
 1863 0929 00       		.sleb128 0
 1864 092a 15       		.uleb128 0x15
 1865 092b 3A050000 		.4byte	.LASF162
 1866 092f 01       		.sleb128 1
 1867 0930 15       		.uleb128 0x15
 1868 0931 63070000 		.4byte	.LASF163
 1869 0935 02       		.sleb128 2
 1870 0936 00       		.byte	0
ARM GAS  /home/pauba/tmp/ccCykAzR.s 			page 34


 1871 0937 03       		.uleb128 0x3
 1872 0938 8E070000 		.4byte	.LASF164
 1873 093c 0D       		.byte	0xd
 1874 093d 68       		.byte	0x68
 1875 093e 1C090000 		.4byte	0x91c
 1876 0942 03       		.uleb128 0x3
 1877 0943 B0050000 		.4byte	.LASF165
 1878 0947 0D       		.byte	0xd
 1879 0948 6D       		.byte	0x6d
 1880 0949 4D090000 		.4byte	0x94d
 1881 094d 05       		.uleb128 0x5
 1882 094e B0050000 		.4byte	.LASF165
 1883 0952 78       		.byte	0x78
 1884 0953 0D       		.byte	0xd
 1885 0954 87       		.byte	0x87
 1886 0955 B8090000 		.4byte	0x9b8
 1887 0959 07       		.uleb128 0x7
 1888 095a 766D7400 		.ascii	"vmt\000"
 1889 095e 0D       		.byte	0xd
 1890 095f 89       		.byte	0x89
 1891 0960 690A0000 		.4byte	0xa69
 1892 0964 00       		.byte	0
 1893 0965 06       		.uleb128 0x6
 1894 0966 79020000 		.4byte	.LASF166
 1895 096a 0D       		.byte	0xd
 1896 096b 8A       		.byte	0x8a
 1897 096c 2A040000 		.4byte	0x42a
 1898 0970 04       		.byte	0x4
 1899 0971 06       		.uleb128 0x6
 1900 0972 51010000 		.4byte	.LASF167
 1901 0976 0D       		.byte	0xd
 1902 0977 8A       		.byte	0x8a
 1903 0978 37090000 		.4byte	0x937
 1904 097c 08       		.byte	0x8
 1905 097d 06       		.uleb128 0x6
 1906 097e 56020000 		.4byte	.LASF168
 1907 0982 0D       		.byte	0xd
 1908 0983 8A       		.byte	0x8a
 1909 0984 3D050000 		.4byte	0x53d
 1910 0988 0C       		.byte	0xc
 1911 0989 06       		.uleb128 0x6
 1912 098a B9020000 		.4byte	.LASF169
 1913 098e 0D       		.byte	0xd
 1914 098f 8A       		.byte	0x8a
 1915 0990 48050000 		.4byte	0x548
 1916 0994 30       		.byte	0x30
 1917 0995 07       		.uleb128 0x7
 1918 0996 696200   		.ascii	"ib\000"
 1919 0999 0D       		.byte	0xd
 1920 099a 8A       		.byte	0x8a
 1921 099b 740A0000 		.4byte	0xa74
 1922 099f 54       		.byte	0x54
 1923 09a0 07       		.uleb128 0x7
 1924 09a1 6F6200   		.ascii	"ob\000"
 1925 09a4 0D       		.byte	0xd
 1926 09a5 8A       		.byte	0x8a
 1927 09a6 740A0000 		.4byte	0xa74
ARM GAS  /home/pauba/tmp/ccCykAzR.s 			page 35


 1928 09aa 64       		.byte	0x64
 1929 09ab 06       		.uleb128 0x6
 1930 09ac 10020000 		.4byte	.LASF170
 1931 09b0 0D       		.byte	0xd
 1932 09b1 8A       		.byte	0x8a
 1933 09b2 840A0000 		.4byte	0xa84
 1934 09b6 74       		.byte	0x74
 1935 09b7 00       		.byte	0
 1936 09b8 08       		.uleb128 0x8
 1937 09b9 0C       		.byte	0xc
 1938 09ba 0E       		.byte	0xe
 1939 09bb D7       		.byte	0xd7
 1940 09bc F1090000 		.4byte	0x9f1
 1941 09c0 06       		.uleb128 0x6
 1942 09c1 23030000 		.4byte	.LASF171
 1943 09c5 0E       		.byte	0xe
 1944 09c6 DB       		.byte	0xdb
 1945 09c7 CA000000 		.4byte	0xca
 1946 09cb 00       		.byte	0
 1947 09cc 07       		.uleb128 0x7
 1948 09cd 63723100 		.ascii	"cr1\000"
 1949 09d1 0E       		.byte	0xe
 1950 09d2 E0       		.byte	0xe0
 1951 09d3 B4000000 		.4byte	0xb4
 1952 09d7 04       		.byte	0x4
 1953 09d8 07       		.uleb128 0x7
 1954 09d9 63723200 		.ascii	"cr2\000"
 1955 09dd 0E       		.byte	0xe
 1956 09de E4       		.byte	0xe4
 1957 09df B4000000 		.4byte	0xb4
 1958 09e3 06       		.byte	0x6
 1959 09e4 07       		.uleb128 0x7
 1960 09e5 63723300 		.ascii	"cr3\000"
 1961 09e9 0E       		.byte	0xe
 1962 09ea E8       		.byte	0xe8
 1963 09eb B4000000 		.4byte	0xb4
 1964 09ef 08       		.byte	0x8
 1965 09f0 00       		.byte	0
 1966 09f1 03       		.uleb128 0x3
 1967 09f2 FE030000 		.4byte	.LASF172
 1968 09f6 0E       		.byte	0xe
 1969 09f7 E9       		.byte	0xe9
 1970 09f8 B8090000 		.4byte	0x9b8
 1971 09fc 05       		.uleb128 0x5
 1972 09fd 29020000 		.4byte	.LASF173
 1973 0a01 20       		.byte	0x20
 1974 0a02 0D       		.byte	0xd
 1975 0a03 7C       		.byte	0x7c
 1976 0a04 690A0000 		.4byte	0xa69
 1977 0a08 06       		.uleb128 0x6
 1978 0a09 5D030000 		.4byte	.LASF174
 1979 0a0d 0D       		.byte	0xd
 1980 0a0e 7D       		.byte	0x7d
 1981 0a0f 77050000 		.4byte	0x577
 1982 0a13 00       		.byte	0
 1983 0a14 06       		.uleb128 0x6
 1984 0a15 AD060000 		.4byte	.LASF175
ARM GAS  /home/pauba/tmp/ccCykAzR.s 			page 36


 1985 0a19 0D       		.byte	0xd
 1986 0a1a 7D       		.byte	0x7d
 1987 0a1b 96050000 		.4byte	0x596
 1988 0a1f 04       		.byte	0x4
 1989 0a20 07       		.uleb128 0x7
 1990 0a21 70757400 		.ascii	"put\000"
 1991 0a25 0D       		.byte	0xd
 1992 0a26 7D       		.byte	0x7d
 1993 0a27 B0050000 		.4byte	0x5b0
 1994 0a2b 08       		.byte	0x8
 1995 0a2c 07       		.uleb128 0x7
 1996 0a2d 67657400 		.ascii	"get\000"
 1997 0a31 0D       		.byte	0xd
 1998 0a32 7D       		.byte	0x7d
 1999 0a33 88040000 		.4byte	0x488
 2000 0a37 0C       		.byte	0xc
 2001 0a38 06       		.uleb128 0x6
 2002 0a39 68030000 		.4byte	.LASF176
 2003 0a3d 0D       		.byte	0xd
 2004 0a3e 7D       		.byte	0x7d
 2005 0a3f B4080000 		.4byte	0x8b4
 2006 0a43 10       		.byte	0x10
 2007 0a44 06       		.uleb128 0x6
 2008 0a45 74020000 		.4byte	.LASF177
 2009 0a49 0D       		.byte	0xd
 2010 0a4a 7D       		.byte	0x7d
 2011 0a4b CE080000 		.4byte	0x8ce
 2012 0a4f 14       		.byte	0x14
 2013 0a50 06       		.uleb128 0x6
 2014 0a51 E7020000 		.4byte	.LASF178
 2015 0a55 0D       		.byte	0xd
 2016 0a56 7D       		.byte	0x7d
 2017 0a57 F2080000 		.4byte	0x8f2
 2018 0a5b 18       		.byte	0x18
 2019 0a5c 06       		.uleb128 0x6
 2020 0a5d DE000000 		.4byte	.LASF179
 2021 0a61 0D       		.byte	0xd
 2022 0a62 7D       		.byte	0x7d
 2023 0a63 16090000 		.4byte	0x916
 2024 0a67 1C       		.byte	0x1c
 2025 0a68 00       		.byte	0
 2026 0a69 09       		.uleb128 0x9
 2027 0a6a 04       		.byte	0x4
 2028 0a6b 6F0A0000 		.4byte	0xa6f
 2029 0a6f 10       		.uleb128 0x10
 2030 0a70 FC090000 		.4byte	0x9fc
 2031 0a74 1A       		.uleb128 0x1a
 2032 0a75 A9000000 		.4byte	0xa9
 2033 0a79 840A0000 		.4byte	0xa84
 2034 0a7d 1B       		.uleb128 0x1b
 2035 0a7e 75030000 		.4byte	0x375
 2036 0a82 0F       		.byte	0xf
 2037 0a83 00       		.byte	0
 2038 0a84 09       		.uleb128 0x9
 2039 0a85 04       		.byte	0x4
 2040 0a86 8F080000 		.4byte	0x88f
 2041 0a8a 1C       		.uleb128 0x1c
ARM GAS  /home/pauba/tmp/ccCykAzR.s 			page 37


 2042 0a8b 6D030000 		.4byte	.LASF181
 2043 0a8f 01       		.byte	0x1
 2044 0a90 5C       		.byte	0x5c
 2045 0a91 00000000 		.4byte	.LFB63
 2046 0a95 80000000 		.4byte	.LFE63-.LFB63
 2047 0a99 01       		.uleb128 0x1
 2048 0a9a 9C       		.byte	0x9c
 2049 0a9b C80A0000 		.4byte	0xac8
 2050 0a9f 1D       		.uleb128 0x1d
 2051 0aa0 73647000 		.ascii	"sdp\000"
 2052 0aa4 01       		.byte	0x1
 2053 0aa5 5C       		.byte	0x5c
 2054 0aa6 C80A0000 		.4byte	0xac8
 2055 0aaa 02       		.uleb128 0x2
 2056 0aab 91       		.byte	0x91
 2057 0aac 74       		.sleb128 -12
 2058 0aad 1E       		.uleb128 0x1e
 2059 0aae CF060000 		.4byte	.LASF180
 2060 0ab2 01       		.byte	0x1
 2061 0ab3 5C       		.byte	0x5c
 2062 0ab4 CE0A0000 		.4byte	0xace
 2063 0ab8 02       		.uleb128 0x2
 2064 0ab9 91       		.byte	0x91
 2065 0aba 70       		.sleb128 -16
 2066 0abb 1F       		.uleb128 0x1f
 2067 0abc 7500     		.ascii	"u\000"
 2068 0abe 01       		.byte	0x1
 2069 0abf 5D       		.byte	0x5d
 2070 0ac0 840A0000 		.4byte	0xa84
 2071 0ac4 02       		.uleb128 0x2
 2072 0ac5 91       		.byte	0x91
 2073 0ac6 7C       		.sleb128 -4
 2074 0ac7 00       		.byte	0
 2075 0ac8 09       		.uleb128 0x9
 2076 0ac9 04       		.byte	0x4
 2077 0aca 42090000 		.4byte	0x942
 2078 0ace 09       		.uleb128 0x9
 2079 0acf 04       		.byte	0x4
 2080 0ad0 D40A0000 		.4byte	0xad4
 2081 0ad4 10       		.uleb128 0x10
 2082 0ad5 F1090000 		.4byte	0x9f1
 2083 0ad9 1C       		.uleb128 0x1c
 2084 0ada F7010000 		.4byte	.LASF182
 2085 0ade 01       		.byte	0x1
 2086 0adf 7A       		.byte	0x7a
 2087 0ae0 00000000 		.4byte	.LFB64
 2088 0ae4 1A000000 		.4byte	.LFE64-.LFB64
 2089 0ae8 01       		.uleb128 0x1
 2090 0ae9 9C       		.byte	0x9c
 2091 0aea FB0A0000 		.4byte	0xafb
 2092 0aee 1D       		.uleb128 0x1d
 2093 0aef 7500     		.ascii	"u\000"
 2094 0af1 01       		.byte	0x1
 2095 0af2 7A       		.byte	0x7a
 2096 0af3 840A0000 		.4byte	0xa84
 2097 0af7 02       		.uleb128 0x2
 2098 0af8 91       		.byte	0x91
ARM GAS  /home/pauba/tmp/ccCykAzR.s 			page 38


 2099 0af9 7C       		.sleb128 -4
 2100 0afa 00       		.byte	0
 2101 0afb 20       		.uleb128 0x20
 2102 0afc 6A000000 		.4byte	.LASF183
 2103 0b00 01       		.byte	0x1
 2104 0b01 87       		.byte	0x87
 2105 0b02 00000000 		.4byte	.LFB65
 2106 0b06 72000000 		.4byte	.LFE65-.LFB65
 2107 0b0a 01       		.uleb128 0x1
 2108 0b0b 9C       		.byte	0x9c
 2109 0b0c 3A0B0000 		.4byte	0xb3a
 2110 0b10 1D       		.uleb128 0x1d
 2111 0b11 73647000 		.ascii	"sdp\000"
 2112 0b15 01       		.byte	0x1
 2113 0b16 87       		.byte	0x87
 2114 0b17 C80A0000 		.4byte	0xac8
 2115 0b1b 02       		.uleb128 0x2
 2116 0b1c 91       		.byte	0x91
 2117 0b1d 6C       		.sleb128 -20
 2118 0b1e 1D       		.uleb128 0x1d
 2119 0b1f 737200   		.ascii	"sr\000"
 2120 0b22 01       		.byte	0x1
 2121 0b23 87       		.byte	0x87
 2122 0b24 B4000000 		.4byte	0xb4
 2123 0b28 02       		.uleb128 0x2
 2124 0b29 91       		.byte	0x91
 2125 0b2a 6A       		.sleb128 -22
 2126 0b2b 1F       		.uleb128 0x1f
 2127 0b2c 73747300 		.ascii	"sts\000"
 2128 0b30 01       		.byte	0x1
 2129 0b31 88       		.byte	0x88
 2130 0b32 3F010000 		.4byte	0x13f
 2131 0b36 02       		.uleb128 0x2
 2132 0b37 91       		.byte	0x91
 2133 0b38 74       		.sleb128 -12
 2134 0b39 00       		.byte	0
 2135 0b3a 20       		.uleb128 0x20
 2136 0b3b 51050000 		.4byte	.LASF184
 2137 0b3f 01       		.byte	0x1
 2138 0b40 9A       		.byte	0x9a
 2139 0b41 00000000 		.4byte	.LFB66
 2140 0b45 7A010000 		.4byte	.LFE66-.LFB66
 2141 0b49 01       		.uleb128 0x1
 2142 0b4a 9C       		.byte	0x9c
 2143 0b4b 6F0C0000 		.4byte	0xc6f
 2144 0b4f 1D       		.uleb128 0x1d
 2145 0b50 73647000 		.ascii	"sdp\000"
 2146 0b54 01       		.byte	0x1
 2147 0b55 9A       		.byte	0x9a
 2148 0b56 C80A0000 		.4byte	0xac8
 2149 0b5a 02       		.uleb128 0x2
 2150 0b5b 91       		.byte	0x91
 2151 0b5c 64       		.sleb128 -28
 2152 0b5d 1F       		.uleb128 0x1f
 2153 0b5e 7500     		.ascii	"u\000"
 2154 0b60 01       		.byte	0x1
 2155 0b61 9B       		.byte	0x9b
ARM GAS  /home/pauba/tmp/ccCykAzR.s 			page 39


 2156 0b62 840A0000 		.4byte	0xa84
 2157 0b66 02       		.uleb128 0x2
 2158 0b67 91       		.byte	0x91
 2159 0b68 70       		.sleb128 -16
 2160 0b69 1F       		.uleb128 0x1f
 2161 0b6a 63723100 		.ascii	"cr1\000"
 2162 0b6e 01       		.byte	0x1
 2163 0b6f 9C       		.byte	0x9c
 2164 0b70 B4000000 		.4byte	0xb4
 2165 0b74 02       		.uleb128 0x2
 2166 0b75 91       		.byte	0x91
 2167 0b76 6E       		.sleb128 -18
 2168 0b77 1F       		.uleb128 0x1f
 2169 0b78 737200   		.ascii	"sr\000"
 2170 0b7b 01       		.byte	0x1
 2171 0b7c 9D       		.byte	0x9d
 2172 0b7d B4000000 		.4byte	0xb4
 2173 0b81 02       		.uleb128 0x2
 2174 0b82 91       		.byte	0x91
 2175 0b83 76       		.sleb128 -10
 2176 0b84 21       		.uleb128 0x21
 2177 0b85 28000000 		.4byte	.LBB2
 2178 0b89 06000000 		.4byte	.LBE2-.LBB2
 2179 0b8d 9F0B0000 		.4byte	0xb9f
 2180 0b91 1F       		.uleb128 0x1f
 2181 0b92 746D7000 		.ascii	"tmp\000"
 2182 0b96 01       		.byte	0x1
 2183 0b97 A1       		.byte	0xa1
 2184 0b98 CA000000 		.4byte	0xca
 2185 0b9c 01       		.uleb128 0x1
 2186 0b9d 53       		.byte	0x53
 2187 0b9e 00       		.byte	0
 2188 0b9f 21       		.uleb128 0x21
 2189 0ba0 44000000 		.4byte	.LBB3
 2190 0ba4 06000000 		.4byte	.LBE3-.LBB3
 2191 0ba8 BA0B0000 		.4byte	0xbba
 2192 0bac 1F       		.uleb128 0x1f
 2193 0bad 746D7000 		.ascii	"tmp\000"
 2194 0bb1 01       		.byte	0x1
 2195 0bb2 A3       		.byte	0xa3
 2196 0bb3 CA000000 		.4byte	0xca
 2197 0bb7 01       		.uleb128 0x1
 2198 0bb8 53       		.byte	0x53
 2199 0bb9 00       		.byte	0
 2200 0bba 21       		.uleb128 0x21
 2201 0bbb 52000000 		.4byte	.LBB4
 2202 0bbf 06000000 		.4byte	.LBE4-.LBB4
 2203 0bc3 D50B0000 		.4byte	0xbd5
 2204 0bc7 1F       		.uleb128 0x1f
 2205 0bc8 746D7000 		.ascii	"tmp\000"
 2206 0bcc 01       		.byte	0x1
 2207 0bcd A8       		.byte	0xa8
 2208 0bce CA000000 		.4byte	0xca
 2209 0bd2 01       		.uleb128 0x1
 2210 0bd3 53       		.byte	0x53
 2211 0bd4 00       		.byte	0
 2212 0bd5 21       		.uleb128 0x21
ARM GAS  /home/pauba/tmp/ccCykAzR.s 			page 40


 2213 0bd6 9E000000 		.4byte	.LBB5
 2214 0bda 06000000 		.4byte	.LBE5-.LBB5
 2215 0bde F00B0000 		.4byte	0xbf0
 2216 0be2 1F       		.uleb128 0x1f
 2217 0be3 746D7000 		.ascii	"tmp\000"
 2218 0be7 01       		.byte	0x1
 2219 0be8 B0       		.byte	0xb0
 2220 0be9 CA000000 		.4byte	0xca
 2221 0bed 01       		.uleb128 0x1
 2222 0bee 53       		.byte	0x53
 2223 0bef 00       		.byte	0
 2224 0bf0 21       		.uleb128 0x21
 2225 0bf1 BC000000 		.4byte	.LBB6
 2226 0bf5 52000000 		.4byte	.LBE6-.LBB6
 2227 0bf9 3C0C0000 		.4byte	0xc3c
 2228 0bfd 1F       		.uleb128 0x1f
 2229 0bfe 6200     		.ascii	"b\000"
 2230 0c00 01       		.byte	0x1
 2231 0c01 B4       		.byte	0xb4
 2232 0c02 29010000 		.4byte	0x129
 2233 0c06 02       		.uleb128 0x2
 2234 0c07 91       		.byte	0x91
 2235 0c08 68       		.sleb128 -24
 2236 0c09 21       		.uleb128 0x21
 2237 0c0a BC000000 		.4byte	.LBB7
 2238 0c0e 06000000 		.4byte	.LBE7-.LBB7
 2239 0c12 240C0000 		.4byte	0xc24
 2240 0c16 1F       		.uleb128 0x1f
 2241 0c17 746D7000 		.ascii	"tmp\000"
 2242 0c1b 01       		.byte	0x1
 2243 0c1c B5       		.byte	0xb5
 2244 0c1d CA000000 		.4byte	0xca
 2245 0c21 01       		.uleb128 0x1
 2246 0c22 53       		.byte	0x53
 2247 0c23 00       		.byte	0
 2248 0c24 22       		.uleb128 0x22
 2249 0c25 08010000 		.4byte	.LBB8
 2250 0c29 06000000 		.4byte	.LBE8-.LBB8
 2251 0c2d 1F       		.uleb128 0x1f
 2252 0c2e 746D7000 		.ascii	"tmp\000"
 2253 0c32 01       		.byte	0x1
 2254 0c33 BD       		.byte	0xbd
 2255 0c34 CA000000 		.4byte	0xca
 2256 0c38 01       		.uleb128 0x1
 2257 0c39 53       		.byte	0x53
 2258 0c3a 00       		.byte	0
 2259 0c3b 00       		.byte	0
 2260 0c3c 21       		.uleb128 0x21
 2261 0c3d 1A010000 		.4byte	.LBB9
 2262 0c41 06000000 		.4byte	.LBE9-.LBB9
 2263 0c45 570C0000 		.4byte	0xc57
 2264 0c49 1F       		.uleb128 0x1f
 2265 0c4a 746D7000 		.ascii	"tmp\000"
 2266 0c4e 01       		.byte	0x1
 2267 0c4f C2       		.byte	0xc2
 2268 0c50 CA000000 		.4byte	0xca
 2269 0c54 01       		.uleb128 0x1
ARM GAS  /home/pauba/tmp/ccCykAzR.s 			page 41


 2270 0c55 53       		.byte	0x53
 2271 0c56 00       		.byte	0
 2272 0c57 22       		.uleb128 0x22
 2273 0c58 6E010000 		.4byte	.LBB10
 2274 0c5c 06000000 		.4byte	.LBE10-.LBB10
 2275 0c60 1F       		.uleb128 0x1f
 2276 0c61 746D7000 		.ascii	"tmp\000"
 2277 0c65 01       		.byte	0x1
 2278 0c66 C7       		.byte	0xc7
 2279 0c67 CA000000 		.4byte	0xca
 2280 0c6b 01       		.uleb128 0x1
 2281 0c6c 53       		.byte	0x53
 2282 0c6d 00       		.byte	0
 2283 0c6e 00       		.byte	0
 2284 0c6f 1C       		.uleb128 0x1c
 2285 0c70 16040000 		.4byte	.LASF185
 2286 0c74 01       		.byte	0x1
 2287 0c75 D4       		.byte	0xd4
 2288 0c76 00000000 		.4byte	.LFB67
 2289 0c7a 1C000000 		.4byte	.LFE67-.LFB67
 2290 0c7e 01       		.uleb128 0x1
 2291 0c7f 9C       		.byte	0x9c
 2292 0c80 920C0000 		.4byte	0xc92
 2293 0c84 1D       		.uleb128 0x1d
 2294 0c85 717000   		.ascii	"qp\000"
 2295 0c88 01       		.byte	0x1
 2296 0c89 D4       		.byte	0xd4
 2297 0c8a 31050000 		.4byte	0x531
 2298 0c8e 02       		.uleb128 0x2
 2299 0c8f 91       		.byte	0x91
 2300 0c90 7C       		.sleb128 -4
 2301 0c91 00       		.byte	0
 2302 0c92 23       		.uleb128 0x23
 2303 0c93 29030000 		.4byte	.LASF186
 2304 0c97 01       		.byte	0x1
 2305 0c98 1B01     		.2byte	0x11b
 2306 0c9a 00000000 		.4byte	.LFB68
 2307 0c9e 1C000000 		.4byte	.LFE68-.LFB68
 2308 0ca2 01       		.uleb128 0x1
 2309 0ca3 9C       		.byte	0x9c
 2310 0ca4 23       		.uleb128 0x23
 2311 0ca5 68020000 		.4byte	.LASF187
 2312 0ca9 01       		.byte	0x1
 2313 0caa 7A01     		.2byte	0x17a
 2314 0cac 00000000 		.4byte	.LFB69
 2315 0cb0 20000000 		.4byte	.LFE69-.LFB69
 2316 0cb4 01       		.uleb128 0x1
 2317 0cb5 9C       		.byte	0x9c
 2318 0cb6 24       		.uleb128 0x24
 2319 0cb7 A8040000 		.4byte	.LASF188
 2320 0cbb 01       		.byte	0x1
 2321 0cbc A501     		.2byte	0x1a5
 2322 0cbe 00000000 		.4byte	.LFB70
 2323 0cc2 50000000 		.4byte	.LFE70-.LFB70
 2324 0cc6 01       		.uleb128 0x1
 2325 0cc7 9C       		.byte	0x9c
 2326 0cc8 EB0C0000 		.4byte	0xceb
ARM GAS  /home/pauba/tmp/ccCykAzR.s 			page 42


 2327 0ccc 25       		.uleb128 0x25
 2328 0ccd 73647000 		.ascii	"sdp\000"
 2329 0cd1 01       		.byte	0x1
 2330 0cd2 A501     		.2byte	0x1a5
 2331 0cd4 C80A0000 		.4byte	0xac8
 2332 0cd8 02       		.uleb128 0x2
 2333 0cd9 91       		.byte	0x91
 2334 0cda 74       		.sleb128 -12
 2335 0cdb 26       		.uleb128 0x26
 2336 0cdc CF060000 		.4byte	.LASF180
 2337 0ce0 01       		.byte	0x1
 2338 0ce1 A501     		.2byte	0x1a5
 2339 0ce3 CE0A0000 		.4byte	0xace
 2340 0ce7 02       		.uleb128 0x2
 2341 0ce8 91       		.byte	0x91
 2342 0ce9 70       		.sleb128 -16
 2343 0cea 00       		.byte	0
 2344 0ceb 24       		.uleb128 0x24
 2345 0cec 72080000 		.4byte	.LASF189
 2346 0cf0 01       		.byte	0x1
 2347 0cf1 E201     		.2byte	0x1e2
 2348 0cf3 00000000 		.4byte	.LFB71
 2349 0cf7 44000000 		.4byte	.LFE71-.LFB71
 2350 0cfb 01       		.uleb128 0x1
 2351 0cfc 9C       		.byte	0x9c
 2352 0cfd 110D0000 		.4byte	0xd11
 2353 0d01 25       		.uleb128 0x25
 2354 0d02 73647000 		.ascii	"sdp\000"
 2355 0d06 01       		.byte	0x1
 2356 0d07 E201     		.2byte	0x1e2
 2357 0d09 C80A0000 		.4byte	0xac8
 2358 0d0d 02       		.uleb128 0x2
 2359 0d0e 91       		.byte	0x91
 2360 0d0f 74       		.sleb128 -12
 2361 0d10 00       		.byte	0
 2362 0d11 27       		.uleb128 0x27
 2363 0d12 42010000 		.4byte	.LASF190
 2364 0d16 01       		.byte	0x1
 2365 0d17 49       		.byte	0x49
 2366 0d18 D40A0000 		.4byte	0xad4
 2367 0d1c 05       		.uleb128 0x5
 2368 0d1d 03       		.byte	0x3
 2369 0d1e 00000000 		.4byte	default_config
 2370 0d22 28       		.uleb128 0x28
 2371 0d23 C0000000 		.4byte	.LASF191
 2372 0d27 0F       		.byte	0xf
 2373 0d28 0706     		.2byte	0x607
 2374 0d2a 2E0D0000 		.4byte	0xd2e
 2375 0d2e 0D       		.uleb128 0xd
 2376 0d2f BF000000 		.4byte	0xbf
 2377 0d33 29       		.uleb128 0x29
 2378 0d34 53443200 		.ascii	"SD2\000"
 2379 0d38 01       		.byte	0x1
 2380 0d39 2D       		.byte	0x2d
 2381 0d3a 42090000 		.4byte	0x942
 2382 0d3e 05       		.uleb128 0x5
 2383 0d3f 03       		.byte	0x3
ARM GAS  /home/pauba/tmp/ccCykAzR.s 			page 43


 2384 0d40 00000000 		.4byte	SD2
 2385 0d44 00       		.byte	0
 2386              		.section	.debug_abbrev,"",%progbits
 2387              	.Ldebug_abbrev0:
 2388 0000 01       		.uleb128 0x1
 2389 0001 11       		.uleb128 0x11
 2390 0002 01       		.byte	0x1
 2391 0003 25       		.uleb128 0x25
 2392 0004 0E       		.uleb128 0xe
 2393 0005 13       		.uleb128 0x13
 2394 0006 0B       		.uleb128 0xb
 2395 0007 03       		.uleb128 0x3
 2396 0008 0E       		.uleb128 0xe
 2397 0009 55       		.uleb128 0x55
 2398 000a 17       		.uleb128 0x17
 2399 000b 11       		.uleb128 0x11
 2400 000c 01       		.uleb128 0x1
 2401 000d 10       		.uleb128 0x10
 2402 000e 17       		.uleb128 0x17
 2403 000f 00       		.byte	0
 2404 0010 00       		.byte	0
 2405 0011 02       		.uleb128 0x2
 2406 0012 24       		.uleb128 0x24
 2407 0013 00       		.byte	0
 2408 0014 0B       		.uleb128 0xb
 2409 0015 0B       		.uleb128 0xb
 2410 0016 3E       		.uleb128 0x3e
 2411 0017 0B       		.uleb128 0xb
 2412 0018 03       		.uleb128 0x3
 2413 0019 08       		.uleb128 0x8
 2414 001a 00       		.byte	0
 2415 001b 00       		.byte	0
 2416 001c 03       		.uleb128 0x3
 2417 001d 16       		.uleb128 0x16
 2418 001e 00       		.byte	0
 2419 001f 03       		.uleb128 0x3
 2420 0020 0E       		.uleb128 0xe
 2421 0021 3A       		.uleb128 0x3a
 2422 0022 0B       		.uleb128 0xb
 2423 0023 3B       		.uleb128 0x3b
 2424 0024 0B       		.uleb128 0xb
 2425 0025 49       		.uleb128 0x49
 2426 0026 13       		.uleb128 0x13
 2427 0027 00       		.byte	0
 2428 0028 00       		.byte	0
 2429 0029 04       		.uleb128 0x4
 2430 002a 24       		.uleb128 0x24
 2431 002b 00       		.byte	0
 2432 002c 0B       		.uleb128 0xb
 2433 002d 0B       		.uleb128 0xb
 2434 002e 3E       		.uleb128 0x3e
 2435 002f 0B       		.uleb128 0xb
 2436 0030 03       		.uleb128 0x3
 2437 0031 0E       		.uleb128 0xe
 2438 0032 00       		.byte	0
 2439 0033 00       		.byte	0
 2440 0034 05       		.uleb128 0x5
ARM GAS  /home/pauba/tmp/ccCykAzR.s 			page 44


 2441 0035 13       		.uleb128 0x13
 2442 0036 01       		.byte	0x1
 2443 0037 03       		.uleb128 0x3
 2444 0038 0E       		.uleb128 0xe
 2445 0039 0B       		.uleb128 0xb
 2446 003a 0B       		.uleb128 0xb
 2447 003b 3A       		.uleb128 0x3a
 2448 003c 0B       		.uleb128 0xb
 2449 003d 3B       		.uleb128 0x3b
 2450 003e 0B       		.uleb128 0xb
 2451 003f 01       		.uleb128 0x1
 2452 0040 13       		.uleb128 0x13
 2453 0041 00       		.byte	0
 2454 0042 00       		.byte	0
 2455 0043 06       		.uleb128 0x6
 2456 0044 0D       		.uleb128 0xd
 2457 0045 00       		.byte	0
 2458 0046 03       		.uleb128 0x3
 2459 0047 0E       		.uleb128 0xe
 2460 0048 3A       		.uleb128 0x3a
 2461 0049 0B       		.uleb128 0xb
 2462 004a 3B       		.uleb128 0x3b
 2463 004b 0B       		.uleb128 0xb
 2464 004c 49       		.uleb128 0x49
 2465 004d 13       		.uleb128 0x13
 2466 004e 38       		.uleb128 0x38
 2467 004f 0B       		.uleb128 0xb
 2468 0050 00       		.byte	0
 2469 0051 00       		.byte	0
 2470 0052 07       		.uleb128 0x7
 2471 0053 0D       		.uleb128 0xd
 2472 0054 00       		.byte	0
 2473 0055 03       		.uleb128 0x3
 2474 0056 08       		.uleb128 0x8
 2475 0057 3A       		.uleb128 0x3a
 2476 0058 0B       		.uleb128 0xb
 2477 0059 3B       		.uleb128 0x3b
 2478 005a 0B       		.uleb128 0xb
 2479 005b 49       		.uleb128 0x49
 2480 005c 13       		.uleb128 0x13
 2481 005d 38       		.uleb128 0x38
 2482 005e 0B       		.uleb128 0xb
 2483 005f 00       		.byte	0
 2484 0060 00       		.byte	0
 2485 0061 08       		.uleb128 0x8
 2486 0062 13       		.uleb128 0x13
 2487 0063 01       		.byte	0x1
 2488 0064 0B       		.uleb128 0xb
 2489 0065 0B       		.uleb128 0xb
 2490 0066 3A       		.uleb128 0x3a
 2491 0067 0B       		.uleb128 0xb
 2492 0068 3B       		.uleb128 0x3b
 2493 0069 0B       		.uleb128 0xb
 2494 006a 01       		.uleb128 0x1
 2495 006b 13       		.uleb128 0x13
 2496 006c 00       		.byte	0
 2497 006d 00       		.byte	0
ARM GAS  /home/pauba/tmp/ccCykAzR.s 			page 45


 2498 006e 09       		.uleb128 0x9
 2499 006f 0F       		.uleb128 0xf
 2500 0070 00       		.byte	0
 2501 0071 0B       		.uleb128 0xb
 2502 0072 0B       		.uleb128 0xb
 2503 0073 49       		.uleb128 0x49
 2504 0074 13       		.uleb128 0x13
 2505 0075 00       		.byte	0
 2506 0076 00       		.byte	0
 2507 0077 0A       		.uleb128 0xa
 2508 0078 0F       		.uleb128 0xf
 2509 0079 00       		.byte	0
 2510 007a 0B       		.uleb128 0xb
 2511 007b 0B       		.uleb128 0xb
 2512 007c 00       		.byte	0
 2513 007d 00       		.byte	0
 2514 007e 0B       		.uleb128 0xb
 2515 007f 13       		.uleb128 0x13
 2516 0080 01       		.byte	0x1
 2517 0081 03       		.uleb128 0x3
 2518 0082 0E       		.uleb128 0xe
 2519 0083 0B       		.uleb128 0xb
 2520 0084 0B       		.uleb128 0xb
 2521 0085 3A       		.uleb128 0x3a
 2522 0086 0B       		.uleb128 0xb
 2523 0087 3B       		.uleb128 0x3b
 2524 0088 05       		.uleb128 0x5
 2525 0089 01       		.uleb128 0x1
 2526 008a 13       		.uleb128 0x13
 2527 008b 00       		.byte	0
 2528 008c 00       		.byte	0
 2529 008d 0C       		.uleb128 0xc
 2530 008e 0D       		.uleb128 0xd
 2531 008f 00       		.byte	0
 2532 0090 03       		.uleb128 0x3
 2533 0091 08       		.uleb128 0x8
 2534 0092 3A       		.uleb128 0x3a
 2535 0093 0B       		.uleb128 0xb
 2536 0094 3B       		.uleb128 0x3b
 2537 0095 05       		.uleb128 0x5
 2538 0096 49       		.uleb128 0x49
 2539 0097 13       		.uleb128 0x13
 2540 0098 38       		.uleb128 0x38
 2541 0099 0B       		.uleb128 0xb
 2542 009a 00       		.byte	0
 2543 009b 00       		.byte	0
 2544 009c 0D       		.uleb128 0xd
 2545 009d 35       		.uleb128 0x35
 2546 009e 00       		.byte	0
 2547 009f 49       		.uleb128 0x49
 2548 00a0 13       		.uleb128 0x13
 2549 00a1 00       		.byte	0
 2550 00a2 00       		.byte	0
 2551 00a3 0E       		.uleb128 0xe
 2552 00a4 17       		.uleb128 0x17
 2553 00a5 01       		.byte	0x1
 2554 00a6 0B       		.uleb128 0xb
ARM GAS  /home/pauba/tmp/ccCykAzR.s 			page 46


 2555 00a7 0B       		.uleb128 0xb
 2556 00a8 3A       		.uleb128 0x3a
 2557 00a9 0B       		.uleb128 0xb
 2558 00aa 3B       		.uleb128 0x3b
 2559 00ab 0B       		.uleb128 0xb
 2560 00ac 01       		.uleb128 0x1
 2561 00ad 13       		.uleb128 0x13
 2562 00ae 00       		.byte	0
 2563 00af 00       		.byte	0
 2564 00b0 0F       		.uleb128 0xf
 2565 00b1 0D       		.uleb128 0xd
 2566 00b2 00       		.byte	0
 2567 00b3 03       		.uleb128 0x3
 2568 00b4 0E       		.uleb128 0xe
 2569 00b5 3A       		.uleb128 0x3a
 2570 00b6 0B       		.uleb128 0xb
 2571 00b7 3B       		.uleb128 0x3b
 2572 00b8 0B       		.uleb128 0xb
 2573 00b9 49       		.uleb128 0x49
 2574 00ba 13       		.uleb128 0x13
 2575 00bb 00       		.byte	0
 2576 00bc 00       		.byte	0
 2577 00bd 10       		.uleb128 0x10
 2578 00be 26       		.uleb128 0x26
 2579 00bf 00       		.byte	0
 2580 00c0 49       		.uleb128 0x49
 2581 00c1 13       		.uleb128 0x13
 2582 00c2 00       		.byte	0
 2583 00c3 00       		.byte	0
 2584 00c4 11       		.uleb128 0x11
 2585 00c5 15       		.uleb128 0x15
 2586 00c6 01       		.byte	0x1
 2587 00c7 27       		.uleb128 0x27
 2588 00c8 19       		.uleb128 0x19
 2589 00c9 49       		.uleb128 0x49
 2590 00ca 13       		.uleb128 0x13
 2591 00cb 01       		.uleb128 0x1
 2592 00cc 13       		.uleb128 0x13
 2593 00cd 00       		.byte	0
 2594 00ce 00       		.byte	0
 2595 00cf 12       		.uleb128 0x12
 2596 00d0 05       		.uleb128 0x5
 2597 00d1 00       		.byte	0
 2598 00d2 49       		.uleb128 0x49
 2599 00d3 13       		.uleb128 0x13
 2600 00d4 00       		.byte	0
 2601 00d5 00       		.byte	0
 2602 00d6 13       		.uleb128 0x13
 2603 00d7 15       		.uleb128 0x15
 2604 00d8 01       		.byte	0x1
 2605 00d9 27       		.uleb128 0x27
 2606 00da 19       		.uleb128 0x19
 2607 00db 01       		.uleb128 0x1
 2608 00dc 13       		.uleb128 0x13
 2609 00dd 00       		.byte	0
 2610 00de 00       		.byte	0
 2611 00df 14       		.uleb128 0x14
ARM GAS  /home/pauba/tmp/ccCykAzR.s 			page 47


 2612 00e0 04       		.uleb128 0x4
 2613 00e1 01       		.byte	0x1
 2614 00e2 03       		.uleb128 0x3
 2615 00e3 0E       		.uleb128 0xe
 2616 00e4 0B       		.uleb128 0xb
 2617 00e5 0B       		.uleb128 0xb
 2618 00e6 3A       		.uleb128 0x3a
 2619 00e7 0B       		.uleb128 0xb
 2620 00e8 3B       		.uleb128 0x3b
 2621 00e9 0B       		.uleb128 0xb
 2622 00ea 01       		.uleb128 0x1
 2623 00eb 13       		.uleb128 0x13
 2624 00ec 00       		.byte	0
 2625 00ed 00       		.byte	0
 2626 00ee 15       		.uleb128 0x15
 2627 00ef 28       		.uleb128 0x28
 2628 00f0 00       		.byte	0
 2629 00f1 03       		.uleb128 0x3
 2630 00f2 0E       		.uleb128 0xe
 2631 00f3 1C       		.uleb128 0x1c
 2632 00f4 0D       		.uleb128 0xd
 2633 00f5 00       		.byte	0
 2634 00f6 00       		.byte	0
 2635 00f7 16       		.uleb128 0x16
 2636 00f8 13       		.uleb128 0x13
 2637 00f9 01       		.byte	0x1
 2638 00fa 0B       		.uleb128 0xb
 2639 00fb 0B       		.uleb128 0xb
 2640 00fc 3A       		.uleb128 0x3a
 2641 00fd 0B       		.uleb128 0xb
 2642 00fe 3B       		.uleb128 0x3b
 2643 00ff 05       		.uleb128 0x5
 2644 0100 01       		.uleb128 0x1
 2645 0101 13       		.uleb128 0x13
 2646 0102 00       		.byte	0
 2647 0103 00       		.byte	0
 2648 0104 17       		.uleb128 0x17
 2649 0105 0D       		.uleb128 0xd
 2650 0106 00       		.byte	0
 2651 0107 03       		.uleb128 0x3
 2652 0108 0E       		.uleb128 0xe
 2653 0109 3A       		.uleb128 0x3a
 2654 010a 0B       		.uleb128 0xb
 2655 010b 3B       		.uleb128 0x3b
 2656 010c 05       		.uleb128 0x5
 2657 010d 49       		.uleb128 0x49
 2658 010e 13       		.uleb128 0x13
 2659 010f 38       		.uleb128 0x38
 2660 0110 0B       		.uleb128 0xb
 2661 0111 00       		.byte	0
 2662 0112 00       		.byte	0
 2663 0113 18       		.uleb128 0x18
 2664 0114 16       		.uleb128 0x16
 2665 0115 00       		.byte	0
 2666 0116 03       		.uleb128 0x3
 2667 0117 0E       		.uleb128 0xe
 2668 0118 3A       		.uleb128 0x3a
ARM GAS  /home/pauba/tmp/ccCykAzR.s 			page 48


 2669 0119 0B       		.uleb128 0xb
 2670 011a 3B       		.uleb128 0x3b
 2671 011b 05       		.uleb128 0x5
 2672 011c 49       		.uleb128 0x49
 2673 011d 13       		.uleb128 0x13
 2674 011e 00       		.byte	0
 2675 011f 00       		.byte	0
 2676 0120 19       		.uleb128 0x19
 2677 0121 04       		.uleb128 0x4
 2678 0122 01       		.byte	0x1
 2679 0123 0B       		.uleb128 0xb
 2680 0124 0B       		.uleb128 0xb
 2681 0125 3A       		.uleb128 0x3a
 2682 0126 0B       		.uleb128 0xb
 2683 0127 3B       		.uleb128 0x3b
 2684 0128 0B       		.uleb128 0xb
 2685 0129 01       		.uleb128 0x1
 2686 012a 13       		.uleb128 0x13
 2687 012b 00       		.byte	0
 2688 012c 00       		.byte	0
 2689 012d 1A       		.uleb128 0x1a
 2690 012e 01       		.uleb128 0x1
 2691 012f 01       		.byte	0x1
 2692 0130 49       		.uleb128 0x49
 2693 0131 13       		.uleb128 0x13
 2694 0132 01       		.uleb128 0x1
 2695 0133 13       		.uleb128 0x13
 2696 0134 00       		.byte	0
 2697 0135 00       		.byte	0
 2698 0136 1B       		.uleb128 0x1b
 2699 0137 21       		.uleb128 0x21
 2700 0138 00       		.byte	0
 2701 0139 49       		.uleb128 0x49
 2702 013a 13       		.uleb128 0x13
 2703 013b 2F       		.uleb128 0x2f
 2704 013c 0B       		.uleb128 0xb
 2705 013d 00       		.byte	0
 2706 013e 00       		.byte	0
 2707 013f 1C       		.uleb128 0x1c
 2708 0140 2E       		.uleb128 0x2e
 2709 0141 01       		.byte	0x1
 2710 0142 03       		.uleb128 0x3
 2711 0143 0E       		.uleb128 0xe
 2712 0144 3A       		.uleb128 0x3a
 2713 0145 0B       		.uleb128 0xb
 2714 0146 3B       		.uleb128 0x3b
 2715 0147 0B       		.uleb128 0xb
 2716 0148 27       		.uleb128 0x27
 2717 0149 19       		.uleb128 0x19
 2718 014a 11       		.uleb128 0x11
 2719 014b 01       		.uleb128 0x1
 2720 014c 12       		.uleb128 0x12
 2721 014d 06       		.uleb128 0x6
 2722 014e 40       		.uleb128 0x40
 2723 014f 18       		.uleb128 0x18
 2724 0150 9742     		.uleb128 0x2117
 2725 0152 19       		.uleb128 0x19
ARM GAS  /home/pauba/tmp/ccCykAzR.s 			page 49


 2726 0153 01       		.uleb128 0x1
 2727 0154 13       		.uleb128 0x13
 2728 0155 00       		.byte	0
 2729 0156 00       		.byte	0
 2730 0157 1D       		.uleb128 0x1d
 2731 0158 05       		.uleb128 0x5
 2732 0159 00       		.byte	0
 2733 015a 03       		.uleb128 0x3
 2734 015b 08       		.uleb128 0x8
 2735 015c 3A       		.uleb128 0x3a
 2736 015d 0B       		.uleb128 0xb
 2737 015e 3B       		.uleb128 0x3b
 2738 015f 0B       		.uleb128 0xb
 2739 0160 49       		.uleb128 0x49
 2740 0161 13       		.uleb128 0x13
 2741 0162 02       		.uleb128 0x2
 2742 0163 18       		.uleb128 0x18
 2743 0164 00       		.byte	0
 2744 0165 00       		.byte	0
 2745 0166 1E       		.uleb128 0x1e
 2746 0167 05       		.uleb128 0x5
 2747 0168 00       		.byte	0
 2748 0169 03       		.uleb128 0x3
 2749 016a 0E       		.uleb128 0xe
 2750 016b 3A       		.uleb128 0x3a
 2751 016c 0B       		.uleb128 0xb
 2752 016d 3B       		.uleb128 0x3b
 2753 016e 0B       		.uleb128 0xb
 2754 016f 49       		.uleb128 0x49
 2755 0170 13       		.uleb128 0x13
 2756 0171 02       		.uleb128 0x2
 2757 0172 18       		.uleb128 0x18
 2758 0173 00       		.byte	0
 2759 0174 00       		.byte	0
 2760 0175 1F       		.uleb128 0x1f
 2761 0176 34       		.uleb128 0x34
 2762 0177 00       		.byte	0
 2763 0178 03       		.uleb128 0x3
 2764 0179 08       		.uleb128 0x8
 2765 017a 3A       		.uleb128 0x3a
 2766 017b 0B       		.uleb128 0xb
 2767 017c 3B       		.uleb128 0x3b
 2768 017d 0B       		.uleb128 0xb
 2769 017e 49       		.uleb128 0x49
 2770 017f 13       		.uleb128 0x13
 2771 0180 02       		.uleb128 0x2
 2772 0181 18       		.uleb128 0x18
 2773 0182 00       		.byte	0
 2774 0183 00       		.byte	0
 2775 0184 20       		.uleb128 0x20
 2776 0185 2E       		.uleb128 0x2e
 2777 0186 01       		.byte	0x1
 2778 0187 03       		.uleb128 0x3
 2779 0188 0E       		.uleb128 0xe
 2780 0189 3A       		.uleb128 0x3a
 2781 018a 0B       		.uleb128 0xb
 2782 018b 3B       		.uleb128 0x3b
ARM GAS  /home/pauba/tmp/ccCykAzR.s 			page 50


 2783 018c 0B       		.uleb128 0xb
 2784 018d 27       		.uleb128 0x27
 2785 018e 19       		.uleb128 0x19
 2786 018f 11       		.uleb128 0x11
 2787 0190 01       		.uleb128 0x1
 2788 0191 12       		.uleb128 0x12
 2789 0192 06       		.uleb128 0x6
 2790 0193 40       		.uleb128 0x40
 2791 0194 18       		.uleb128 0x18
 2792 0195 9642     		.uleb128 0x2116
 2793 0197 19       		.uleb128 0x19
 2794 0198 01       		.uleb128 0x1
 2795 0199 13       		.uleb128 0x13
 2796 019a 00       		.byte	0
 2797 019b 00       		.byte	0
 2798 019c 21       		.uleb128 0x21
 2799 019d 0B       		.uleb128 0xb
 2800 019e 01       		.byte	0x1
 2801 019f 11       		.uleb128 0x11
 2802 01a0 01       		.uleb128 0x1
 2803 01a1 12       		.uleb128 0x12
 2804 01a2 06       		.uleb128 0x6
 2805 01a3 01       		.uleb128 0x1
 2806 01a4 13       		.uleb128 0x13
 2807 01a5 00       		.byte	0
 2808 01a6 00       		.byte	0
 2809 01a7 22       		.uleb128 0x22
 2810 01a8 0B       		.uleb128 0xb
 2811 01a9 01       		.byte	0x1
 2812 01aa 11       		.uleb128 0x11
 2813 01ab 01       		.uleb128 0x1
 2814 01ac 12       		.uleb128 0x12
 2815 01ad 06       		.uleb128 0x6
 2816 01ae 00       		.byte	0
 2817 01af 00       		.byte	0
 2818 01b0 23       		.uleb128 0x23
 2819 01b1 2E       		.uleb128 0x2e
 2820 01b2 00       		.byte	0
 2821 01b3 3F       		.uleb128 0x3f
 2822 01b4 19       		.uleb128 0x19
 2823 01b5 03       		.uleb128 0x3
 2824 01b6 0E       		.uleb128 0xe
 2825 01b7 3A       		.uleb128 0x3a
 2826 01b8 0B       		.uleb128 0xb
 2827 01b9 3B       		.uleb128 0x3b
 2828 01ba 05       		.uleb128 0x5
 2829 01bb 27       		.uleb128 0x27
 2830 01bc 19       		.uleb128 0x19
 2831 01bd 11       		.uleb128 0x11
 2832 01be 01       		.uleb128 0x1
 2833 01bf 12       		.uleb128 0x12
 2834 01c0 06       		.uleb128 0x6
 2835 01c1 40       		.uleb128 0x40
 2836 01c2 18       		.uleb128 0x18
 2837 01c3 9642     		.uleb128 0x2116
 2838 01c5 19       		.uleb128 0x19
 2839 01c6 00       		.byte	0
ARM GAS  /home/pauba/tmp/ccCykAzR.s 			page 51


 2840 01c7 00       		.byte	0
 2841 01c8 24       		.uleb128 0x24
 2842 01c9 2E       		.uleb128 0x2e
 2843 01ca 01       		.byte	0x1
 2844 01cb 3F       		.uleb128 0x3f
 2845 01cc 19       		.uleb128 0x19
 2846 01cd 03       		.uleb128 0x3
 2847 01ce 0E       		.uleb128 0xe
 2848 01cf 3A       		.uleb128 0x3a
 2849 01d0 0B       		.uleb128 0xb
 2850 01d1 3B       		.uleb128 0x3b
 2851 01d2 05       		.uleb128 0x5
 2852 01d3 27       		.uleb128 0x27
 2853 01d4 19       		.uleb128 0x19
 2854 01d5 11       		.uleb128 0x11
 2855 01d6 01       		.uleb128 0x1
 2856 01d7 12       		.uleb128 0x12
 2857 01d8 06       		.uleb128 0x6
 2858 01d9 40       		.uleb128 0x40
 2859 01da 18       		.uleb128 0x18
 2860 01db 9642     		.uleb128 0x2116
 2861 01dd 19       		.uleb128 0x19
 2862 01de 01       		.uleb128 0x1
 2863 01df 13       		.uleb128 0x13
 2864 01e0 00       		.byte	0
 2865 01e1 00       		.byte	0
 2866 01e2 25       		.uleb128 0x25
 2867 01e3 05       		.uleb128 0x5
 2868 01e4 00       		.byte	0
 2869 01e5 03       		.uleb128 0x3
 2870 01e6 08       		.uleb128 0x8
 2871 01e7 3A       		.uleb128 0x3a
 2872 01e8 0B       		.uleb128 0xb
 2873 01e9 3B       		.uleb128 0x3b
 2874 01ea 05       		.uleb128 0x5
 2875 01eb 49       		.uleb128 0x49
 2876 01ec 13       		.uleb128 0x13
 2877 01ed 02       		.uleb128 0x2
 2878 01ee 18       		.uleb128 0x18
 2879 01ef 00       		.byte	0
 2880 01f0 00       		.byte	0
 2881 01f1 26       		.uleb128 0x26
 2882 01f2 05       		.uleb128 0x5
 2883 01f3 00       		.byte	0
 2884 01f4 03       		.uleb128 0x3
 2885 01f5 0E       		.uleb128 0xe
 2886 01f6 3A       		.uleb128 0x3a
 2887 01f7 0B       		.uleb128 0xb
 2888 01f8 3B       		.uleb128 0x3b
 2889 01f9 05       		.uleb128 0x5
 2890 01fa 49       		.uleb128 0x49
 2891 01fb 13       		.uleb128 0x13
 2892 01fc 02       		.uleb128 0x2
 2893 01fd 18       		.uleb128 0x18
 2894 01fe 00       		.byte	0
 2895 01ff 00       		.byte	0
 2896 0200 27       		.uleb128 0x27
ARM GAS  /home/pauba/tmp/ccCykAzR.s 			page 52


 2897 0201 34       		.uleb128 0x34
 2898 0202 00       		.byte	0
 2899 0203 03       		.uleb128 0x3
 2900 0204 0E       		.uleb128 0xe
 2901 0205 3A       		.uleb128 0x3a
 2902 0206 0B       		.uleb128 0xb
 2903 0207 3B       		.uleb128 0x3b
 2904 0208 0B       		.uleb128 0xb
 2905 0209 49       		.uleb128 0x49
 2906 020a 13       		.uleb128 0x13
 2907 020b 02       		.uleb128 0x2
 2908 020c 18       		.uleb128 0x18
 2909 020d 00       		.byte	0
 2910 020e 00       		.byte	0
 2911 020f 28       		.uleb128 0x28
 2912 0210 34       		.uleb128 0x34
 2913 0211 00       		.byte	0
 2914 0212 03       		.uleb128 0x3
 2915 0213 0E       		.uleb128 0xe
 2916 0214 3A       		.uleb128 0x3a
 2917 0215 0B       		.uleb128 0xb
 2918 0216 3B       		.uleb128 0x3b
 2919 0217 05       		.uleb128 0x5
 2920 0218 49       		.uleb128 0x49
 2921 0219 13       		.uleb128 0x13
 2922 021a 3F       		.uleb128 0x3f
 2923 021b 19       		.uleb128 0x19
 2924 021c 3C       		.uleb128 0x3c
 2925 021d 19       		.uleb128 0x19
 2926 021e 00       		.byte	0
 2927 021f 00       		.byte	0
 2928 0220 29       		.uleb128 0x29
 2929 0221 34       		.uleb128 0x34
 2930 0222 00       		.byte	0
 2931 0223 03       		.uleb128 0x3
 2932 0224 08       		.uleb128 0x8
 2933 0225 3A       		.uleb128 0x3a
 2934 0226 0B       		.uleb128 0xb
 2935 0227 3B       		.uleb128 0x3b
 2936 0228 0B       		.uleb128 0xb
 2937 0229 49       		.uleb128 0x49
 2938 022a 13       		.uleb128 0x13
 2939 022b 3F       		.uleb128 0x3f
 2940 022c 19       		.uleb128 0x19
 2941 022d 02       		.uleb128 0x2
 2942 022e 18       		.uleb128 0x18
 2943 022f 00       		.byte	0
 2944 0230 00       		.byte	0
 2945 0231 00       		.byte	0
 2946              		.section	.debug_aranges,"",%progbits
 2947 0000 5C000000 		.4byte	0x5c
 2948 0004 0200     		.2byte	0x2
 2949 0006 00000000 		.4byte	.Ldebug_info0
 2950 000a 04       		.byte	0x4
 2951 000b 00       		.byte	0
 2952 000c 0000     		.2byte	0
 2953 000e 0000     		.2byte	0
ARM GAS  /home/pauba/tmp/ccCykAzR.s 			page 53


 2954 0010 00000000 		.4byte	.LFB63
 2955 0014 80000000 		.4byte	.LFE63-.LFB63
 2956 0018 00000000 		.4byte	.LFB64
 2957 001c 1A000000 		.4byte	.LFE64-.LFB64
 2958 0020 00000000 		.4byte	.LFB65
 2959 0024 72000000 		.4byte	.LFE65-.LFB65
 2960 0028 00000000 		.4byte	.LFB66
 2961 002c 7A010000 		.4byte	.LFE66-.LFB66
 2962 0030 00000000 		.4byte	.LFB67
 2963 0034 1C000000 		.4byte	.LFE67-.LFB67
 2964 0038 00000000 		.4byte	.LFB68
 2965 003c 1C000000 		.4byte	.LFE68-.LFB68
 2966 0040 00000000 		.4byte	.LFB69
 2967 0044 20000000 		.4byte	.LFE69-.LFB69
 2968 0048 00000000 		.4byte	.LFB70
 2969 004c 50000000 		.4byte	.LFE70-.LFB70
 2970 0050 00000000 		.4byte	.LFB71
 2971 0054 44000000 		.4byte	.LFE71-.LFB71
 2972 0058 00000000 		.4byte	0
 2973 005c 00000000 		.4byte	0
 2974              		.section	.debug_ranges,"",%progbits
 2975              	.Ldebug_ranges0:
 2976 0000 00000000 		.4byte	.LFB63
 2977 0004 80000000 		.4byte	.LFE63
 2978 0008 00000000 		.4byte	.LFB64
 2979 000c 1A000000 		.4byte	.LFE64
 2980 0010 00000000 		.4byte	.LFB65
 2981 0014 72000000 		.4byte	.LFE65
 2982 0018 00000000 		.4byte	.LFB66
 2983 001c 7A010000 		.4byte	.LFE66
 2984 0020 00000000 		.4byte	.LFB67
 2985 0024 1C000000 		.4byte	.LFE67
 2986 0028 00000000 		.4byte	.LFB68
 2987 002c 1C000000 		.4byte	.LFE68
 2988 0030 00000000 		.4byte	.LFB69
 2989 0034 20000000 		.4byte	.LFE69
 2990 0038 00000000 		.4byte	.LFB70
 2991 003c 50000000 		.4byte	.LFE70
 2992 0040 00000000 		.4byte	.LFB71
 2993 0044 44000000 		.4byte	.LFE71
 2994 0048 00000000 		.4byte	0
 2995 004c 00000000 		.4byte	0
 2996              		.section	.debug_line,"",%progbits
 2997              	.Ldebug_line0:
 2998 0000 D7030000 		.section	.debug_str,"MS",%progbits,1
 2998      0200C402 
 2998      00000201 
 2998      FB0E0D00 
 2998      01010101 
 2999              	.LASF96:
 3000 0000 5056445F 		.ascii	"PVD_IRQn\000"
 3000      4952516E 
 3000      00
 3001              	.LASF50:
 3002 0009 705F7265 		.ascii	"p_realprio\000"
 3002      616C7072 
 3002      696F00
ARM GAS  /home/pauba/tmp/ccCykAzR.s 			page 54


 3003              	.LASF2:
 3004 0014 73697A65 		.ascii	"size_t\000"
 3004      5F7400
 3005              	.LASF118:
 3006 001b 45585449 		.ascii	"EXTI9_5_IRQn\000"
 3006      395F355F 
 3006      4952516E 
 3006      00
 3007              	.LASF70:
 3008 0028 7264796D 		.ascii	"rdymsg\000"
 3008      736700
 3009              	.LASF19:
 3010 002f 75696E74 		.ascii	"uint64_t\000"
 3010      36345F74 
 3010      00
 3011              	.LASF86:
 3012 0038 4F757470 		.ascii	"OutputQueue\000"
 3012      75745175 
 3012      65756500 
 3013              	.LASF126:
 3014 0044 49324331 		.ascii	"I2C1_EV_IRQn\000"
 3014      5F45565F 
 3014      4952516E 
 3014      00
 3015              	.LASF3:
 3016 0051 5F5F7569 		.ascii	"__uint8_t\000"
 3016      6E74385F 
 3016      7400
 3017              	.LASF136:
 3018 005b 5254435F 		.ascii	"RTC_Alarm_IRQn\000"
 3018      416C6172 
 3018      6D5F4952 
 3018      516E00
 3019              	.LASF183:
 3020 006a 7365745F 		.ascii	"set_error\000"
 3020      6572726F 
 3020      7200
 3021              	.LASF148:
 3022 0074 4148424C 		.ascii	"AHBLPENR\000"
 3022      50454E52 
 3022      00
 3023              	.LASF14:
 3024 007d 6C6F6E67 		.ascii	"long long unsigned int\000"
 3024      206C6F6E 
 3024      6720756E 
 3024      7369676E 
 3024      65642069 
 3025              	.LASF29:
 3026 0094 666C6167 		.ascii	"flagsmask_t\000"
 3026      736D6173 
 3026      6B5F7400 
 3027              	.LASF71:
 3028 00a0 65786974 		.ascii	"exitcode\000"
 3028      636F6465 
 3028      00
 3029              	.LASF129:
 3030 00a9 49324332 		.ascii	"I2C2_ER_IRQn\000"
ARM GAS  /home/pauba/tmp/ccCykAzR.s 			page 55


 3030      5F45525F 
 3030      4952516E 
 3030      00
 3031              	.LASF125:
 3032 00b6 54494D34 		.ascii	"TIM4_IRQn\000"
 3032      5F495251 
 3032      6E00
 3033              	.LASF191:
 3034 00c0 49544D5F 		.ascii	"ITM_RxBuffer\000"
 3034      52784275 
 3034      66666572 
 3034      00
 3035              	.LASF95:
 3036 00cd 57574447 		.ascii	"WWDG_IRQn\000"
 3036      5F495251 
 3036      6E00
 3037              	.LASF34:
 3038 00d7 705F7072 		.ascii	"p_prio\000"
 3038      696F00
 3039              	.LASF179:
 3040 00de 72656164 		.ascii	"readt\000"
 3040      7400
 3041              	.LASF76:
 3042 00e4 715F7761 		.ascii	"q_waiting\000"
 3042      6974696E 
 3042      6700
 3043              	.LASF12:
 3044 00ee 6C6F6E67 		.ascii	"long long int\000"
 3044      206C6F6E 
 3044      6720696E 
 3044      7400
 3045              	.LASF1:
 3046 00fc 7369676E 		.ascii	"signed char\000"
 3046      65642063 
 3046      68617200 
 3047              	.LASF158:
 3048 0108 47545052 		.ascii	"GTPR\000"
 3048      00
 3049              	.LASF40:
 3050 010d 705F7374 		.ascii	"p_state\000"
 3050      61746500 
 3051              	.LASF51:
 3052 0115 705F6D70 		.ascii	"p_mpool\000"
 3052      6F6F6C00 
 3053              	.LASF20:
 3054 011d 626F6F6C 		.ascii	"bool_t\000"
 3054      5F7400
 3055              	.LASF60:
 3056 0124 6D5F7175 		.ascii	"m_queue\000"
 3056      65756500 
 3057              	.LASF25:
 3058 012c 74736C69 		.ascii	"tslices_t\000"
 3058      6365735F 
 3058      7400
 3059              	.LASF151:
 3060 0136 5243435F 		.ascii	"RCC_TypeDef\000"
 3060      54797065 
ARM GAS  /home/pauba/tmp/ccCykAzR.s 			page 56


 3060      44656600 
 3061              	.LASF190:
 3062 0142 64656661 		.ascii	"default_config\000"
 3062      756C745F 
 3062      636F6E66 
 3062      696700
 3063              	.LASF167:
 3064 0151 73746174 		.ascii	"state\000"
 3064      6500
 3065              	.LASF9:
 3066 0157 6C6F6E67 		.ascii	"long int\000"
 3066      20696E74 
 3066      00
 3067              	.LASF143:
 3068 0160 41504232 		.ascii	"APB2RSTR\000"
 3068      52535452 
 3068      00
 3069              	.LASF150:
 3070 0169 41504231 		.ascii	"APB1LPENR\000"
 3070      4C50454E 
 3070      5200
 3071              	.LASF23:
 3072 0173 74737461 		.ascii	"tstate_t\000"
 3072      74655F74 
 3072      00
 3073              	.LASF0:
 3074 017c 756E7369 		.ascii	"unsigned int\000"
 3074      676E6564 
 3074      20696E74 
 3074      00
 3075              	.LASF42:
 3076 0189 705F7265 		.ascii	"p_refs\000"
 3076      667300
 3077              	.LASF78:
 3078 0190 715F6275 		.ascii	"q_buffer\000"
 3078      66666572 
 3078      00
 3079              	.LASF80:
 3080 0199 715F7772 		.ascii	"q_wrptr\000"
 3080      70747200 
 3081              	.LASF121:
 3082 01a1 54494D31 		.ascii	"TIM10_IRQn\000"
 3082      305F4952 
 3082      516E00
 3083              	.LASF36:
 3084 01ac 705F6E65 		.ascii	"p_newer\000"
 3084      77657200 
 3085              	.LASF75:
 3086 01b4 47656E65 		.ascii	"GenericQueue\000"
 3086      72696351 
 3086      75657565 
 3086      00
 3087              	.LASF93:
 3088 01c1 50656E64 		.ascii	"PendSV_IRQn\000"
 3088      53565F49 
 3088      52516E00 
 3089              	.LASF10:
ARM GAS  /home/pauba/tmp/ccCykAzR.s 			page 57


 3090 01cd 5F5F7569 		.ascii	"__uint32_t\000"
 3090      6E743332 
 3090      5F7400
 3091              	.LASF54:
 3092 01d8 72656761 		.ascii	"regarm_t\000"
 3092      726D5F74 
 3092      00
 3093              	.LASF114:
 3094 01e1 5553425F 		.ascii	"USB_HP_IRQn\000"
 3094      48505F49 
 3094      52516E00 
 3095              	.LASF84:
 3096 01ed 716E6F74 		.ascii	"qnotify_t\000"
 3096      6966795F 
 3096      7400
 3097              	.LASF182:
 3098 01f7 75736172 		.ascii	"usart_deinit\000"
 3098      745F6465 
 3098      696E6974 
 3098      00
 3099              	.LASF68:
 3100 0204 4576656E 		.ascii	"EventSource\000"
 3100      74536F75 
 3100      72636500 
 3101              	.LASF170:
 3102 0210 75736172 		.ascii	"usart\000"
 3102      7400
 3103              	.LASF120:
 3104 0216 54494D39 		.ascii	"TIM9_IRQn\000"
 3104      5F495251 
 3104      6E00
 3105              	.LASF16:
 3106 0220 75696E74 		.ascii	"uint16_t\000"
 3106      31365F74 
 3106      00
 3107              	.LASF173:
 3108 0229 53657269 		.ascii	"SerialDriverVMT\000"
 3108      616C4472 
 3108      69766572 
 3108      564D5400 
 3109              	.LASF44:
 3110 0239 705F7469 		.ascii	"p_time\000"
 3110      6D6500
 3111              	.LASF88:
 3112 0240 4D656D6F 		.ascii	"MemoryManagement_IRQn\000"
 3112      72794D61 
 3112      6E616765 
 3112      6D656E74 
 3112      5F495251 
 3113              	.LASF168:
 3114 0256 69717565 		.ascii	"iqueue\000"
 3114      756500
 3115              	.LASF46:
 3116 025d 705F6D73 		.ascii	"p_msgqueue\000"
 3116      67717565 
 3116      756500
 3117              	.LASF187:
ARM GAS  /home/pauba/tmp/ccCykAzR.s 			page 58


 3118 0268 73645F6C 		.ascii	"sd_lld_init\000"
 3118      6C645F69 
 3118      6E697400 
 3119              	.LASF177:
 3120 0274 67657474 		.ascii	"gett\000"
 3120      00
 3121              	.LASF166:
 3122 0279 6576656E 		.ascii	"event\000"
 3122      7400
 3123              	.LASF110:
 3124 027f 444D4131 		.ascii	"DMA1_Channel5_IRQn\000"
 3124      5F436861 
 3124      6E6E656C 
 3124      355F4952 
 3124      516E00
 3125              	.LASF7:
 3126 0292 73686F72 		.ascii	"short unsigned int\000"
 3126      7420756E 
 3126      7369676E 
 3126      65642069 
 3126      6E7400
 3127              	.LASF98:
 3128 02a5 5254435F 		.ascii	"RTC_WKUP_IRQn\000"
 3128      574B5550 
 3128      5F495251 
 3128      6E00
 3129              	.LASF27:
 3130 02b3 6D73675F 		.ascii	"msg_t\000"
 3130      7400
 3131              	.LASF169:
 3132 02b9 6F717565 		.ascii	"oqueue\000"
 3132      756500
 3133              	.LASF135:
 3134 02c0 45585449 		.ascii	"EXTI15_10_IRQn\000"
 3134      31355F31 
 3134      305F4952 
 3134      516E00
 3135              	.LASF130:
 3136 02cf 53504931 		.ascii	"SPI1_IRQn\000"
 3136      5F495251 
 3136      6E00
 3137              	.LASF160:
 3138 02d9 55534152 		.ascii	"USART_TypeDef\000"
 3138      545F5479 
 3138      70654465 
 3138      6600
 3139              	.LASF178:
 3140 02e7 77726974 		.ascii	"writet\000"
 3140      657400
 3141              	.LASF22:
 3142 02ee 746D6F64 		.ascii	"tmode_t\000"
 3142      655F7400 
 3143              	.LASF149:
 3144 02f6 41504232 		.ascii	"APB2LPENR\000"
 3144      4C50454E 
 3144      5200
 3145              	.LASF53:
ARM GAS  /home/pauba/tmp/ccCykAzR.s 			page 59


 3146 0300 54687265 		.ascii	"ThreadsList\000"
 3146      6164734C 
 3146      69737400 
 3147              	.LASF28:
 3148 030c 6576656E 		.ascii	"eventmask_t\000"
 3148      746D6173 
 3148      6B5F7400 
 3149              	.LASF85:
 3150 0318 496E7075 		.ascii	"InputQueue\000"
 3150      74517565 
 3150      756500
 3151              	.LASF171:
 3152 0323 73706565 		.ascii	"speed\000"
 3152      6400
 3153              	.LASF186:
 3154 0329 56656374 		.ascii	"VectorD8\000"
 3154      6F724438 
 3154      00
 3155              	.LASF109:
 3156 0332 444D4131 		.ascii	"DMA1_Channel4_IRQn\000"
 3156      5F436861 
 3156      6E6E656C 
 3156      345F4952 
 3156      516E00
 3157              	.LASF94:
 3158 0345 53797354 		.ascii	"SysTick_IRQn\000"
 3158      69636B5F 
 3158      4952516E 
 3158      00
 3159              	.LASF55:
 3160 0352 73746B61 		.ascii	"stkalign_t\000"
 3160      6C69676E 
 3160      5F7400
 3161              	.LASF174:
 3162 035d 77726974 		.ascii	"write\000"
 3162      6500
 3163              	.LASF194:
 3164 0363 4952516E 		.ascii	"IRQn\000"
 3164      00
 3165              	.LASF176:
 3166 0368 70757474 		.ascii	"putt\000"
 3166      00
 3167              	.LASF181:
 3168 036d 75736172 		.ascii	"usart_init\000"
 3168      745F696E 
 3168      697400
 3169              	.LASF107:
 3170 0378 444D4131 		.ascii	"DMA1_Channel2_IRQn\000"
 3170      5F436861 
 3170      6E6E656C 
 3170      325F4952 
 3170      516E00
 3171              	.LASF58:
 3172 038b 73697A65 		.ascii	"sizetype\000"
 3172      74797065 
 3172      00
 3173              	.LASF77:
ARM GAS  /home/pauba/tmp/ccCykAzR.s 			page 60


 3174 0394 715F636F 		.ascii	"q_counter\000"
 3174      756E7465 
 3174      7200
 3175              	.LASF59:
 3176 039e 4D757465 		.ascii	"Mutex\000"
 3176      7800
 3177              	.LASF32:
 3178 03a4 705F6E65 		.ascii	"p_next\000"
 3178      787400
 3179              	.LASF92:
 3180 03ab 44656275 		.ascii	"DebugMonitor_IRQn\000"
 3180      674D6F6E 
 3180      69746F72 
 3180      5F495251 
 3180      6E00
 3181              	.LASF131:
 3182 03bd 53504932 		.ascii	"SPI2_IRQn\000"
 3182      5F495251 
 3182      6E00
 3183              	.LASF52:
 3184 03c7 54687265 		.ascii	"ThreadsQueue\000"
 3184      61647351 
 3184      75657565 
 3184      00
 3185              	.LASF142:
 3186 03d4 41484252 		.ascii	"AHBRSTR\000"
 3186      53545200 
 3187              	.LASF137:
 3188 03dc 5553425F 		.ascii	"USB_FS_WKUP_IRQn\000"
 3188      46535F57 
 3188      4B55505F 
 3188      4952516E 
 3188      00
 3189              	.LASF144:
 3190 03ed 41504231 		.ascii	"APB1RSTR\000"
 3190      52535452 
 3190      00
 3191              	.LASF66:
 3192 03f6 656C5F6D 		.ascii	"el_mask\000"
 3192      61736B00 
 3193              	.LASF172:
 3194 03fe 53657269 		.ascii	"SerialConfig\000"
 3194      616C436F 
 3194      6E666967 
 3194      00
 3195              	.LASF13:
 3196 040b 5F5F7569 		.ascii	"__uint64_t\000"
 3196      6E743634 
 3196      5F7400
 3197              	.LASF185:
 3198 0416 6E6F7469 		.ascii	"notify2\000"
 3198      66793200 
 3199              	.LASF106:
 3200 041e 444D4131 		.ascii	"DMA1_Channel1_IRQn\000"
 3200      5F436861 
 3200      6E6E656C 
 3200      315F4952 
ARM GAS  /home/pauba/tmp/ccCykAzR.s 			page 61


 3200      516E00
 3201              	.LASF24:
 3202 0431 74726566 		.ascii	"trefs_t\000"
 3202      735F7400 
 3203              	.LASF152:
 3204 0439 52455345 		.ascii	"RESERVED0\000"
 3204      52564544 
 3204      3000
 3205              	.LASF153:
 3206 0443 52455345 		.ascii	"RESERVED1\000"
 3206      52564544 
 3206      3100
 3207              	.LASF154:
 3208 044d 52455345 		.ascii	"RESERVED2\000"
 3208      52564544 
 3208      3200
 3209              	.LASF155:
 3210 0457 52455345 		.ascii	"RESERVED3\000"
 3210      52564544 
 3210      3300
 3211              	.LASF156:
 3212 0461 52455345 		.ascii	"RESERVED4\000"
 3212      52564544 
 3212      3400
 3213              	.LASF33:
 3214 046b 705F7072 		.ascii	"p_prev\000"
 3214      657600
 3215              	.LASF159:
 3216 0472 52455345 		.ascii	"RESERVED6\000"
 3216      52564544 
 3216      3600
 3217              	.LASF26:
 3218 047c 74707269 		.ascii	"tprio_t\000"
 3218      6F5F7400 
 3219              	.LASF81:
 3220 0484 715F7264 		.ascii	"q_rdptr\000"
 3220      70747200 
 3221              	.LASF21:
 3222 048c 5F426F6F 		.ascii	"_Bool\000"
 3222      6C00
 3223              	.LASF17:
 3224 0492 696E7433 		.ascii	"int32_t\000"
 3224      325F7400 
 3225              	.LASF4:
 3226 049a 756E7369 		.ascii	"unsigned char\000"
 3226      676E6564 
 3226      20636861 
 3226      7200
 3227              	.LASF188:
 3228 04a8 73645F6C 		.ascii	"sd_lld_start\000"
 3228      6C645F73 
 3228      74617274 
 3228      00
 3229              	.LASF65:
 3230 04b5 656C5F6C 		.ascii	"el_listener\000"
 3230      69737465 
 3230      6E657200 
ARM GAS  /home/pauba/tmp/ccCykAzR.s 			page 62


 3231              	.LASF67:
 3232 04c1 656C5F66 		.ascii	"el_flags\000"
 3232      6C616773 
 3232      00
 3233              	.LASF105:
 3234 04ca 45585449 		.ascii	"EXTI4_IRQn\000"
 3234      345F4952 
 3234      516E00
 3235              	.LASF49:
 3236 04d5 705F6D74 		.ascii	"p_mtxlist\000"
 3236      786C6973 
 3236      7400
 3237              	.LASF5:
 3238 04df 73686F72 		.ascii	"short int\000"
 3238      7420696E 
 3238      7400
 3239              	.LASF113:
 3240 04e9 41444331 		.ascii	"ADC1_IRQn\000"
 3240      5F495251 
 3240      6E00
 3241              	.LASF43:
 3242 04f3 705F7072 		.ascii	"p_preempt\000"
 3242      65656D70 
 3242      7400
 3243              	.LASF37:
 3244 04fd 705F6F6C 		.ascii	"p_older\000"
 3244      64657200 
 3245              	.LASF108:
 3246 0505 444D4131 		.ascii	"DMA1_Channel3_IRQn\000"
 3246      5F436861 
 3246      6E6E656C 
 3246      335F4952 
 3246      516E00
 3247              	.LASF73:
 3248 0518 65776D61 		.ascii	"ewmask\000"
 3248      736B00
 3249              	.LASF41:
 3250 051f 705F666C 		.ascii	"p_flags\000"
 3250      61677300 
 3251              	.LASF64:
 3252 0527 656C5F6E 		.ascii	"el_next\000"
 3252      65787400 
 3253              	.LASF103:
 3254 052f 45585449 		.ascii	"EXTI2_IRQn\000"
 3254      325F4952 
 3254      516E00
 3255              	.LASF162:
 3256 053a 53445F53 		.ascii	"SD_STOP\000"
 3256      544F5000 
 3257              	.LASF146:
 3258 0542 41504232 		.ascii	"APB2ENR\000"
 3258      454E5200 
 3259              	.LASF31:
 3260 054a 54687265 		.ascii	"Thread\000"
 3260      616400
 3261              	.LASF184:
 3262 0551 73657276 		.ascii	"serve_interrupt\000"
ARM GAS  /home/pauba/tmp/ccCykAzR.s 			page 63


 3262      655F696E 
 3262      74657272 
 3262      75707400 
 3263              	.LASF99:
 3264 0561 464C4153 		.ascii	"FLASH_IRQn\000"
 3264      485F4952 
 3264      516E00
 3265              	.LASF48:
 3266 056c 705F6570 		.ascii	"p_epending\000"
 3266      656E6469 
 3266      6E6700
 3267              	.LASF161:
 3268 0577 53445F55 		.ascii	"SD_UNINIT\000"
 3268      4E494E49 
 3268      5400
 3269              	.LASF157:
 3270 0581 52455345 		.ascii	"RESERVED5\000"
 3270      52564544 
 3270      3500
 3271              	.LASF18:
 3272 058b 75696E74 		.ascii	"uint32_t\000"
 3272      33325F74 
 3272      00
 3273              	.LASF133:
 3274 0594 55534152 		.ascii	"USART2_IRQn\000"
 3274      54325F49 
 3274      52516E00 
 3275              	.LASF90:
 3276 05a0 55736167 		.ascii	"UsageFault_IRQn\000"
 3276      65466175 
 3276      6C745F49 
 3276      52516E00 
 3277              	.LASF165:
 3278 05b0 53657269 		.ascii	"SerialDriver\000"
 3278      616C4472 
 3278      69766572 
 3278      00
 3279              	.LASF147:
 3280 05bd 41504231 		.ascii	"APB1ENR\000"
 3280      454E5200 
 3281              	.LASF192:
 3282 05c5 474E5520 		.ascii	"GNU C 4.8.3 20140228 (release) [ARM/embedded-4_8-br"
 3282      4320342E 
 3282      382E3320 
 3282      32303134 
 3282      30323238 
 3283 05f8 616E6368 		.ascii	"anch revision 208322] -mcpu=cortex-m4 -mno-thumb-in"
 3283      20726576 
 3283      6973696F 
 3283      6E203230 
 3283      38333232 
 3284 062b 74657277 		.ascii	"terwork -mthumb -ggdb -fomit-frame-pointer -falign-"
 3284      6F726B20 
 3284      2D6D7468 
 3284      756D6220 
 3284      2D676764 
 3285 065e 66756E63 		.ascii	"functions=16 -ffunction-sections -fdata-sections -f"
ARM GAS  /home/pauba/tmp/ccCykAzR.s 			page 64


 3285      74696F6E 
 3285      733D3136 
 3285      202D6666 
 3285      756E6374 
 3286 0691 6E6F2D63 		.ascii	"no-common\000"
 3286      6F6D6D6F 
 3286      6E00
 3287              	.LASF11:
 3288 069b 6C6F6E67 		.ascii	"long unsigned int\000"
 3288      20756E73 
 3288      69676E65 
 3288      6420696E 
 3288      7400
 3289              	.LASF175:
 3290 06ad 72656164 		.ascii	"read\000"
 3290      00
 3291              	.LASF74:
 3292 06b2 63686172 		.ascii	"char\000"
 3292      00
 3293              	.LASF89:
 3294 06b7 42757346 		.ascii	"BusFault_IRQn\000"
 3294      61756C74 
 3294      5F495251 
 3294      6E00
 3295              	.LASF138:
 3296 06c5 54494D36 		.ascii	"TIM6_IRQn\000"
 3296      5F495251 
 3296      6E00
 3297              	.LASF180:
 3298 06cf 636F6E66 		.ascii	"config\000"
 3298      696700
 3299              	.LASF6:
 3300 06d6 5F5F7569 		.ascii	"__uint16_t\000"
 3300      6E743136 
 3300      5F7400
 3301              	.LASF139:
 3302 06e1 54494D37 		.ascii	"TIM7_IRQn\000"
 3302      5F495251 
 3302      6E00
 3303              	.LASF62:
 3304 06eb 6D5F6E65 		.ascii	"m_next\000"
 3304      787400
 3305              	.LASF30:
 3306 06f2 73797374 		.ascii	"systime_t\000"
 3306      696D655F 
 3306      7400
 3307              	.LASF87:
 3308 06fc 4E6F6E4D 		.ascii	"NonMaskableInt_IRQn\000"
 3308      61736B61 
 3308      626C6549 
 3308      6E745F49 
 3308      52516E00 
 3309              	.LASF8:
 3310 0710 5F5F696E 		.ascii	"__int32_t\000"
 3310      7433325F 
 3310      7400
 3311              	.LASF39:
ARM GAS  /home/pauba/tmp/ccCykAzR.s 			page 65


 3312 071a 705F7374 		.ascii	"p_stklimit\000"
 3312      6B6C696D 
 3312      697400
 3313              	.LASF111:
 3314 0725 444D4131 		.ascii	"DMA1_Channel6_IRQn\000"
 3314      5F436861 
 3314      6E6E656C 
 3314      365F4952 
 3314      516E00
 3315              	.LASF38:
 3316 0738 705F6E61 		.ascii	"p_name\000"
 3316      6D6500
 3317              	.LASF116:
 3318 073f 4441435F 		.ascii	"DAC_IRQn\000"
 3318      4952516E 
 3318      00
 3319              	.LASF115:
 3320 0748 5553425F 		.ascii	"USB_LP_IRQn\000"
 3320      4C505F49 
 3320      52516E00 
 3321              	.LASF57:
 3322 0754 636F6E74 		.ascii	"context\000"
 3322      65787400 
 3323              	.LASF56:
 3324 075c 696E7463 		.ascii	"intctx\000"
 3324      747800
 3325              	.LASF163:
 3326 0763 53445F52 		.ascii	"SD_READY\000"
 3326      45414459 
 3326      00
 3327              	.LASF119:
 3328 076c 4C43445F 		.ascii	"LCD_IRQn\000"
 3328      4952516E 
 3328      00
 3329              	.LASF128:
 3330 0775 49324332 		.ascii	"I2C2_EV_IRQn\000"
 3330      5F45565F 
 3330      4952516E 
 3330      00
 3331              	.LASF134:
 3332 0782 55534152 		.ascii	"USART3_IRQn\000"
 3332      54335F49 
 3332      52516E00 
 3333              	.LASF164:
 3334 078e 73647374 		.ascii	"sdstate_t\000"
 3334      6174655F 
 3334      7400
 3335              	.LASF123:
 3336 0798 54494D32 		.ascii	"TIM2_IRQn\000"
 3336      5F495251 
 3336      6E00
 3337              	.LASF79:
 3338 07a2 715F746F 		.ascii	"q_top\000"
 3338      7000
 3339              	.LASF101:
 3340 07a8 45585449 		.ascii	"EXTI0_IRQn\000"
 3340      305F4952 
ARM GAS  /home/pauba/tmp/ccCykAzR.s 			page 66


 3340      516E00
 3341              	.LASF69:
 3342 07b3 65735F6E 		.ascii	"es_next\000"
 3342      65787400 
 3343              	.LASF132:
 3344 07bb 55534152 		.ascii	"USART1_IRQn\000"
 3344      54315F49 
 3344      52516E00 
 3345              	.LASF117:
 3346 07c7 434F4D50 		.ascii	"COMP_IRQn\000"
 3346      5F495251 
 3346      6E00
 3347              	.LASF82:
 3348 07d1 715F6E6F 		.ascii	"q_notify\000"
 3348      74696679 
 3348      00
 3349              	.LASF104:
 3350 07da 45585449 		.ascii	"EXTI3_IRQn\000"
 3350      335F4952 
 3350      516E00
 3351              	.LASF193:
 3352 07e5 2F686F6D 		.ascii	"/home/pauba/ChibiOS-RT/os/hal/platforms/STM32/USART"
 3352      652F7061 
 3352      7562612F 
 3352      43686962 
 3352      694F532D 
 3353 0818 76312F73 		.ascii	"v1/serial_lld.c\000"
 3353      65726961 
 3353      6C5F6C6C 
 3353      642E6300 
 3354              	.LASF15:
 3355 0828 75696E74 		.ascii	"uint8_t\000"
 3355      385F7400 
 3356              	.LASF100:
 3357 0830 5243435F 		.ascii	"RCC_IRQn\000"
 3357      4952516E 
 3357      00
 3358              	.LASF140:
 3359 0839 49435343 		.ascii	"ICSCR\000"
 3359      5200
 3360              	.LASF63:
 3361 083f 4576656E 		.ascii	"EventListener\000"
 3361      744C6973 
 3361      74656E65 
 3361      7200
 3362              	.LASF102:
 3363 084d 45585449 		.ascii	"EXTI1_IRQn\000"
 3363      315F4952 
 3363      516E00
 3364              	.LASF72:
 3365 0858 77746F62 		.ascii	"wtobjp\000"
 3365      6A7000
 3366              	.LASF112:
 3367 085f 444D4131 		.ascii	"DMA1_Channel7_IRQn\000"
 3367      5F436861 
 3367      6E6E656C 
 3367      375F4952 
ARM GAS  /home/pauba/tmp/ccCykAzR.s 			page 67


 3367      516E00
 3368              	.LASF189:
 3369 0872 73645F6C 		.ascii	"sd_lld_stop\000"
 3369      6C645F73 
 3369      746F7000 
 3370              	.LASF141:
 3371 087e 43464752 		.ascii	"CFGR\000"
 3371      00
 3372              	.LASF47:
 3373 0883 705F6D73 		.ascii	"p_msg\000"
 3373      6700
 3374              	.LASF127:
 3375 0889 49324331 		.ascii	"I2C1_ER_IRQn\000"
 3375      5F45525F 
 3375      4952516E 
 3375      00
 3376              	.LASF97:
 3377 0896 54414D50 		.ascii	"TAMPER_STAMP_IRQn\000"
 3377      45525F53 
 3377      54414D50 
 3377      5F495251 
 3377      6E00
 3378              	.LASF83:
 3379 08a8 715F6C69 		.ascii	"q_link\000"
 3379      6E6B00
 3380              	.LASF124:
 3381 08af 54494D33 		.ascii	"TIM3_IRQn\000"
 3381      5F495251 
 3381      6E00
 3382              	.LASF61:
 3383 08b9 6D5F6F77 		.ascii	"m_owner\000"
 3383      6E657200 
 3384              	.LASF122:
 3385 08c1 54494D31 		.ascii	"TIM11_IRQn\000"
 3385      315F4952 
 3385      516E00
 3386              	.LASF35:
 3387 08cc 705F6374 		.ascii	"p_ctx\000"
 3387      7800
 3388              	.LASF45:
 3389 08d2 705F7761 		.ascii	"p_waiting\000"
 3389      6974696E 
 3389      6700
 3390              	.LASF145:
 3391 08dc 41484245 		.ascii	"AHBENR\000"
 3391      4E5200
 3392              	.LASF91:
 3393 08e3 5356435F 		.ascii	"SVC_IRQn\000"
 3393      4952516E 
 3393      00
 3394              		.ident	"GCC: (GNU Tools for ARM Embedded Processors) 4.8.3 20140228 (release) [ARM/embedded-4_8-br
ARM GAS  /home/pauba/tmp/ccCykAzR.s 			page 68


DEFINED SYMBOLS
                            *ABS*:00000000 serial_lld.c
/home/pauba/tmp/ccCykAzR.s:23     .bss.SD2:00000000 SD2
/home/pauba/tmp/ccCykAzR.s:20     .bss.SD2:00000000 $d
/home/pauba/tmp/ccCykAzR.s:26     .rodata.default_config:00000000 $d
/home/pauba/tmp/ccCykAzR.s:29     .rodata.default_config:00000000 default_config
/home/pauba/tmp/ccCykAzR.s:36     .text.usart_init:00000000 $t
/home/pauba/tmp/ccCykAzR.s:41     .text.usart_init:00000000 usart_init
/home/pauba/tmp/ccCykAzR.s:121    .text.usart_init:00000078 $d
/home/pauba/tmp/ccCykAzR.s:127    .text.usart_deinit:00000000 $t
/home/pauba/tmp/ccCykAzR.s:132    .text.usart_deinit:00000000 usart_deinit
/home/pauba/tmp/ccCykAzR.s:162    .text.set_error:00000000 $t
/home/pauba/tmp/ccCykAzR.s:167    .text.set_error:00000000 set_error
/home/pauba/tmp/ccCykAzR.s:238    .text.serve_interrupt:00000000 $t
/home/pauba/tmp/ccCykAzR.s:243    .text.serve_interrupt:00000000 serve_interrupt
/home/pauba/tmp/ccCykAzR.s:488    .text.notify2:00000000 $t
/home/pauba/tmp/ccCykAzR.s:493    .text.notify2:00000000 notify2
/home/pauba/tmp/ccCykAzR.s:518    .text.notify2:00000018 $d
/home/pauba/tmp/ccCykAzR.s:523    .text.VectorD8:00000000 $t
/home/pauba/tmp/ccCykAzR.s:529    .text.VectorD8:00000000 VectorD8
/home/pauba/tmp/ccCykAzR.s:552    .text.VectorD8:00000018 $d
/home/pauba/tmp/ccCykAzR.s:557    .text.sd_lld_init:00000000 $t
/home/pauba/tmp/ccCykAzR.s:563    .text.sd_lld_init:00000000 sd_lld_init
/home/pauba/tmp/ccCykAzR.s:587    .text.sd_lld_init:00000014 $d
/home/pauba/tmp/ccCykAzR.s:594    .text.sd_lld_start:00000000 $t
/home/pauba/tmp/ccCykAzR.s:600    .text.sd_lld_start:00000000 sd_lld_start
/home/pauba/tmp/ccCykAzR.s:653    .text.sd_lld_start:00000044 $d
/home/pauba/tmp/ccCykAzR.s:660    .text.sd_lld_stop:00000000 $t
/home/pauba/tmp/ccCykAzR.s:666    .text.sd_lld_stop:00000000 sd_lld_stop
/home/pauba/tmp/ccCykAzR.s:712    .text.sd_lld_stop:0000003c $d
                     .debug_frame:00000010 $d
/home/pauba/tmp/ccCykAzR.s:522    .text.notify2:0000001c $t
/home/pauba/tmp/ccCykAzR.s:556    .text.VectorD8:0000001c $t
/home/pauba/tmp/ccCykAzR.s:717    .text.sd_lld_stop:00000044 $t

UNDEFINED SYMBOLS
chEvtBroadcastFlagsI
dbg_check_lock_from_isr
dbg_check_unlock_from_isr
sdIncomingDataI
chOQGetI
dbg_check_enter_isr
dbg_check_leave_isr
_port_irq_epilogue
sdObjectInit
nvicEnableVector
nvicDisableVector
