ARM GAS  /home/pauba/tmp/cc8kkThj.s 			page 1


   1              		.syntax unified
   2              		.cpu cortex-m4
   3              		.fpu softvfp
   4              		.eabi_attribute 20, 1
   5              		.eabi_attribute 21, 1
   6              		.eabi_attribute 23, 3
   7              		.eabi_attribute 24, 1
   8              		.eabi_attribute 25, 1
   9              		.eabi_attribute 26, 1
  10              		.eabi_attribute 30, 6
  11              		.eabi_attribute 34, 1
  12              		.eabi_attribute 18, 4
  13              		.thumb
  14              		.file	"test.c"
  15              		.text
  16              	.Ltext0:
  17              		.cfi_sections	.debug_frame
  18              		.section	.data.patterns,"aw",%progbits
  19              		.align	2
  20              		.type	patterns, %object
  21              		.size	patterns, 48
  22              	patterns:
  23 0000 00000000 		.word	patternthd
  24 0004 00000000 		.word	patternsem
  25 0008 00000000 		.word	patternmtx
  26 000c 00000000 		.word	patternmsg
  27 0010 00000000 		.word	patternmbox
  28 0014 00000000 		.word	patternevt
  29 0018 00000000 		.word	patternheap
  30 001c 00000000 		.word	patternpools
  31 0020 00000000 		.word	patterndyn
  32 0024 00000000 		.word	patternqueues
  33 0028 00000000 		.word	patternbmk
  34 002c 00000000 		.word	0
  35              		.section	.bss.local_fail,"aw",%nobits
  36              		.type	local_fail, %object
  37              		.size	local_fail, 1
  38              	local_fail:
  39 0000 00       		.space	1
  40              		.section	.bss.global_fail,"aw",%nobits
  41              		.type	global_fail, %object
  42              		.size	global_fail, 1
  43              	global_fail:
  44 0000 00       		.space	1
  45              		.section	.bss.failpoint,"aw",%nobits
  46              		.align	2
  47              		.type	failpoint, %object
  48              		.size	failpoint, 4
  49              	failpoint:
  50 0000 00000000 		.space	4
  51              		.section	.bss.tokens_buffer,"aw",%nobits
  52              		.align	2
  53              		.type	tokens_buffer, %object
  54              		.size	tokens_buffer, 16
  55              	tokens_buffer:
  56 0000 00000000 		.space	16
  56      00000000 
ARM GAS  /home/pauba/tmp/cc8kkThj.s 			page 2


  56      00000000 
  56      00000000 
  57              		.section	.bss.tokp,"aw",%nobits
  58              		.align	2
  59              		.type	tokp, %object
  60              		.size	tokp, 4
  61              	tokp:
  62 0000 00000000 		.space	4
  63              		.global	test
  64              		.section	.bss.test,"aw",%nobits
  65              		.align	3
  66              		.type	test, %object
  67              		.size	test, 1680
  68              	test:
  69 0000 00000000 		.space	1680
  69      00000000 
  69      00000000 
  69      00000000 
  69      00000000 
  70              		.global	threads
  71              		.section	.bss.threads,"aw",%nobits
  72              		.align	2
  73              		.type	threads, %object
  74              		.size	threads, 20
  75              	threads:
  76 0000 00000000 		.space	20
  76      00000000 
  76      00000000 
  76      00000000 
  76      00000000 
  77              		.global	wa
  78              		.section	.rodata.wa,"a",%progbits
  79              		.align	2
  80              		.type	wa, %object
  81              		.size	wa, 20
  82              	wa:
  83 0000 00000000 		.word	test
  84 0004 50010000 		.word	test+336
  85 0008 A0020000 		.word	test+672
  86 000c F0030000 		.word	test+1008
  87 0010 40050000 		.word	test+1344
  88              		.section	.bss.chp,"aw",%nobits
  89              		.align	2
  90              		.type	chp, %object
  91              		.size	chp, 4
  92              	chp:
  93 0000 00000000 		.space	4
  94              		.section	.text.test_printn,"ax",%progbits
  95              		.align	2
  96              		.p2align 4,,15
  97              		.global	test_printn
  98              		.thumb
  99              		.thumb_func
 100              		.type	test_printn, %function
 101              	test_printn:
 102              	.LFB63:
 103              		.file 1 "/home/pauba/ChibiOS-RT/test/test.c"
ARM GAS  /home/pauba/tmp/cc8kkThj.s 			page 3


 104              		.loc 1 91 0
 105              		.cfi_startproc
 106              		@ args = 0, pretend = 0, frame = 32
 107              		@ frame_needed = 0, uses_anonymous_args = 0
 108 0000 00B5     		push	{lr}
 109              		.cfi_def_cfa_offset 4
 110              		.cfi_offset 14, -4
 111 0002 89B0     		sub	sp, sp, #36
 112              		.cfi_def_cfa_offset 40
 113 0004 0190     		str	r0, [sp, #4]
 114              		.loc 1 94 0
 115 0006 019B     		ldr	r3, [sp, #4]
 116 0008 002B     		cmp	r3, #0
 117 000a 09D1     		bne	.L2
 118              		.loc 1 95 0
 119 000c 1E4B     		ldr	r3, .L8
 120 000e 1B68     		ldr	r3, [r3]
 121 0010 1B68     		ldr	r3, [r3]
 122 0012 9B68     		ldr	r3, [r3, #8]
 123 0014 1C4A     		ldr	r2, .L8
 124 0016 1268     		ldr	r2, [r2]
 125 0018 1046     		mov	r0, r2
 126 001a 3021     		movs	r1, #48
 127 001c 9847     		blx	r3
 128 001e 2FE0     		b	.L1
 129              	.L2:
 130              		.loc 1 97 0
 131 0020 03AB     		add	r3, sp, #12
 132 0022 0793     		str	r3, [sp, #28]
 133              		.loc 1 98 0
 134 0024 16E0     		b	.L4
 135              	.L5:
 136              		.loc 1 99 0
 137 0026 0799     		ldr	r1, [sp, #28]
 138 0028 4B1C     		adds	r3, r1, #1
 139 002a 0793     		str	r3, [sp, #28]
 140 002c 0198     		ldr	r0, [sp, #4]
 141 002e 174B     		ldr	r3, .L8+4
 142 0030 A3FB0023 		umull	r2, r3, r3, r0
 143 0034 DA08     		lsrs	r2, r3, #3
 144 0036 1346     		mov	r3, r2
 145 0038 9B00     		lsls	r3, r3, #2
 146 003a 1344     		add	r3, r3, r2
 147 003c 5B00     		lsls	r3, r3, #1
 148 003e C21A     		subs	r2, r0, r3
 149 0040 D3B2     		uxtb	r3, r2
 150 0042 3033     		adds	r3, r3, #48
 151 0044 DBB2     		uxtb	r3, r3
 152 0046 0B70     		strb	r3, [r1]
 153 0048 019A     		ldr	r2, [sp, #4]
 154 004a 104B     		ldr	r3, .L8+4
 155 004c A3FB0213 		umull	r1, r3, r3, r2
 156 0050 DB08     		lsrs	r3, r3, #3
 157 0052 0193     		str	r3, [sp, #4]
 158              	.L4:
 159              		.loc 1 98 0 discriminator 1
 160 0054 019B     		ldr	r3, [sp, #4]
ARM GAS  /home/pauba/tmp/cc8kkThj.s 			page 4


 161 0056 002B     		cmp	r3, #0
 162 0058 E5D1     		bne	.L5
 163              		.loc 1 100 0
 164 005a 0DE0     		b	.L6
 165              	.L7:
 166              		.loc 1 101 0
 167 005c 0A4B     		ldr	r3, .L8
 168 005e 1B68     		ldr	r3, [r3]
 169 0060 1B68     		ldr	r3, [r3]
 170 0062 9B68     		ldr	r3, [r3, #8]
 171 0064 084A     		ldr	r2, .L8
 172 0066 1168     		ldr	r1, [r2]
 173 0068 079A     		ldr	r2, [sp, #28]
 174 006a 013A     		subs	r2, r2, #1
 175 006c 0792     		str	r2, [sp, #28]
 176 006e 079A     		ldr	r2, [sp, #28]
 177 0070 1278     		ldrb	r2, [r2]	@ zero_extendqisi2
 178 0072 0846     		mov	r0, r1
 179 0074 1146     		mov	r1, r2
 180 0076 9847     		blx	r3
 181              	.L6:
 182              		.loc 1 100 0 discriminator 1
 183 0078 03AB     		add	r3, sp, #12
 184 007a 079A     		ldr	r2, [sp, #28]
 185 007c 9A42     		cmp	r2, r3
 186 007e EDD8     		bhi	.L7
 187              	.L1:
 188              		.loc 1 103 0
 189 0080 09B0     		add	sp, sp, #36
 190              		@ sp needed
 191 0082 5DF804FB 		ldr	pc, [sp], #4
 192              	.L9:
 193 0086 00BF     		.align	2
 194              	.L8:
 195 0088 00000000 		.word	chp
 196 008c CDCCCCCC 		.word	-858993459
 197              		.cfi_endproc
 198              	.LFE63:
 199              		.size	test_printn, .-test_printn
 200              		.section	.text.test_print,"ax",%progbits
 201              		.align	2
 202              		.p2align 4,,15
 203              		.global	test_print
 204              		.thumb
 205              		.thumb_func
 206              		.type	test_print, %function
 207              	test_print:
 208              	.LFB64:
 209              		.loc 1 110 0
 210              		.cfi_startproc
 211              		@ args = 0, pretend = 0, frame = 8
 212              		@ frame_needed = 0, uses_anonymous_args = 0
 213 0000 00B5     		push	{lr}
 214              		.cfi_def_cfa_offset 4
 215              		.cfi_offset 14, -4
 216 0002 83B0     		sub	sp, sp, #12
 217              		.cfi_def_cfa_offset 16
ARM GAS  /home/pauba/tmp/cc8kkThj.s 			page 5


 218 0004 0190     		str	r0, [sp, #4]
 219              		.loc 1 112 0
 220 0006 0CE0     		b	.L11
 221              	.L12:
 222              		.loc 1 113 0
 223 0008 094B     		ldr	r3, .L13
 224 000a 1B68     		ldr	r3, [r3]
 225 000c 1B68     		ldr	r3, [r3]
 226 000e 9A68     		ldr	r2, [r3, #8]
 227 0010 074B     		ldr	r3, .L13
 228 0012 1968     		ldr	r1, [r3]
 229 0014 019B     		ldr	r3, [sp, #4]
 230 0016 581C     		adds	r0, r3, #1
 231 0018 0190     		str	r0, [sp, #4]
 232 001a 1B78     		ldrb	r3, [r3]	@ zero_extendqisi2
 233 001c 0846     		mov	r0, r1
 234 001e 1946     		mov	r1, r3
 235 0020 9047     		blx	r2
 236              	.L11:
 237              		.loc 1 112 0 discriminator 1
 238 0022 019B     		ldr	r3, [sp, #4]
 239 0024 1B78     		ldrb	r3, [r3]	@ zero_extendqisi2
 240 0026 002B     		cmp	r3, #0
 241 0028 EED1     		bne	.L12
 242              		.loc 1 114 0
 243 002a 03B0     		add	sp, sp, #12
 244              		@ sp needed
 245 002c 5DF804FB 		ldr	pc, [sp], #4
 246              	.L14:
 247              		.align	2
 248              	.L13:
 249 0030 00000000 		.word	chp
 250              		.cfi_endproc
 251              	.LFE64:
 252              		.size	test_print, .-test_print
 253 0034 AFF30080 		.section	.rodata
 253      AFF30080 
 253      AFF30080 
 254              		.align	2
 255              	.LC0:
 256 0000 0D0A00   		.ascii	"\015\012\000"
 257              		.section	.text.test_println,"ax",%progbits
 258              		.align	2
 259              		.p2align 4,,15
 260              		.global	test_println
 261              		.thumb
 262              		.thumb_func
 263              		.type	test_println, %function
 264              	test_println:
 265              	.LFB65:
 266              		.loc 1 121 0
 267              		.cfi_startproc
 268              		@ args = 0, pretend = 0, frame = 8
 269              		@ frame_needed = 0, uses_anonymous_args = 0
 270 0000 00B5     		push	{lr}
 271              		.cfi_def_cfa_offset 4
 272              		.cfi_offset 14, -4
ARM GAS  /home/pauba/tmp/cc8kkThj.s 			page 6


 273 0002 83B0     		sub	sp, sp, #12
 274              		.cfi_def_cfa_offset 16
 275 0004 0190     		str	r0, [sp, #4]
 276              		.loc 1 123 0
 277 0006 0198     		ldr	r0, [sp, #4]
 278 0008 FFF7FEFF 		bl	test_print
 279              		.loc 1 124 0
 280 000c 064B     		ldr	r3, .L16
 281 000e 1B68     		ldr	r3, [r3]
 282 0010 1B68     		ldr	r3, [r3]
 283 0012 1B68     		ldr	r3, [r3]
 284 0014 044A     		ldr	r2, .L16
 285 0016 1268     		ldr	r2, [r2]
 286 0018 1046     		mov	r0, r2
 287 001a 0449     		ldr	r1, .L16+4
 288 001c 0222     		movs	r2, #2
 289 001e 9847     		blx	r3
 290              		.loc 1 125 0
 291 0020 03B0     		add	sp, sp, #12
 292              		@ sp needed
 293 0022 5DF804FB 		ldr	pc, [sp], #4
 294              	.L17:
 295 0026 00BF     		.align	2
 296              	.L16:
 297 0028 00000000 		.word	chp
 298 002c 00000000 		.word	.LC0
 299              		.cfi_endproc
 300              	.LFE65:
 301              		.size	test_println, .-test_println
 302              		.section	.text.clear_tokens,"ax",%progbits
 303              		.align	2
 304              		.p2align 4,,15
 305              		.thumb
 306              		.thumb_func
 307              		.type	clear_tokens, %function
 308              	clear_tokens:
 309              	.LFB66:
 310              		.loc 1 130 0
 311              		.cfi_startproc
 312              		@ args = 0, pretend = 0, frame = 0
 313              		@ frame_needed = 0, uses_anonymous_args = 0
 314              		@ link register save eliminated.
 315              		.loc 1 132 0
 316 0000 014B     		ldr	r3, .L19
 317 0002 024A     		ldr	r2, .L19+4
 318 0004 1A60     		str	r2, [r3]
 319              		.loc 1 133 0
 320 0006 7047     		bx	lr
 321              	.L20:
 322              		.align	2
 323              	.L19:
 324 0008 00000000 		.word	tokp
 325 000c 00000000 		.word	tokens_buffer
 326              		.cfi_endproc
 327              	.LFE66:
 328              		.size	clear_tokens, .-clear_tokens
 329              		.section	.text.print_tokens,"ax",%progbits
ARM GAS  /home/pauba/tmp/cc8kkThj.s 			page 7


 330              		.align	2
 331              		.p2align 4,,15
 332              		.thumb
 333              		.thumb_func
 334              		.type	print_tokens, %function
 335              	print_tokens:
 336              	.LFB67:
 337              		.loc 1 135 0
 338              		.cfi_startproc
 339              		@ args = 0, pretend = 0, frame = 8
 340              		@ frame_needed = 0, uses_anonymous_args = 0
 341 0000 00B5     		push	{lr}
 342              		.cfi_def_cfa_offset 4
 343              		.cfi_offset 14, -4
 344 0002 83B0     		sub	sp, sp, #12
 345              		.cfi_def_cfa_offset 16
 346              		.loc 1 136 0
 347 0004 0B4B     		ldr	r3, .L24
 348 0006 0193     		str	r3, [sp, #4]
 349              		.loc 1 138 0
 350 0008 0CE0     		b	.L22
 351              	.L23:
 352              		.loc 1 139 0
 353 000a 0B4B     		ldr	r3, .L24+4
 354 000c 1B68     		ldr	r3, [r3]
 355 000e 1B68     		ldr	r3, [r3]
 356 0010 9A68     		ldr	r2, [r3, #8]
 357 0012 094B     		ldr	r3, .L24+4
 358 0014 1968     		ldr	r1, [r3]
 359 0016 019B     		ldr	r3, [sp, #4]
 360 0018 581C     		adds	r0, r3, #1
 361 001a 0190     		str	r0, [sp, #4]
 362 001c 1B78     		ldrb	r3, [r3]	@ zero_extendqisi2
 363 001e 0846     		mov	r0, r1
 364 0020 1946     		mov	r1, r3
 365 0022 9047     		blx	r2
 366              	.L22:
 367              		.loc 1 138 0 discriminator 1
 368 0024 054B     		ldr	r3, .L24+8
 369 0026 1B68     		ldr	r3, [r3]
 370 0028 019A     		ldr	r2, [sp, #4]
 371 002a 9A42     		cmp	r2, r3
 372 002c EDD3     		bcc	.L23
 373              		.loc 1 140 0
 374 002e 03B0     		add	sp, sp, #12
 375              		@ sp needed
 376 0030 5DF804FB 		ldr	pc, [sp], #4
 377              	.L25:
 378              		.align	2
 379              	.L24:
 380 0034 00000000 		.word	tokens_buffer
 381 0038 00000000 		.word	chp
 382 003c 00000000 		.word	tokp
 383              		.cfi_endproc
 384              	.LFE67:
 385              		.size	print_tokens, .-print_tokens
 386              		.section	.text.test_emit_token,"ax",%progbits
ARM GAS  /home/pauba/tmp/cc8kkThj.s 			page 8


 387              		.align	2
 388              		.p2align 4,,15
 389              		.global	test_emit_token
 390              		.thumb
 391              		.thumb_func
 392              		.type	test_emit_token, %function
 393              	test_emit_token:
 394              	.LFB68:
 395              		.loc 1 147 0
 396              		.cfi_startproc
 397              		@ args = 0, pretend = 0, frame = 8
 398              		@ frame_needed = 0, uses_anonymous_args = 0
 399 0000 00B5     		push	{lr}
 400              		.cfi_def_cfa_offset 4
 401              		.cfi_offset 14, -4
 402 0002 83B0     		sub	sp, sp, #12
 403              		.cfi_def_cfa_offset 16
 404 0004 0346     		mov	r3, r0
 405 0006 8DF80730 		strb	r3, [sp, #7]
 406              	.LBB2:
 407              		.loc 1 149 0
 408 000a 2023     		movs	r3, #32
 409              	@ 149 "/home/pauba/ChibiOS-RT/test/test.c" 1
 410 000c 83F31188 		msr     BASEPRI, r3
 411              	@ 0 "" 2
 412              		.thumb
 413              	.LBE2:
 414 0010 FFF7FEFF 		bl	dbg_check_lock
 415              		.loc 1 150 0
 416 0014 074B     		ldr	r3, .L27
 417 0016 1B68     		ldr	r3, [r3]
 418 0018 591C     		adds	r1, r3, #1
 419 001a 064A     		ldr	r2, .L27
 420 001c 1160     		str	r1, [r2]
 421 001e 9DF80720 		ldrb	r2, [sp, #7]
 422 0022 1A70     		strb	r2, [r3]
 423              		.loc 1 151 0
 424 0024 FFF7FEFF 		bl	dbg_check_unlock
 425              	.LBB3:
 426 0028 0023     		movs	r3, #0
 427              	@ 151 "/home/pauba/ChibiOS-RT/test/test.c" 1
 428 002a 83F31188 		msr     BASEPRI, r3
 429              	@ 0 "" 2
 430              		.thumb
 431              	.LBE3:
 432              		.loc 1 152 0
 433 002e 03B0     		add	sp, sp, #12
 434              		@ sp needed
 435 0030 5DF804FB 		ldr	pc, [sp], #4
 436              	.L28:
 437              		.align	2
 438              	.L27:
 439 0034 00000000 		.word	tokp
 440              		.cfi_endproc
 441              	.LFE68:
 442              		.size	test_emit_token, .-test_emit_token
 443 0038 AFF30080 		.section	.text._test_fail,"ax",%progbits
ARM GAS  /home/pauba/tmp/cc8kkThj.s 			page 9


 443      AFF30080 
 444              		.align	2
 445              		.p2align 4,,15
 446              		.global	_test_fail
 447              		.thumb
 448              		.thumb_func
 449              		.type	_test_fail, %function
 450              	_test_fail:
 451              	.LFB69:
 452              		.loc 1 157 0
 453              		.cfi_startproc
 454              		@ args = 0, pretend = 0, frame = 8
 455              		@ frame_needed = 0, uses_anonymous_args = 0
 456              		@ link register save eliminated.
 457 0000 82B0     		sub	sp, sp, #8
 458              		.cfi_def_cfa_offset 8
 459 0002 0190     		str	r0, [sp, #4]
 460              		.loc 1 159 0
 461 0004 064B     		ldr	r3, .L31
 462 0006 0122     		movs	r2, #1
 463 0008 1A70     		strb	r2, [r3]
 464              		.loc 1 160 0
 465 000a 064B     		ldr	r3, .L31+4
 466 000c 0122     		movs	r2, #1
 467 000e 1A70     		strb	r2, [r3]
 468              		.loc 1 161 0
 469 0010 054B     		ldr	r3, .L31+8
 470 0012 019A     		ldr	r2, [sp, #4]
 471 0014 1A60     		str	r2, [r3]
 472              		.loc 1 162 0
 473 0016 0123     		movs	r3, #1
 474              		.loc 1 163 0
 475 0018 1846     		mov	r0, r3
 476 001a 02B0     		add	sp, sp, #8
 477              		@ sp needed
 478 001c 7047     		bx	lr
 479              	.L32:
 480 001e 00BF     		.align	2
 481              	.L31:
 482 0020 00000000 		.word	local_fail
 483 0024 00000000 		.word	global_fail
 484 0028 00000000 		.word	failpoint
 485              		.cfi_endproc
 486              	.LFE69:
 487              		.size	_test_fail, .-_test_fail
 488 002c AFF30080 		.section	.text._test_assert,"ax",%progbits
 489              		.align	2
 490              		.p2align 4,,15
 491              		.global	_test_assert
 492              		.thumb
 493              		.thumb_func
 494              		.type	_test_assert, %function
 495              	_test_assert:
 496              	.LFB70:
 497              		.loc 1 165 0
 498              		.cfi_startproc
 499              		@ args = 0, pretend = 0, frame = 8
ARM GAS  /home/pauba/tmp/cc8kkThj.s 			page 10


 500              		@ frame_needed = 0, uses_anonymous_args = 0
 501 0000 00B5     		push	{lr}
 502              		.cfi_def_cfa_offset 4
 503              		.cfi_offset 14, -4
 504 0002 83B0     		sub	sp, sp, #12
 505              		.cfi_def_cfa_offset 16
 506 0004 0190     		str	r0, [sp, #4]
 507 0006 0B46     		mov	r3, r1
 508 0008 8DF80330 		strb	r3, [sp, #3]
 509              		.loc 1 167 0
 510 000c 9DF80330 		ldrb	r3, [sp, #3]
 511 0010 83F00103 		eor	r3, r3, #1
 512 0014 DBB2     		uxtb	r3, r3
 513 0016 002B     		cmp	r3, #0
 514 0018 04D0     		beq	.L34
 515              		.loc 1 168 0
 516 001a 0198     		ldr	r0, [sp, #4]
 517 001c FFF7FEFF 		bl	_test_fail
 518 0020 0346     		mov	r3, r0
 519 0022 00E0     		b	.L35
 520              	.L34:
 521              		.loc 1 169 0
 522 0024 0023     		movs	r3, #0
 523              	.L35:
 524              		.loc 1 170 0
 525 0026 1846     		mov	r0, r3
 526 0028 03B0     		add	sp, sp, #12
 527              		@ sp needed
 528 002a 5DF804FB 		ldr	pc, [sp], #4
 529              		.cfi_endproc
 530              	.LFE70:
 531              		.size	_test_assert, .-_test_assert
 532 002e 00BF     		.section	.text._test_assert_sequence,"ax",%progbits
 533              		.align	2
 534              		.p2align 4,,15
 535              		.global	_test_assert_sequence
 536              		.thumb
 537              		.thumb_func
 538              		.type	_test_assert_sequence, %function
 539              	_test_assert_sequence:
 540              	.LFB71:
 541              		.loc 1 172 0
 542              		.cfi_startproc
 543              		@ args = 0, pretend = 0, frame = 16
 544              		@ frame_needed = 0, uses_anonymous_args = 0
 545 0000 00B5     		push	{lr}
 546              		.cfi_def_cfa_offset 4
 547              		.cfi_offset 14, -4
 548 0002 85B0     		sub	sp, sp, #20
 549              		.cfi_def_cfa_offset 24
 550 0004 0190     		str	r0, [sp, #4]
 551 0006 0091     		str	r1, [sp]
 552              		.loc 1 173 0
 553 0008 134B     		ldr	r3, .L41
 554 000a 0393     		str	r3, [sp, #12]
 555              		.loc 1 174 0
 556 000c 0EE0     		b	.L37
ARM GAS  /home/pauba/tmp/cc8kkThj.s 			page 11


 557              	.L39:
 558              		.loc 1 175 0
 559 000e 039B     		ldr	r3, [sp, #12]
 560 0010 5A1C     		adds	r2, r3, #1
 561 0012 0392     		str	r2, [sp, #12]
 562 0014 1A78     		ldrb	r2, [r3]	@ zero_extendqisi2
 563 0016 009B     		ldr	r3, [sp]
 564 0018 591C     		adds	r1, r3, #1
 565 001a 0091     		str	r1, [sp]
 566 001c 1B78     		ldrb	r3, [r3]	@ zero_extendqisi2
 567 001e 9A42     		cmp	r2, r3
 568 0020 04D0     		beq	.L37
 569              		.loc 1 176 0
 570 0022 0198     		ldr	r0, [sp, #4]
 571 0024 FFF7FEFF 		bl	_test_fail
 572 0028 0346     		mov	r3, r0
 573 002a 10E0     		b	.L38
 574              	.L37:
 575              		.loc 1 174 0 discriminator 1
 576 002c 0B4B     		ldr	r3, .L41+4
 577 002e 1B68     		ldr	r3, [r3]
 578 0030 039A     		ldr	r2, [sp, #12]
 579 0032 9A42     		cmp	r2, r3
 580 0034 EBD3     		bcc	.L39
 581              		.loc 1 178 0
 582 0036 009B     		ldr	r3, [sp]
 583 0038 1B78     		ldrb	r3, [r3]	@ zero_extendqisi2
 584 003a 002B     		cmp	r3, #0
 585 003c 04D0     		beq	.L40
 586              		.loc 1 179 0
 587 003e 0198     		ldr	r0, [sp, #4]
 588 0040 FFF7FEFF 		bl	_test_fail
 589 0044 0346     		mov	r3, r0
 590 0046 02E0     		b	.L38
 591              	.L40:
 592              		.loc 1 180 0
 593 0048 FFF7FEFF 		bl	clear_tokens
 594              		.loc 1 181 0
 595 004c 0023     		movs	r3, #0
 596              	.L38:
 597              		.loc 1 182 0
 598 004e 1846     		mov	r0, r3
 599 0050 05B0     		add	sp, sp, #20
 600              		@ sp needed
 601 0052 5DF804FB 		ldr	pc, [sp], #4
 602              	.L42:
 603 0056 00BF     		.align	2
 604              	.L41:
 605 0058 00000000 		.word	tokens_buffer
 606 005c 00000000 		.word	tokp
 607              		.cfi_endproc
 608              	.LFE71:
 609              		.size	_test_assert_sequence, .-_test_assert_sequence
 610              		.section	.text._test_assert_time_window,"ax",%progbits
 611              		.align	2
 612              		.p2align 4,,15
 613              		.global	_test_assert_time_window
ARM GAS  /home/pauba/tmp/cc8kkThj.s 			page 12


 614              		.thumb
 615              		.thumb_func
 616              		.type	_test_assert_time_window, %function
 617              	_test_assert_time_window:
 618              	.LFB72:
 619              		.loc 1 184 0
 620              		.cfi_startproc
 621              		@ args = 0, pretend = 0, frame = 16
 622              		@ frame_needed = 0, uses_anonymous_args = 0
 623 0000 00B5     		push	{lr}
 624              		.cfi_def_cfa_offset 4
 625              		.cfi_offset 14, -4
 626 0002 85B0     		sub	sp, sp, #20
 627              		.cfi_def_cfa_offset 24
 628 0004 0390     		str	r0, [sp, #12]
 629 0006 0291     		str	r1, [sp, #8]
 630 0008 0192     		str	r2, [sp, #4]
 631              		.loc 1 186 0
 632 000a 0A4B     		ldr	r3, .L45
 633 000c DA68     		ldr	r2, [r3, #12]
 634 000e 029B     		ldr	r3, [sp, #8]
 635 0010 D21A     		subs	r2, r2, r3
 636 0012 0199     		ldr	r1, [sp, #4]
 637 0014 029B     		ldr	r3, [sp, #8]
 638 0016 CB1A     		subs	r3, r1, r3
 639 0018 9A42     		cmp	r2, r3
 640 001a 2CBF     		ite	cs
 641 001c 0023     		movcs	r3, #0
 642 001e 0123     		movcc	r3, #1
 643 0020 DBB2     		uxtb	r3, r3
 644 0022 0398     		ldr	r0, [sp, #12]
 645 0024 1946     		mov	r1, r3
 646 0026 FFF7FEFF 		bl	_test_assert
 647 002a 0346     		mov	r3, r0
 648              		.loc 1 187 0
 649 002c 1846     		mov	r0, r3
 650 002e 05B0     		add	sp, sp, #20
 651              		@ sp needed
 652 0030 5DF804FB 		ldr	pc, [sp], #4
 653              	.L46:
 654              		.align	2
 655              	.L45:
 656 0034 00000000 		.word	vtlist
 657              		.cfi_endproc
 658              	.LFE72:
 659              		.size	_test_assert_time_window, .-_test_assert_time_window
 660 0038 AFF30080 		.section	.text.test_terminate_threads,"ax",%progbits
 660      AFF30080 
 661              		.align	2
 662              		.p2align 4,,15
 663              		.global	test_terminate_threads
 664              		.thumb
 665              		.thumb_func
 666              		.type	test_terminate_threads, %function
 667              	test_terminate_threads:
 668              	.LFB73:
 669              		.loc 1 196 0
ARM GAS  /home/pauba/tmp/cc8kkThj.s 			page 13


 670              		.cfi_startproc
 671              		@ args = 0, pretend = 0, frame = 8
 672              		@ frame_needed = 0, uses_anonymous_args = 0
 673 0000 00B5     		push	{lr}
 674              		.cfi_def_cfa_offset 4
 675              		.cfi_offset 14, -4
 676 0002 83B0     		sub	sp, sp, #12
 677              		.cfi_def_cfa_offset 16
 678              		.loc 1 199 0
 679 0004 0023     		movs	r3, #0
 680 0006 0193     		str	r3, [sp, #4]
 681 0008 0FE0     		b	.L48
 682              	.L50:
 683              		.loc 1 200 0
 684 000a 0B4B     		ldr	r3, .L51
 685 000c 019A     		ldr	r2, [sp, #4]
 686 000e 53F82230 		ldr	r3, [r3, r2, lsl #2]
 687 0012 002B     		cmp	r3, #0
 688 0014 06D0     		beq	.L49
 689              		.loc 1 201 0
 690 0016 084B     		ldr	r3, .L51
 691 0018 019A     		ldr	r2, [sp, #4]
 692 001a 53F82230 		ldr	r3, [r3, r2, lsl #2]
 693 001e 1846     		mov	r0, r3
 694 0020 FFF7FEFF 		bl	chThdTerminate
 695              	.L49:
 696              		.loc 1 199 0
 697 0024 019B     		ldr	r3, [sp, #4]
 698 0026 0133     		adds	r3, r3, #1
 699 0028 0193     		str	r3, [sp, #4]
 700              	.L48:
 701              		.loc 1 199 0 is_stmt 0 discriminator 1
 702 002a 019B     		ldr	r3, [sp, #4]
 703 002c 042B     		cmp	r3, #4
 704 002e ECDD     		ble	.L50
 705              		.loc 1 202 0 is_stmt 1
 706 0030 03B0     		add	sp, sp, #12
 707              		@ sp needed
 708 0032 5DF804FB 		ldr	pc, [sp], #4
 709              	.L52:
 710 0036 00BF     		.align	2
 711              	.L51:
 712 0038 00000000 		.word	threads
 713              		.cfi_endproc
 714              	.LFE73:
 715              		.size	test_terminate_threads, .-test_terminate_threads
 716 003c AFF30080 		.section	.text.test_wait_threads,"ax",%progbits
 717              		.align	2
 718              		.p2align 4,,15
 719              		.global	test_wait_threads
 720              		.thumb
 721              		.thumb_func
 722              		.type	test_wait_threads, %function
 723              	test_wait_threads:
 724              	.LFB74:
 725              		.loc 1 207 0
 726              		.cfi_startproc
ARM GAS  /home/pauba/tmp/cc8kkThj.s 			page 14


 727              		@ args = 0, pretend = 0, frame = 8
 728              		@ frame_needed = 0, uses_anonymous_args = 0
 729 0000 00B5     		push	{lr}
 730              		.cfi_def_cfa_offset 4
 731              		.cfi_offset 14, -4
 732 0002 83B0     		sub	sp, sp, #12
 733              		.cfi_def_cfa_offset 16
 734              		.loc 1 210 0
 735 0004 0023     		movs	r3, #0
 736 0006 0193     		str	r3, [sp, #4]
 737 0008 14E0     		b	.L54
 738              	.L56:
 739              		.loc 1 211 0
 740 000a 0D4B     		ldr	r3, .L57
 741 000c 019A     		ldr	r2, [sp, #4]
 742 000e 53F82230 		ldr	r3, [r3, r2, lsl #2]
 743 0012 002B     		cmp	r3, #0
 744 0014 0BD0     		beq	.L55
 745              		.loc 1 212 0
 746 0016 0A4B     		ldr	r3, .L57
 747 0018 019A     		ldr	r2, [sp, #4]
 748 001a 53F82230 		ldr	r3, [r3, r2, lsl #2]
 749 001e 1846     		mov	r0, r3
 750 0020 FFF7FEFF 		bl	chThdWait
 751              		.loc 1 213 0
 752 0024 064B     		ldr	r3, .L57
 753 0026 019A     		ldr	r2, [sp, #4]
 754 0028 0021     		movs	r1, #0
 755 002a 43F82210 		str	r1, [r3, r2, lsl #2]
 756              	.L55:
 757              		.loc 1 210 0
 758 002e 019B     		ldr	r3, [sp, #4]
 759 0030 0133     		adds	r3, r3, #1
 760 0032 0193     		str	r3, [sp, #4]
 761              	.L54:
 762              		.loc 1 210 0 is_stmt 0 discriminator 1
 763 0034 019B     		ldr	r3, [sp, #4]
 764 0036 042B     		cmp	r3, #4
 765 0038 E7DD     		ble	.L56
 766              		.loc 1 215 0 is_stmt 1
 767 003a 03B0     		add	sp, sp, #12
 768              		@ sp needed
 769 003c 5DF804FB 		ldr	pc, [sp], #4
 770              	.L58:
 771              		.align	2
 772              	.L57:
 773 0040 00000000 		.word	threads
 774              		.cfi_endproc
 775              	.LFE74:
 776              		.size	test_wait_threads, .-test_wait_threads
 777 0044 AFF30080 		.section	.text.test_cpu_pulse,"ax",%progbits
 777      AFF30080 
 777      AFF30080 
 778              		.align	2
 779              		.p2align 4,,15
 780              		.global	test_cpu_pulse
 781              		.thumb
ARM GAS  /home/pauba/tmp/cc8kkThj.s 			page 15


 782              		.thumb_func
 783              		.type	test_cpu_pulse, %function
 784              	test_cpu_pulse:
 785              	.LFB75:
 786              		.loc 1 224 0
 787              		.cfi_startproc
 788              		@ args = 0, pretend = 0, frame = 24
 789              		@ frame_needed = 0, uses_anonymous_args = 0
 790              		@ link register save eliminated.
 791 0000 86B0     		sub	sp, sp, #24
 792              		.cfi_def_cfa_offset 24
 793 0002 0190     		str	r0, [sp, #4]
 794              		.loc 1 227 0
 795 0004 1D4B     		ldr	r3, .L68
 796 0006 9B69     		ldr	r3, [r3, #24]
 797 0008 5B6A     		ldr	r3, [r3, #36]
 798 000a 0593     		str	r3, [sp, #20]
 799              		.loc 1 228 0
 800 000c 019B     		ldr	r3, [sp, #4]
 801 000e 4FF47A72 		mov	r2, #1000
 802 0012 02FB03F3 		mul	r3, r2, r3
 803 0016 5A1E     		subs	r2, r3, #1
 804 0018 194B     		ldr	r3, .L68+4
 805 001a A3FB0213 		umull	r1, r3, r3, r2
 806 001e 9A09     		lsrs	r2, r3, #6
 807 0020 059B     		ldr	r3, [sp, #20]
 808 0022 1344     		add	r3, r3, r2
 809 0024 0133     		adds	r3, r3, #1
 810 0026 0493     		str	r3, [sp, #16]
 811              	.L67:
 812              		.loc 1 230 0
 813 0028 144B     		ldr	r3, .L68
 814 002a 9B69     		ldr	r3, [r3, #24]
 815 002c 5B6A     		ldr	r3, [r3, #36]
 816 002e 0393     		str	r3, [sp, #12]
 817              		.loc 1 235 0
 818 0030 049A     		ldr	r2, [sp, #16]
 819 0032 059B     		ldr	r3, [sp, #20]
 820 0034 9A42     		cmp	r2, r3
 821 0036 0ED9     		bls	.L60
 822              		.loc 1 235 0 is_stmt 0 discriminator 1
 823 0038 039A     		ldr	r2, [sp, #12]
 824 003a 059B     		ldr	r3, [sp, #20]
 825 003c 9A42     		cmp	r2, r3
 826 003e 05D3     		bcc	.L61
 827 0040 039A     		ldr	r2, [sp, #12]
 828 0042 049B     		ldr	r3, [sp, #16]
 829 0044 9A42     		cmp	r2, r3
 830 0046 01D2     		bcs	.L61
 831              		.loc 1 235 0 discriminator 3
 832 0048 0123     		movs	r3, #1
 833 004a 00E0     		b	.L62
 834              	.L61:
 835              		.loc 1 235 0 discriminator 2
 836 004c 0023     		movs	r3, #0
 837              	.L62:
 838              		.loc 1 235 0 discriminator 4
ARM GAS  /home/pauba/tmp/cc8kkThj.s 			page 16


 839 004e 03F00103 		and	r3, r3, #1
 840 0052 DBB2     		uxtb	r3, r3
 841 0054 0DE0     		b	.L63
 842              	.L60:
 843              		.loc 1 236 0 is_stmt 1
 844 0056 039A     		ldr	r2, [sp, #12]
 845 0058 059B     		ldr	r3, [sp, #20]
 846 005a 9A42     		cmp	r2, r3
 847 005c 03D2     		bcs	.L64
 848              		.loc 1 236 0 is_stmt 0 discriminator 2
 849 005e 039A     		ldr	r2, [sp, #12]
 850 0060 049B     		ldr	r3, [sp, #16]
 851 0062 9A42     		cmp	r2, r3
 852 0064 01D2     		bcs	.L65
 853              	.L64:
 854              		.loc 1 236 0 discriminator 1
 855 0066 0123     		movs	r3, #1
 856 0068 00E0     		b	.L66
 857              	.L65:
 858              		.loc 1 236 0 discriminator 3
 859 006a 0023     		movs	r3, #0
 860              	.L66:
 861              		.loc 1 235 0 is_stmt 1
 862 006c 03F00103 		and	r3, r3, #1
 863 0070 DBB2     		uxtb	r3, r3
 864              	.L63:
 865              		.loc 1 236 0
 866 0072 002B     		cmp	r3, #0
 867 0074 D8D1     		bne	.L67
 868              		.loc 1 237 0
 869 0076 06B0     		add	sp, sp, #24
 870              		@ sp needed
 871 0078 7047     		bx	lr
 872              	.L69:
 873 007a 00BF     		.align	2
 874              	.L68:
 875 007c 00000000 		.word	rlist
 876 0080 D34D6210 		.word	274877907
 877              		.cfi_endproc
 878              	.LFE75:
 879              		.size	test_cpu_pulse, .-test_cpu_pulse
 880 0084 AFF30080 		.section	.text.test_wait_tick,"ax",%progbits
 880      AFF30080 
 880      AFF30080 
 881              		.align	2
 882              		.p2align 4,,15
 883              		.global	test_wait_tick
 884              		.thumb
 885              		.thumb_func
 886              		.type	test_wait_tick, %function
 887              	test_wait_tick:
 888              	.LFB76:
 889              		.loc 1 245 0
 890              		.cfi_startproc
 891              		@ args = 0, pretend = 0, frame = 0
 892              		@ frame_needed = 0, uses_anonymous_args = 0
 893 0000 08B5     		push	{r3, lr}
ARM GAS  /home/pauba/tmp/cc8kkThj.s 			page 17


 894              		.cfi_def_cfa_offset 8
 895              		.cfi_offset 3, -8
 896              		.cfi_offset 14, -4
 897              		.loc 1 247 0
 898 0002 0120     		movs	r0, #1
 899 0004 FFF7FEFF 		bl	chThdSleep
 900              		.loc 1 248 0
 901 0008 014B     		ldr	r3, .L72
 902 000a DB68     		ldr	r3, [r3, #12]
 903              		.loc 1 249 0
 904 000c 1846     		mov	r0, r3
 905 000e 08BD     		pop	{r3, pc}
 906              	.L73:
 907              		.align	2
 908              	.L72:
 909 0010 00000000 		.word	vtlist
 910              		.cfi_endproc
 911              	.LFE76:
 912              		.size	test_wait_tick, .-test_wait_tick
 913              		.global	test_timer_done
 914 0014 AFF30080 		.section	.bss.test_timer_done,"aw",%nobits
 914      AFF30080 
 914      AFF30080 
 915              		.type	test_timer_done, %object
 916              		.size	test_timer_done, 1
 917              	test_timer_done:
 918 0000 00       		.space	1
 919              		.section	.bss.vt,"aw",%nobits
 920              		.align	2
 921              		.type	vt, %object
 922              		.size	vt, 20
 923              	vt:
 924 0000 00000000 		.space	20
 924      00000000 
 924      00000000 
 924      00000000 
 924      00000000 
 925              		.section	.text.tmr,"ax",%progbits
 926              		.align	2
 927              		.p2align 4,,15
 928              		.thumb
 929              		.thumb_func
 930              		.type	tmr, %function
 931              	tmr:
 932              	.LFB77:
 933              		.loc 1 261 0
 934              		.cfi_startproc
 935              		@ args = 0, pretend = 0, frame = 8
 936              		@ frame_needed = 0, uses_anonymous_args = 0
 937              		@ link register save eliminated.
 938 0000 82B0     		sub	sp, sp, #8
 939              		.cfi_def_cfa_offset 8
 940 0002 0190     		str	r0, [sp, #4]
 941              		.loc 1 264 0
 942 0004 024B     		ldr	r3, .L75
 943 0006 0122     		movs	r2, #1
 944 0008 1A70     		strb	r2, [r3]
ARM GAS  /home/pauba/tmp/cc8kkThj.s 			page 18


 945              		.loc 1 265 0
 946 000a 02B0     		add	sp, sp, #8
 947              		@ sp needed
 948 000c 7047     		bx	lr
 949              	.L76:
 950 000e 00BF     		.align	2
 951              	.L75:
 952 0010 00000000 		.word	test_timer_done
 953              		.cfi_endproc
 954              	.LFE77:
 955              		.size	tmr, .-tmr
 956 0014 AFF30080 		.section	.text.test_start_timer,"ax",%progbits
 956      AFF30080 
 956      AFF30080 
 957              		.align	2
 958              		.p2align 4,,15
 959              		.global	test_start_timer
 960              		.thumb
 961              		.thumb_func
 962              		.type	test_start_timer, %function
 963              	test_start_timer:
 964              	.LFB78:
 965              		.loc 1 272 0
 966              		.cfi_startproc
 967              		@ args = 0, pretend = 0, frame = 16
 968              		@ frame_needed = 0, uses_anonymous_args = 0
 969 0000 00B5     		push	{lr}
 970              		.cfi_def_cfa_offset 4
 971              		.cfi_offset 14, -4
 972 0002 85B0     		sub	sp, sp, #20
 973              		.cfi_def_cfa_offset 24
 974 0004 0190     		str	r0, [sp, #4]
 975              		.loc 1 274 0
 976 0006 019B     		ldr	r3, [sp, #4]
 977 0008 4FF47A72 		mov	r2, #1000
 978 000c 02FB03F3 		mul	r3, r2, r3
 979 0010 5A1E     		subs	r2, r3, #1
 980 0012 0E4B     		ldr	r3, .L78
 981 0014 A3FB0213 		umull	r1, r3, r3, r2
 982 0018 9B09     		lsrs	r3, r3, #6
 983 001a 0133     		adds	r3, r3, #1
 984 001c 0393     		str	r3, [sp, #12]
 985              		.loc 1 275 0
 986 001e 0C4B     		ldr	r3, .L78+4
 987 0020 0022     		movs	r2, #0
 988 0022 1A70     		strb	r2, [r3]
 989              	.LBB4:
 990              		.loc 1 276 0
 991 0024 2023     		movs	r3, #32
 992              	@ 276 "/home/pauba/ChibiOS-RT/test/test.c" 1
 993 0026 83F31188 		msr     BASEPRI, r3
 994              	@ 0 "" 2
 995              		.thumb
 996              	.LBE4:
 997 002a FFF7FEFF 		bl	dbg_check_lock
 998 002e 0948     		ldr	r0, .L78+8
 999 0030 0399     		ldr	r1, [sp, #12]
ARM GAS  /home/pauba/tmp/cc8kkThj.s 			page 19


 1000 0032 094A     		ldr	r2, .L78+12
 1001 0034 0023     		movs	r3, #0
 1002 0036 FFF7FEFF 		bl	chVTSetI
 1003 003a FFF7FEFF 		bl	dbg_check_unlock
 1004              	.LBB5:
 1005 003e 0023     		movs	r3, #0
 1006              	@ 276 "/home/pauba/ChibiOS-RT/test/test.c" 1
 1007 0040 83F31188 		msr     BASEPRI, r3
 1008              	@ 0 "" 2
 1009              		.thumb
 1010              	.LBE5:
 1011              		.loc 1 277 0
 1012 0044 05B0     		add	sp, sp, #20
 1013              		@ sp needed
 1014 0046 5DF804FB 		ldr	pc, [sp], #4
 1015              	.L79:
 1016 004a 00BF     		.align	2
 1017              	.L78:
 1018 004c D34D6210 		.word	274877907
 1019 0050 00000000 		.word	test_timer_done
 1020 0054 00000000 		.word	vt
 1021 0058 00000000 		.word	tmr
 1022              		.cfi_endproc
 1023              	.LFE78:
 1024              		.size	test_start_timer, .-test_start_timer
 1025 005c AFF30080 		.section	.text.execute_test,"ax",%progbits
 1026              		.align	2
 1027              		.p2align 4,,15
 1028              		.thumb
 1029              		.thumb_func
 1030              		.type	execute_test, %function
 1031              	execute_test:
 1032              	.LFB79:
 1033              		.loc 1 282 0
 1034              		.cfi_startproc
 1035              		@ args = 0, pretend = 0, frame = 16
 1036              		@ frame_needed = 0, uses_anonymous_args = 0
 1037 0000 00B5     		push	{lr}
 1038              		.cfi_def_cfa_offset 4
 1039              		.cfi_offset 14, -4
 1040 0002 85B0     		sub	sp, sp, #20
 1041              		.cfi_def_cfa_offset 24
 1042 0004 0190     		str	r0, [sp, #4]
 1043              		.loc 1 286 0
 1044 0006 FFF7FEFF 		bl	clear_tokens
 1045              		.loc 1 287 0
 1046 000a 134B     		ldr	r3, .L85
 1047 000c 0022     		movs	r2, #0
 1048 000e 1A70     		strb	r2, [r3]
 1049              		.loc 1 288 0
 1050 0010 0023     		movs	r3, #0
 1051 0012 0393     		str	r3, [sp, #12]
 1052 0014 07E0     		b	.L81
 1053              	.L82:
 1054              		.loc 1 289 0 discriminator 2
 1055 0016 114B     		ldr	r3, .L85+4
 1056 0018 039A     		ldr	r2, [sp, #12]
ARM GAS  /home/pauba/tmp/cc8kkThj.s 			page 20


 1057 001a 0021     		movs	r1, #0
 1058 001c 43F82210 		str	r1, [r3, r2, lsl #2]
 1059              		.loc 1 288 0 discriminator 2
 1060 0020 039B     		ldr	r3, [sp, #12]
 1061 0022 0133     		adds	r3, r3, #1
 1062 0024 0393     		str	r3, [sp, #12]
 1063              	.L81:
 1064              		.loc 1 288 0 is_stmt 0 discriminator 1
 1065 0026 039B     		ldr	r3, [sp, #12]
 1066 0028 042B     		cmp	r3, #4
 1067 002a F4DD     		ble	.L82
 1068              		.loc 1 291 0 is_stmt 1
 1069 002c 019B     		ldr	r3, [sp, #4]
 1070 002e 5B68     		ldr	r3, [r3, #4]
 1071 0030 002B     		cmp	r3, #0
 1072 0032 02D0     		beq	.L83
 1073              		.loc 1 292 0
 1074 0034 019B     		ldr	r3, [sp, #4]
 1075 0036 5B68     		ldr	r3, [r3, #4]
 1076 0038 9847     		blx	r3
 1077              	.L83:
 1078              		.loc 1 293 0
 1079 003a 019B     		ldr	r3, [sp, #4]
 1080 003c DB68     		ldr	r3, [r3, #12]
 1081 003e 9847     		blx	r3
 1082              		.loc 1 294 0
 1083 0040 019B     		ldr	r3, [sp, #4]
 1084 0042 9B68     		ldr	r3, [r3, #8]
 1085 0044 002B     		cmp	r3, #0
 1086 0046 02D0     		beq	.L84
 1087              		.loc 1 295 0
 1088 0048 019B     		ldr	r3, [sp, #4]
 1089 004a 9B68     		ldr	r3, [r3, #8]
 1090 004c 9847     		blx	r3
 1091              	.L84:
 1092              		.loc 1 297 0
 1093 004e FFF7FEFF 		bl	test_wait_threads
 1094              		.loc 1 298 0
 1095 0052 05B0     		add	sp, sp, #20
 1096              		@ sp needed
 1097 0054 5DF804FB 		ldr	pc, [sp], #4
 1098              	.L86:
 1099              		.align	2
 1100              	.L85:
 1101 0058 00000000 		.word	local_fail
 1102 005c 00000000 		.word	threads
 1103              		.cfi_endproc
 1104              	.LFE79:
 1105              		.size	execute_test, .-execute_test
 1106              		.section	.text.print_line,"ax",%progbits
 1107              		.align	2
 1108              		.p2align 4,,15
 1109              		.thumb
 1110              		.thumb_func
 1111              		.type	print_line, %function
 1112              	print_line:
 1113              	.LFB80:
ARM GAS  /home/pauba/tmp/cc8kkThj.s 			page 21


 1114              		.loc 1 300 0
 1115              		.cfi_startproc
 1116              		@ args = 0, pretend = 0, frame = 8
 1117              		@ frame_needed = 0, uses_anonymous_args = 0
 1118 0000 00B5     		push	{lr}
 1119              		.cfi_def_cfa_offset 4
 1120              		.cfi_offset 14, -4
 1121 0002 83B0     		sub	sp, sp, #12
 1122              		.cfi_def_cfa_offset 16
 1123              		.loc 1 303 0
 1124 0004 0023     		movs	r3, #0
 1125 0006 0193     		str	r3, [sp, #4]
 1126 0008 0BE0     		b	.L88
 1127              	.L89:
 1128              		.loc 1 304 0 discriminator 2
 1129 000a 0E4B     		ldr	r3, .L90
 1130 000c 1B68     		ldr	r3, [r3]
 1131 000e 1B68     		ldr	r3, [r3]
 1132 0010 9B68     		ldr	r3, [r3, #8]
 1133 0012 0C4A     		ldr	r2, .L90
 1134 0014 1268     		ldr	r2, [r2]
 1135 0016 1046     		mov	r0, r2
 1136 0018 2D21     		movs	r1, #45
 1137 001a 9847     		blx	r3
 1138              		.loc 1 303 0 discriminator 2
 1139 001c 019B     		ldr	r3, [sp, #4]
 1140 001e 0133     		adds	r3, r3, #1
 1141 0020 0193     		str	r3, [sp, #4]
 1142              	.L88:
 1143              		.loc 1 303 0 is_stmt 0 discriminator 1
 1144 0022 019B     		ldr	r3, [sp, #4]
 1145 0024 4B2B     		cmp	r3, #75
 1146 0026 F0D9     		bls	.L89
 1147              		.loc 1 305 0 is_stmt 1
 1148 0028 064B     		ldr	r3, .L90
 1149 002a 1B68     		ldr	r3, [r3]
 1150 002c 1B68     		ldr	r3, [r3]
 1151 002e 1B68     		ldr	r3, [r3]
 1152 0030 044A     		ldr	r2, .L90
 1153 0032 1268     		ldr	r2, [r2]
 1154 0034 1046     		mov	r0, r2
 1155 0036 0449     		ldr	r1, .L90+4
 1156 0038 0222     		movs	r2, #2
 1157 003a 9847     		blx	r3
 1158              		.loc 1 306 0
 1159 003c 03B0     		add	sp, sp, #12
 1160              		@ sp needed
 1161 003e 5DF804FB 		ldr	pc, [sp], #4
 1162              	.L91:
 1163 0042 00BF     		.align	2
 1164              	.L90:
 1165 0044 00000000 		.word	chp
 1166 0048 00000000 		.word	.LC0
 1167              		.cfi_endproc
 1168              	.LFE80:
 1169              		.size	print_line, .-print_line
 1170              		.section	.rodata
ARM GAS  /home/pauba/tmp/cc8kkThj.s 			page 22


 1171 0003 00       		.align	2
 1172              	.LC1:
 1173 0004 00       		.ascii	"\000"
 1174 0005 000000   		.align	2
 1175              	.LC2:
 1176 0008 2A2A2A20 		.ascii	"*** ChibiOS/RT test suite\000"
 1176      43686962 
 1176      694F532F 
 1176      52542074 
 1176      65737420 
 1177 0022 0000     		.align	2
 1178              	.LC3:
 1179 0024 2A2A2A00 		.ascii	"***\000"
 1180              		.align	2
 1181              	.LC4:
 1182 0028 2A2A2A20 		.ascii	"*** Kernel:       \000"
 1182      4B65726E 
 1182      656C3A20 
 1182      20202020 
 1182      202000
 1183 003b 00       		.align	2
 1184              	.LC5:
 1185 003c 322E362E 		.ascii	"2.6.6\000"
 1185      3600
 1186 0042 0000     		.align	2
 1187              	.LC6:
 1188 0044 2A2A2A20 		.ascii	"*** Compiled:     \000"
 1188      436F6D70 
 1188      696C6564 
 1188      3A202020 
 1188      202000
 1189 0057 00       		.align	2
 1190              	.LC7:
 1191 0058 4F637420 		.ascii	"Oct 14 2014 - 08:30:58\000"
 1191      31342032 
 1191      30313420 
 1191      2D203038 
 1191      3A33303A 
 1192 006f 00       		.align	2
 1193              	.LC8:
 1194 0070 2A2A2A20 		.ascii	"*** Compiler:     \000"
 1194      436F6D70 
 1194      696C6572 
 1194      3A202020 
 1194      202000
 1195 0083 00       		.align	2
 1196              	.LC9:
 1197 0084 47434320 		.ascii	"GCC 4.8.3 20140228 (release) [ARM/embedded-4_8-bran"
 1197      342E382E 
 1197      33203230 
 1197      31343032 
 1197      32382028 
 1198 00b7 63682072 		.ascii	"ch revision 208322]\000"
 1198      65766973 
 1198      696F6E20 
 1198      32303833 
 1198      32325D00 
ARM GAS  /home/pauba/tmp/cc8kkThj.s 			page 23


 1199 00cb 00       		.align	2
 1200              	.LC10:
 1201 00cc 2A2A2A20 		.ascii	"*** Architecture: \000"
 1201      41726368 
 1201      69746563 
 1201      74757265 
 1201      3A2000
 1202 00df 00       		.align	2
 1203              	.LC11:
 1204 00e0 41524D76 		.ascii	"ARMv7-M\000"
 1204      372D4D00 
 1205              		.align	2
 1206              	.LC12:
 1207 00e8 2A2A2A20 		.ascii	"*** Core Variant: \000"
 1207      436F7265 
 1207      20566172 
 1207      69616E74 
 1207      3A2000
 1208 00fb 00       		.align	2
 1209              	.LC13:
 1210 00fc 436F7274 		.ascii	"Cortex-M3\000"
 1210      65782D4D 
 1210      3300
 1211 0106 0000     		.align	2
 1212              	.LC14:
 1213 0108 2A2A2A20 		.ascii	"*** Port Info:    \000"
 1213      506F7274 
 1213      20496E66 
 1213      6F3A2020 
 1213      202000
 1214 011b 00       		.align	2
 1215              	.LC15:
 1216 011c 41647661 		.ascii	"Advanced kernel mode\000"
 1216      6E636564 
 1216      206B6572 
 1216      6E656C20 
 1216      6D6F6465 
 1217 0131 000000   		.align	2
 1218              	.LC16:
 1219 0134 2A2A2A20 		.ascii	"*** Platform:     \000"
 1219      506C6174 
 1219      666F726D 
 1219      3A202020 
 1219      202000
 1220 0147 00       		.align	2
 1221              	.LC17:
 1222 0148 53544D33 		.ascii	"STM32L1xx Ultra Low Power Medium Density\000"
 1222      324C3178 
 1222      7820556C 
 1222      74726120 
 1222      4C6F7720 
 1223 0171 000000   		.align	2
 1224              	.LC18:
 1225 0174 2A2A2A20 		.ascii	"*** Test Board:   \000"
 1225      54657374 
 1225      20426F61 
 1225      72643A20 
ARM GAS  /home/pauba/tmp/cc8kkThj.s 			page 24


 1225      202000
 1226 0187 00       		.align	2
 1227              	.LC19:
 1228 0188 53544D69 		.ascii	"STMicroelectronics NUCLEO-L152RE\000"
 1228      63726F65 
 1228      6C656374 
 1228      726F6E69 
 1228      6373204E 
 1229 01a9 000000   		.align	2
 1230              	.LC20:
 1231 01ac 2D2D2D20 		.ascii	"--- Test Case \000"
 1231      54657374 
 1231      20436173 
 1231      652000
 1232 01bb 00       		.align	2
 1233              	.LC21:
 1234 01bc 2E00     		.ascii	".\000"
 1235 01be 0000     		.align	2
 1236              	.LC22:
 1237 01c0 202800   		.ascii	" (\000"
 1238 01c3 00       		.align	2
 1239              	.LC23:
 1240 01c4 2900     		.ascii	")\000"
 1241 01c6 0000     		.align	2
 1242              	.LC24:
 1243 01c8 2D2D2D20 		.ascii	"--- Result: FAILURE (#\000"
 1243      52657375 
 1243      6C743A20 
 1243      4641494C 
 1243      55524520 
 1244 01df 00       		.align	2
 1245              	.LC25:
 1246 01e0 205B00   		.ascii	" [\000"
 1247 01e3 00       		.align	2
 1248              	.LC26:
 1249 01e4 5D2900   		.ascii	"])\000"
 1250 01e7 00       		.align	2
 1251              	.LC27:
 1252 01e8 2D2D2D20 		.ascii	"--- Result: SUCCESS\000"
 1252      52657375 
 1252      6C743A20 
 1252      53554343 
 1252      45535300 
 1253              		.align	2
 1254              	.LC28:
 1255 01fc 46696E61 		.ascii	"Final result: \000"
 1255      6C207265 
 1255      73756C74 
 1255      3A2000
 1256 020b 00       		.align	2
 1257              	.LC29:
 1258 020c 4641494C 		.ascii	"FAILURE\000"
 1258      55524500 
 1259              		.align	2
 1260              	.LC30:
 1261 0214 53554343 		.ascii	"SUCCESS\000"
 1261      45535300 
ARM GAS  /home/pauba/tmp/cc8kkThj.s 			page 25


 1262              		.section	.text.TestThread,"ax",%progbits
 1263              		.align	2
 1264              		.p2align 4,,15
 1265              		.global	TestThread
 1266              		.thumb
 1267              		.thumb_func
 1268              		.type	TestThread, %function
 1269              	TestThread:
 1270              	.LFB81:
 1271              		.loc 1 314 0
 1272              		.cfi_startproc
 1273              		@ args = 0, pretend = 0, frame = 16
 1274              		@ frame_needed = 0, uses_anonymous_args = 0
 1275 0000 00B5     		push	{lr}
 1276              		.cfi_def_cfa_offset 4
 1277              		.cfi_offset 14, -4
 1278 0002 85B0     		sub	sp, sp, #20
 1279              		.cfi_def_cfa_offset 24
 1280 0004 0190     		str	r0, [sp, #4]
 1281              		.loc 1 317 0
 1282 0006 604B     		ldr	r3, .L102
 1283 0008 019A     		ldr	r2, [sp, #4]
 1284 000a 1A60     		str	r2, [r3]
 1285              		.loc 1 318 0
 1286 000c 5F48     		ldr	r0, .L102+4
 1287 000e FFF7FEFF 		bl	test_println
 1288              		.loc 1 319 0
 1289 0012 5F48     		ldr	r0, .L102+8
 1290 0014 FFF7FEFF 		bl	test_println
 1291              		.loc 1 320 0
 1292 0018 5E48     		ldr	r0, .L102+12
 1293 001a FFF7FEFF 		bl	test_println
 1294              		.loc 1 321 0
 1295 001e 5E48     		ldr	r0, .L102+16
 1296 0020 FFF7FEFF 		bl	test_print
 1297              		.loc 1 322 0
 1298 0024 5D48     		ldr	r0, .L102+20
 1299 0026 FFF7FEFF 		bl	test_println
 1300              		.loc 1 323 0
 1301 002a 5D48     		ldr	r0, .L102+24
 1302 002c FFF7FEFF 		bl	test_print
 1303              		.loc 1 324 0
 1304 0030 5C48     		ldr	r0, .L102+28
 1305 0032 FFF7FEFF 		bl	test_println
 1306              		.loc 1 326 0
 1307 0036 5C48     		ldr	r0, .L102+32
 1308 0038 FFF7FEFF 		bl	test_print
 1309              		.loc 1 327 0
 1310 003c 5B48     		ldr	r0, .L102+36
 1311 003e FFF7FEFF 		bl	test_println
 1312              		.loc 1 329 0
 1313 0042 5B48     		ldr	r0, .L102+40
 1314 0044 FFF7FEFF 		bl	test_print
 1315              		.loc 1 330 0
 1316 0048 5A48     		ldr	r0, .L102+44
 1317 004a FFF7FEFF 		bl	test_println
 1318              		.loc 1 332 0
ARM GAS  /home/pauba/tmp/cc8kkThj.s 			page 26


 1319 004e 5A48     		ldr	r0, .L102+48
 1320 0050 FFF7FEFF 		bl	test_print
 1321              		.loc 1 333 0
 1322 0054 5948     		ldr	r0, .L102+52
 1323 0056 FFF7FEFF 		bl	test_println
 1324              		.loc 1 336 0
 1325 005a 5948     		ldr	r0, .L102+56
 1326 005c FFF7FEFF 		bl	test_print
 1327              		.loc 1 337 0
 1328 0060 5848     		ldr	r0, .L102+60
 1329 0062 FFF7FEFF 		bl	test_println
 1330              		.loc 1 340 0
 1331 0066 5848     		ldr	r0, .L102+64
 1332 0068 FFF7FEFF 		bl	test_print
 1333              		.loc 1 341 0
 1334 006c 5748     		ldr	r0, .L102+68
 1335 006e FFF7FEFF 		bl	test_println
 1336              		.loc 1 344 0
 1337 0072 5748     		ldr	r0, .L102+72
 1338 0074 FFF7FEFF 		bl	test_print
 1339              		.loc 1 345 0
 1340 0078 5648     		ldr	r0, .L102+76
 1341 007a FFF7FEFF 		bl	test_println
 1342              		.loc 1 347 0
 1343 007e 4348     		ldr	r0, .L102+4
 1344 0080 FFF7FEFF 		bl	test_println
 1345              		.loc 1 349 0
 1346 0084 544B     		ldr	r3, .L102+80
 1347 0086 0022     		movs	r2, #0
 1348 0088 1A70     		strb	r2, [r3]
 1349              		.loc 1 350 0
 1350 008a 0023     		movs	r3, #0
 1351 008c 0393     		str	r3, [sp, #12]
 1352              		.loc 1 351 0
 1353 008e 5CE0     		b	.L93
 1354              	.L98:
 1355              		.loc 1 352 0
 1356 0090 0023     		movs	r3, #0
 1357 0092 0293     		str	r3, [sp, #8]
 1358              		.loc 1 353 0
 1359 0094 4CE0     		b	.L94
 1360              	.L97:
 1361              		.loc 1 354 0
 1362 0096 FFF7FEFF 		bl	print_line
 1363              		.loc 1 355 0
 1364 009a 5048     		ldr	r0, .L102+84
 1365 009c FFF7FEFF 		bl	test_print
 1366              		.loc 1 356 0
 1367 00a0 039B     		ldr	r3, [sp, #12]
 1368 00a2 0133     		adds	r3, r3, #1
 1369 00a4 1846     		mov	r0, r3
 1370 00a6 FFF7FEFF 		bl	test_printn
 1371              		.loc 1 357 0
 1372 00aa 4D48     		ldr	r0, .L102+88
 1373 00ac FFF7FEFF 		bl	test_print
 1374              		.loc 1 358 0
 1375 00b0 029B     		ldr	r3, [sp, #8]
ARM GAS  /home/pauba/tmp/cc8kkThj.s 			page 27


 1376 00b2 0133     		adds	r3, r3, #1
 1377 00b4 1846     		mov	r0, r3
 1378 00b6 FFF7FEFF 		bl	test_printn
 1379              		.loc 1 359 0
 1380 00ba 4A48     		ldr	r0, .L102+92
 1381 00bc FFF7FEFF 		bl	test_print
 1382              		.loc 1 360 0
 1383 00c0 494B     		ldr	r3, .L102+96
 1384 00c2 039A     		ldr	r2, [sp, #12]
 1385 00c4 53F82220 		ldr	r2, [r3, r2, lsl #2]
 1386 00c8 029B     		ldr	r3, [sp, #8]
 1387 00ca 9B00     		lsls	r3, r3, #2
 1388 00cc 1344     		add	r3, r3, r2
 1389 00ce 1B68     		ldr	r3, [r3]
 1390 00d0 1B68     		ldr	r3, [r3]
 1391 00d2 1846     		mov	r0, r3
 1392 00d4 FFF7FEFF 		bl	test_print
 1393              		.loc 1 361 0
 1394 00d8 4448     		ldr	r0, .L102+100
 1395 00da FFF7FEFF 		bl	test_println
 1396              		.loc 1 363 0
 1397 00de C820     		movs	r0, #200
 1398 00e0 FFF7FEFF 		bl	chThdSleep
 1399              		.loc 1 365 0
 1400 00e4 404B     		ldr	r3, .L102+96
 1401 00e6 039A     		ldr	r2, [sp, #12]
 1402 00e8 53F82220 		ldr	r2, [r3, r2, lsl #2]
 1403 00ec 029B     		ldr	r3, [sp, #8]
 1404 00ee 9B00     		lsls	r3, r3, #2
 1405 00f0 1344     		add	r3, r3, r2
 1406 00f2 1B68     		ldr	r3, [r3]
 1407 00f4 1846     		mov	r0, r3
 1408 00f6 FFF7FEFF 		bl	execute_test
 1409              		.loc 1 366 0
 1410 00fa 3D4B     		ldr	r3, .L102+104
 1411 00fc 1B78     		ldrb	r3, [r3]	@ zero_extendqisi2
 1412 00fe 002B     		cmp	r3, #0
 1413 0100 10D0     		beq	.L95
 1414              		.loc 1 367 0
 1415 0102 3C48     		ldr	r0, .L102+108
 1416 0104 FFF7FEFF 		bl	test_print
 1417              		.loc 1 368 0
 1418 0108 3B4B     		ldr	r3, .L102+112
 1419 010a 1B68     		ldr	r3, [r3]
 1420 010c 1846     		mov	r0, r3
 1421 010e FFF7FEFF 		bl	test_printn
 1422              		.loc 1 369 0
 1423 0112 3A48     		ldr	r0, .L102+116
 1424 0114 FFF7FEFF 		bl	test_print
 1425              		.loc 1 370 0
 1426 0118 FFF7FEFF 		bl	print_tokens
 1427              		.loc 1 371 0
 1428 011c 3848     		ldr	r0, .L102+120
 1429 011e FFF7FEFF 		bl	test_println
 1430 0122 02E0     		b	.L96
 1431              	.L95:
 1432              		.loc 1 374 0
ARM GAS  /home/pauba/tmp/cc8kkThj.s 			page 28


 1433 0124 3748     		ldr	r0, .L102+124
 1434 0126 FFF7FEFF 		bl	test_println
 1435              	.L96:
 1436              		.loc 1 375 0
 1437 012a 029B     		ldr	r3, [sp, #8]
 1438 012c 0133     		adds	r3, r3, #1
 1439 012e 0293     		str	r3, [sp, #8]
 1440              	.L94:
 1441              		.loc 1 353 0 discriminator 1
 1442 0130 2D4B     		ldr	r3, .L102+96
 1443 0132 039A     		ldr	r2, [sp, #12]
 1444 0134 53F82220 		ldr	r2, [r3, r2, lsl #2]
 1445 0138 029B     		ldr	r3, [sp, #8]
 1446 013a 9B00     		lsls	r3, r3, #2
 1447 013c 1344     		add	r3, r3, r2
 1448 013e 1B68     		ldr	r3, [r3]
 1449 0140 002B     		cmp	r3, #0
 1450 0142 A8D1     		bne	.L97
 1451              		.loc 1 377 0
 1452 0144 039B     		ldr	r3, [sp, #12]
 1453 0146 0133     		adds	r3, r3, #1
 1454 0148 0393     		str	r3, [sp, #12]
 1455              	.L93:
 1456              		.loc 1 351 0 discriminator 1
 1457 014a 274B     		ldr	r3, .L102+96
 1458 014c 039A     		ldr	r2, [sp, #12]
 1459 014e 53F82230 		ldr	r3, [r3, r2, lsl #2]
 1460 0152 002B     		cmp	r3, #0
 1461 0154 9CD1     		bne	.L98
 1462              		.loc 1 379 0
 1463 0156 FFF7FEFF 		bl	print_line
 1464              		.loc 1 380 0
 1465 015a 0C48     		ldr	r0, .L102+4
 1466 015c FFF7FEFF 		bl	test_println
 1467              		.loc 1 381 0
 1468 0160 2948     		ldr	r0, .L102+128
 1469 0162 FFF7FEFF 		bl	test_print
 1470              		.loc 1 382 0
 1471 0166 1C4B     		ldr	r3, .L102+80
 1472 0168 1B78     		ldrb	r3, [r3]	@ zero_extendqisi2
 1473 016a 002B     		cmp	r3, #0
 1474 016c 03D0     		beq	.L99
 1475              		.loc 1 383 0
 1476 016e 2748     		ldr	r0, .L102+132
 1477 0170 FFF7FEFF 		bl	test_println
 1478 0174 02E0     		b	.L100
 1479              	.L99:
 1480              		.loc 1 385 0
 1481 0176 2648     		ldr	r0, .L102+136
 1482 0178 FFF7FEFF 		bl	test_println
 1483              	.L100:
 1484              		.loc 1 387 0
 1485 017c 164B     		ldr	r3, .L102+80
 1486 017e 1B78     		ldrb	r3, [r3]	@ zero_extendqisi2
 1487              		.loc 1 388 0
 1488 0180 1846     		mov	r0, r3
 1489 0182 05B0     		add	sp, sp, #20
ARM GAS  /home/pauba/tmp/cc8kkThj.s 			page 29


 1490              		@ sp needed
 1491 0184 5DF804FB 		ldr	pc, [sp], #4
 1492              	.L103:
 1493              		.align	2
 1494              	.L102:
 1495 0188 00000000 		.word	chp
 1496 018c 04000000 		.word	.LC1
 1497 0190 08000000 		.word	.LC2
 1498 0194 24000000 		.word	.LC3
 1499 0198 28000000 		.word	.LC4
 1500 019c 3C000000 		.word	.LC5
 1501 01a0 44000000 		.word	.LC6
 1502 01a4 58000000 		.word	.LC7
 1503 01a8 70000000 		.word	.LC8
 1504 01ac 84000000 		.word	.LC9
 1505 01b0 CC000000 		.word	.LC10
 1506 01b4 E0000000 		.word	.LC11
 1507 01b8 E8000000 		.word	.LC12
 1508 01bc FC000000 		.word	.LC13
 1509 01c0 08010000 		.word	.LC14
 1510 01c4 1C010000 		.word	.LC15
 1511 01c8 34010000 		.word	.LC16
 1512 01cc 48010000 		.word	.LC17
 1513 01d0 74010000 		.word	.LC18
 1514 01d4 88010000 		.word	.LC19
 1515 01d8 00000000 		.word	global_fail
 1516 01dc AC010000 		.word	.LC20
 1517 01e0 BC010000 		.word	.LC21
 1518 01e4 C0010000 		.word	.LC22
 1519 01e8 00000000 		.word	patterns
 1520 01ec C4010000 		.word	.LC23
 1521 01f0 00000000 		.word	local_fail
 1522 01f4 C8010000 		.word	.LC24
 1523 01f8 00000000 		.word	failpoint
 1524 01fc E0010000 		.word	.LC25
 1525 0200 E4010000 		.word	.LC26
 1526 0204 E8010000 		.word	.LC27
 1527 0208 FC010000 		.word	.LC28
 1528 020c 0C020000 		.word	.LC29
 1529 0210 14020000 		.word	.LC30
 1530              		.cfi_endproc
 1531              	.LFE81:
 1532              		.size	TestThread, .-TestThread
 1533 0214 AFF30080 		.text
 1533      AFF30080 
 1533      AFF30080 
 1534              	.Letext0:
 1535              		.file 2 "/opt/gcc-arm-none-eabi-4_8-2014q1/lib/gcc/arm-none-eabi/4.8.3/include/stddef.h"
 1536              		.file 3 "/opt/gcc-arm-none-eabi-4_8-2014q1/arm-none-eabi/include/machine/_default_types.h"
 1537              		.file 4 "/opt/gcc-arm-none-eabi-4_8-2014q1/arm-none-eabi/include/stdint.h"
 1538              		.file 5 "/home/pauba/ChibiOS-RT/os/ports/GCC/ARMCMx/chtypes.h"
 1539              		.file 6 "/home/pauba/ChibiOS-RT/os/kernel/include/chlists.h"
 1540              		.file 7 "/home/pauba/ChibiOS-RT/os/kernel/include/chthreads.h"
 1541              		.file 8 "/home/pauba/ChibiOS-RT/os/ports/GCC/ARMCMx/chcore_v7m.h"
 1542              		.file 9 "/home/pauba/ChibiOS-RT/os/kernel/include/chvt.h"
 1543              		.file 10 "/home/pauba/ChibiOS-RT/os/kernel/include/chschd.h"
 1544              		.file 11 "/home/pauba/ChibiOS-RT/os/kernel/include/chmtx.h"
ARM GAS  /home/pauba/tmp/cc8kkThj.s 			page 30


 1545              		.file 12 "/home/pauba/ChibiOS-RT/os/kernel/include/chstreams.h"
 1546              		.file 13 "/home/pauba/ChibiOS-RT/test/test.h"
 1547              		.file 14 "/home/pauba/ChibiOS-RT/os/ports/common/ARMCMx/CMSIS/include/core_cm3.h"
 1548              		.file 15 "/home/pauba/ChibiOS-RT/test/testthd.h"
 1549              		.file 16 "/home/pauba/ChibiOS-RT/test/testsem.h"
 1550              		.file 17 "/home/pauba/ChibiOS-RT/test/testmtx.h"
 1551              		.file 18 "/home/pauba/ChibiOS-RT/test/testmsg.h"
 1552              		.file 19 "/home/pauba/ChibiOS-RT/test/testmbox.h"
 1553              		.file 20 "/home/pauba/ChibiOS-RT/test/testevt.h"
 1554              		.file 21 "/home/pauba/ChibiOS-RT/test/testheap.h"
 1555              		.file 22 "/home/pauba/ChibiOS-RT/test/testpools.h"
 1556              		.file 23 "/home/pauba/ChibiOS-RT/test/testdyn.h"
 1557              		.file 24 "/home/pauba/ChibiOS-RT/test/testqueues.h"
 1558              		.file 25 "/home/pauba/ChibiOS-RT/test/testbmk.h"