ARM GAS  /home/pauba/tmp/cc8kkThj.s 			page 1


   1              		.syntax unified
   2              		.cpu cortex-m4
   3              		.fpu softvfp
   4              		.eabi_attribute 20, 1
   5              		.eabi_attribute 21, 1
   6              		.eabi_attribute 23, 3
   7              		.eabi_attribute 24, 1
   8              		.eabi_attribute 25, 1
   9              		.eabi_attribute 26, 1
  10              		.eabi_attribute 30, 6
  11              		.eabi_attribute 34, 1
  12              		.eabi_attribute 18, 4
  13              		.thumb
  14              		.file	"test.c"
  15              		.text
  16              	.Ltext0:
  17              		.cfi_sections	.debug_frame
  18              		.section	.data.patterns,"aw",%progbits
  19              		.align	2
  20              		.type	patterns, %object
  21              		.size	patterns, 48
  22              	patterns:
  23 0000 00000000 		.word	patternthd
  24 0004 00000000 		.word	patternsem
  25 0008 00000000 		.word	patternmtx
  26 000c 00000000 		.word	patternmsg
  27 0010 00000000 		.word	patternmbox
  28 0014 00000000 		.word	patternevt
  29 0018 00000000 		.word	patternheap
  30 001c 00000000 		.word	patternpools
  31 0020 00000000 		.word	patterndyn
  32 0024 00000000 		.word	patternqueues
  33 0028 00000000 		.word	patternbmk
  34 002c 00000000 		.word	0
  35              		.section	.bss.local_fail,"aw",%nobits
  36              		.type	local_fail, %object
  37              		.size	local_fail, 1
  38              	local_fail:
  39 0000 00       		.space	1
  40              		.section	.bss.global_fail,"aw",%nobits
  41              		.type	global_fail, %object
  42              		.size	global_fail, 1
  43              	global_fail:
  44 0000 00       		.space	1
  45              		.section	.bss.failpoint,"aw",%nobits
  46              		.align	2
  47              		.type	failpoint, %object
  48              		.size	failpoint, 4
  49              	failpoint:
  50 0000 00000000 		.space	4
  51              		.section	.bss.tokens_buffer,"aw",%nobits
  52              		.align	2
  53              		.type	tokens_buffer, %object
  54              		.size	tokens_buffer, 16
  55              	tokens_buffer:
  56 0000 00000000 		.space	16
  56      00000000 
ARM GAS  /home/pauba/tmp/cc8kkThj.s 			page 2


  56      00000000 
  56      00000000 
  57              		.section	.bss.tokp,"aw",%nobits
  58              		.align	2
  59              		.type	tokp, %object
  60              		.size	tokp, 4
  61              	tokp:
  62 0000 00000000 		.space	4
  63              		.global	test
  64              		.section	.bss.test,"aw",%nobits
  65              		.align	3
  66              		.type	test, %object
  67              		.size	test, 1680
  68              	test:
  69 0000 00000000 		.space	1680
  69      00000000 
  69      00000000 
  69      00000000 
  69      00000000 
  70              		.global	threads
  71              		.section	.bss.threads,"aw",%nobits
  72              		.align	2
  73              		.type	threads, %object
  74              		.size	threads, 20
  75              	threads:
  76 0000 00000000 		.space	20
  76      00000000 
  76      00000000 
  76      00000000 
  76      00000000 
  77              		.global	wa
  78              		.section	.rodata.wa,"a",%progbits
  79              		.align	2
  80              		.type	wa, %object
  81              		.size	wa, 20
  82              	wa:
  83 0000 00000000 		.word	test
  84 0004 50010000 		.word	test+336
  85 0008 A0020000 		.word	test+672
  86 000c F0030000 		.word	test+1008
  87 0010 40050000 		.word	test+1344
  88              		.section	.bss.chp,"aw",%nobits
  89              		.align	2
  90              		.type	chp, %object
  91              		.size	chp, 4
  92              	chp:
  93 0000 00000000 		.space	4
  94              		.section	.text.test_printn,"ax",%progbits
  95              		.align	2
  96              		.p2align 4,,15
  97              		.global	test_printn
  98              		.thumb
  99              		.thumb_func
 100              		.type	test_printn, %function
 101              	test_printn:
 102              	.LFB63:
 103              		.file 1 "/home/pauba/ChibiOS-RT/test/test.c"
ARM GAS  /home/pauba/tmp/cc8kkThj.s 			page 3


 104              		.loc 1 91 0
 105              		.cfi_startproc
 106              		@ args = 0, pretend = 0, frame = 32
 107              		@ frame_needed = 0, uses_anonymous_args = 0
 108 0000 00B5     		push	{lr}
 109              		.cfi_def_cfa_offset 4
 110              		.cfi_offset 14, -4
 111 0002 89B0     		sub	sp, sp, #36
 112              		.cfi_def_cfa_offset 40
 113 0004 0190     		str	r0, [sp, #4]
 114              		.loc 1 94 0
 115 0006 019B     		ldr	r3, [sp, #4]
 116 0008 002B     		cmp	r3, #0
 117 000a 09D1     		bne	.L2
 118              		.loc 1 95 0
 119 000c 1E4B     		ldr	r3, .L8
 120 000e 1B68     		ldr	r3, [r3]
 121 0010 1B68     		ldr	r3, [r3]
 122 0012 9B68     		ldr	r3, [r3, #8]
 123 0014 1C4A     		ldr	r2, .L8
 124 0016 1268     		ldr	r2, [r2]
 125 0018 1046     		mov	r0, r2
 126 001a 3021     		movs	r1, #48
 127 001c 9847     		blx	r3
 128 001e 2FE0     		b	.L1
 129              	.L2:
 130              		.loc 1 97 0
 131 0020 03AB     		add	r3, sp, #12
 132 0022 0793     		str	r3, [sp, #28]
 133              		.loc 1 98 0
 134 0024 16E0     		b	.L4
 135              	.L5:
 136              		.loc 1 99 0
 137 0026 0799     		ldr	r1, [sp, #28]
 138 0028 4B1C     		adds	r3, r1, #1
 139 002a 0793     		str	r3, [sp, #28]
 140 002c 0198     		ldr	r0, [sp, #4]
 141 002e 174B     		ldr	r3, .L8+4
 142 0030 A3FB0023 		umull	r2, r3, r3, r0
 143 0034 DA08     		lsrs	r2, r3, #3
 144 0036 1346     		mov	r3, r2
 145 0038 9B00     		lsls	r3, r3, #2
 146 003a 1344     		add	r3, r3, r2
 147 003c 5B00     		lsls	r3, r3, #1
 148 003e C21A     		subs	r2, r0, r3
 149 0040 D3B2     		uxtb	r3, r2
 150 0042 3033     		adds	r3, r3, #48
 151 0044 DBB2     		uxtb	r3, r3
 152 0046 0B70     		strb	r3, [r1]
 153 0048 019A     		ldr	r2, [sp, #4]
 154 004a 104B     		ldr	r3, .L8+4
 155 004c A3FB0213 		umull	r1, r3, r3, r2
 156 0050 DB08     		lsrs	r3, r3, #3
 157 0052 0193     		str	r3, [sp, #4]
 158              	.L4:
 159              		.loc 1 98 0 discriminator 1
 160 0054 019B     		ldr	r3, [sp, #4]
ARM GAS  /home/pauba/tmp/cc8kkThj.s 			page 4


 161 0056 002B     		cmp	r3, #0
 162 0058 E5D1     		bne	.L5
 163              		.loc 1 100 0
 164 005a 0DE0     		b	.L6
 165              	.L7:
 166              		.loc 1 101 0
 167 005c 0A4B     		ldr	r3, .L8
 168 005e 1B68     		ldr	r3, [r3]
 169 0060 1B68     		ldr	r3, [r3]
 170 0062 9B68     		ldr	r3, [r3, #8]
 171 0064 084A     		ldr	r2, .L8
 172 0066 1168     		ldr	r1, [r2]
 173 0068 079A     		ldr	r2, [sp, #28]
 174 006a 013A     		subs	r2, r2, #1
 175 006c 0792     		str	r2, [sp, #28]
 176 006e 079A     		ldr	r2, [sp, #28]
 177 0070 1278     		ldrb	r2, [r2]	@ zero_extendqisi2
 178 0072 0846     		mov	r0, r1
 179 0074 1146     		mov	r1, r2
 180 0076 9847     		blx	r3
 181              	.L6:
 182              		.loc 1 100 0 discriminator 1
 183 0078 03AB     		add	r3, sp, #12
 184 007a 079A     		ldr	r2, [sp, #28]
 185 007c 9A42     		cmp	r2, r3
 186 007e EDD8     		bhi	.L7
 187              	.L1:
 188              		.loc 1 103 0
 189 0080 09B0     		add	sp, sp, #36
 190              		@ sp needed
 191 0082 5DF804FB 		ldr	pc, [sp], #4
 192              	.L9:
 193 0086 00BF     		.align	2
 194              	.L8:
 195 0088 00000000 		.word	chp
 196 008c CDCCCCCC 		.word	-858993459
 197              		.cfi_endproc
 198              	.LFE63:
 199              		.size	test_printn, .-test_printn
 200              		.section	.text.test_print,"ax",%progbits
 201              		.align	2
 202              		.p2align 4,,15
 203              		.global	test_print
 204              		.thumb
 205              		.thumb_func
 206              		.type	test_print, %function
 207              	test_print:
 208              	.LFB64:
 209              		.loc 1 110 0
 210              		.cfi_startproc
 211              		@ args = 0, pretend = 0, frame = 8
 212              		@ frame_needed = 0, uses_anonymous_args = 0
 213 0000 00B5     		push	{lr}
 214              		.cfi_def_cfa_offset 4
 215              		.cfi_offset 14, -4
 216 0002 83B0     		sub	sp, sp, #12
 217              		.cfi_def_cfa_offset 16
ARM GAS  /home/pauba/tmp/cc8kkThj.s 			page 5


 218 0004 0190     		str	r0, [sp, #4]
 219              		.loc 1 112 0
 220 0006 0CE0     		b	.L11
 221              	.L12:
 222              		.loc 1 113 0
 223 0008 094B     		ldr	r3, .L13
 224 000a 1B68     		ldr	r3, [r3]
 225 000c 1B68     		ldr	r3, [r3]
 226 000e 9A68     		ldr	r2, [r3, #8]
 227 0010 074B     		ldr	r3, .L13
 228 0012 1968     		ldr	r1, [r3]
 229 0014 019B     		ldr	r3, [sp, #4]
 230 0016 581C     		adds	r0, r3, #1
 231 0018 0190     		str	r0, [sp, #4]
 232 001a 1B78     		ldrb	r3, [r3]	@ zero_extendqisi2
 233 001c 0846     		mov	r0, r1
 234 001e 1946     		mov	r1, r3
 235 0020 9047     		blx	r2
 236              	.L11:
 237              		.loc 1 112 0 discriminator 1
 238 0022 019B     		ldr	r3, [sp, #4]
 239 0024 1B78     		ldrb	r3, [r3]	@ zero_extendqisi2
 240 0026 002B     		cmp	r3, #0
 241 0028 EED1     		bne	.L12
 242              		.loc 1 114 0
 243 002a 03B0     		add	sp, sp, #12
 244              		@ sp needed
 245 002c 5DF804FB 		ldr	pc, [sp], #4
 246              	.L14:
 247              		.align	2
 248              	.L13:
 249 0030 00000000 		.word	chp
 250              		.cfi_endproc
 251              	.LFE64:
 252              		.size	test_print, .-test_print
 253 0034 AFF30080 		.section	.rodata
 253      AFF30080 
 253      AFF30080 
 254              		.align	2
 255              	.LC0:
 256 0000 0D0A00   		.ascii	"\015\012\000"
 257              		.section	.text.test_println,"ax",%progbits
 258              		.align	2
 259              		.p2align 4,,15
 260              		.global	test_println
 261              		.thumb
 262              		.thumb_func
 263              		.type	test_println, %function
 264              	test_println:
 265              	.LFB65:
 266              		.loc 1 121 0
 267              		.cfi_startproc
 268              		@ args = 0, pretend = 0, frame = 8
 269              		@ frame_needed = 0, uses_anonymous_args = 0
 270 0000 00B5     		push	{lr}
 271              		.cfi_def_cfa_offset 4
 272              		.cfi_offset 14, -4
ARM GAS  /home/pauba/tmp/cc8kkThj.s 			page 6


 273 0002 83B0     		sub	sp, sp, #12
 274              		.cfi_def_cfa_offset 16
 275 0004 0190     		str	r0, [sp, #4]
 276              		.loc 1 123 0
 277 0006 0198     		ldr	r0, [sp, #4]
 278 0008 FFF7FEFF 		bl	test_print
 279              		.loc 1 124 0
 280 000c 064B     		ldr	r3, .L16
 281 000e 1B68     		ldr	r3, [r3]
 282 0010 1B68     		ldr	r3, [r3]
 283 0012 1B68     		ldr	r3, [r3]
 284 0014 044A     		ldr	r2, .L16
 285 0016 1268     		ldr	r2, [r2]
 286 0018 1046     		mov	r0, r2
 287 001a 0449     		ldr	r1, .L16+4
 288 001c 0222     		movs	r2, #2
 289 001e 9847     		blx	r3
 290              		.loc 1 125 0
 291 0020 03B0     		add	sp, sp, #12
 292              		@ sp needed
 293 0022 5DF804FB 		ldr	pc, [sp], #4
 294              	.L17:
 295 0026 00BF     		.align	2
 296              	.L16:
 297 0028 00000000 		.word	chp
 298 002c 00000000 		.word	.LC0
 299              		.cfi_endproc
 300              	.LFE65:
 301              		.size	test_println, .-test_println
 302              		.section	.text.clear_tokens,"ax",%progbits
 303              		.align	2
 304              		.p2align 4,,15
 305              		.thumb
 306              		.thumb_func
 307              		.type	clear_tokens, %function
 308              	clear_tokens:
 309              	.LFB66:
 310              		.loc 1 130 0
 311              		.cfi_startproc
 312              		@ args = 0, pretend = 0, frame = 0
 313              		@ frame_needed = 0, uses_anonymous_args = 0
 314              		@ link register save eliminated.
 315              		.loc 1 132 0
 316 0000 014B     		ldr	r3, .L19
 317 0002 024A     		ldr	r2, .L19+4
 318 0004 1A60     		str	r2, [r3]
 319              		.loc 1 133 0
 320 0006 7047     		bx	lr
 321              	.L20:
 322              		.align	2
 323              	.L19:
 324 0008 00000000 		.word	tokp
 325 000c 00000000 		.word	tokens_buffer
 326              		.cfi_endproc
 327              	.LFE66:
 328              		.size	clear_tokens, .-clear_tokens
 329              		.section	.text.print_tokens,"ax",%progbits
ARM GAS  /home/pauba/tmp/cc8kkThj.s 			page 7


 330              		.align	2
 331              		.p2align 4,,15
 332              		.thumb
 333              		.thumb_func
 334              		.type	print_tokens, %function
 335              	print_tokens:
 336              	.LFB67:
 337              		.loc 1 135 0
 338              		.cfi_startproc
 339              		@ args = 0, pretend = 0, frame = 8
 340              		@ frame_needed = 0, uses_anonymous_args = 0
 341 0000 00B5     		push	{lr}
 342              		.cfi_def_cfa_offset 4
 343              		.cfi_offset 14, -4
 344 0002 83B0     		sub	sp, sp, #12
 345              		.cfi_def_cfa_offset 16
 346              		.loc 1 136 0
 347 0004 0B4B     		ldr	r3, .L24
 348 0006 0193     		str	r3, [sp, #4]
 349              		.loc 1 138 0
 350 0008 0CE0     		b	.L22
 351              	.L23:
 352              		.loc 1 139 0
 353 000a 0B4B     		ldr	r3, .L24+4
 354 000c 1B68     		ldr	r3, [r3]
 355 000e 1B68     		ldr	r3, [r3]
 356 0010 9A68     		ldr	r2, [r3, #8]
 357 0012 094B     		ldr	r3, .L24+4
 358 0014 1968     		ldr	r1, [r3]
 359 0016 019B     		ldr	r3, [sp, #4]
 360 0018 581C     		adds	r0, r3, #1
 361 001a 0190     		str	r0, [sp, #4]
 362 001c 1B78     		ldrb	r3, [r3]	@ zero_extendqisi2
 363 001e 0846     		mov	r0, r1
 364 0020 1946     		mov	r1, r3
 365 0022 9047     		blx	r2
 366              	.L22:
 367              		.loc 1 138 0 discriminator 1
 368 0024 054B     		ldr	r3, .L24+8
 369 0026 1B68     		ldr	r3, [r3]
 370 0028 019A     		ldr	r2, [sp, #4]
 371 002a 9A42     		cmp	r2, r3
 372 002c EDD3     		bcc	.L23
 373              		.loc 1 140 0
 374 002e 03B0     		add	sp, sp, #12
 375              		@ sp needed
 376 0030 5DF804FB 		ldr	pc, [sp], #4
 377              	.L25:
 378              		.align	2
 379              	.L24:
 380 0034 00000000 		.word	tokens_buffer
 381 0038 00000000 		.word	chp
 382 003c 00000000 		.word	tokp
 383              		.cfi_endproc
 384              	.LFE67:
 385              		.size	print_tokens, .-print_tokens
 386              		.section	.text.test_emit_token,"ax",%progbits
ARM GAS  /home/pauba/tmp/cc8kkThj.s 			page 8


 387              		.align	2
 388              		.p2align 4,,15
 389              		.global	test_emit_token
 390              		.thumb
 391              		.thumb_func
 392              		.type	test_emit_token, %function
 393              	test_emit_token:
 394              	.LFB68:
 395              		.loc 1 147 0
 396              		.cfi_startproc
 397              		@ args = 0, pretend = 0, frame = 8
 398              		@ frame_needed = 0, uses_anonymous_args = 0
 399 0000 00B5     		push	{lr}
 400              		.cfi_def_cfa_offset 4
 401              		.cfi_offset 14, -4
 402 0002 83B0     		sub	sp, sp, #12
 403              		.cfi_def_cfa_offset 16
 404 0004 0346     		mov	r3, r0
 405 0006 8DF80730 		strb	r3, [sp, #7]
 406              	.LBB2:
 407              		.loc 1 149 0
 408 000a 2023     		movs	r3, #32
 409              	@ 149 "/home/pauba/ChibiOS-RT/test/test.c" 1
 410 000c 83F31188 		msr     BASEPRI, r3
 411              	@ 0 "" 2
 412              		.thumb
 413              	.LBE2:
 414 0010 FFF7FEFF 		bl	dbg_check_lock
 415              		.loc 1 150 0
 416 0014 074B     		ldr	r3, .L27
 417 0016 1B68     		ldr	r3, [r3]
 418 0018 591C     		adds	r1, r3, #1
 419 001a 064A     		ldr	r2, .L27
 420 001c 1160     		str	r1, [r2]
 421 001e 9DF80720 		ldrb	r2, [sp, #7]
 422 0022 1A70     		strb	r2, [r3]
 423              		.loc 1 151 0
 424 0024 FFF7FEFF 		bl	dbg_check_unlock
 425              	.LBB3:
 426 0028 0023     		movs	r3, #0
 427              	@ 151 "/home/pauba/ChibiOS-RT/test/test.c" 1
 428 002a 83F31188 		msr     BASEPRI, r3
 429              	@ 0 "" 2
 430              		.thumb
 431              	.LBE3:
 432              		.loc 1 152 0
 433 002e 03B0     		add	sp, sp, #12
 434              		@ sp needed
 435 0030 5DF804FB 		ldr	pc, [sp], #4
 436              	.L28:
 437              		.align	2
 438              	.L27:
 439 0034 00000000 		.word	tokp
 440              		.cfi_endproc
 441              	.LFE68:
 442              		.size	test_emit_token, .-test_emit_token
 443 0038 AFF30080 		.section	.text._test_fail,"ax",%progbits
ARM GAS  /home/pauba/tmp/cc8kkThj.s 			page 9


 443      AFF30080 
 444              		.align	2
 445              		.p2align 4,,15
 446              		.global	_test_fail
 447              		.thumb
 448              		.thumb_func
 449              		.type	_test_fail, %function
 450              	_test_fail:
 451              	.LFB69:
 452              		.loc 1 157 0
 453              		.cfi_startproc
 454              		@ args = 0, pretend = 0, frame = 8
 455              		@ frame_needed = 0, uses_anonymous_args = 0
 456              		@ link register save eliminated.
 457 0000 82B0     		sub	sp, sp, #8
 458              		.cfi_def_cfa_offset 8
 459 0002 0190     		str	r0, [sp, #4]
 460              		.loc 1 159 0
 461 0004 064B     		ldr	r3, .L31
 462 0006 0122     		movs	r2, #1
 463 0008 1A70     		strb	r2, [r3]
 464              		.loc 1 160 0
 465 000a 064B     		ldr	r3, .L31+4
 466 000c 0122     		movs	r2, #1
 467 000e 1A70     		strb	r2, [r3]
 468              		.loc 1 161 0
 469 0010 054B     		ldr	r3, .L31+8
 470 0012 019A     		ldr	r2, [sp, #4]
 471 0014 1A60     		str	r2, [r3]
 472              		.loc 1 162 0
 473 0016 0123     		movs	r3, #1
 474              		.loc 1 163 0
 475 0018 1846     		mov	r0, r3
 476 001a 02B0     		add	sp, sp, #8
 477              		@ sp needed
 478 001c 7047     		bx	lr
 479              	.L32:
 480 001e 00BF     		.align	2
 481              	.L31:
 482 0020 00000000 		.word	local_fail
 483 0024 00000000 		.word	global_fail
 484 0028 00000000 		.word	failpoint
 485              		.cfi_endproc
 486              	.LFE69:
 487              		.size	_test_fail, .-_test_fail
 488 002c AFF30080 		.section	.text._test_assert,"ax",%progbits
 489              		.align	2
 490              		.p2align 4,,15
 491              		.global	_test_assert
 492              		.thumb
 493              		.thumb_func
 494              		.type	_test_assert, %function
 495              	_test_assert:
 496              	.LFB70:
 497              		.loc 1 165 0
 498              		.cfi_startproc
 499              		@ args = 0, pretend = 0, frame = 8
ARM GAS  /home/pauba/tmp/cc8kkThj.s 			page 10


 500              		@ frame_needed = 0, uses_anonymous_args = 0
 501 0000 00B5     		push	{lr}
 502              		.cfi_def_cfa_offset 4
 503              		.cfi_offset 14, -4
 504 0002 83B0     		sub	sp, sp, #12
 505              		.cfi_def_cfa_offset 16
 506 0004 0190     		str	r0, [sp, #4]
 507 0006 0B46     		mov	r3, r1
 508 0008 8DF80330 		strb	r3, [sp, #3]
 509              		.loc 1 167 0
 510 000c 9DF80330 		ldrb	r3, [sp, #3]
 511 0010 83F00103 		eor	r3, r3, #1
 512 0014 DBB2     		uxtb	r3, r3
 513 0016 002B     		cmp	r3, #0
 514 0018 04D0     		beq	.L34
 515              		.loc 1 168 0
 516 001a 0198     		ldr	r0, [sp, #4]
 517 001c FFF7FEFF 		bl	_test_fail
 518 0020 0346     		mov	r3, r0
 519 0022 00E0     		b	.L35
 520              	.L34:
 521              		.loc 1 169 0
 522 0024 0023     		movs	r3, #0
 523              	.L35:
 524              		.loc 1 170 0
 525 0026 1846     		mov	r0, r3
 526 0028 03B0     		add	sp, sp, #12
 527              		@ sp needed
 528 002a 5DF804FB 		ldr	pc, [sp], #4
 529              		.cfi_endproc
 530              	.LFE70:
 531              		.size	_test_assert, .-_test_assert
 532 002e 00BF     		.section	.text._test_assert_sequence,"ax",%progbits
 533              		.align	2
 534              		.p2align 4,,15
 535              		.global	_test_assert_sequence
 536              		.thumb
 537              		.thumb_func
 538              		.type	_test_assert_sequence, %function
 539              	_test_assert_sequence:
 540              	.LFB71:
 541              		.loc 1 172 0
 542              		.cfi_startproc
 543              		@ args = 0, pretend = 0, frame = 16
 544              		@ frame_needed = 0, uses_anonymous_args = 0
 545 0000 00B5     		push	{lr}
 546              		.cfi_def_cfa_offset 4
 547              		.cfi_offset 14, -4
 548 0002 85B0     		sub	sp, sp, #20
 549              		.cfi_def_cfa_offset 24
 550 0004 0190     		str	r0, [sp, #4]
 551 0006 0091     		str	r1, [sp]
 552              		.loc 1 173 0
 553 0008 134B     		ldr	r3, .L41
 554 000a 0393     		str	r3, [sp, #12]
 555              		.loc 1 174 0
 556 000c 0EE0     		b	.L37
ARM GAS  /home/pauba/tmp/cc8kkThj.s 			page 11


 557              	.L39:
 558              		.loc 1 175 0
 559 000e 039B     		ldr	r3, [sp, #12]
 560 0010 5A1C     		adds	r2, r3, #1
 561 0012 0392     		str	r2, [sp, #12]
 562 0014 1A78     		ldrb	r2, [r3]	@ zero_extendqisi2
 563 0016 009B     		ldr	r3, [sp]
 564 0018 591C     		adds	r1, r3, #1
 565 001a 0091     		str	r1, [sp]
 566 001c 1B78     		ldrb	r3, [r3]	@ zero_extendqisi2
 567 001e 9A42     		cmp	r2, r3
 568 0020 04D0     		beq	.L37
 569              		.loc 1 176 0
 570 0022 0198     		ldr	r0, [sp, #4]
 571 0024 FFF7FEFF 		bl	_test_fail
 572 0028 0346     		mov	r3, r0
 573 002a 10E0     		b	.L38
 574              	.L37:
 575              		.loc 1 174 0 discriminator 1
 576 002c 0B4B     		ldr	r3, .L41+4
 577 002e 1B68     		ldr	r3, [r3]
 578 0030 039A     		ldr	r2, [sp, #12]
 579 0032 9A42     		cmp	r2, r3
 580 0034 EBD3     		bcc	.L39
 581              		.loc 1 178 0
 582 0036 009B     		ldr	r3, [sp]
 583 0038 1B78     		ldrb	r3, [r3]	@ zero_extendqisi2
 584 003a 002B     		cmp	r3, #0
 585 003c 04D0     		beq	.L40
 586              		.loc 1 179 0
 587 003e 0198     		ldr	r0, [sp, #4]
 588 0040 FFF7FEFF 		bl	_test_fail
 589 0044 0346     		mov	r3, r0
 590 0046 02E0     		b	.L38
 591              	.L40:
 592              		.loc 1 180 0
 593 0048 FFF7FEFF 		bl	clear_tokens
 594              		.loc 1 181 0
 595 004c 0023     		movs	r3, #0
 596              	.L38:
 597              		.loc 1 182 0
 598 004e 1846     		mov	r0, r3
 599 0050 05B0     		add	sp, sp, #20
 600              		@ sp needed
 601 0052 5DF804FB 		ldr	pc, [sp], #4
 602              	.L42:
 603 0056 00BF     		.align	2
 604              	.L41:
 605 0058 00000000 		.word	tokens_buffer
 606 005c 00000000 		.word	tokp
 607              		.cfi_endproc
 608              	.LFE71:
 609              		.size	_test_assert_sequence, .-_test_assert_sequence
 610              		.section	.text._test_assert_time_window,"ax",%progbits
 611              		.align	2
 612              		.p2align 4,,15
 613              		.global	_test_assert_time_window
ARM GAS  /home/pauba/tmp/cc8kkThj.s 			page 12


 614              		.thumb
 615              		.thumb_func
 616              		.type	_test_assert_time_window, %function
 617              	_test_assert_time_window:
 618              	.LFB72:
 619              		.loc 1 184 0
 620              		.cfi_startproc
 621              		@ args = 0, pretend = 0, frame = 16
 622              		@ frame_needed = 0, uses_anonymous_args = 0
 623 0000 00B5     		push	{lr}
 624              		.cfi_def_cfa_offset 4
 625              		.cfi_offset 14, -4
 626 0002 85B0     		sub	sp, sp, #20
 627              		.cfi_def_cfa_offset 24
 628 0004 0390     		str	r0, [sp, #12]
 629 0006 0291     		str	r1, [sp, #8]
 630 0008 0192     		str	r2, [sp, #4]
 631              		.loc 1 186 0
 632 000a 0A4B     		ldr	r3, .L45
 633 000c DA68     		ldr	r2, [r3, #12]
 634 000e 029B     		ldr	r3, [sp, #8]
 635 0010 D21A     		subs	r2, r2, r3
 636 0012 0199     		ldr	r1, [sp, #4]
 637 0014 029B     		ldr	r3, [sp, #8]
 638 0016 CB1A     		subs	r3, r1, r3
 639 0018 9A42     		cmp	r2, r3
 640 001a 2CBF     		ite	cs
 641 001c 0023     		movcs	r3, #0
 642 001e 0123     		movcc	r3, #1
 643 0020 DBB2     		uxtb	r3, r3
 644 0022 0398     		ldr	r0, [sp, #12]
 645 0024 1946     		mov	r1, r3
 646 0026 FFF7FEFF 		bl	_test_assert
 647 002a 0346     		mov	r3, r0
 648              		.loc 1 187 0
 649 002c 1846     		mov	r0, r3
 650 002e 05B0     		add	sp, sp, #20
 651              		@ sp needed
 652 0030 5DF804FB 		ldr	pc, [sp], #4
 653              	.L46:
 654              		.align	2
 655              	.L45:
 656 0034 00000000 		.word	vtlist
 657              		.cfi_endproc
 658              	.LFE72:
 659              		.size	_test_assert_time_window, .-_test_assert_time_window
 660 0038 AFF30080 		.section	.text.test_terminate_threads,"ax",%progbits
 660      AFF30080 
 661              		.align	2
 662              		.p2align 4,,15
 663              		.global	test_terminate_threads
 664              		.thumb
 665              		.thumb_func
 666              		.type	test_terminate_threads, %function
 667              	test_terminate_threads:
 668              	.LFB73:
 669              		.loc 1 196 0
ARM GAS  /home/pauba/tmp/cc8kkThj.s 			page 13


 670              		.cfi_startproc
 671              		@ args = 0, pretend = 0, frame = 8
 672              		@ frame_needed = 0, uses_anonymous_args = 0
 673 0000 00B5     		push	{lr}
 674              		.cfi_def_cfa_offset 4
 675              		.cfi_offset 14, -4
 676 0002 83B0     		sub	sp, sp, #12
 677              		.cfi_def_cfa_offset 16
 678              		.loc 1 199 0
 679 0004 0023     		movs	r3, #0
 680 0006 0193     		str	r3, [sp, #4]
 681 0008 0FE0     		b	.L48
 682              	.L50:
 683              		.loc 1 200 0
 684 000a 0B4B     		ldr	r3, .L51
 685 000c 019A     		ldr	r2, [sp, #4]
 686 000e 53F82230 		ldr	r3, [r3, r2, lsl #2]
 687 0012 002B     		cmp	r3, #0
 688 0014 06D0     		beq	.L49
 689              		.loc 1 201 0
 690 0016 084B     		ldr	r3, .L51
 691 0018 019A     		ldr	r2, [sp, #4]
 692 001a 53F82230 		ldr	r3, [r3, r2, lsl #2]
 693 001e 1846     		mov	r0, r3
 694 0020 FFF7FEFF 		bl	chThdTerminate
 695              	.L49:
 696              		.loc 1 199 0
 697 0024 019B     		ldr	r3, [sp, #4]
 698 0026 0133     		adds	r3, r3, #1
 699 0028 0193     		str	r3, [sp, #4]
 700              	.L48:
 701              		.loc 1 199 0 is_stmt 0 discriminator 1
 702 002a 019B     		ldr	r3, [sp, #4]
 703 002c 042B     		cmp	r3, #4
 704 002e ECDD     		ble	.L50
 705              		.loc 1 202 0 is_stmt 1
 706 0030 03B0     		add	sp, sp, #12
 707              		@ sp needed
 708 0032 5DF804FB 		ldr	pc, [sp], #4
 709              	.L52:
 710 0036 00BF     		.align	2
 711              	.L51:
 712 0038 00000000 		.word	threads
 713              		.cfi_endproc
 714              	.LFE73:
 715              		.size	test_terminate_threads, .-test_terminate_threads
 716 003c AFF30080 		.section	.text.test_wait_threads,"ax",%progbits
 717              		.align	2
 718              		.p2align 4,,15
 719              		.global	test_wait_threads
 720              		.thumb
 721              		.thumb_func
 722              		.type	test_wait_threads, %function
 723              	test_wait_threads:
 724              	.LFB74:
 725              		.loc 1 207 0
 726              		.cfi_startproc
ARM GAS  /home/pauba/tmp/cc8kkThj.s 			page 14


 727              		@ args = 0, pretend = 0, frame = 8
 728              		@ frame_needed = 0, uses_anonymous_args = 0
 729 0000 00B5     		push	{lr}
 730              		.cfi_def_cfa_offset 4
 731              		.cfi_offset 14, -4
 732 0002 83B0     		sub	sp, sp, #12
 733              		.cfi_def_cfa_offset 16
 734              		.loc 1 210 0
 735 0004 0023     		movs	r3, #0
 736 0006 0193     		str	r3, [sp, #4]
 737 0008 14E0     		b	.L54
 738              	.L56:
 739              		.loc 1 211 0
 740 000a 0D4B     		ldr	r3, .L57
 741 000c 019A     		ldr	r2, [sp, #4]
 742 000e 53F82230 		ldr	r3, [r3, r2, lsl #2]
 743 0012 002B     		cmp	r3, #0
 744 0014 0BD0     		beq	.L55
 745              		.loc 1 212 0
 746 0016 0A4B     		ldr	r3, .L57
 747 0018 019A     		ldr	r2, [sp, #4]
 748 001a 53F82230 		ldr	r3, [r3, r2, lsl #2]
 749 001e 1846     		mov	r0, r3
 750 0020 FFF7FEFF 		bl	chThdWait
 751              		.loc 1 213 0
 752 0024 064B     		ldr	r3, .L57
 753 0026 019A     		ldr	r2, [sp, #4]
 754 0028 0021     		movs	r1, #0
 755 002a 43F82210 		str	r1, [r3, r2, lsl #2]
 756              	.L55:
 757              		.loc 1 210 0
 758 002e 019B     		ldr	r3, [sp, #4]
 759 0030 0133     		adds	r3, r3, #1
 760 0032 0193     		str	r3, [sp, #4]
 761              	.L54:
 762              		.loc 1 210 0 is_stmt 0 discriminator 1
 763 0034 019B     		ldr	r3, [sp, #4]
 764 0036 042B     		cmp	r3, #4
 765 0038 E7DD     		ble	.L56
 766              		.loc 1 215 0 is_stmt 1
 767 003a 03B0     		add	sp, sp, #12
 768              		@ sp needed
 769 003c 5DF804FB 		ldr	pc, [sp], #4
 770              	.L58:
 771              		.align	2
 772              	.L57:
 773 0040 00000000 		.word	threads
 774              		.cfi_endproc
 775              	.LFE74:
 776              		.size	test_wait_threads, .-test_wait_threads
 777 0044 AFF30080 		.section	.text.test_cpu_pulse,"ax",%progbits
 777      AFF30080 
 777      AFF30080 
 778              		.align	2
 779              		.p2align 4,,15
 780              		.global	test_cpu_pulse
 781              		.thumb
ARM GAS  /home/pauba/tmp/cc8kkThj.s 			page 15


 782              		.thumb_func
 783              		.type	test_cpu_pulse, %function
 784              	test_cpu_pulse:
 785              	.LFB75:
 786              		.loc 1 224 0
 787              		.cfi_startproc
 788              		@ args = 0, pretend = 0, frame = 24
 789              		@ frame_needed = 0, uses_anonymous_args = 0
 790              		@ link register save eliminated.
 791 0000 86B0     		sub	sp, sp, #24
 792              		.cfi_def_cfa_offset 24
 793 0002 0190     		str	r0, [sp, #4]
 794              		.loc 1 227 0
 795 0004 1D4B     		ldr	r3, .L68
 796 0006 9B69     		ldr	r3, [r3, #24]
 797 0008 5B6A     		ldr	r3, [r3, #36]
 798 000a 0593     		str	r3, [sp, #20]
 799              		.loc 1 228 0
 800 000c 019B     		ldr	r3, [sp, #4]
 801 000e 4FF47A72 		mov	r2, #1000
 802 0012 02FB03F3 		mul	r3, r2, r3
 803 0016 5A1E     		subs	r2, r3, #1
 804 0018 194B     		ldr	r3, .L68+4
 805 001a A3FB0213 		umull	r1, r3, r3, r2
 806 001e 9A09     		lsrs	r2, r3, #6
 807 0020 059B     		ldr	r3, [sp, #20]
 808 0022 1344     		add	r3, r3, r2
 809 0024 0133     		adds	r3, r3, #1
 810 0026 0493     		str	r3, [sp, #16]
 811              	.L67:
 812              		.loc 1 230 0
 813 0028 144B     		ldr	r3, .L68
 814 002a 9B69     		ldr	r3, [r3, #24]
 815 002c 5B6A     		ldr	r3, [r3, #36]
 816 002e 0393     		str	r3, [sp, #12]
 817              		.loc 1 235 0
 818 0030 049A     		ldr	r2, [sp, #16]
 819 0032 059B     		ldr	r3, [sp, #20]
 820 0034 9A42     		cmp	r2, r3
 821 0036 0ED9     		bls	.L60
 822              		.loc 1 235 0 is_stmt 0 discriminator 1
 823 0038 039A     		ldr	r2, [sp, #12]
 824 003a 059B     		ldr	r3, [sp, #20]
 825 003c 9A42     		cmp	r2, r3
 826 003e 05D3     		bcc	.L61
 827 0040 039A     		ldr	r2, [sp, #12]
 828 0042 049B     		ldr	r3, [sp, #16]
 829 0044 9A42     		cmp	r2, r3
 830 0046 01D2     		bcs	.L61
 831              		.loc 1 235 0 discriminator 3
 832 0048 0123     		movs	r3, #1
 833 004a 00E0     		b	.L62
 834              	.L61:
 835              		.loc 1 235 0 discriminator 2
 836 004c 0023     		movs	r3, #0
 837              	.L62:
 838              		.loc 1 235 0 discriminator 4
ARM GAS  /home/pauba/tmp/cc8kkThj.s 			page 16


 839 004e 03F00103 		and	r3, r3, #1
 840 0052 DBB2     		uxtb	r3, r3
 841 0054 0DE0     		b	.L63
 842              	.L60:
 843              		.loc 1 236 0 is_stmt 1
 844 0056 039A     		ldr	r2, [sp, #12]
 845 0058 059B     		ldr	r3, [sp, #20]
 846 005a 9A42     		cmp	r2, r3
 847 005c 03D2     		bcs	.L64
 848              		.loc 1 236 0 is_stmt 0 discriminator 2
 849 005e 039A     		ldr	r2, [sp, #12]
 850 0060 049B     		ldr	r3, [sp, #16]
 851 0062 9A42     		cmp	r2, r3
 852 0064 01D2     		bcs	.L65
 853              	.L64:
 854              		.loc 1 236 0 discriminator 1
 855 0066 0123     		movs	r3, #1
 856 0068 00E0     		b	.L66
 857              	.L65:
 858              		.loc 1 236 0 discriminator 3
 859 006a 0023     		movs	r3, #0
 860              	.L66:
 861              		.loc 1 235 0 is_stmt 1
 862 006c 03F00103 		and	r3, r3, #1
 863 0070 DBB2     		uxtb	r3, r3
 864              	.L63:
 865              		.loc 1 236 0
 866 0072 002B     		cmp	r3, #0
 867 0074 D8D1     		bne	.L67
 868              		.loc 1 237 0
 869 0076 06B0     		add	sp, sp, #24
 870              		@ sp needed
 871 0078 7047     		bx	lr
 872              	.L69:
 873 007a 00BF     		.align	2
 874              	.L68:
 875 007c 00000000 		.word	rlist
 876 0080 D34D6210 		.word	274877907
 877              		.cfi_endproc
 878              	.LFE75:
 879              		.size	test_cpu_pulse, .-test_cpu_pulse
 880 0084 AFF30080 		.section	.text.test_wait_tick,"ax",%progbits
 880      AFF30080 
 880      AFF30080 
 881              		.align	2
 882              		.p2align 4,,15
 883              		.global	test_wait_tick
 884              		.thumb
 885              		.thumb_func
 886              		.type	test_wait_tick, %function
 887              	test_wait_tick:
 888              	.LFB76:
 889              		.loc 1 245 0
 890              		.cfi_startproc
 891              		@ args = 0, pretend = 0, frame = 0
 892              		@ frame_needed = 0, uses_anonymous_args = 0
 893 0000 08B5     		push	{r3, lr}
ARM GAS  /home/pauba/tmp/cc8kkThj.s 			page 17


 894              		.cfi_def_cfa_offset 8
 895              		.cfi_offset 3, -8
 896              		.cfi_offset 14, -4
 897              		.loc 1 247 0
 898 0002 0120     		movs	r0, #1
 899 0004 FFF7FEFF 		bl	chThdSleep
 900              		.loc 1 248 0
 901 0008 014B     		ldr	r3, .L72
 902 000a DB68     		ldr	r3, [r3, #12]
 903              		.loc 1 249 0
 904 000c 1846     		mov	r0, r3
 905 000e 08BD     		pop	{r3, pc}
 906              	.L73:
 907              		.align	2
 908              	.L72:
 909 0010 00000000 		.word	vtlist
 910              		.cfi_endproc
 911              	.LFE76:
 912              		.size	test_wait_tick, .-test_wait_tick
 913              		.global	test_timer_done
 914 0014 AFF30080 		.section	.bss.test_timer_done,"aw",%nobits
 914      AFF30080 
 914      AFF30080 
 915              		.type	test_timer_done, %object
 916              		.size	test_timer_done, 1
 917              	test_timer_done:
 918 0000 00       		.space	1
 919              		.section	.bss.vt,"aw",%nobits
 920              		.align	2
 921              		.type	vt, %object
 922              		.size	vt, 20
 923              	vt:
 924 0000 00000000 		.space	20
 924      00000000 
 924      00000000 
 924      00000000 
 924      00000000 
 925              		.section	.text.tmr,"ax",%progbits
 926              		.align	2
 927              		.p2align 4,,15
 928              		.thumb
 929              		.thumb_func
 930              		.type	tmr, %function
 931              	tmr:
 932              	.LFB77:
 933              		.loc 1 261 0
 934              		.cfi_startproc
 935              		@ args = 0, pretend = 0, frame = 8
 936              		@ frame_needed = 0, uses_anonymous_args = 0
 937              		@ link register save eliminated.
 938 0000 82B0     		sub	sp, sp, #8
 939              		.cfi_def_cfa_offset 8
 940 0002 0190     		str	r0, [sp, #4]
 941              		.loc 1 264 0
 942 0004 024B     		ldr	r3, .L75
 943 0006 0122     		movs	r2, #1
 944 0008 1A70     		strb	r2, [r3]
ARM GAS  /home/pauba/tmp/cc8kkThj.s 			page 18


 945              		.loc 1 265 0
 946 000a 02B0     		add	sp, sp, #8
 947              		@ sp needed
 948 000c 7047     		bx	lr
 949              	.L76:
 950 000e 00BF     		.align	2
 951              	.L75:
 952 0010 00000000 		.word	test_timer_done
 953              		.cfi_endproc
 954              	.LFE77:
 955              		.size	tmr, .-tmr
 956 0014 AFF30080 		.section	.text.test_start_timer,"ax",%progbits
 956      AFF30080 
 956      AFF30080 
 957              		.align	2
 958              		.p2align 4,,15
 959              		.global	test_start_timer
 960              		.thumb
 961              		.thumb_func
 962              		.type	test_start_timer, %function
 963              	test_start_timer:
 964              	.LFB78:
 965              		.loc 1 272 0
 966              		.cfi_startproc
 967              		@ args = 0, pretend = 0, frame = 16
 968              		@ frame_needed = 0, uses_anonymous_args = 0
 969 0000 00B5     		push	{lr}
 970              		.cfi_def_cfa_offset 4
 971              		.cfi_offset 14, -4
 972 0002 85B0     		sub	sp, sp, #20
 973              		.cfi_def_cfa_offset 24
 974 0004 0190     		str	r0, [sp, #4]
 975              		.loc 1 274 0
 976 0006 019B     		ldr	r3, [sp, #4]
 977 0008 4FF47A72 		mov	r2, #1000
 978 000c 02FB03F3 		mul	r3, r2, r3
 979 0010 5A1E     		subs	r2, r3, #1
 980 0012 0E4B     		ldr	r3, .L78
 981 0014 A3FB0213 		umull	r1, r3, r3, r2
 982 0018 9B09     		lsrs	r3, r3, #6
 983 001a 0133     		adds	r3, r3, #1
 984 001c 0393     		str	r3, [sp, #12]
 985              		.loc 1 275 0
 986 001e 0C4B     		ldr	r3, .L78+4
 987 0020 0022     		movs	r2, #0
 988 0022 1A70     		strb	r2, [r3]
 989              	.LBB4:
 990              		.loc 1 276 0
 991 0024 2023     		movs	r3, #32
 992              	@ 276 "/home/pauba/ChibiOS-RT/test/test.c" 1
 993 0026 83F31188 		msr     BASEPRI, r3
 994              	@ 0 "" 2
 995              		.thumb
 996              	.LBE4:
 997 002a FFF7FEFF 		bl	dbg_check_lock
 998 002e 0948     		ldr	r0, .L78+8
 999 0030 0399     		ldr	r1, [sp, #12]
ARM GAS  /home/pauba/tmp/cc8kkThj.s 			page 19


 1000 0032 094A     		ldr	r2, .L78+12
 1001 0034 0023     		movs	r3, #0
 1002 0036 FFF7FEFF 		bl	chVTSetI
 1003 003a FFF7FEFF 		bl	dbg_check_unlock
 1004              	.LBB5:
 1005 003e 0023     		movs	r3, #0
 1006              	@ 276 "/home/pauba/ChibiOS-RT/test/test.c" 1
 1007 0040 83F31188 		msr     BASEPRI, r3
 1008              	@ 0 "" 2
 1009              		.thumb
 1010              	.LBE5:
 1011              		.loc 1 277 0
 1012 0044 05B0     		add	sp, sp, #20
 1013              		@ sp needed
 1014 0046 5DF804FB 		ldr	pc, [sp], #4
 1015              	.L79:
 1016 004a 00BF     		.align	2
 1017              	.L78:
 1018 004c D34D6210 		.word	274877907
 1019 0050 00000000 		.word	test_timer_done
 1020 0054 00000000 		.word	vt
 1021 0058 00000000 		.word	tmr
 1022              		.cfi_endproc
 1023              	.LFE78:
 1024              		.size	test_start_timer, .-test_start_timer
 1025 005c AFF30080 		.section	.text.execute_test,"ax",%progbits
 1026              		.align	2
 1027              		.p2align 4,,15
 1028              		.thumb
 1029              		.thumb_func
 1030              		.type	execute_test, %function
 1031              	execute_test:
 1032              	.LFB79:
 1033              		.loc 1 282 0
 1034              		.cfi_startproc
 1035              		@ args = 0, pretend = 0, frame = 16
 1036              		@ frame_needed = 0, uses_anonymous_args = 0
 1037 0000 00B5     		push	{lr}
 1038              		.cfi_def_cfa_offset 4
 1039              		.cfi_offset 14, -4
 1040 0002 85B0     		sub	sp, sp, #20
 1041              		.cfi_def_cfa_offset 24
 1042 0004 0190     		str	r0, [sp, #4]
 1043              		.loc 1 286 0
 1044 0006 FFF7FEFF 		bl	clear_tokens
 1045              		.loc 1 287 0
 1046 000a 134B     		ldr	r3, .L85
 1047 000c 0022     		movs	r2, #0
 1048 000e 1A70     		strb	r2, [r3]
 1049              		.loc 1 288 0
 1050 0010 0023     		movs	r3, #0
 1051 0012 0393     		str	r3, [sp, #12]
 1052 0014 07E0     		b	.L81
 1053              	.L82:
 1054              		.loc 1 289 0 discriminator 2
 1055 0016 114B     		ldr	r3, .L85+4
 1056 0018 039A     		ldr	r2, [sp, #12]
ARM GAS  /home/pauba/tmp/cc8kkThj.s 			page 20


 1057 001a 0021     		movs	r1, #0
 1058 001c 43F82210 		str	r1, [r3, r2, lsl #2]
 1059              		.loc 1 288 0 discriminator 2
 1060 0020 039B     		ldr	r3, [sp, #12]
 1061 0022 0133     		adds	r3, r3, #1
 1062 0024 0393     		str	r3, [sp, #12]
 1063              	.L81:
 1064              		.loc 1 288 0 is_stmt 0 discriminator 1
 1065 0026 039B     		ldr	r3, [sp, #12]
 1066 0028 042B     		cmp	r3, #4
 1067 002a F4DD     		ble	.L82
 1068              		.loc 1 291 0 is_stmt 1
 1069 002c 019B     		ldr	r3, [sp, #4]
 1070 002e 5B68     		ldr	r3, [r3, #4]
 1071 0030 002B     		cmp	r3, #0
 1072 0032 02D0     		beq	.L83
 1073              		.loc 1 292 0
 1074 0034 019B     		ldr	r3, [sp, #4]
 1075 0036 5B68     		ldr	r3, [r3, #4]
 1076 0038 9847     		blx	r3
 1077              	.L83:
 1078              		.loc 1 293 0
 1079 003a 019B     		ldr	r3, [sp, #4]
 1080 003c DB68     		ldr	r3, [r3, #12]
 1081 003e 9847     		blx	r3
 1082              		.loc 1 294 0
 1083 0040 019B     		ldr	r3, [sp, #4]
 1084 0042 9B68     		ldr	r3, [r3, #8]
 1085 0044 002B     		cmp	r3, #0
 1086 0046 02D0     		beq	.L84
 1087              		.loc 1 295 0
 1088 0048 019B     		ldr	r3, [sp, #4]
 1089 004a 9B68     		ldr	r3, [r3, #8]
 1090 004c 9847     		blx	r3
 1091              	.L84:
 1092              		.loc 1 297 0
 1093 004e FFF7FEFF 		bl	test_wait_threads
 1094              		.loc 1 298 0
 1095 0052 05B0     		add	sp, sp, #20
 1096              		@ sp needed
 1097 0054 5DF804FB 		ldr	pc, [sp], #4
 1098              	.L86:
 1099              		.align	2
 1100              	.L85:
 1101 0058 00000000 		.word	local_fail
 1102 005c 00000000 		.word	threads
 1103              		.cfi_endproc
 1104              	.LFE79:
 1105              		.size	execute_test, .-execute_test
 1106              		.section	.text.print_line,"ax",%progbits
 1107              		.align	2
 1108              		.p2align 4,,15
 1109              		.thumb
 1110              		.thumb_func
 1111              		.type	print_line, %function
 1112              	print_line:
 1113              	.LFB80:
ARM GAS  /home/pauba/tmp/cc8kkThj.s 			page 21


 1114              		.loc 1 300 0
 1115              		.cfi_startproc
 1116              		@ args = 0, pretend = 0, frame = 8
 1117              		@ frame_needed = 0, uses_anonymous_args = 0
 1118 0000 00B5     		push	{lr}
 1119              		.cfi_def_cfa_offset 4
 1120              		.cfi_offset 14, -4
 1121 0002 83B0     		sub	sp, sp, #12
 1122              		.cfi_def_cfa_offset 16
 1123              		.loc 1 303 0
 1124 0004 0023     		movs	r3, #0
 1125 0006 0193     		str	r3, [sp, #4]
 1126 0008 0BE0     		b	.L88
 1127              	.L89:
 1128              		.loc 1 304 0 discriminator 2
 1129 000a 0E4B     		ldr	r3, .L90
 1130 000c 1B68     		ldr	r3, [r3]
 1131 000e 1B68     		ldr	r3, [r3]
 1132 0010 9B68     		ldr	r3, [r3, #8]
 1133 0012 0C4A     		ldr	r2, .L90
 1134 0014 1268     		ldr	r2, [r2]
 1135 0016 1046     		mov	r0, r2
 1136 0018 2D21     		movs	r1, #45
 1137 001a 9847     		blx	r3
 1138              		.loc 1 303 0 discriminator 2
 1139 001c 019B     		ldr	r3, [sp, #4]
 1140 001e 0133     		adds	r3, r3, #1
 1141 0020 0193     		str	r3, [sp, #4]
 1142              	.L88:
 1143              		.loc 1 303 0 is_stmt 0 discriminator 1
 1144 0022 019B     		ldr	r3, [sp, #4]
 1145 0024 4B2B     		cmp	r3, #75
 1146 0026 F0D9     		bls	.L89
 1147              		.loc 1 305 0 is_stmt 1
 1148 0028 064B     		ldr	r3, .L90
 1149 002a 1B68     		ldr	r3, [r3]
 1150 002c 1B68     		ldr	r3, [r3]
 1151 002e 1B68     		ldr	r3, [r3]
 1152 0030 044A     		ldr	r2, .L90
 1153 0032 1268     		ldr	r2, [r2]
 1154 0034 1046     		mov	r0, r2
 1155 0036 0449     		ldr	r1, .L90+4
 1156 0038 0222     		movs	r2, #2
 1157 003a 9847     		blx	r3
 1158              		.loc 1 306 0
 1159 003c 03B0     		add	sp, sp, #12
 1160              		@ sp needed
 1161 003e 5DF804FB 		ldr	pc, [sp], #4
 1162              	.L91:
 1163 0042 00BF     		.align	2
 1164              	.L90:
 1165 0044 00000000 		.word	chp
 1166 0048 00000000 		.word	.LC0
 1167              		.cfi_endproc
 1168              	.LFE80:
 1169              		.size	print_line, .-print_line
 1170              		.section	.rodata
ARM GAS  /home/pauba/tmp/cc8kkThj.s 			page 22


 1171 0003 00       		.align	2
 1172              	.LC1:
 1173 0004 00       		.ascii	"\000"
 1174 0005 000000   		.align	2
 1175              	.LC2:
 1176 0008 2A2A2A20 		.ascii	"*** ChibiOS/RT test suite\000"
 1176      43686962 
 1176      694F532F 
 1176      52542074 
 1176      65737420 
 1177 0022 0000     		.align	2
 1178              	.LC3:
 1179 0024 2A2A2A00 		.ascii	"***\000"
 1180              		.align	2
 1181              	.LC4:
 1182 0028 2A2A2A20 		.ascii	"*** Kernel:       \000"
 1182      4B65726E 
 1182      656C3A20 
 1182      20202020 
 1182      202000
 1183 003b 00       		.align	2
 1184              	.LC5:
 1185 003c 322E362E 		.ascii	"2.6.6\000"
 1185      3600
 1186 0042 0000     		.align	2
 1187              	.LC6:
 1188 0044 2A2A2A20 		.ascii	"*** Compiled:     \000"
 1188      436F6D70 
 1188      696C6564 
 1188      3A202020 
 1188      202000
 1189 0057 00       		.align	2
 1190              	.LC7:
 1191 0058 4F637420 		.ascii	"Oct 14 2014 - 08:30:58\000"
 1191      31342032 
 1191      30313420 
 1191      2D203038 
 1191      3A33303A 
 1192 006f 00       		.align	2
 1193              	.LC8:
 1194 0070 2A2A2A20 		.ascii	"*** Compiler:     \000"
 1194      436F6D70 
 1194      696C6572 
 1194      3A202020 
 1194      202000
 1195 0083 00       		.align	2
 1196              	.LC9:
 1197 0084 47434320 		.ascii	"GCC 4.8.3 20140228 (release) [ARM/embedded-4_8-bran"
 1197      342E382E 
 1197      33203230 
 1197      31343032 
 1197      32382028 
 1198 00b7 63682072 		.ascii	"ch revision 208322]\000"
 1198      65766973 
 1198      696F6E20 
 1198      32303833 
 1198      32325D00 
ARM GAS  /home/pauba/tmp/cc8kkThj.s 			page 23


 1199 00cb 00       		.align	2
 1200              	.LC10:
 1201 00cc 2A2A2A20 		.ascii	"*** Architecture: \000"
 1201      41726368 
 1201      69746563 
 1201      74757265 
 1201      3A2000
 1202 00df 00       		.align	2
 1203              	.LC11:
 1204 00e0 41524D76 		.ascii	"ARMv7-M\000"
 1204      372D4D00 
 1205              		.align	2
 1206              	.LC12:
 1207 00e8 2A2A2A20 		.ascii	"*** Core Variant: \000"
 1207      436F7265 
 1207      20566172 
 1207      69616E74 
 1207      3A2000
 1208 00fb 00       		.align	2
 1209              	.LC13:
 1210 00fc 436F7274 		.ascii	"Cortex-M3\000"
 1210      65782D4D 
 1210      3300
 1211 0106 0000     		.align	2
 1212              	.LC14:
 1213 0108 2A2A2A20 		.ascii	"*** Port Info:    \000"
 1213      506F7274 
 1213      20496E66 
 1213      6F3A2020 
 1213      202000
 1214 011b 00       		.align	2
 1215              	.LC15:
 1216 011c 41647661 		.ascii	"Advanced kernel mode\000"
 1216      6E636564 
 1216      206B6572 
 1216      6E656C20 
 1216      6D6F6465 
 1217 0131 000000   		.align	2
 1218              	.LC16:
 1219 0134 2A2A2A20 		.ascii	"*** Platform:     \000"
 1219      506C6174 
 1219      666F726D 
 1219      3A202020 
 1219      202000
 1220 0147 00       		.align	2
 1221              	.LC17:
 1222 0148 53544D33 		.ascii	"STM32L1xx Ultra Low Power Medium Density\000"
 1222      324C3178 
 1222      7820556C 
 1222      74726120 
 1222      4C6F7720 
 1223 0171 000000   		.align	2
 1224              	.LC18:
 1225 0174 2A2A2A20 		.ascii	"*** Test Board:   \000"
 1225      54657374 
 1225      20426F61 
 1225      72643A20 
ARM GAS  /home/pauba/tmp/cc8kkThj.s 			page 24


 1225      202000
 1226 0187 00       		.align	2
 1227              	.LC19:
 1228 0188 53544D69 		.ascii	"STMicroelectronics NUCLEO-L152RE\000"
 1228      63726F65 
 1228      6C656374 
 1228      726F6E69 
 1228      6373204E 
 1229 01a9 000000   		.align	2
 1230              	.LC20:
 1231 01ac 2D2D2D20 		.ascii	"--- Test Case \000"
 1231      54657374 
 1231      20436173 
 1231      652000
 1232 01bb 00       		.align	2
 1233              	.LC21:
 1234 01bc 2E00     		.ascii	".\000"
 1235 01be 0000     		.align	2
 1236              	.LC22:
 1237 01c0 202800   		.ascii	" (\000"
 1238 01c3 00       		.align	2
 1239              	.LC23:
 1240 01c4 2900     		.ascii	")\000"
 1241 01c6 0000     		.align	2
 1242              	.LC24:
 1243 01c8 2D2D2D20 		.ascii	"--- Result: FAILURE (#\000"
 1243      52657375 
 1243      6C743A20 
 1243      4641494C 
 1243      55524520 
 1244 01df 00       		.align	2
 1245              	.LC25:
 1246 01e0 205B00   		.ascii	" [\000"
 1247 01e3 00       		.align	2
 1248              	.LC26:
 1249 01e4 5D2900   		.ascii	"])\000"
 1250 01e7 00       		.align	2
 1251              	.LC27:
 1252 01e8 2D2D2D20 		.ascii	"--- Result: SUCCESS\000"
 1252      52657375 
 1252      6C743A20 
 1252      53554343 
 1252      45535300 
 1253              		.align	2
 1254              	.LC28:
 1255 01fc 46696E61 		.ascii	"Final result: \000"
 1255      6C207265 
 1255      73756C74 
 1255      3A2000
 1256 020b 00       		.align	2
 1257              	.LC29:
 1258 020c 4641494C 		.ascii	"FAILURE\000"
 1258      55524500 
 1259              		.align	2
 1260              	.LC30:
 1261 0214 53554343 		.ascii	"SUCCESS\000"
 1261      45535300 
ARM GAS  /home/pauba/tmp/cc8kkThj.s 			page 25


 1262              		.section	.text.TestThread,"ax",%progbits
 1263              		.align	2
 1264              		.p2align 4,,15
 1265              		.global	TestThread
 1266              		.thumb
 1267              		.thumb_func
 1268              		.type	TestThread, %function
 1269              	TestThread:
 1270              	.LFB81:
 1271              		.loc 1 314 0
 1272              		.cfi_startproc
 1273              		@ args = 0, pretend = 0, frame = 16
 1274              		@ frame_needed = 0, uses_anonymous_args = 0
 1275 0000 00B5     		push	{lr}
 1276              		.cfi_def_cfa_offset 4
 1277              		.cfi_offset 14, -4
 1278 0002 85B0     		sub	sp, sp, #20
 1279              		.cfi_def_cfa_offset 24
 1280 0004 0190     		str	r0, [sp, #4]
 1281              		.loc 1 317 0
 1282 0006 604B     		ldr	r3, .L102
 1283 0008 019A     		ldr	r2, [sp, #4]
 1284 000a 1A60     		str	r2, [r3]
 1285              		.loc 1 318 0
 1286 000c 5F48     		ldr	r0, .L102+4
 1287 000e FFF7FEFF 		bl	test_println
 1288              		.loc 1 319 0
 1289 0012 5F48     		ldr	r0, .L102+8
 1290 0014 FFF7FEFF 		bl	test_println
 1291              		.loc 1 320 0
 1292 0018 5E48     		ldr	r0, .L102+12
 1293 001a FFF7FEFF 		bl	test_println
 1294              		.loc 1 321 0
 1295 001e 5E48     		ldr	r0, .L102+16
 1296 0020 FFF7FEFF 		bl	test_print
 1297              		.loc 1 322 0
 1298 0024 5D48     		ldr	r0, .L102+20
 1299 0026 FFF7FEFF 		bl	test_println
 1300              		.loc 1 323 0
 1301 002a 5D48     		ldr	r0, .L102+24
 1302 002c FFF7FEFF 		bl	test_print
 1303              		.loc 1 324 0
 1304 0030 5C48     		ldr	r0, .L102+28
 1305 0032 FFF7FEFF 		bl	test_println
 1306              		.loc 1 326 0
 1307 0036 5C48     		ldr	r0, .L102+32
 1308 0038 FFF7FEFF 		bl	test_print
 1309              		.loc 1 327 0
 1310 003c 5B48     		ldr	r0, .L102+36
 1311 003e FFF7FEFF 		bl	test_println
 1312              		.loc 1 329 0
 1313 0042 5B48     		ldr	r0, .L102+40
 1314 0044 FFF7FEFF 		bl	test_print
 1315              		.loc 1 330 0
 1316 0048 5A48     		ldr	r0, .L102+44
 1317 004a FFF7FEFF 		bl	test_println
 1318              		.loc 1 332 0
ARM GAS  /home/pauba/tmp/cc8kkThj.s 			page 26


 1319 004e 5A48     		ldr	r0, .L102+48
 1320 0050 FFF7FEFF 		bl	test_print
 1321              		.loc 1 333 0
 1322 0054 5948     		ldr	r0, .L102+52
 1323 0056 FFF7FEFF 		bl	test_println
 1324              		.loc 1 336 0
 1325 005a 5948     		ldr	r0, .L102+56
 1326 005c FFF7FEFF 		bl	test_print
 1327              		.loc 1 337 0
 1328 0060 5848     		ldr	r0, .L102+60
 1329 0062 FFF7FEFF 		bl	test_println
 1330              		.loc 1 340 0
 1331 0066 5848     		ldr	r0, .L102+64
 1332 0068 FFF7FEFF 		bl	test_print
 1333              		.loc 1 341 0
 1334 006c 5748     		ldr	r0, .L102+68
 1335 006e FFF7FEFF 		bl	test_println
 1336              		.loc 1 344 0
 1337 0072 5748     		ldr	r0, .L102+72
 1338 0074 FFF7FEFF 		bl	test_print
 1339              		.loc 1 345 0
 1340 0078 5648     		ldr	r0, .L102+76
 1341 007a FFF7FEFF 		bl	test_println
 1342              		.loc 1 347 0
 1343 007e 4348     		ldr	r0, .L102+4
 1344 0080 FFF7FEFF 		bl	test_println
 1345              		.loc 1 349 0
 1346 0084 544B     		ldr	r3, .L102+80
 1347 0086 0022     		movs	r2, #0
 1348 0088 1A70     		strb	r2, [r3]
 1349              		.loc 1 350 0
 1350 008a 0023     		movs	r3, #0
 1351 008c 0393     		str	r3, [sp, #12]
 1352              		.loc 1 351 0
 1353 008e 5CE0     		b	.L93
 1354              	.L98:
 1355              		.loc 1 352 0
 1356 0090 0023     		movs	r3, #0
 1357 0092 0293     		str	r3, [sp, #8]
 1358              		.loc 1 353 0
 1359 0094 4CE0     		b	.L94
 1360              	.L97:
 1361              		.loc 1 354 0
 1362 0096 FFF7FEFF 		bl	print_line
 1363              		.loc 1 355 0
 1364 009a 5048     		ldr	r0, .L102+84
 1365 009c FFF7FEFF 		bl	test_print
 1366              		.loc 1 356 0
 1367 00a0 039B     		ldr	r3, [sp, #12]
 1368 00a2 0133     		adds	r3, r3, #1
 1369 00a4 1846     		mov	r0, r3
 1370 00a6 FFF7FEFF 		bl	test_printn
 1371              		.loc 1 357 0
 1372 00aa 4D48     		ldr	r0, .L102+88
 1373 00ac FFF7FEFF 		bl	test_print
 1374              		.loc 1 358 0
 1375 00b0 029B     		ldr	r3, [sp, #8]
ARM GAS  /home/pauba/tmp/cc8kkThj.s 			page 27


 1376 00b2 0133     		adds	r3, r3, #1
 1377 00b4 1846     		mov	r0, r3
 1378 00b6 FFF7FEFF 		bl	test_printn
 1379              		.loc 1 359 0
 1380 00ba 4A48     		ldr	r0, .L102+92
 1381 00bc FFF7FEFF 		bl	test_print
 1382              		.loc 1 360 0
 1383 00c0 494B     		ldr	r3, .L102+96
 1384 00c2 039A     		ldr	r2, [sp, #12]
 1385 00c4 53F82220 		ldr	r2, [r3, r2, lsl #2]
 1386 00c8 029B     		ldr	r3, [sp, #8]
 1387 00ca 9B00     		lsls	r3, r3, #2
 1388 00cc 1344     		add	r3, r3, r2
 1389 00ce 1B68     		ldr	r3, [r3]
 1390 00d0 1B68     		ldr	r3, [r3]
 1391 00d2 1846     		mov	r0, r3
 1392 00d4 FFF7FEFF 		bl	test_print
 1393              		.loc 1 361 0
 1394 00d8 4448     		ldr	r0, .L102+100
 1395 00da FFF7FEFF 		bl	test_println
 1396              		.loc 1 363 0
 1397 00de C820     		movs	r0, #200
 1398 00e0 FFF7FEFF 		bl	chThdSleep
 1399              		.loc 1 365 0
 1400 00e4 404B     		ldr	r3, .L102+96
 1401 00e6 039A     		ldr	r2, [sp, #12]
 1402 00e8 53F82220 		ldr	r2, [r3, r2, lsl #2]
 1403 00ec 029B     		ldr	r3, [sp, #8]
 1404 00ee 9B00     		lsls	r3, r3, #2
 1405 00f0 1344     		add	r3, r3, r2
 1406 00f2 1B68     		ldr	r3, [r3]
 1407 00f4 1846     		mov	r0, r3
 1408 00f6 FFF7FEFF 		bl	execute_test
 1409              		.loc 1 366 0
 1410 00fa 3D4B     		ldr	r3, .L102+104
 1411 00fc 1B78     		ldrb	r3, [r3]	@ zero_extendqisi2
 1412 00fe 002B     		cmp	r3, #0
 1413 0100 10D0     		beq	.L95
 1414              		.loc 1 367 0
 1415 0102 3C48     		ldr	r0, .L102+108
 1416 0104 FFF7FEFF 		bl	test_print
 1417              		.loc 1 368 0
 1418 0108 3B4B     		ldr	r3, .L102+112
 1419 010a 1B68     		ldr	r3, [r3]
 1420 010c 1846     		mov	r0, r3
 1421 010e FFF7FEFF 		bl	test_printn
 1422              		.loc 1 369 0
 1423 0112 3A48     		ldr	r0, .L102+116
 1424 0114 FFF7FEFF 		bl	test_print
 1425              		.loc 1 370 0
 1426 0118 FFF7FEFF 		bl	print_tokens
 1427              		.loc 1 371 0
 1428 011c 3848     		ldr	r0, .L102+120
 1429 011e FFF7FEFF 		bl	test_println
 1430 0122 02E0     		b	.L96
 1431              	.L95:
 1432              		.loc 1 374 0
ARM GAS  /home/pauba/tmp/cc8kkThj.s 			page 28


 1433 0124 3748     		ldr	r0, .L102+124
 1434 0126 FFF7FEFF 		bl	test_println
 1435              	.L96:
 1436              		.loc 1 375 0
 1437 012a 029B     		ldr	r3, [sp, #8]
 1438 012c 0133     		adds	r3, r3, #1
 1439 012e 0293     		str	r3, [sp, #8]
 1440              	.L94:
 1441              		.loc 1 353 0 discriminator 1
 1442 0130 2D4B     		ldr	r3, .L102+96
 1443 0132 039A     		ldr	r2, [sp, #12]
 1444 0134 53F82220 		ldr	r2, [r3, r2, lsl #2]
 1445 0138 029B     		ldr	r3, [sp, #8]
 1446 013a 9B00     		lsls	r3, r3, #2
 1447 013c 1344     		add	r3, r3, r2
 1448 013e 1B68     		ldr	r3, [r3]
 1449 0140 002B     		cmp	r3, #0
 1450 0142 A8D1     		bne	.L97
 1451              		.loc 1 377 0
 1452 0144 039B     		ldr	r3, [sp, #12]
 1453 0146 0133     		adds	r3, r3, #1
 1454 0148 0393     		str	r3, [sp, #12]
 1455              	.L93:
 1456              		.loc 1 351 0 discriminator 1
 1457 014a 274B     		ldr	r3, .L102+96
 1458 014c 039A     		ldr	r2, [sp, #12]
 1459 014e 53F82230 		ldr	r3, [r3, r2, lsl #2]
 1460 0152 002B     		cmp	r3, #0
 1461 0154 9CD1     		bne	.L98
 1462              		.loc 1 379 0
 1463 0156 FFF7FEFF 		bl	print_line
 1464              		.loc 1 380 0
 1465 015a 0C48     		ldr	r0, .L102+4
 1466 015c FFF7FEFF 		bl	test_println
 1467              		.loc 1 381 0
 1468 0160 2948     		ldr	r0, .L102+128
 1469 0162 FFF7FEFF 		bl	test_print
 1470              		.loc 1 382 0
 1471 0166 1C4B     		ldr	r3, .L102+80
 1472 0168 1B78     		ldrb	r3, [r3]	@ zero_extendqisi2
 1473 016a 002B     		cmp	r3, #0
 1474 016c 03D0     		beq	.L99
 1475              		.loc 1 383 0
 1476 016e 2748     		ldr	r0, .L102+132
 1477 0170 FFF7FEFF 		bl	test_println
 1478 0174 02E0     		b	.L100
 1479              	.L99:
 1480              		.loc 1 385 0
 1481 0176 2648     		ldr	r0, .L102+136
 1482 0178 FFF7FEFF 		bl	test_println
 1483              	.L100:
 1484              		.loc 1 387 0
 1485 017c 164B     		ldr	r3, .L102+80
 1486 017e 1B78     		ldrb	r3, [r3]	@ zero_extendqisi2
 1487              		.loc 1 388 0
 1488 0180 1846     		mov	r0, r3
 1489 0182 05B0     		add	sp, sp, #20
ARM GAS  /home/pauba/tmp/cc8kkThj.s 			page 29


 1490              		@ sp needed
 1491 0184 5DF804FB 		ldr	pc, [sp], #4
 1492              	.L103:
 1493              		.align	2
 1494              	.L102:
 1495 0188 00000000 		.word	chp
 1496 018c 04000000 		.word	.LC1
 1497 0190 08000000 		.word	.LC2
 1498 0194 24000000 		.word	.LC3
 1499 0198 28000000 		.word	.LC4
 1500 019c 3C000000 		.word	.LC5
 1501 01a0 44000000 		.word	.LC6
 1502 01a4 58000000 		.word	.LC7
 1503 01a8 70000000 		.word	.LC8
 1504 01ac 84000000 		.word	.LC9
 1505 01b0 CC000000 		.word	.LC10
 1506 01b4 E0000000 		.word	.LC11
 1507 01b8 E8000000 		.word	.LC12
 1508 01bc FC000000 		.word	.LC13
 1509 01c0 08010000 		.word	.LC14
 1510 01c4 1C010000 		.word	.LC15
 1511 01c8 34010000 		.word	.LC16
 1512 01cc 48010000 		.word	.LC17
 1513 01d0 74010000 		.word	.LC18
 1514 01d4 88010000 		.word	.LC19
 1515 01d8 00000000 		.word	global_fail
 1516 01dc AC010000 		.word	.LC20
 1517 01e0 BC010000 		.word	.LC21
 1518 01e4 C0010000 		.word	.LC22
 1519 01e8 00000000 		.word	patterns
 1520 01ec C4010000 		.word	.LC23
 1521 01f0 00000000 		.word	local_fail
 1522 01f4 C8010000 		.word	.LC24
 1523 01f8 00000000 		.word	failpoint
 1524 01fc E0010000 		.word	.LC25
 1525 0200 E4010000 		.word	.LC26
 1526 0204 E8010000 		.word	.LC27
 1527 0208 FC010000 		.word	.LC28
 1528 020c 0C020000 		.word	.LC29
 1529 0210 14020000 		.word	.LC30
 1530              		.cfi_endproc
 1531              	.LFE81:
 1532              		.size	TestThread, .-TestThread
 1533 0214 AFF30080 		.text
 1533      AFF30080 
 1533      AFF30080 
 1534              	.Letext0:
 1535              		.file 2 "/opt/gcc-arm-none-eabi-4_8-2014q1/lib/gcc/arm-none-eabi/4.8.3/include/stddef.h"
 1536              		.file 3 "/opt/gcc-arm-none-eabi-4_8-2014q1/arm-none-eabi/include/machine/_default_types.h"
 1537              		.file 4 "/opt/gcc-arm-none-eabi-4_8-2014q1/arm-none-eabi/include/stdint.h"
 1538              		.file 5 "/home/pauba/ChibiOS-RT/os/ports/GCC/ARMCMx/chtypes.h"
 1539              		.file 6 "/home/pauba/ChibiOS-RT/os/kernel/include/chlists.h"
 1540              		.file 7 "/home/pauba/ChibiOS-RT/os/kernel/include/chthreads.h"
 1541              		.file 8 "/home/pauba/ChibiOS-RT/os/ports/GCC/ARMCMx/chcore_v7m.h"
 1542              		.file 9 "/home/pauba/ChibiOS-RT/os/kernel/include/chvt.h"
 1543              		.file 10 "/home/pauba/ChibiOS-RT/os/kernel/include/chschd.h"
 1544              		.file 11 "/home/pauba/ChibiOS-RT/os/kernel/include/chmtx.h"
ARM GAS  /home/pauba/tmp/cc8kkThj.s 			page 30


 1545              		.file 12 "/home/pauba/ChibiOS-RT/os/kernel/include/chstreams.h"
 1546              		.file 13 "/home/pauba/ChibiOS-RT/test/test.h"
 1547              		.file 14 "/home/pauba/ChibiOS-RT/os/ports/common/ARMCMx/CMSIS/include/core_cm3.h"
 1548              		.file 15 "/home/pauba/ChibiOS-RT/test/testthd.h"
 1549              		.file 16 "/home/pauba/ChibiOS-RT/test/testsem.h"
 1550              		.file 17 "/home/pauba/ChibiOS-RT/test/testmtx.h"
 1551              		.file 18 "/home/pauba/ChibiOS-RT/test/testmsg.h"
 1552              		.file 19 "/home/pauba/ChibiOS-RT/test/testmbox.h"
 1553              		.file 20 "/home/pauba/ChibiOS-RT/test/testevt.h"
 1554              		.file 21 "/home/pauba/ChibiOS-RT/test/testheap.h"
 1555              		.file 22 "/home/pauba/ChibiOS-RT/test/testpools.h"
 1556              		.file 23 "/home/pauba/ChibiOS-RT/test/testdyn.h"
 1557              		.file 24 "/home/pauba/ChibiOS-RT/test/testqueues.h"
 1558              		.file 25 "/home/pauba/ChibiOS-RT/test/testbmk.h"
 1559              		.section	.debug_info,"",%progbits
 1560              	.Ldebug_info0:
 1561 0000 8A0C0000 		.4byte	0xc8a
 1562 0004 0400     		.2byte	0x4
 1563 0006 00000000 		.4byte	.Ldebug_abbrev0
 1564 000a 04       		.byte	0x4
 1565 000b 01       		.uleb128 0x1
 1566 000c 99040000 		.4byte	.LASF137
 1567 0010 01       		.byte	0x1
 1568 0011 19010000 		.4byte	.LASF138
 1569 0015 00000000 		.4byte	.Ldebug_ranges0+0
 1570 0019 00000000 		.4byte	0
 1571 001d 00000000 		.4byte	.Ldebug_line0
 1572 0021 02       		.uleb128 0x2
 1573 0022 04       		.byte	0x4
 1574 0023 05       		.byte	0x5
 1575 0024 696E7400 		.ascii	"int\000"
 1576 0028 03       		.uleb128 0x3
 1577 0029 0F000000 		.4byte	.LASF2
 1578 002d 02       		.byte	0x2
 1579 002e D4       		.byte	0xd4
 1580 002f 33000000 		.4byte	0x33
 1581 0033 04       		.uleb128 0x4
 1582 0034 04       		.byte	0x4
 1583 0035 07       		.byte	0x7
 1584 0036 FC010000 		.4byte	.LASF0
 1585 003a 04       		.uleb128 0x4
 1586 003b 01       		.byte	0x1
 1587 003c 06       		.byte	0x6
 1588 003d C6000000 		.4byte	.LASF1
 1589 0041 03       		.uleb128 0x3
 1590 0042 26000000 		.4byte	.LASF3
 1591 0046 03       		.byte	0x3
 1592 0047 1C       		.byte	0x1c
 1593 0048 4C000000 		.4byte	0x4c
 1594 004c 04       		.uleb128 0x4
 1595 004d 01       		.byte	0x1
 1596 004e 08       		.byte	0x8
 1597 004f B9030000 		.4byte	.LASF4
 1598 0053 04       		.uleb128 0x4
 1599 0054 02       		.byte	0x2
 1600 0055 05       		.byte	0x5
 1601 0056 EC030000 		.4byte	.LASF5
ARM GAS  /home/pauba/tmp/cc8kkThj.s 			page 31


 1602 005a 04       		.uleb128 0x4
 1603 005b 02       		.byte	0x2
 1604 005c 07       		.byte	0x7
 1605 005d 48020000 		.4byte	.LASF6
 1606 0061 03       		.uleb128 0x3
 1607 0062 96020000 		.4byte	.LASF7
 1608 0066 03       		.byte	0x3
 1609 0067 37       		.byte	0x37
 1610 0068 6C000000 		.4byte	0x6c
 1611 006c 04       		.uleb128 0x4
 1612 006d 04       		.byte	0x4
 1613 006e 05       		.byte	0x5
 1614 006f 10010000 		.4byte	.LASF8
 1615 0073 03       		.uleb128 0x3
 1616 0074 BF050000 		.4byte	.LASF9
 1617 0078 03       		.byte	0x3
 1618 0079 38       		.byte	0x38
 1619 007a 7E000000 		.4byte	0x7e
 1620 007e 04       		.uleb128 0x4
 1621 007f 04       		.byte	0x4
 1622 0080 07       		.byte	0x7
 1623 0081 6F050000 		.4byte	.LASF10
 1624 0085 04       		.uleb128 0x4
 1625 0086 08       		.byte	0x8
 1626 0087 05       		.byte	0x5
 1627 0088 B8000000 		.4byte	.LASF11
 1628 008c 03       		.uleb128 0x3
 1629 008d 76030000 		.4byte	.LASF12
 1630 0091 03       		.byte	0x3
 1631 0092 4E       		.byte	0x4e
 1632 0093 97000000 		.4byte	0x97
 1633 0097 04       		.uleb128 0x4
 1634 0098 08       		.byte	0x8
 1635 0099 07       		.byte	0x7
 1636 009a 52000000 		.4byte	.LASF13
 1637 009e 03       		.uleb128 0x3
 1638 009f 23060000 		.4byte	.LASF14
 1639 00a3 04       		.byte	0x4
 1640 00a4 2A       		.byte	0x2a
 1641 00a5 41000000 		.4byte	0x41
 1642 00a9 03       		.uleb128 0x3
 1643 00aa B1030000 		.4byte	.LASF15
 1644 00ae 04       		.byte	0x4
 1645 00af 41       		.byte	0x41
 1646 00b0 61000000 		.4byte	0x61
 1647 00b4 03       		.uleb128 0x3
 1648 00b5 7C040000 		.4byte	.LASF16
 1649 00b9 04       		.byte	0x4
 1650 00ba 42       		.byte	0x42
 1651 00bb 73000000 		.4byte	0x73
 1652 00bf 03       		.uleb128 0x3
 1653 00c0 1D000000 		.4byte	.LASF17
 1654 00c4 04       		.byte	0x4
 1655 00c5 4E       		.byte	0x4e
 1656 00c6 8C000000 		.4byte	0x8c
 1657 00ca 03       		.uleb128 0x3
 1658 00cb DA000000 		.4byte	.LASF18
ARM GAS  /home/pauba/tmp/cc8kkThj.s 			page 32


 1659 00cf 05       		.byte	0x5
 1660 00d0 2B       		.byte	0x2b
 1661 00d1 D5000000 		.4byte	0xd5
 1662 00d5 04       		.uleb128 0x4
 1663 00d6 01       		.byte	0x1
 1664 00d7 02       		.byte	0x2
 1665 00d8 AB030000 		.4byte	.LASF19
 1666 00dc 03       		.uleb128 0x3
 1667 00dd 6C020000 		.4byte	.LASF20
 1668 00e1 05       		.byte	0x5
 1669 00e2 2C       		.byte	0x2c
 1670 00e3 9E000000 		.4byte	0x9e
 1671 00e7 03       		.uleb128 0x3
 1672 00e8 48010000 		.4byte	.LASF21
 1673 00ec 05       		.byte	0x5
 1674 00ed 2D       		.byte	0x2d
 1675 00ee 9E000000 		.4byte	0x9e
 1676 00f2 03       		.uleb128 0x3
 1677 00f3 8C030000 		.4byte	.LASF22
 1678 00f7 05       		.byte	0x5
 1679 00f8 2E       		.byte	0x2e
 1680 00f9 9E000000 		.4byte	0x9e
 1681 00fd 03       		.uleb128 0x3
 1682 00fe 06010000 		.4byte	.LASF23
 1683 0102 05       		.byte	0x5
 1684 0103 2F       		.byte	0x2f
 1685 0104 9E000000 		.4byte	0x9e
 1686 0108 03       		.uleb128 0x3
 1687 0109 A3030000 		.4byte	.LASF24
 1688 010d 05       		.byte	0x5
 1689 010e 30       		.byte	0x30
 1690 010f B4000000 		.4byte	0xb4
 1691 0113 03       		.uleb128 0x3
 1692 0114 5B020000 		.4byte	.LASF25
 1693 0118 05       		.byte	0x5
 1694 0119 31       		.byte	0x31
 1695 011a A9000000 		.4byte	0xa9
 1696 011e 03       		.uleb128 0x3
 1697 011f 8A020000 		.4byte	.LASF26
 1698 0123 05       		.byte	0x5
 1699 0124 33       		.byte	0x33
 1700 0125 B4000000 		.4byte	0xb4
 1701 0129 03       		.uleb128 0x3
 1702 012a A1050000 		.4byte	.LASF27
 1703 012e 05       		.byte	0x5
 1704 012f 35       		.byte	0x35
 1705 0130 B4000000 		.4byte	0xb4
 1706 0134 03       		.uleb128 0x3
 1707 0135 61040000 		.4byte	.LASF28
 1708 0139 06       		.byte	0x6
 1709 013a 2A       		.byte	0x2a
 1710 013b 3F010000 		.4byte	0x13f
 1711 013f 05       		.uleb128 0x5
 1712 0140 61040000 		.4byte	.LASF28
 1713 0144 4C       		.byte	0x4c
 1714 0145 07       		.byte	0x7
 1715 0146 5E       		.byte	0x5e
ARM GAS  /home/pauba/tmp/cc8kkThj.s 			page 33


 1716 0147 48020000 		.4byte	0x248
 1717 014b 06       		.uleb128 0x6
 1718 014c 2F040000 		.4byte	.LASF29
 1719 0150 07       		.byte	0x7
 1720 0151 5F       		.byte	0x5f
 1721 0152 69020000 		.4byte	0x269
 1722 0156 00       		.byte	0
 1723 0157 06       		.uleb128 0x6
 1724 0158 94030000 		.4byte	.LASF30
 1725 015c 07       		.byte	0x7
 1726 015d 61       		.byte	0x61
 1727 015e 69020000 		.4byte	0x269
 1728 0162 04       		.byte	0x4
 1729 0163 06       		.uleb128 0x6
 1730 0164 8E000000 		.4byte	.LASF31
 1731 0168 07       		.byte	0x7
 1732 0169 63       		.byte	0x63
 1733 016a 08010000 		.4byte	0x108
 1734 016e 08       		.byte	0x8
 1735 016f 06       		.uleb128 0x6
 1736 0170 2C030000 		.4byte	.LASF32
 1737 0174 07       		.byte	0x7
 1738 0175 64       		.byte	0x64
 1739 0176 2E030000 		.4byte	0x32e
 1740 017a 0C       		.byte	0xc
 1741 017b 06       		.uleb128 0x6
 1742 017c 94010000 		.4byte	.LASF33
 1743 0180 07       		.byte	0x7
 1744 0181 66       		.byte	0x66
 1745 0182 69020000 		.4byte	0x269
 1746 0186 10       		.byte	0x10
 1747 0187 06       		.uleb128 0x6
 1748 0188 10040000 		.4byte	.LASF34
 1749 018c 07       		.byte	0x7
 1750 018d 67       		.byte	0x67
 1751 018e 69020000 		.4byte	0x269
 1752 0192 14       		.byte	0x14
 1753 0193 06       		.uleb128 0x6
 1754 0194 F8050000 		.4byte	.LASF35
 1755 0198 07       		.byte	0x7
 1756 0199 6E       		.byte	0x6e
 1757 019a E8040000 		.4byte	0x4e8
 1758 019e 18       		.byte	0x18
 1759 019f 06       		.uleb128 0x6
 1760 01a0 F1010000 		.4byte	.LASF36
 1761 01a4 07       		.byte	0x7
 1762 01a5 74       		.byte	0x74
 1763 01a6 FA040000 		.4byte	0x4fa
 1764 01aa 1C       		.byte	0x1c
 1765 01ab 06       		.uleb128 0x6
 1766 01ac F6030000 		.4byte	.LASF37
 1767 01b0 07       		.byte	0x7
 1768 01b1 79       		.byte	0x79
 1769 01b2 E7000000 		.4byte	0xe7
 1770 01b6 20       		.byte	0x20
 1771 01b7 06       		.uleb128 0x6
 1772 01b8 4E040000 		.4byte	.LASF38
ARM GAS  /home/pauba/tmp/cc8kkThj.s 			page 34


 1773 01bc 07       		.byte	0x7
 1774 01bd 7D       		.byte	0x7d
 1775 01be DC000000 		.4byte	0xdc
 1776 01c2 21       		.byte	0x21
 1777 01c3 06       		.uleb128 0x6
 1778 01c4 FF050000 		.4byte	.LASF39
 1779 01c8 07       		.byte	0x7
 1780 01c9 82       		.byte	0x82
 1781 01ca F2000000 		.4byte	0xf2
 1782 01ce 22       		.byte	0x22
 1783 01cf 06       		.uleb128 0x6
 1784 01d0 FE030000 		.4byte	.LASF40
 1785 01d4 07       		.byte	0x7
 1786 01d5 88       		.byte	0x88
 1787 01d6 FD000000 		.4byte	0xfd
 1788 01da 23       		.byte	0x23
 1789 01db 06       		.uleb128 0x6
 1790 01dc 81010000 		.4byte	.LASF41
 1791 01e0 07       		.byte	0x7
 1792 01e1 8F       		.byte	0x8f
 1793 01e2 05040000 		.4byte	0x405
 1794 01e6 24       		.byte	0x24
 1795 01e7 07       		.uleb128 0x7
 1796 01e8 705F7500 		.ascii	"p_u\000"
 1797 01ec 07       		.byte	0x7
 1798 01ed B4       		.byte	0xb4
 1799 01ee B3040000 		.4byte	0x4b3
 1800 01f2 28       		.byte	0x28
 1801 01f3 06       		.uleb128 0x6
 1802 01f4 D0020000 		.4byte	.LASF42
 1803 01f8 07       		.byte	0x7
 1804 01f9 B9       		.byte	0xb9
 1805 01fa 8F020000 		.4byte	0x28f
 1806 01fe 2C       		.byte	0x2c
 1807 01ff 06       		.uleb128 0x6
 1808 0200 17020000 		.4byte	.LASF43
 1809 0204 07       		.byte	0x7
 1810 0205 BF       		.byte	0xbf
 1811 0206 6F020000 		.4byte	0x26f
 1812 020a 30       		.byte	0x30
 1813 020b 06       		.uleb128 0x6
 1814 020c 61060000 		.4byte	.LASF44
 1815 0210 07       		.byte	0x7
 1816 0211 C3       		.byte	0xc3
 1817 0212 13010000 		.4byte	0x113
 1818 0216 38       		.byte	0x38
 1819 0217 06       		.uleb128 0x6
 1820 0218 71040000 		.4byte	.LASF45
 1821 021c 07       		.byte	0x7
 1822 021d C9       		.byte	0xc9
 1823 021e 1E010000 		.4byte	0x11e
 1824 0222 3C       		.byte	0x3c
 1825 0223 06       		.uleb128 0x6
 1826 0224 80020000 		.4byte	.LASF46
 1827 0228 07       		.byte	0x7
 1828 0229 D0       		.byte	0xd0
 1829 022a 00050000 		.4byte	0x500
ARM GAS  /home/pauba/tmp/cc8kkThj.s 			page 35


 1830 022e 40       		.byte	0x40
 1831 022f 06       		.uleb128 0x6
 1832 0230 AB050000 		.4byte	.LASF47
 1833 0234 07       		.byte	0x7
 1834 0235 D4       		.byte	0xd4
 1835 0236 08010000 		.4byte	0x108
 1836 023a 44       		.byte	0x44
 1837 023b 06       		.uleb128 0x6
 1838 023c D2000000 		.4byte	.LASF48
 1839 0240 07       		.byte	0x7
 1840 0241 DA       		.byte	0xda
 1841 0242 A5020000 		.4byte	0x2a5
 1842 0246 48       		.byte	0x48
 1843 0247 00       		.byte	0
 1844 0248 08       		.uleb128 0x8
 1845 0249 08       		.byte	0x8
 1846 024a 06       		.byte	0x6
 1847 024b 61       		.byte	0x61
 1848 024c 69020000 		.4byte	0x269
 1849 0250 06       		.uleb128 0x6
 1850 0251 2F040000 		.4byte	.LASF29
 1851 0255 06       		.byte	0x6
 1852 0256 62       		.byte	0x62
 1853 0257 69020000 		.4byte	0x269
 1854 025b 00       		.byte	0
 1855 025c 06       		.uleb128 0x6
 1856 025d 94030000 		.4byte	.LASF30
 1857 0261 06       		.byte	0x6
 1858 0262 64       		.byte	0x64
 1859 0263 69020000 		.4byte	0x269
 1860 0267 04       		.byte	0x4
 1861 0268 00       		.byte	0
 1862 0269 09       		.uleb128 0x9
 1863 026a 04       		.byte	0x4
 1864 026b 34010000 		.4byte	0x134
 1865 026f 03       		.uleb128 0x3
 1866 0270 1F030000 		.4byte	.LASF49
 1867 0274 06       		.byte	0x6
 1868 0275 66       		.byte	0x66
 1869 0276 48020000 		.4byte	0x248
 1870 027a 08       		.uleb128 0x8
 1871 027b 04       		.byte	0x4
 1872 027c 06       		.byte	0x6
 1873 027d 6B       		.byte	0x6b
 1874 027e 8F020000 		.4byte	0x28f
 1875 0282 06       		.uleb128 0x6
 1876 0283 2F040000 		.4byte	.LASF29
 1877 0287 06       		.byte	0x6
 1878 0288 6D       		.byte	0x6d
 1879 0289 69020000 		.4byte	0x269
 1880 028d 00       		.byte	0
 1881 028e 00       		.byte	0
 1882 028f 03       		.uleb128 0x3
 1883 0290 74020000 		.4byte	.LASF50
 1884 0294 06       		.byte	0x6
 1885 0295 70       		.byte	0x70
 1886 0296 7A020000 		.4byte	0x27a
ARM GAS  /home/pauba/tmp/cc8kkThj.s 			page 36


 1887 029a 03       		.uleb128 0x3
 1888 029b B5010000 		.4byte	.LASF51
 1889 029f 08       		.byte	0x8
 1890 02a0 E5       		.byte	0xe5
 1891 02a1 A5020000 		.4byte	0x2a5
 1892 02a5 0A       		.uleb128 0xa
 1893 02a6 04       		.byte	0x4
 1894 02a7 03       		.uleb128 0x3
 1895 02a8 A5020000 		.4byte	.LASF52
 1896 02ac 08       		.byte	0x8
 1897 02ad EB       		.byte	0xeb
 1898 02ae BF000000 		.4byte	0xbf
 1899 02b2 0B       		.uleb128 0xb
 1900 02b3 DD050000 		.4byte	.LASF53
 1901 02b7 24       		.byte	0x24
 1902 02b8 08       		.byte	0x8
 1903 02b9 0C01     		.2byte	0x10c
 1904 02bb 2E030000 		.4byte	0x32e
 1905 02bf 0C       		.uleb128 0xc
 1906 02c0 723400   		.ascii	"r4\000"
 1907 02c3 08       		.byte	0x8
 1908 02c4 1F01     		.2byte	0x11f
 1909 02c6 9A020000 		.4byte	0x29a
 1910 02ca 00       		.byte	0
 1911 02cb 0C       		.uleb128 0xc
 1912 02cc 723500   		.ascii	"r5\000"
 1913 02cf 08       		.byte	0x8
 1914 02d0 2001     		.2byte	0x120
 1915 02d2 9A020000 		.4byte	0x29a
 1916 02d6 04       		.byte	0x4
 1917 02d7 0C       		.uleb128 0xc
 1918 02d8 723600   		.ascii	"r6\000"
 1919 02db 08       		.byte	0x8
 1920 02dc 2101     		.2byte	0x121
 1921 02de 9A020000 		.4byte	0x29a
 1922 02e2 08       		.byte	0x8
 1923 02e3 0C       		.uleb128 0xc
 1924 02e4 723700   		.ascii	"r7\000"
 1925 02e7 08       		.byte	0x8
 1926 02e8 2201     		.2byte	0x122
 1927 02ea 9A020000 		.4byte	0x29a
 1928 02ee 0C       		.byte	0xc
 1929 02ef 0C       		.uleb128 0xc
 1930 02f0 723800   		.ascii	"r8\000"
 1931 02f3 08       		.byte	0x8
 1932 02f4 2301     		.2byte	0x123
 1933 02f6 9A020000 		.4byte	0x29a
 1934 02fa 10       		.byte	0x10
 1935 02fb 0C       		.uleb128 0xc
 1936 02fc 723900   		.ascii	"r9\000"
 1937 02ff 08       		.byte	0x8
 1938 0300 2401     		.2byte	0x124
 1939 0302 9A020000 		.4byte	0x29a
 1940 0306 14       		.byte	0x14
 1941 0307 0C       		.uleb128 0xc
 1942 0308 72313000 		.ascii	"r10\000"
 1943 030c 08       		.byte	0x8
ARM GAS  /home/pauba/tmp/cc8kkThj.s 			page 37


 1944 030d 2501     		.2byte	0x125
 1945 030f 9A020000 		.4byte	0x29a
 1946 0313 18       		.byte	0x18
 1947 0314 0C       		.uleb128 0xc
 1948 0315 72313100 		.ascii	"r11\000"
 1949 0319 08       		.byte	0x8
 1950 031a 2601     		.2byte	0x126
 1951 031c 9A020000 		.4byte	0x29a
 1952 0320 1C       		.byte	0x1c
 1953 0321 0C       		.uleb128 0xc
 1954 0322 6C7200   		.ascii	"lr\000"
 1955 0325 08       		.byte	0x8
 1956 0326 2701     		.2byte	0x127
 1957 0328 9A020000 		.4byte	0x29a
 1958 032c 20       		.byte	0x20
 1959 032d 00       		.byte	0
 1960 032e 0B       		.uleb128 0xb
 1961 032f D5050000 		.4byte	.LASF54
 1962 0333 04       		.byte	0x4
 1963 0334 08       		.byte	0x8
 1964 0335 3101     		.2byte	0x131
 1965 0337 49030000 		.4byte	0x349
 1966 033b 0C       		.uleb128 0xc
 1967 033c 72313300 		.ascii	"r13\000"
 1968 0340 08       		.byte	0x8
 1969 0341 3201     		.2byte	0x132
 1970 0343 49030000 		.4byte	0x349
 1971 0347 00       		.byte	0
 1972 0348 00       		.byte	0
 1973 0349 09       		.uleb128 0x9
 1974 034a 04       		.byte	0x4
 1975 034b B2020000 		.4byte	0x2b2
 1976 034f 04       		.uleb128 0x4
 1977 0350 04       		.byte	0x4
 1978 0351 07       		.byte	0x7
 1979 0352 E5020000 		.4byte	.LASF55
 1980 0356 03       		.uleb128 0x3
 1981 0357 B6050000 		.4byte	.LASF56
 1982 035b 09       		.byte	0x9
 1983 035c 58       		.byte	0x58
 1984 035d 61030000 		.4byte	0x361
 1985 0361 09       		.uleb128 0x9
 1986 0362 04       		.byte	0x4
 1987 0363 67030000 		.4byte	0x367
 1988 0367 0D       		.uleb128 0xd
 1989 0368 72030000 		.4byte	0x372
 1990 036c 0E       		.uleb128 0xe
 1991 036d A5020000 		.4byte	0x2a5
 1992 0371 00       		.byte	0
 1993 0372 03       		.uleb128 0x3
 1994 0373 3B020000 		.4byte	.LASF57
 1995 0377 09       		.byte	0x9
 1996 0378 5D       		.byte	0x5d
 1997 0379 7D030000 		.4byte	0x37d
 1998 037d 05       		.uleb128 0x5
 1999 037e 3B020000 		.4byte	.LASF57
 2000 0382 14       		.byte	0x14
ARM GAS  /home/pauba/tmp/cc8kkThj.s 			page 38


 2001 0383 09       		.byte	0x9
 2002 0384 64       		.byte	0x64
 2003 0385 C6030000 		.4byte	0x3c6
 2004 0389 06       		.uleb128 0x6
 2005 038a 09020000 		.4byte	.LASF58
 2006 038e 09       		.byte	0x9
 2007 038f 65       		.byte	0x65
 2008 0390 C6030000 		.4byte	0x3c6
 2009 0394 00       		.byte	0
 2010 0395 06       		.uleb128 0x6
 2011 0396 BE010000 		.4byte	.LASF59
 2012 039a 09       		.byte	0x9
 2013 039b 67       		.byte	0x67
 2014 039c C6030000 		.4byte	0x3c6
 2015 03a0 04       		.byte	0x4
 2016 03a1 06       		.uleb128 0x6
 2017 03a2 C8020000 		.4byte	.LASF60
 2018 03a6 09       		.byte	0x9
 2019 03a7 69       		.byte	0x69
 2020 03a8 29010000 		.4byte	0x129
 2021 03ac 08       		.byte	0x8
 2022 03ad 06       		.uleb128 0x6
 2023 03ae EE020000 		.4byte	.LASF61
 2024 03b2 09       		.byte	0x9
 2025 03b3 6A       		.byte	0x6a
 2026 03b4 56030000 		.4byte	0x356
 2027 03b8 0C       		.byte	0xc
 2028 03b9 06       		.uleb128 0x6
 2029 03ba E4050000 		.4byte	.LASF62
 2030 03be 09       		.byte	0x9
 2031 03bf 6C       		.byte	0x6c
 2032 03c0 A5020000 		.4byte	0x2a5
 2033 03c4 10       		.byte	0x10
 2034 03c5 00       		.byte	0
 2035 03c6 09       		.uleb128 0x9
 2036 03c7 04       		.byte	0x4
 2037 03c8 72030000 		.4byte	0x372
 2038 03cc 08       		.uleb128 0x8
 2039 03cd 10       		.byte	0x10
 2040 03ce 09       		.byte	0x9
 2041 03cf 76       		.byte	0x76
 2042 03d0 05040000 		.4byte	0x405
 2043 03d4 06       		.uleb128 0x6
 2044 03d5 09020000 		.4byte	.LASF58
 2045 03d9 09       		.byte	0x9
 2046 03da 77       		.byte	0x77
 2047 03db C6030000 		.4byte	0x3c6
 2048 03df 00       		.byte	0
 2049 03e0 06       		.uleb128 0x6
 2050 03e1 BE010000 		.4byte	.LASF59
 2051 03e5 09       		.byte	0x9
 2052 03e6 79       		.byte	0x79
 2053 03e7 C6030000 		.4byte	0x3c6
 2054 03eb 04       		.byte	0x4
 2055 03ec 06       		.uleb128 0x6
 2056 03ed C8020000 		.4byte	.LASF60
 2057 03f1 09       		.byte	0x9
ARM GAS  /home/pauba/tmp/cc8kkThj.s 			page 39


 2058 03f2 7B       		.byte	0x7b
 2059 03f3 29010000 		.4byte	0x129
 2060 03f7 08       		.byte	0x8
 2061 03f8 06       		.uleb128 0x6
 2062 03f9 56060000 		.4byte	.LASF63
 2063 03fd 09       		.byte	0x9
 2064 03fe 7C       		.byte	0x7c
 2065 03ff 05040000 		.4byte	0x405
 2066 0403 0C       		.byte	0xc
 2067 0404 00       		.byte	0
 2068 0405 0F       		.uleb128 0xf
 2069 0406 29010000 		.4byte	0x129
 2070 040a 03       		.uleb128 0x3
 2071 040b 6D060000 		.4byte	.LASF64
 2072 040f 09       		.byte	0x9
 2073 0410 7D       		.byte	0x7d
 2074 0411 CC030000 		.4byte	0x3cc
 2075 0415 08       		.uleb128 0x8
 2076 0416 1C       		.byte	0x1c
 2077 0417 0A       		.byte	0xa
 2078 0418 5E       		.byte	0x5e
 2079 0419 66040000 		.4byte	0x466
 2080 041d 06       		.uleb128 0x6
 2081 041e 85040000 		.4byte	.LASF65
 2082 0422 0A       		.byte	0xa
 2083 0423 5F       		.byte	0x5f
 2084 0424 6F020000 		.4byte	0x26f
 2085 0428 00       		.byte	0
 2086 0429 06       		.uleb128 0x6
 2087 042a C1020000 		.4byte	.LASF66
 2088 042e 0A       		.byte	0xa
 2089 042f 60       		.byte	0x60
 2090 0430 08010000 		.4byte	0x108
 2091 0434 08       		.byte	0x8
 2092 0435 06       		.uleb128 0x6
 2093 0436 19030000 		.4byte	.LASF67
 2094 043a 0A       		.byte	0xa
 2095 043b 62       		.byte	0x62
 2096 043c 2E030000 		.4byte	0x32e
 2097 0440 0C       		.byte	0xc
 2098 0441 06       		.uleb128 0x6
 2099 0442 AD010000 		.4byte	.LASF68
 2100 0446 0A       		.byte	0xa
 2101 0447 65       		.byte	0x65
 2102 0448 69020000 		.4byte	0x269
 2103 044c 10       		.byte	0x10
 2104 044d 06       		.uleb128 0x6
 2105 044e 58030000 		.4byte	.LASF69
 2106 0452 0A       		.byte	0xa
 2107 0453 66       		.byte	0x66
 2108 0454 69020000 		.4byte	0x269
 2109 0458 14       		.byte	0x14
 2110 0459 06       		.uleb128 0x6
 2111 045a 4E030000 		.4byte	.LASF70
 2112 045e 0A       		.byte	0xa
 2113 045f 69       		.byte	0x69
 2114 0460 69020000 		.4byte	0x269
ARM GAS  /home/pauba/tmp/cc8kkThj.s 			page 40


 2115 0464 18       		.byte	0x18
 2116 0465 00       		.byte	0
 2117 0466 03       		.uleb128 0x3
 2118 0467 06060000 		.4byte	.LASF71
 2119 046b 0A       		.byte	0xa
 2120 046c 6B       		.byte	0x6b
 2121 046d 15040000 		.4byte	0x415
 2122 0471 05       		.uleb128 0x5
 2123 0472 F6020000 		.4byte	.LASF72
 2124 0476 10       		.byte	0x10
 2125 0477 0B       		.byte	0xb
 2126 0478 2C       		.byte	0x2c
 2127 0479 A2040000 		.4byte	0x4a2
 2128 047d 06       		.uleb128 0x6
 2129 047e E1000000 		.4byte	.LASF73
 2130 0482 0B       		.byte	0xb
 2131 0483 2D       		.byte	0x2d
 2132 0484 6F020000 		.4byte	0x26f
 2133 0488 00       		.byte	0
 2134 0489 06       		.uleb128 0x6
 2135 048a 74060000 		.4byte	.LASF74
 2136 048e 0B       		.byte	0xb
 2137 048f 2F       		.byte	0x2f
 2138 0490 69020000 		.4byte	0x269
 2139 0494 08       		.byte	0x8
 2140 0495 06       		.uleb128 0x6
 2141 0496 9A050000 		.4byte	.LASF75
 2142 049a 0B       		.byte	0xb
 2143 049b 31       		.byte	0x31
 2144 049c A2040000 		.4byte	0x4a2
 2145 04a0 0C       		.byte	0xc
 2146 04a1 00       		.byte	0
 2147 04a2 09       		.uleb128 0x9
 2148 04a3 04       		.byte	0x4
 2149 04a4 71040000 		.4byte	0x471
 2150 04a8 03       		.uleb128 0x3
 2151 04a9 F6020000 		.4byte	.LASF72
 2152 04ad 0B       		.byte	0xb
 2153 04ae 33       		.byte	0x33
 2154 04af 71040000 		.4byte	0x471
 2155 04b3 10       		.uleb128 0x10
 2156 04b4 04       		.byte	0x4
 2157 04b5 07       		.byte	0x7
 2158 04b6 96       		.byte	0x96
 2159 04b7 E8040000 		.4byte	0x4e8
 2160 04bb 11       		.uleb128 0x11
 2161 04bc 16000000 		.4byte	.LASF76
 2162 04c0 07       		.byte	0x7
 2163 04c1 9D       		.byte	0x9d
 2164 04c2 13010000 		.4byte	0x113
 2165 04c6 11       		.uleb128 0x11
 2166 04c7 73000000 		.4byte	.LASF77
 2167 04cb 07       		.byte	0x7
 2168 04cc A4       		.byte	0xa4
 2169 04cd 13010000 		.4byte	0x113
 2170 04d1 11       		.uleb128 0x11
 2171 04d2 42060000 		.4byte	.LASF78
ARM GAS  /home/pauba/tmp/cc8kkThj.s 			page 41


 2172 04d6 07       		.byte	0x7
 2173 04d7 AB       		.byte	0xab
 2174 04d8 A5020000 		.4byte	0x2a5
 2175 04dc 11       		.uleb128 0x11
 2176 04dd 28040000 		.4byte	.LASF79
 2177 04e1 07       		.byte	0x7
 2178 04e2 B2       		.byte	0xb2
 2179 04e3 1E010000 		.4byte	0x11e
 2180 04e7 00       		.byte	0
 2181 04e8 09       		.uleb128 0x9
 2182 04e9 04       		.byte	0x4
 2183 04ea EE040000 		.4byte	0x4ee
 2184 04ee 12       		.uleb128 0x12
 2185 04ef F3040000 		.4byte	0x4f3
 2186 04f3 04       		.uleb128 0x4
 2187 04f4 01       		.byte	0x1
 2188 04f5 08       		.byte	0x8
 2189 04f6 81050000 		.4byte	.LASF80
 2190 04fa 09       		.uleb128 0x9
 2191 04fb 04       		.byte	0x4
 2192 04fc A7020000 		.4byte	0x2a7
 2193 0500 09       		.uleb128 0x9
 2194 0501 04       		.byte	0x4
 2195 0502 A8040000 		.4byte	0x4a8
 2196 0506 09       		.uleb128 0x9
 2197 0507 04       		.byte	0x4
 2198 0508 0C050000 		.4byte	0x50c
 2199 050c 13       		.uleb128 0x13
 2200 050d 13010000 		.4byte	0x113
 2201 0511 1B050000 		.4byte	0x51b
 2202 0515 0E       		.uleb128 0xe
 2203 0516 A5020000 		.4byte	0x2a5
 2204 051a 00       		.byte	0
 2205 051b 09       		.uleb128 0x9
 2206 051c 04       		.byte	0x4
 2207 051d 9E000000 		.4byte	0x9e
 2208 0521 05       		.uleb128 0x5
 2209 0522 36040000 		.4byte	.LASF81
 2210 0526 10       		.byte	0x10
 2211 0527 0C       		.byte	0xc
 2212 0528 48       		.byte	0x48
 2213 0529 5E050000 		.4byte	0x55e
 2214 052d 06       		.uleb128 0x6
 2215 052e BB020000 		.4byte	.LASF82
 2216 0532 0C       		.byte	0xc
 2217 0533 49       		.byte	0x49
 2218 0534 82050000 		.4byte	0x582
 2219 0538 00       		.byte	0
 2220 0539 06       		.uleb128 0x6
 2221 053a 81030000 		.4byte	.LASF83
 2222 053e 0C       		.byte	0xc
 2223 053f 49       		.byte	0x49
 2224 0540 A1050000 		.4byte	0x5a1
 2225 0544 04       		.byte	0x4
 2226 0545 07       		.uleb128 0x7
 2227 0546 70757400 		.ascii	"put\000"
 2228 054a 0C       		.byte	0xc
ARM GAS  /home/pauba/tmp/cc8kkThj.s 			page 42


 2229 054b 49       		.byte	0x49
 2230 054c BB050000 		.4byte	0x5bb
 2231 0550 08       		.byte	0x8
 2232 0551 07       		.uleb128 0x7
 2233 0552 67657400 		.ascii	"get\000"
 2234 0556 0C       		.byte	0xc
 2235 0557 49       		.byte	0x49
 2236 0558 06050000 		.4byte	0x506
 2237 055c 0C       		.byte	0xc
 2238 055d 00       		.byte	0
 2239 055e 13       		.uleb128 0x13
 2240 055f 28000000 		.4byte	0x28
 2241 0563 77050000 		.4byte	0x577
 2242 0567 0E       		.uleb128 0xe
 2243 0568 A5020000 		.4byte	0x2a5
 2244 056c 0E       		.uleb128 0xe
 2245 056d 77050000 		.4byte	0x577
 2246 0571 0E       		.uleb128 0xe
 2247 0572 28000000 		.4byte	0x28
 2248 0576 00       		.byte	0
 2249 0577 09       		.uleb128 0x9
 2250 0578 04       		.byte	0x4
 2251 0579 7D050000 		.4byte	0x57d
 2252 057d 12       		.uleb128 0x12
 2253 057e 9E000000 		.4byte	0x9e
 2254 0582 09       		.uleb128 0x9
 2255 0583 04       		.byte	0x4
 2256 0584 5E050000 		.4byte	0x55e
 2257 0588 13       		.uleb128 0x13
 2258 0589 28000000 		.4byte	0x28
 2259 058d A1050000 		.4byte	0x5a1
 2260 0591 0E       		.uleb128 0xe
 2261 0592 A5020000 		.4byte	0x2a5
 2262 0596 0E       		.uleb128 0xe
 2263 0597 1B050000 		.4byte	0x51b
 2264 059b 0E       		.uleb128 0xe
 2265 059c 28000000 		.4byte	0x28
 2266 05a0 00       		.byte	0
 2267 05a1 09       		.uleb128 0x9
 2268 05a2 04       		.byte	0x4
 2269 05a3 88050000 		.4byte	0x588
 2270 05a7 13       		.uleb128 0x13
 2271 05a8 13010000 		.4byte	0x113
 2272 05ac BB050000 		.4byte	0x5bb
 2273 05b0 0E       		.uleb128 0xe
 2274 05b1 A5020000 		.4byte	0x2a5
 2275 05b5 0E       		.uleb128 0xe
 2276 05b6 9E000000 		.4byte	0x9e
 2277 05ba 00       		.byte	0
 2278 05bb 09       		.uleb128 0x9
 2279 05bc 04       		.byte	0x4
 2280 05bd A7050000 		.4byte	0x5a7
 2281 05c1 08       		.uleb128 0x8
 2282 05c2 04       		.byte	0x4
 2283 05c3 0C       		.byte	0xc
 2284 05c4 51       		.byte	0x51
 2285 05c5 D6050000 		.4byte	0x5d6
ARM GAS  /home/pauba/tmp/cc8kkThj.s 			page 43


 2286 05c9 07       		.uleb128 0x7
 2287 05ca 766D7400 		.ascii	"vmt\000"
 2288 05ce 0C       		.byte	0xc
 2289 05cf 53       		.byte	0x53
 2290 05d0 D6050000 		.4byte	0x5d6
 2291 05d4 00       		.byte	0
 2292 05d5 00       		.byte	0
 2293 05d6 09       		.uleb128 0x9
 2294 05d7 04       		.byte	0x4
 2295 05d8 DC050000 		.4byte	0x5dc
 2296 05dc 12       		.uleb128 0x12
 2297 05dd 21050000 		.4byte	0x521
 2298 05e1 03       		.uleb128 0x3
 2299 05e2 CF010000 		.4byte	.LASF84
 2300 05e6 0C       		.byte	0xc
 2301 05e7 55       		.byte	0x55
 2302 05e8 C1050000 		.4byte	0x5c1
 2303 05ec 05       		.uleb128 0x5
 2304 05ed 68040000 		.4byte	.LASF85
 2305 05f1 10       		.byte	0x10
 2306 05f2 0D       		.byte	0xd
 2307 05f3 3B       		.byte	0x3b
 2308 05f4 29060000 		.4byte	0x629
 2309 05f8 06       		.uleb128 0x6
 2310 05f9 36020000 		.4byte	.LASF86
 2311 05fd 0D       		.byte	0xd
 2312 05fe 3C       		.byte	0x3c
 2313 05ff E8040000 		.4byte	0x4e8
 2314 0603 00       		.byte	0
 2315 0604 06       		.uleb128 0x6
 2316 0605 32030000 		.4byte	.LASF87
 2317 0609 0D       		.byte	0xd
 2318 060a 3D       		.byte	0x3d
 2319 060b 2A060000 		.4byte	0x62a
 2320 060f 04       		.byte	0x4
 2321 0610 06       		.uleb128 0x6
 2322 0611 95000000 		.4byte	.LASF88
 2323 0615 0D       		.byte	0xd
 2324 0616 3E       		.byte	0x3e
 2325 0617 2A060000 		.4byte	0x62a
 2326 061b 08       		.byte	0x8
 2327 061c 06       		.uleb128 0x6
 2328 061d 9B030000 		.4byte	.LASF89
 2329 0621 0D       		.byte	0xd
 2330 0622 3F       		.byte	0x3f
 2331 0623 2A060000 		.4byte	0x62a
 2332 0627 0C       		.byte	0xc
 2333 0628 00       		.byte	0
 2334 0629 14       		.uleb128 0x14
 2335 062a 09       		.uleb128 0x9
 2336 062b 04       		.byte	0x4
 2337 062c 29060000 		.4byte	0x629
 2338 0630 15       		.uleb128 0x15
 2339 0631 9006     		.2byte	0x690
 2340 0633 0D       		.byte	0xd
 2341 0634 44       		.byte	0x44
 2342 0635 75060000 		.4byte	0x675
ARM GAS  /home/pauba/tmp/cc8kkThj.s 			page 44


 2343 0639 07       		.uleb128 0x7
 2344 063a 543000   		.ascii	"T0\000"
 2345 063d 0D       		.byte	0xd
 2346 063e 45       		.byte	0x45
 2347 063f 75060000 		.4byte	0x675
 2348 0643 00       		.byte	0
 2349 0644 16       		.uleb128 0x16
 2350 0645 543100   		.ascii	"T1\000"
 2351 0648 0D       		.byte	0xd
 2352 0649 46       		.byte	0x46
 2353 064a 75060000 		.4byte	0x675
 2354 064e 5001     		.2byte	0x150
 2355 0650 16       		.uleb128 0x16
 2356 0651 543200   		.ascii	"T2\000"
 2357 0654 0D       		.byte	0xd
 2358 0655 47       		.byte	0x47
 2359 0656 75060000 		.4byte	0x675
 2360 065a A002     		.2byte	0x2a0
 2361 065c 16       		.uleb128 0x16
 2362 065d 543300   		.ascii	"T3\000"
 2363 0660 0D       		.byte	0xd
 2364 0661 48       		.byte	0x48
 2365 0662 75060000 		.4byte	0x675
 2366 0666 F003     		.2byte	0x3f0
 2367 0668 16       		.uleb128 0x16
 2368 0669 543400   		.ascii	"T4\000"
 2369 066c 0D       		.byte	0xd
 2370 066d 49       		.byte	0x49
 2371 066e 75060000 		.4byte	0x675
 2372 0672 4005     		.2byte	0x540
 2373 0674 00       		.byte	0
 2374 0675 17       		.uleb128 0x17
 2375 0676 A7020000 		.4byte	0x2a7
 2376 067a 85060000 		.4byte	0x685
 2377 067e 18       		.uleb128 0x18
 2378 067f 4F030000 		.4byte	0x34f
 2379 0683 29       		.byte	0x29
 2380 0684 00       		.byte	0
 2381 0685 19       		.uleb128 0x19
 2382 0686 EB050000 		.4byte	.LASF139
 2383 068a 9006     		.2byte	0x690
 2384 068c 0D       		.byte	0xd
 2385 068d 43       		.byte	0x43
 2386 068e A8060000 		.4byte	0x6a8
 2387 0692 1A       		.uleb128 0x1a
 2388 0693 776100   		.ascii	"wa\000"
 2389 0696 0D       		.byte	0xd
 2390 0697 4A       		.byte	0x4a
 2391 0698 30060000 		.4byte	0x630
 2392 069c 11       		.uleb128 0x11
 2393 069d 8D010000 		.4byte	.LASF90
 2394 06a1 0D       		.byte	0xd
 2395 06a2 4B       		.byte	0x4b
 2396 06a3 A8060000 		.4byte	0x6a8
 2397 06a7 00       		.byte	0
 2398 06a8 17       		.uleb128 0x17
 2399 06a9 9E000000 		.4byte	0x9e
ARM GAS  /home/pauba/tmp/cc8kkThj.s 			page 45


 2400 06ad B9060000 		.4byte	0x6b9
 2401 06b1 1B       		.uleb128 0x1b
 2402 06b2 4F030000 		.4byte	0x34f
 2403 06b6 8F06     		.2byte	0x68f
 2404 06b8 00       		.byte	0
 2405 06b9 1C       		.uleb128 0x1c
 2406 06ba 8D040000 		.4byte	.LASF91
 2407 06be 01       		.byte	0x1
 2408 06bf 5B       		.byte	0x5b
 2409 06c0 00000000 		.4byte	.LFB63
 2410 06c4 90000000 		.4byte	.LFE63-.LFB63
 2411 06c8 01       		.uleb128 0x1
 2412 06c9 9C       		.byte	0x9c
 2413 06ca F5060000 		.4byte	0x6f5
 2414 06ce 1D       		.uleb128 0x1d
 2415 06cf 6E00     		.ascii	"n\000"
 2416 06d1 01       		.byte	0x1
 2417 06d2 5B       		.byte	0x5b
 2418 06d3 B4000000 		.4byte	0xb4
 2419 06d7 02       		.uleb128 0x2
 2420 06d8 91       		.byte	0x91
 2421 06d9 5C       		.sleb128 -36
 2422 06da 1E       		.uleb128 0x1e
 2423 06db 62756600 		.ascii	"buf\000"
 2424 06df 01       		.byte	0x1
 2425 06e0 5C       		.byte	0x5c
 2426 06e1 F5060000 		.4byte	0x6f5
 2427 06e5 02       		.uleb128 0x2
 2428 06e6 91       		.byte	0x91
 2429 06e7 64       		.sleb128 -28
 2430 06e8 1E       		.uleb128 0x1e
 2431 06e9 7000     		.ascii	"p\000"
 2432 06eb 01       		.byte	0x1
 2433 06ec 5C       		.byte	0x5c
 2434 06ed 05070000 		.4byte	0x705
 2435 06f1 02       		.uleb128 0x2
 2436 06f2 91       		.byte	0x91
 2437 06f3 74       		.sleb128 -12
 2438 06f4 00       		.byte	0
 2439 06f5 17       		.uleb128 0x17
 2440 06f6 F3040000 		.4byte	0x4f3
 2441 06fa 05070000 		.4byte	0x705
 2442 06fe 18       		.uleb128 0x18
 2443 06ff 4F030000 		.4byte	0x34f
 2444 0703 0F       		.byte	0xf
 2445 0704 00       		.byte	0
 2446 0705 09       		.uleb128 0x9
 2447 0706 04       		.byte	0x4
 2448 0707 F3040000 		.4byte	0x4f3
 2449 070b 1C       		.uleb128 0x1c
 2450 070c B0020000 		.4byte	.LASF92
 2451 0710 01       		.byte	0x1
 2452 0711 6E       		.byte	0x6e
 2453 0712 00000000 		.4byte	.LFB64
 2454 0716 34000000 		.4byte	.LFE64-.LFB64
 2455 071a 01       		.uleb128 0x1
 2456 071b 9C       		.byte	0x9c
ARM GAS  /home/pauba/tmp/cc8kkThj.s 			page 46


 2457 071c 2F070000 		.4byte	0x72f
 2458 0720 1F       		.uleb128 0x1f
 2459 0721 A0020000 		.4byte	.LASF93
 2460 0725 01       		.byte	0x1
 2461 0726 6E       		.byte	0x6e
 2462 0727 E8040000 		.4byte	0x4e8
 2463 072b 02       		.uleb128 0x2
 2464 072c 91       		.byte	0x91
 2465 072d 74       		.sleb128 -12
 2466 072e 00       		.byte	0
 2467 072f 1C       		.uleb128 0x1c
 2468 0730 F9000000 		.4byte	.LASF94
 2469 0734 01       		.byte	0x1
 2470 0735 79       		.byte	0x79
 2471 0736 00000000 		.4byte	.LFB65
 2472 073a 30000000 		.4byte	.LFE65-.LFB65
 2473 073e 01       		.uleb128 0x1
 2474 073f 9C       		.byte	0x9c
 2475 0740 53070000 		.4byte	0x753
 2476 0744 1F       		.uleb128 0x1f
 2477 0745 A0020000 		.4byte	.LASF93
 2478 0749 01       		.byte	0x1
 2479 074a 79       		.byte	0x79
 2480 074b E8040000 		.4byte	0x4e8
 2481 074f 02       		.uleb128 0x2
 2482 0750 91       		.byte	0x91
 2483 0751 74       		.sleb128 -12
 2484 0752 00       		.byte	0
 2485 0753 20       		.uleb128 0x20
 2486 0754 35060000 		.4byte	.LASF140
 2487 0758 01       		.byte	0x1
 2488 0759 82       		.byte	0x82
 2489 075a 00000000 		.4byte	.LFB66
 2490 075e 10000000 		.4byte	.LFE66-.LFB66
 2491 0762 01       		.uleb128 0x1
 2492 0763 9C       		.byte	0x9c
 2493 0764 21       		.uleb128 0x21
 2494 0765 E4010000 		.4byte	.LASF109
 2495 0769 01       		.byte	0x1
 2496 076a 87       		.byte	0x87
 2497 076b 00000000 		.4byte	.LFB67
 2498 076f 40000000 		.4byte	.LFE67-.LFB67
 2499 0773 01       		.uleb128 0x1
 2500 0774 9C       		.byte	0x9c
 2501 0775 87070000 		.4byte	0x787
 2502 0779 1E       		.uleb128 0x1e
 2503 077a 637000   		.ascii	"cp\000"
 2504 077d 01       		.byte	0x1
 2505 077e 88       		.byte	0x88
 2506 077f 05070000 		.4byte	0x705
 2507 0783 02       		.uleb128 0x2
 2508 0784 91       		.byte	0x91
 2509 0785 74       		.sleb128 -12
 2510 0786 00       		.byte	0
 2511 0787 1C       		.uleb128 0x1c
 2512 0788 E9000000 		.4byte	.LASF95
 2513 078c 01       		.byte	0x1
ARM GAS  /home/pauba/tmp/cc8kkThj.s 			page 47


 2514 078d 93       		.byte	0x93
 2515 078e 00000000 		.4byte	.LFB68
 2516 0792 38000000 		.4byte	.LFE68-.LFB68
 2517 0796 01       		.uleb128 0x1
 2518 0797 9C       		.byte	0x9c
 2519 0798 DD070000 		.4byte	0x7dd
 2520 079c 1F       		.uleb128 0x1f
 2521 079d 86030000 		.4byte	.LASF96
 2522 07a1 01       		.byte	0x1
 2523 07a2 93       		.byte	0x93
 2524 07a3 F3040000 		.4byte	0x4f3
 2525 07a7 02       		.uleb128 0x2
 2526 07a8 91       		.byte	0x91
 2527 07a9 77       		.sleb128 -9
 2528 07aa 22       		.uleb128 0x22
 2529 07ab 0A000000 		.4byte	.LBB2
 2530 07af 06000000 		.4byte	.LBE2-.LBB2
 2531 07b3 C5070000 		.4byte	0x7c5
 2532 07b7 1E       		.uleb128 0x1e
 2533 07b8 746D7000 		.ascii	"tmp\000"
 2534 07bc 01       		.byte	0x1
 2535 07bd 95       		.byte	0x95
 2536 07be B4000000 		.4byte	0xb4
 2537 07c2 01       		.uleb128 0x1
 2538 07c3 53       		.byte	0x53
 2539 07c4 00       		.byte	0
 2540 07c5 23       		.uleb128 0x23
 2541 07c6 28000000 		.4byte	.LBB3
 2542 07ca 06000000 		.4byte	.LBE3-.LBB3
 2543 07ce 1E       		.uleb128 0x1e
 2544 07cf 746D7000 		.ascii	"tmp\000"
 2545 07d3 01       		.byte	0x1
 2546 07d4 97       		.byte	0x97
 2547 07d5 B4000000 		.4byte	0xb4
 2548 07d9 01       		.uleb128 0x1
 2549 07da 53       		.byte	0x53
 2550 07db 00       		.byte	0
 2551 07dc 00       		.byte	0
 2552 07dd 24       		.uleb128 0x24
 2553 07de 61020000 		.4byte	.LASF98
 2554 07e2 01       		.byte	0x1
 2555 07e3 9D       		.byte	0x9d
 2556 07e4 CA000000 		.4byte	0xca
 2557 07e8 00000000 		.4byte	.LFB69
 2558 07ec 2C000000 		.4byte	.LFE69-.LFB69
 2559 07f0 01       		.uleb128 0x1
 2560 07f1 9C       		.byte	0x9c
 2561 07f2 05080000 		.4byte	0x805
 2562 07f6 1F       		.uleb128 0x1f
 2563 07f7 11020000 		.4byte	.LASF97
 2564 07fb 01       		.byte	0x1
 2565 07fc 9D       		.byte	0x9d
 2566 07fd 33000000 		.4byte	0x33
 2567 0801 02       		.uleb128 0x2
 2568 0802 91       		.byte	0x91
 2569 0803 7C       		.sleb128 -4
 2570 0804 00       		.byte	0
ARM GAS  /home/pauba/tmp/cc8kkThj.s 			page 48


 2571 0805 25       		.uleb128 0x25
 2572 0806 49060000 		.4byte	.LASF99
 2573 080a 01       		.byte	0x1
 2574 080b A5       		.byte	0xa5
 2575 080c CA000000 		.4byte	0xca
 2576 0810 00000000 		.4byte	.LFB70
 2577 0814 2E000000 		.4byte	.LFE70-.LFB70
 2578 0818 01       		.uleb128 0x1
 2579 0819 9C       		.byte	0x9c
 2580 081a 3B080000 		.4byte	0x83b
 2581 081e 1F       		.uleb128 0x1f
 2582 081f 11020000 		.4byte	.LASF97
 2583 0823 01       		.byte	0x1
 2584 0824 A5       		.byte	0xa5
 2585 0825 33000000 		.4byte	0x33
 2586 0829 02       		.uleb128 0x2
 2587 082a 91       		.byte	0x91
 2588 082b 74       		.sleb128 -12
 2589 082c 1F       		.uleb128 0x1f
 2590 082d 69000000 		.4byte	.LASF100
 2591 0831 01       		.byte	0x1
 2592 0832 A5       		.byte	0xa5
 2593 0833 CA000000 		.4byte	0xca
 2594 0837 02       		.uleb128 0x2
 2595 0838 91       		.byte	0x91
 2596 0839 73       		.sleb128 -13
 2597 083a 00       		.byte	0
 2598 083b 25       		.uleb128 0x25
 2599 083c 38030000 		.4byte	.LASF101
 2600 0840 01       		.byte	0x1
 2601 0841 AC       		.byte	0xac
 2602 0842 CA000000 		.4byte	0xca
 2603 0846 00000000 		.4byte	.LFB71
 2604 084a 60000000 		.4byte	.LFE71-.LFB71
 2605 084e 01       		.uleb128 0x1
 2606 084f 9C       		.byte	0x9c
 2607 0850 7E080000 		.4byte	0x87e
 2608 0854 1F       		.uleb128 0x1f
 2609 0855 11020000 		.4byte	.LASF97
 2610 0859 01       		.byte	0x1
 2611 085a AC       		.byte	0xac
 2612 085b 33000000 		.4byte	0x33
 2613 085f 02       		.uleb128 0x2
 2614 0860 91       		.byte	0x91
 2615 0861 6C       		.sleb128 -20
 2616 0862 1F       		.uleb128 0x1f
 2617 0863 22020000 		.4byte	.LASF102
 2618 0867 01       		.byte	0x1
 2619 0868 AC       		.byte	0xac
 2620 0869 05070000 		.4byte	0x705
 2621 086d 02       		.uleb128 0x2
 2622 086e 91       		.byte	0x91
 2623 086f 68       		.sleb128 -24
 2624 0870 1E       		.uleb128 0x1e
 2625 0871 637000   		.ascii	"cp\000"
 2626 0874 01       		.byte	0x1
 2627 0875 AD       		.byte	0xad
ARM GAS  /home/pauba/tmp/cc8kkThj.s 			page 49


 2628 0876 05070000 		.4byte	0x705
 2629 087a 02       		.uleb128 0x2
 2630 087b 91       		.byte	0x91
 2631 087c 74       		.sleb128 -12
 2632 087d 00       		.byte	0
 2633 087e 25       		.uleb128 0x25
 2634 087f 51010000 		.4byte	.LASF103
 2635 0883 01       		.byte	0x1
 2636 0884 B8       		.byte	0xb8
 2637 0885 CA000000 		.4byte	0xca
 2638 0889 00000000 		.4byte	.LFB72
 2639 088d 38000000 		.4byte	.LFE72-.LFB72
 2640 0891 01       		.uleb128 0x1
 2641 0892 9C       		.byte	0x9c
 2642 0893 C2080000 		.4byte	0x8c2
 2643 0897 1F       		.uleb128 0x1f
 2644 0898 11020000 		.4byte	.LASF97
 2645 089c 01       		.byte	0x1
 2646 089d B8       		.byte	0xb8
 2647 089e 33000000 		.4byte	0x33
 2648 08a2 02       		.uleb128 0x2
 2649 08a3 91       		.byte	0x91
 2650 08a4 74       		.sleb128 -12
 2651 08a5 1F       		.uleb128 0x1f
 2652 08a6 67060000 		.4byte	.LASF104
 2653 08aa 01       		.byte	0x1
 2654 08ab B8       		.byte	0xb8
 2655 08ac 29010000 		.4byte	0x129
 2656 08b0 02       		.uleb128 0x2
 2657 08b1 91       		.byte	0x91
 2658 08b2 70       		.sleb128 -16
 2659 08b3 1D       		.uleb128 0x1d
 2660 08b4 656E6400 		.ascii	"end\000"
 2661 08b8 01       		.byte	0x1
 2662 08b9 B8       		.byte	0xb8
 2663 08ba 29010000 		.4byte	0x129
 2664 08be 02       		.uleb128 0x2
 2665 08bf 91       		.byte	0x91
 2666 08c0 6C       		.sleb128 -20
 2667 08c1 00       		.byte	0
 2668 08c2 1C       		.uleb128 0x1c
 2669 08c3 6A010000 		.4byte	.LASF105
 2670 08c7 01       		.byte	0x1
 2671 08c8 C4       		.byte	0xc4
 2672 08c9 00000000 		.4byte	.LFB73
 2673 08cd 3C000000 		.4byte	.LFE73-.LFB73
 2674 08d1 01       		.uleb128 0x1
 2675 08d2 9C       		.byte	0x9c
 2676 08d3 E4080000 		.4byte	0x8e4
 2677 08d7 1E       		.uleb128 0x1e
 2678 08d8 6900     		.ascii	"i\000"
 2679 08da 01       		.byte	0x1
 2680 08db C5       		.byte	0xc5
 2681 08dc 21000000 		.4byte	0x21
 2682 08e0 02       		.uleb128 0x2
 2683 08e1 91       		.byte	0x91
 2684 08e2 74       		.sleb128 -12
ARM GAS  /home/pauba/tmp/cc8kkThj.s 			page 50


 2685 08e3 00       		.byte	0
 2686 08e4 1C       		.uleb128 0x1c
 2687 08e5 07030000 		.4byte	.LASF106
 2688 08e9 01       		.byte	0x1
 2689 08ea CF       		.byte	0xcf
 2690 08eb 00000000 		.4byte	.LFB74
 2691 08ef 44000000 		.4byte	.LFE74-.LFB74
 2692 08f3 01       		.uleb128 0x1
 2693 08f4 9C       		.byte	0x9c
 2694 08f5 06090000 		.4byte	0x906
 2695 08f9 1E       		.uleb128 0x1e
 2696 08fa 6900     		.ascii	"i\000"
 2697 08fc 01       		.byte	0x1
 2698 08fd D0       		.byte	0xd0
 2699 08fe 21000000 		.4byte	0x21
 2700 0902 02       		.uleb128 0x2
 2701 0903 91       		.byte	0x91
 2702 0904 74       		.sleb128 -12
 2703 0905 00       		.byte	0
 2704 0906 26       		.uleb128 0x26
 2705 0907 00000000 		.4byte	.LASF107
 2706 090b 01       		.byte	0x1
 2707 090c E0       		.byte	0xe0
 2708 090d 00000000 		.4byte	.LFB75
 2709 0911 84000000 		.4byte	.LFE75-.LFB75
 2710 0915 01       		.uleb128 0x1
 2711 0916 9C       		.byte	0x9c
 2712 0917 54090000 		.4byte	0x954
 2713 091b 1F       		.uleb128 0x1f
 2714 091c C6010000 		.4byte	.LASF108
 2715 0920 01       		.byte	0x1
 2716 0921 E0       		.byte	0xe0
 2717 0922 33000000 		.4byte	0x33
 2718 0926 02       		.uleb128 0x2
 2719 0927 91       		.byte	0x91
 2720 0928 6C       		.sleb128 -20
 2721 0929 27       		.uleb128 0x27
 2722 092a 67060000 		.4byte	.LASF104
 2723 092e 01       		.byte	0x1
 2724 092f E1       		.byte	0xe1
 2725 0930 29010000 		.4byte	0x129
 2726 0934 02       		.uleb128 0x2
 2727 0935 91       		.byte	0x91
 2728 0936 7C       		.sleb128 -4
 2729 0937 1E       		.uleb128 0x1e
 2730 0938 656E6400 		.ascii	"end\000"
 2731 093c 01       		.byte	0x1
 2732 093d E1       		.byte	0xe1
 2733 093e 29010000 		.4byte	0x129
 2734 0942 02       		.uleb128 0x2
 2735 0943 91       		.byte	0x91
 2736 0944 78       		.sleb128 -8
 2737 0945 1E       		.uleb128 0x1e
 2738 0946 6E6F7700 		.ascii	"now\000"
 2739 094a 01       		.byte	0x1
 2740 094b E1       		.byte	0xe1
 2741 094c 29010000 		.4byte	0x129
ARM GAS  /home/pauba/tmp/cc8kkThj.s 			page 51


 2742 0950 02       		.uleb128 0x2
 2743 0951 91       		.byte	0x91
 2744 0952 74       		.sleb128 -12
 2745 0953 00       		.byte	0
 2746 0954 28       		.uleb128 0x28
 2747 0955 D2030000 		.4byte	.LASF141
 2748 0959 01       		.byte	0x1
 2749 095a F5       		.byte	0xf5
 2750 095b 29010000 		.4byte	0x129
 2751 095f 00000000 		.4byte	.LFB76
 2752 0963 14000000 		.4byte	.LFE76-.LFB76
 2753 0967 01       		.uleb128 0x1
 2754 0968 9C       		.byte	0x9c
 2755 0969 29       		.uleb128 0x29
 2756 096a 746D7200 		.ascii	"tmr\000"
 2757 096e 01       		.byte	0x1
 2758 096f 0501     		.2byte	0x105
 2759 0971 00000000 		.4byte	.LFB77
 2760 0975 14000000 		.4byte	.LFE77-.LFB77
 2761 0979 01       		.uleb128 0x1
 2762 097a 9C       		.byte	0x9c
 2763 097b 8D090000 		.4byte	0x98d
 2764 097f 2A       		.uleb128 0x2a
 2765 0980 7000     		.ascii	"p\000"
 2766 0982 01       		.byte	0x1
 2767 0983 0501     		.2byte	0x105
 2768 0985 A5020000 		.4byte	0x2a5
 2769 0989 02       		.uleb128 0x2
 2770 098a 91       		.byte	0x91
 2771 098b 7C       		.sleb128 -4
 2772 098c 00       		.byte	0
 2773 098d 2B       		.uleb128 0x2b
 2774 098e 9C010000 		.4byte	.LASF110
 2775 0992 01       		.byte	0x1
 2776 0993 1001     		.2byte	0x110
 2777 0995 00000000 		.4byte	.LFB78
 2778 0999 5C000000 		.4byte	.LFE78-.LFB78
 2779 099d 01       		.uleb128 0x1
 2780 099e 9C       		.byte	0x9c
 2781 099f F5090000 		.4byte	0x9f5
 2782 09a3 2A       		.uleb128 0x2a
 2783 09a4 6D7300   		.ascii	"ms\000"
 2784 09a7 01       		.byte	0x1
 2785 09a8 1001     		.2byte	0x110
 2786 09aa 33000000 		.4byte	0x33
 2787 09ae 02       		.uleb128 0x2
 2788 09af 91       		.byte	0x91
 2789 09b0 6C       		.sleb128 -20
 2790 09b1 2C       		.uleb128 0x2c
 2791 09b2 C6010000 		.4byte	.LASF108
 2792 09b6 01       		.byte	0x1
 2793 09b7 1201     		.2byte	0x112
 2794 09b9 29010000 		.4byte	0x129
 2795 09bd 02       		.uleb128 0x2
 2796 09be 91       		.byte	0x91
 2797 09bf 74       		.sleb128 -12
 2798 09c0 22       		.uleb128 0x22
ARM GAS  /home/pauba/tmp/cc8kkThj.s 			page 52


 2799 09c1 24000000 		.4byte	.LBB4
 2800 09c5 06000000 		.4byte	.LBE4-.LBB4
 2801 09c9 DC090000 		.4byte	0x9dc
 2802 09cd 2D       		.uleb128 0x2d
 2803 09ce 746D7000 		.ascii	"tmp\000"
 2804 09d2 01       		.byte	0x1
 2805 09d3 1401     		.2byte	0x114
 2806 09d5 B4000000 		.4byte	0xb4
 2807 09d9 01       		.uleb128 0x1
 2808 09da 53       		.byte	0x53
 2809 09db 00       		.byte	0
 2810 09dc 23       		.uleb128 0x23
 2811 09dd 3E000000 		.4byte	.LBB5
 2812 09e1 06000000 		.4byte	.LBE5-.LBB5
 2813 09e5 2D       		.uleb128 0x2d
 2814 09e6 746D7000 		.ascii	"tmp\000"
 2815 09ea 01       		.byte	0x1
 2816 09eb 1401     		.2byte	0x114
 2817 09ed B4000000 		.4byte	0xb4
 2818 09f1 01       		.uleb128 0x1
 2819 09f2 53       		.byte	0x53
 2820 09f3 00       		.byte	0
 2821 09f4 00       		.byte	0
 2822 09f5 2E       		.uleb128 0x2e
 2823 09f6 10060000 		.4byte	.LASF111
 2824 09fa 01       		.byte	0x1
 2825 09fb 1A01     		.2byte	0x11a
 2826 09fd 00000000 		.4byte	.LFB79
 2827 0a01 60000000 		.4byte	.LFE79-.LFB79
 2828 0a05 01       		.uleb128 0x1
 2829 0a06 9C       		.byte	0x9c
 2830 0a07 280A0000 		.4byte	0xa28
 2831 0a0b 2A       		.uleb128 0x2a
 2832 0a0c 74637000 		.ascii	"tcp\000"
 2833 0a10 01       		.byte	0x1
 2834 0a11 1A01     		.2byte	0x11a
 2835 0a13 280A0000 		.4byte	0xa28
 2836 0a17 02       		.uleb128 0x2
 2837 0a18 91       		.byte	0x91
 2838 0a19 6C       		.sleb128 -20
 2839 0a1a 2D       		.uleb128 0x2d
 2840 0a1b 6900     		.ascii	"i\000"
 2841 0a1d 01       		.byte	0x1
 2842 0a1e 1B01     		.2byte	0x11b
 2843 0a20 21000000 		.4byte	0x21
 2844 0a24 02       		.uleb128 0x2
 2845 0a25 91       		.byte	0x91
 2846 0a26 74       		.sleb128 -12
 2847 0a27 00       		.byte	0
 2848 0a28 09       		.uleb128 0x9
 2849 0a29 04       		.byte	0x4
 2850 0a2a 2E0A0000 		.4byte	0xa2e
 2851 0a2e 12       		.uleb128 0x12
 2852 0a2f EC050000 		.4byte	0x5ec
 2853 0a33 2E       		.uleb128 0x2e
 2854 0a34 FC020000 		.4byte	.LASF112
 2855 0a38 01       		.byte	0x1
ARM GAS  /home/pauba/tmp/cc8kkThj.s 			page 53


 2856 0a39 2C01     		.2byte	0x12c
 2857 0a3b 00000000 		.4byte	.LFB80
 2858 0a3f 4C000000 		.4byte	.LFE80-.LFB80
 2859 0a43 01       		.uleb128 0x1
 2860 0a44 9C       		.byte	0x9c
 2861 0a45 570A0000 		.4byte	0xa57
 2862 0a49 2D       		.uleb128 0x2d
 2863 0a4a 6900     		.ascii	"i\000"
 2864 0a4c 01       		.byte	0x1
 2865 0a4d 2D01     		.2byte	0x12d
 2866 0a4f 33000000 		.4byte	0x33
 2867 0a53 02       		.uleb128 0x2
 2868 0a54 91       		.byte	0x91
 2869 0a55 74       		.sleb128 -12
 2870 0a56 00       		.byte	0
 2871 0a57 2F       		.uleb128 0x2f
 2872 0a58 C7030000 		.4byte	.LASF113
 2873 0a5c 01       		.byte	0x1
 2874 0a5d 3A01     		.2byte	0x13a
 2875 0a5f 13010000 		.4byte	0x113
 2876 0a63 00000000 		.4byte	.LFB81
 2877 0a67 14020000 		.4byte	.LFE81-.LFB81
 2878 0a6b 01       		.uleb128 0x1
 2879 0a6c 9C       		.byte	0x9c
 2880 0a6d 990A0000 		.4byte	0xa99
 2881 0a71 2A       		.uleb128 0x2a
 2882 0a72 7000     		.ascii	"p\000"
 2883 0a74 01       		.byte	0x1
 2884 0a75 3A01     		.2byte	0x13a
 2885 0a77 A5020000 		.4byte	0x2a5
 2886 0a7b 02       		.uleb128 0x2
 2887 0a7c 91       		.byte	0x91
 2888 0a7d 6C       		.sleb128 -20
 2889 0a7e 2D       		.uleb128 0x2d
 2890 0a7f 6900     		.ascii	"i\000"
 2891 0a81 01       		.byte	0x1
 2892 0a82 3B01     		.2byte	0x13b
 2893 0a84 21000000 		.4byte	0x21
 2894 0a88 02       		.uleb128 0x2
 2895 0a89 91       		.byte	0x91
 2896 0a8a 74       		.sleb128 -12
 2897 0a8b 2D       		.uleb128 0x2d
 2898 0a8c 6A00     		.ascii	"j\000"
 2899 0a8e 01       		.byte	0x1
 2900 0a8f 3B01     		.2byte	0x13b
 2901 0a91 21000000 		.4byte	0x21
 2902 0a95 02       		.uleb128 0x2
 2903 0a96 91       		.byte	0x91
 2904 0a97 70       		.sleb128 -16
 2905 0a98 00       		.byte	0
 2906 0a99 17       		.uleb128 0x17
 2907 0a9a A90A0000 		.4byte	0xaa9
 2908 0a9e A90A0000 		.4byte	0xaa9
 2909 0aa2 18       		.uleb128 0x18
 2910 0aa3 4F030000 		.4byte	0x34f
 2911 0aa7 0B       		.byte	0xb
 2912 0aa8 00       		.byte	0
ARM GAS  /home/pauba/tmp/cc8kkThj.s 			page 54


 2913 0aa9 09       		.uleb128 0x9
 2914 0aaa 04       		.byte	0x4
 2915 0aab AF0A0000 		.4byte	0xaaf
 2916 0aaf 12       		.uleb128 0x12
 2917 0ab0 280A0000 		.4byte	0xa28
 2918 0ab4 27       		.uleb128 0x27
 2919 0ab5 86050000 		.4byte	.LASF114
 2920 0ab9 01       		.byte	0x1
 2921 0aba 2C       		.byte	0x2c
 2922 0abb 990A0000 		.4byte	0xa99
 2923 0abf 05       		.uleb128 0x5
 2924 0ac0 03       		.byte	0x3
 2925 0ac1 00000000 		.4byte	patterns
 2926 0ac5 27       		.uleb128 0x27
 2927 0ac6 6B030000 		.4byte	.LASF115
 2928 0aca 01       		.byte	0x1
 2929 0acb 3B       		.byte	0x3b
 2930 0acc CA000000 		.4byte	0xca
 2931 0ad0 05       		.uleb128 0x5
 2932 0ad1 03       		.byte	0x3
 2933 0ad2 00000000 		.4byte	local_fail
 2934 0ad6 27       		.uleb128 0x27
 2935 0ad7 3C010000 		.4byte	.LASF116
 2936 0adb 01       		.byte	0x1
 2937 0adc 3B       		.byte	0x3b
 2938 0add CA000000 		.4byte	0xca
 2939 0ae1 05       		.uleb128 0x5
 2940 0ae2 03       		.byte	0x3
 2941 0ae3 00000000 		.4byte	global_fail
 2942 0ae7 27       		.uleb128 0x27
 2943 0ae8 2B060000 		.4byte	.LASF117
 2944 0aec 01       		.byte	0x1
 2945 0aed 3C       		.byte	0x3c
 2946 0aee 33000000 		.4byte	0x33
 2947 0af2 05       		.uleb128 0x5
 2948 0af3 03       		.byte	0x3
 2949 0af4 00000000 		.4byte	failpoint
 2950 0af8 27       		.uleb128 0x27
 2951 0af9 AA000000 		.4byte	.LASF118
 2952 0afd 01       		.byte	0x1
 2953 0afe 3D       		.byte	0x3d
 2954 0aff F5060000 		.4byte	0x6f5
 2955 0b03 05       		.uleb128 0x5
 2956 0b04 03       		.byte	0x3
 2957 0b05 00000000 		.4byte	tokens_buffer
 2958 0b09 27       		.uleb128 0x27
 2959 0b0a 88010000 		.4byte	.LASF119
 2960 0b0e 01       		.byte	0x1
 2961 0b0f 3E       		.byte	0x3e
 2962 0b10 05070000 		.4byte	0x705
 2963 0b14 05       		.uleb128 0x5
 2964 0b15 03       		.byte	0x3
 2965 0b16 00000000 		.4byte	tokp
 2966 0b1a 1E       		.uleb128 0x1e
 2967 0b1b 63687000 		.ascii	"chp\000"
 2968 0b1f 01       		.byte	0x1
 2969 0b20 54       		.byte	0x54
ARM GAS  /home/pauba/tmp/cc8kkThj.s 			page 55


 2970 0b21 2B0B0000 		.4byte	0xb2b
 2971 0b25 05       		.uleb128 0x5
 2972 0b26 03       		.byte	0x3
 2973 0b27 00000000 		.4byte	chp
 2974 0b2b 09       		.uleb128 0x9
 2975 0b2c 04       		.byte	0x4
 2976 0b2d E1050000 		.4byte	0x5e1
 2977 0b31 2D       		.uleb128 0x2d
 2978 0b32 767400   		.ascii	"vt\000"
 2979 0b35 01       		.byte	0x1
 2980 0b36 0401     		.2byte	0x104
 2981 0b38 72030000 		.4byte	0x372
 2982 0b3c 05       		.uleb128 0x5
 2983 0b3d 03       		.byte	0x3
 2984 0b3e 00000000 		.4byte	vt
 2985 0b42 30       		.uleb128 0x30
 2986 0b43 30000000 		.4byte	.LASF120
 2987 0b47 09       		.byte	0x9
 2988 0b48 F5       		.byte	0xf5
 2989 0b49 0A040000 		.4byte	0x40a
 2990 0b4d 30       		.uleb128 0x30
 2991 0b4e 1D060000 		.4byte	.LASF121
 2992 0b52 0A       		.byte	0xa
 2993 0b53 6F       		.byte	0x6f
 2994 0b54 66040000 		.4byte	0x466
 2995 0b58 31       		.uleb128 0x31
 2996 0b59 81000000 		.4byte	.LASF122
 2997 0b5d 0E       		.byte	0xe
 2998 0b5e 0706     		.2byte	0x607
 2999 0b60 640B0000 		.4byte	0xb64
 3000 0b64 0F       		.uleb128 0xf
 3001 0b65 A9000000 		.4byte	0xa9
 3002 0b69 17       		.uleb128 0x17
 3003 0b6a 69020000 		.4byte	0x269
 3004 0b6e 790B0000 		.4byte	0xb79
 3005 0b72 18       		.uleb128 0x18
 3006 0b73 4F030000 		.4byte	0x34f
 3007 0b77 04       		.byte	0x4
 3008 0b78 00       		.byte	0
 3009 0b79 32       		.uleb128 0x32
 3010 0b7a 08040000 		.4byte	.LASF123
 3011 0b7e 01       		.byte	0x1
 3012 0b7f 49       		.byte	0x49
 3013 0b80 690B0000 		.4byte	0xb69
 3014 0b84 05       		.uleb128 0x5
 3015 0b85 03       		.byte	0x3
 3016 0b86 00000000 		.4byte	threads
 3017 0b8a 32       		.uleb128 0x32
 3018 0b8b 7C000000 		.4byte	.LASF124
 3019 0b8f 01       		.byte	0x1
 3020 0b90 44       		.byte	0x44
 3021 0b91 85060000 		.4byte	0x685
 3022 0b95 05       		.uleb128 0x5
 3023 0b96 03       		.byte	0x3
 3024 0b97 00000000 		.4byte	test
 3025 0b9b 17       		.uleb128 0x17
 3026 0b9c A5020000 		.4byte	0x2a5
ARM GAS  /home/pauba/tmp/cc8kkThj.s 			page 56


 3027 0ba0 AB0B0000 		.4byte	0xbab
 3028 0ba4 18       		.uleb128 0x18
 3029 0ba5 4F030000 		.4byte	0x34f
 3030 0ba9 04       		.byte	0x4
 3031 0baa 00       		.byte	0
 3032 0bab 33       		.uleb128 0x33
 3033 0bac 776100   		.ascii	"wa\000"
 3034 0baf 01       		.byte	0x1
 3035 0bb0 4E       		.byte	0x4e
 3036 0bb1 BB0B0000 		.4byte	0xbbb
 3037 0bb5 05       		.uleb128 0x5
 3038 0bb6 03       		.byte	0x3
 3039 0bb7 00000000 		.4byte	wa
 3040 0bbb 12       		.uleb128 0x12
 3041 0bbc 9B0B0000 		.4byte	0xb9b
 3042 0bc0 34       		.uleb128 0x34
 3043 0bc1 18040000 		.4byte	.LASF125
 3044 0bc5 01       		.byte	0x1
 3045 0bc6 0201     		.2byte	0x102
 3046 0bc8 CA000000 		.4byte	0xca
 3047 0bcc 05       		.uleb128 0x5
 3048 0bcd 03       		.byte	0x3
 3049 0bce 00000000 		.4byte	test_timer_done
 3050 0bd2 17       		.uleb128 0x17
 3051 0bd3 280A0000 		.4byte	0xa28
 3052 0bd7 DD0B0000 		.4byte	0xbdd
 3053 0bdb 35       		.uleb128 0x35
 3054 0bdc 00       		.byte	0
 3055 0bdd 30       		.uleb128 0x30
 3056 0bde 8F050000 		.4byte	.LASF126
 3057 0be2 0F       		.byte	0xf
 3058 0be3 14       		.byte	0x14
 3059 0be4 E80B0000 		.4byte	0xbe8
 3060 0be8 12       		.uleb128 0x12
 3061 0be9 D20B0000 		.4byte	0xbd2
 3062 0bed 30       		.uleb128 0x30
 3063 0bee 60030000 		.4byte	.LASF127
 3064 0bf2 10       		.byte	0x10
 3065 0bf3 14       		.byte	0x14
 3066 0bf4 F80B0000 		.4byte	0xbf8
 3067 0bf8 12       		.uleb128 0x12
 3068 0bf9 D20B0000 		.4byte	0xbd2
 3069 0bfd 30       		.uleb128 0x30
 3070 0bfe E1030000 		.4byte	.LASF128
 3071 0c02 11       		.byte	0x11
 3072 0c03 14       		.byte	0x14
 3073 0c04 080C0000 		.4byte	0xc08
 3074 0c08 12       		.uleb128 0x12
 3075 0c09 D20B0000 		.4byte	0xbd2
 3076 0c0d 30       		.uleb128 0x30
 3077 0c0e DA020000 		.4byte	.LASF129
 3078 0c12 12       		.byte	0x12
 3079 0c13 14       		.byte	0x14
 3080 0c14 180C0000 		.4byte	0xc18
 3081 0c18 12       		.uleb128 0x12
 3082 0c19 D20B0000 		.4byte	0xbd2
 3083 0c1d 30       		.uleb128 0x30
ARM GAS  /home/pauba/tmp/cc8kkThj.s 			page 57


 3084 0c1e 7C060000 		.4byte	.LASF130
 3085 0c22 13       		.byte	0x13
 3086 0c23 14       		.byte	0x14
 3087 0c24 280C0000 		.4byte	0xc28
 3088 0c28 12       		.uleb128 0x12
 3089 0c29 D20B0000 		.4byte	0xbd2
 3090 0c2d 30       		.uleb128 0x30
 3091 0c2e 2B020000 		.4byte	.LASF131
 3092 0c32 14       		.byte	0x14
 3093 0c33 14       		.byte	0x14
 3094 0c34 380C0000 		.4byte	0xc38
 3095 0c38 12       		.uleb128 0x12
 3096 0c39 D20B0000 		.4byte	0xbd2
 3097 0c3d 30       		.uleb128 0x30
 3098 0c3e 9E000000 		.4byte	.LASF132
 3099 0c42 15       		.byte	0x15
 3100 0c43 14       		.byte	0x14
 3101 0c44 480C0000 		.4byte	0xc48
 3102 0c48 12       		.uleb128 0x12
 3103 0c49 D20B0000 		.4byte	0xbd2
 3104 0c4d 30       		.uleb128 0x30
 3105 0c4e 45000000 		.4byte	.LASF133
 3106 0c52 16       		.byte	0x16
 3107 0c53 14       		.byte	0x14
 3108 0c54 580C0000 		.4byte	0xc58
 3109 0c58 12       		.uleb128 0x12
 3110 0c59 D20B0000 		.4byte	0xbd2
 3111 0c5d 30       		.uleb128 0x30
 3112 0c5e CA050000 		.4byte	.LASF134
 3113 0c62 17       		.byte	0x17
 3114 0c63 14       		.byte	0x14
 3115 0c64 680C0000 		.4byte	0xc68
 3116 0c68 12       		.uleb128 0x12
 3117 0c69 D20B0000 		.4byte	0xbd2
 3118 0c6d 30       		.uleb128 0x30
 3119 0c6e 37000000 		.4byte	.LASF135
 3120 0c72 18       		.byte	0x18
 3121 0c73 14       		.byte	0x14
 3122 0c74 780C0000 		.4byte	0xc78
 3123 0c78 12       		.uleb128 0x12
 3124 0c79 D20B0000 		.4byte	0xbd2
 3125 0c7d 30       		.uleb128 0x30
 3126 0c7e 56040000 		.4byte	.LASF136
 3127 0c82 19       		.byte	0x19
 3128 0c83 14       		.byte	0x14
 3129 0c84 880C0000 		.4byte	0xc88
 3130 0c88 12       		.uleb128 0x12
 3131 0c89 D20B0000 		.4byte	0xbd2
 3132 0c8d 00       		.byte	0
 3133              		.section	.debug_abbrev,"",%progbits
 3134              	.Ldebug_abbrev0:
 3135 0000 01       		.uleb128 0x1
 3136 0001 11       		.uleb128 0x11
 3137 0002 01       		.byte	0x1
 3138 0003 25       		.uleb128 0x25
 3139 0004 0E       		.uleb128 0xe
 3140 0005 13       		.uleb128 0x13
ARM GAS  /home/pauba/tmp/cc8kkThj.s 			page 58


 3141 0006 0B       		.uleb128 0xb
 3142 0007 03       		.uleb128 0x3
 3143 0008 0E       		.uleb128 0xe
 3144 0009 55       		.uleb128 0x55
 3145 000a 17       		.uleb128 0x17
 3146 000b 11       		.uleb128 0x11
 3147 000c 01       		.uleb128 0x1
 3148 000d 10       		.uleb128 0x10
 3149 000e 17       		.uleb128 0x17
 3150 000f 00       		.byte	0
 3151 0010 00       		.byte	0
 3152 0011 02       		.uleb128 0x2
 3153 0012 24       		.uleb128 0x24
 3154 0013 00       		.byte	0
 3155 0014 0B       		.uleb128 0xb
 3156 0015 0B       		.uleb128 0xb
 3157 0016 3E       		.uleb128 0x3e
 3158 0017 0B       		.uleb128 0xb
 3159 0018 03       		.uleb128 0x3
 3160 0019 08       		.uleb128 0x8
 3161 001a 00       		.byte	0
 3162 001b 00       		.byte	0
 3163 001c 03       		.uleb128 0x3
 3164 001d 16       		.uleb128 0x16
 3165 001e 00       		.byte	0
 3166 001f 03       		.uleb128 0x3
 3167 0020 0E       		.uleb128 0xe
 3168 0021 3A       		.uleb128 0x3a
 3169 0022 0B       		.uleb128 0xb
 3170 0023 3B       		.uleb128 0x3b
 3171 0024 0B       		.uleb128 0xb
 3172 0025 49       		.uleb128 0x49
 3173 0026 13       		.uleb128 0x13
 3174 0027 00       		.byte	0
 3175 0028 00       		.byte	0
 3176 0029 04       		.uleb128 0x4
 3177 002a 24       		.uleb128 0x24
 3178 002b 00       		.byte	0
 3179 002c 0B       		.uleb128 0xb
 3180 002d 0B       		.uleb128 0xb
 3181 002e 3E       		.uleb128 0x3e
 3182 002f 0B       		.uleb128 0xb
 3183 0030 03       		.uleb128 0x3
 3184 0031 0E       		.uleb128 0xe
 3185 0032 00       		.byte	0
 3186 0033 00       		.byte	0
 3187 0034 05       		.uleb128 0x5
 3188 0035 13       		.uleb128 0x13
 3189 0036 01       		.byte	0x1
 3190 0037 03       		.uleb128 0x3
 3191 0038 0E       		.uleb128 0xe
 3192 0039 0B       		.uleb128 0xb
 3193 003a 0B       		.uleb128 0xb
 3194 003b 3A       		.uleb128 0x3a
 3195 003c 0B       		.uleb128 0xb
 3196 003d 3B       		.uleb128 0x3b
 3197 003e 0B       		.uleb128 0xb
ARM GAS  /home/pauba/tmp/cc8kkThj.s 			page 59


 3198 003f 01       		.uleb128 0x1
 3199 0040 13       		.uleb128 0x13
 3200 0041 00       		.byte	0
 3201 0042 00       		.byte	0
 3202 0043 06       		.uleb128 0x6
 3203 0044 0D       		.uleb128 0xd
 3204 0045 00       		.byte	0
 3205 0046 03       		.uleb128 0x3
 3206 0047 0E       		.uleb128 0xe
 3207 0048 3A       		.uleb128 0x3a
 3208 0049 0B       		.uleb128 0xb
 3209 004a 3B       		.uleb128 0x3b
 3210 004b 0B       		.uleb128 0xb
 3211 004c 49       		.uleb128 0x49
 3212 004d 13       		.uleb128 0x13
 3213 004e 38       		.uleb128 0x38
 3214 004f 0B       		.uleb128 0xb
 3215 0050 00       		.byte	0
 3216 0051 00       		.byte	0
 3217 0052 07       		.uleb128 0x7
 3218 0053 0D       		.uleb128 0xd
 3219 0054 00       		.byte	0
 3220 0055 03       		.uleb128 0x3
 3221 0056 08       		.uleb128 0x8
 3222 0057 3A       		.uleb128 0x3a
 3223 0058 0B       		.uleb128 0xb
 3224 0059 3B       		.uleb128 0x3b
 3225 005a 0B       		.uleb128 0xb
 3226 005b 49       		.uleb128 0x49
 3227 005c 13       		.uleb128 0x13
 3228 005d 38       		.uleb128 0x38
 3229 005e 0B       		.uleb128 0xb
 3230 005f 00       		.byte	0
 3231 0060 00       		.byte	0
 3232 0061 08       		.uleb128 0x8
 3233 0062 13       		.uleb128 0x13
 3234 0063 01       		.byte	0x1
 3235 0064 0B       		.uleb128 0xb
 3236 0065 0B       		.uleb128 0xb
 3237 0066 3A       		.uleb128 0x3a
 3238 0067 0B       		.uleb128 0xb
 3239 0068 3B       		.uleb128 0x3b
 3240 0069 0B       		.uleb128 0xb
 3241 006a 01       		.uleb128 0x1
 3242 006b 13       		.uleb128 0x13
 3243 006c 00       		.byte	0
 3244 006d 00       		.byte	0
 3245 006e 09       		.uleb128 0x9
 3246 006f 0F       		.uleb128 0xf
 3247 0070 00       		.byte	0
 3248 0071 0B       		.uleb128 0xb
 3249 0072 0B       		.uleb128 0xb
 3250 0073 49       		.uleb128 0x49
 3251 0074 13       		.uleb128 0x13
 3252 0075 00       		.byte	0
 3253 0076 00       		.byte	0
 3254 0077 0A       		.uleb128 0xa
ARM GAS  /home/pauba/tmp/cc8kkThj.s 			page 60


 3255 0078 0F       		.uleb128 0xf
 3256 0079 00       		.byte	0
 3257 007a 0B       		.uleb128 0xb
 3258 007b 0B       		.uleb128 0xb
 3259 007c 00       		.byte	0
 3260 007d 00       		.byte	0
 3261 007e 0B       		.uleb128 0xb
 3262 007f 13       		.uleb128 0x13
 3263 0080 01       		.byte	0x1
 3264 0081 03       		.uleb128 0x3
 3265 0082 0E       		.uleb128 0xe
 3266 0083 0B       		.uleb128 0xb
 3267 0084 0B       		.uleb128 0xb
 3268 0085 3A       		.uleb128 0x3a
 3269 0086 0B       		.uleb128 0xb
 3270 0087 3B       		.uleb128 0x3b
 3271 0088 05       		.uleb128 0x5
 3272 0089 01       		.uleb128 0x1
 3273 008a 13       		.uleb128 0x13
 3274 008b 00       		.byte	0
 3275 008c 00       		.byte	0
 3276 008d 0C       		.uleb128 0xc
 3277 008e 0D       		.uleb128 0xd
 3278 008f 00       		.byte	0
 3279 0090 03       		.uleb128 0x3
 3280 0091 08       		.uleb128 0x8
 3281 0092 3A       		.uleb128 0x3a
 3282 0093 0B       		.uleb128 0xb
 3283 0094 3B       		.uleb128 0x3b
 3284 0095 05       		.uleb128 0x5
 3285 0096 49       		.uleb128 0x49
 3286 0097 13       		.uleb128 0x13
 3287 0098 38       		.uleb128 0x38
 3288 0099 0B       		.uleb128 0xb
 3289 009a 00       		.byte	0
 3290 009b 00       		.byte	0
 3291 009c 0D       		.uleb128 0xd
 3292 009d 15       		.uleb128 0x15
 3293 009e 01       		.byte	0x1
 3294 009f 27       		.uleb128 0x27
 3295 00a0 19       		.uleb128 0x19
 3296 00a1 01       		.uleb128 0x1
 3297 00a2 13       		.uleb128 0x13
 3298 00a3 00       		.byte	0
 3299 00a4 00       		.byte	0
 3300 00a5 0E       		.uleb128 0xe
 3301 00a6 05       		.uleb128 0x5
 3302 00a7 00       		.byte	0
 3303 00a8 49       		.uleb128 0x49
 3304 00a9 13       		.uleb128 0x13
 3305 00aa 00       		.byte	0
 3306 00ab 00       		.byte	0
 3307 00ac 0F       		.uleb128 0xf
 3308 00ad 35       		.uleb128 0x35
 3309 00ae 00       		.byte	0
 3310 00af 49       		.uleb128 0x49
 3311 00b0 13       		.uleb128 0x13
ARM GAS  /home/pauba/tmp/cc8kkThj.s 			page 61


 3312 00b1 00       		.byte	0
 3313 00b2 00       		.byte	0
 3314 00b3 10       		.uleb128 0x10
 3315 00b4 17       		.uleb128 0x17
 3316 00b5 01       		.byte	0x1
 3317 00b6 0B       		.uleb128 0xb
 3318 00b7 0B       		.uleb128 0xb
 3319 00b8 3A       		.uleb128 0x3a
 3320 00b9 0B       		.uleb128 0xb
 3321 00ba 3B       		.uleb128 0x3b
 3322 00bb 0B       		.uleb128 0xb
 3323 00bc 01       		.uleb128 0x1
 3324 00bd 13       		.uleb128 0x13
 3325 00be 00       		.byte	0
 3326 00bf 00       		.byte	0
 3327 00c0 11       		.uleb128 0x11
 3328 00c1 0D       		.uleb128 0xd
 3329 00c2 00       		.byte	0
 3330 00c3 03       		.uleb128 0x3
 3331 00c4 0E       		.uleb128 0xe
 3332 00c5 3A       		.uleb128 0x3a
 3333 00c6 0B       		.uleb128 0xb
 3334 00c7 3B       		.uleb128 0x3b
 3335 00c8 0B       		.uleb128 0xb
 3336 00c9 49       		.uleb128 0x49
 3337 00ca 13       		.uleb128 0x13
 3338 00cb 00       		.byte	0
 3339 00cc 00       		.byte	0
 3340 00cd 12       		.uleb128 0x12
 3341 00ce 26       		.uleb128 0x26
 3342 00cf 00       		.byte	0
 3343 00d0 49       		.uleb128 0x49
 3344 00d1 13       		.uleb128 0x13
 3345 00d2 00       		.byte	0
 3346 00d3 00       		.byte	0
 3347 00d4 13       		.uleb128 0x13
 3348 00d5 15       		.uleb128 0x15
 3349 00d6 01       		.byte	0x1
 3350 00d7 27       		.uleb128 0x27
 3351 00d8 19       		.uleb128 0x19
 3352 00d9 49       		.uleb128 0x49
 3353 00da 13       		.uleb128 0x13
 3354 00db 01       		.uleb128 0x1
 3355 00dc 13       		.uleb128 0x13
 3356 00dd 00       		.byte	0
 3357 00de 00       		.byte	0
 3358 00df 14       		.uleb128 0x14
 3359 00e0 15       		.uleb128 0x15
 3360 00e1 00       		.byte	0
 3361 00e2 27       		.uleb128 0x27
 3362 00e3 19       		.uleb128 0x19
 3363 00e4 00       		.byte	0
 3364 00e5 00       		.byte	0
 3365 00e6 15       		.uleb128 0x15
 3366 00e7 13       		.uleb128 0x13
 3367 00e8 01       		.byte	0x1
 3368 00e9 0B       		.uleb128 0xb
ARM GAS  /home/pauba/tmp/cc8kkThj.s 			page 62


 3369 00ea 05       		.uleb128 0x5
 3370 00eb 3A       		.uleb128 0x3a
 3371 00ec 0B       		.uleb128 0xb
 3372 00ed 3B       		.uleb128 0x3b
 3373 00ee 0B       		.uleb128 0xb
 3374 00ef 01       		.uleb128 0x1
 3375 00f0 13       		.uleb128 0x13
 3376 00f1 00       		.byte	0
 3377 00f2 00       		.byte	0
 3378 00f3 16       		.uleb128 0x16
 3379 00f4 0D       		.uleb128 0xd
 3380 00f5 00       		.byte	0
 3381 00f6 03       		.uleb128 0x3
 3382 00f7 08       		.uleb128 0x8
 3383 00f8 3A       		.uleb128 0x3a
 3384 00f9 0B       		.uleb128 0xb
 3385 00fa 3B       		.uleb128 0x3b
 3386 00fb 0B       		.uleb128 0xb
 3387 00fc 49       		.uleb128 0x49
 3388 00fd 13       		.uleb128 0x13
 3389 00fe 38       		.uleb128 0x38
 3390 00ff 05       		.uleb128 0x5
 3391 0100 00       		.byte	0
 3392 0101 00       		.byte	0
 3393 0102 17       		.uleb128 0x17
 3394 0103 01       		.uleb128 0x1
 3395 0104 01       		.byte	0x1
 3396 0105 49       		.uleb128 0x49
 3397 0106 13       		.uleb128 0x13
 3398 0107 01       		.uleb128 0x1
 3399 0108 13       		.uleb128 0x13
 3400 0109 00       		.byte	0
 3401 010a 00       		.byte	0
 3402 010b 18       		.uleb128 0x18
 3403 010c 21       		.uleb128 0x21
 3404 010d 00       		.byte	0
 3405 010e 49       		.uleb128 0x49
 3406 010f 13       		.uleb128 0x13
 3407 0110 2F       		.uleb128 0x2f
 3408 0111 0B       		.uleb128 0xb
 3409 0112 00       		.byte	0
 3410 0113 00       		.byte	0
 3411 0114 19       		.uleb128 0x19
 3412 0115 17       		.uleb128 0x17
 3413 0116 01       		.byte	0x1
 3414 0117 03       		.uleb128 0x3
 3415 0118 0E       		.uleb128 0xe
 3416 0119 0B       		.uleb128 0xb
 3417 011a 05       		.uleb128 0x5
 3418 011b 3A       		.uleb128 0x3a
 3419 011c 0B       		.uleb128 0xb
 3420 011d 3B       		.uleb128 0x3b
 3421 011e 0B       		.uleb128 0xb
 3422 011f 01       		.uleb128 0x1
 3423 0120 13       		.uleb128 0x13
 3424 0121 00       		.byte	0
 3425 0122 00       		.byte	0
ARM GAS  /home/pauba/tmp/cc8kkThj.s 			page 63


 3426 0123 1A       		.uleb128 0x1a
 3427 0124 0D       		.uleb128 0xd
 3428 0125 00       		.byte	0
 3429 0126 03       		.uleb128 0x3
 3430 0127 08       		.uleb128 0x8
 3431 0128 3A       		.uleb128 0x3a
 3432 0129 0B       		.uleb128 0xb
 3433 012a 3B       		.uleb128 0x3b
 3434 012b 0B       		.uleb128 0xb
 3435 012c 49       		.uleb128 0x49
 3436 012d 13       		.uleb128 0x13
 3437 012e 00       		.byte	0
 3438 012f 00       		.byte	0
 3439 0130 1B       		.uleb128 0x1b
 3440 0131 21       		.uleb128 0x21
 3441 0132 00       		.byte	0
 3442 0133 49       		.uleb128 0x49
 3443 0134 13       		.uleb128 0x13
 3444 0135 2F       		.uleb128 0x2f
 3445 0136 05       		.uleb128 0x5
 3446 0137 00       		.byte	0
 3447 0138 00       		.byte	0
 3448 0139 1C       		.uleb128 0x1c
 3449 013a 2E       		.uleb128 0x2e
 3450 013b 01       		.byte	0x1
 3451 013c 3F       		.uleb128 0x3f
 3452 013d 19       		.uleb128 0x19
 3453 013e 03       		.uleb128 0x3
 3454 013f 0E       		.uleb128 0xe
 3455 0140 3A       		.uleb128 0x3a
 3456 0141 0B       		.uleb128 0xb
 3457 0142 3B       		.uleb128 0x3b
 3458 0143 0B       		.uleb128 0xb
 3459 0144 27       		.uleb128 0x27
 3460 0145 19       		.uleb128 0x19
 3461 0146 11       		.uleb128 0x11
 3462 0147 01       		.uleb128 0x1
 3463 0148 12       		.uleb128 0x12
 3464 0149 06       		.uleb128 0x6
 3465 014a 40       		.uleb128 0x40
 3466 014b 18       		.uleb128 0x18
 3467 014c 9642     		.uleb128 0x2116
 3468 014e 19       		.uleb128 0x19
 3469 014f 01       		.uleb128 0x1
 3470 0150 13       		.uleb128 0x13
 3471 0151 00       		.byte	0
 3472 0152 00       		.byte	0
 3473 0153 1D       		.uleb128 0x1d
 3474 0154 05       		.uleb128 0x5
 3475 0155 00       		.byte	0
 3476 0156 03       		.uleb128 0x3
 3477 0157 08       		.uleb128 0x8
 3478 0158 3A       		.uleb128 0x3a
 3479 0159 0B       		.uleb128 0xb
 3480 015a 3B       		.uleb128 0x3b
 3481 015b 0B       		.uleb128 0xb
 3482 015c 49       		.uleb128 0x49
ARM GAS  /home/pauba/tmp/cc8kkThj.s 			page 64


 3483 015d 13       		.uleb128 0x13
 3484 015e 02       		.uleb128 0x2
 3485 015f 18       		.uleb128 0x18
 3486 0160 00       		.byte	0
 3487 0161 00       		.byte	0
 3488 0162 1E       		.uleb128 0x1e
 3489 0163 34       		.uleb128 0x34
 3490 0164 00       		.byte	0
 3491 0165 03       		.uleb128 0x3
 3492 0166 08       		.uleb128 0x8
 3493 0167 3A       		.uleb128 0x3a
 3494 0168 0B       		.uleb128 0xb
 3495 0169 3B       		.uleb128 0x3b
 3496 016a 0B       		.uleb128 0xb
 3497 016b 49       		.uleb128 0x49
 3498 016c 13       		.uleb128 0x13
 3499 016d 02       		.uleb128 0x2
 3500 016e 18       		.uleb128 0x18
 3501 016f 00       		.byte	0
 3502 0170 00       		.byte	0
 3503 0171 1F       		.uleb128 0x1f
 3504 0172 05       		.uleb128 0x5
 3505 0173 00       		.byte	0
 3506 0174 03       		.uleb128 0x3
 3507 0175 0E       		.uleb128 0xe
 3508 0176 3A       		.uleb128 0x3a
 3509 0177 0B       		.uleb128 0xb
 3510 0178 3B       		.uleb128 0x3b
 3511 0179 0B       		.uleb128 0xb
 3512 017a 49       		.uleb128 0x49
 3513 017b 13       		.uleb128 0x13
 3514 017c 02       		.uleb128 0x2
 3515 017d 18       		.uleb128 0x18
 3516 017e 00       		.byte	0
 3517 017f 00       		.byte	0
 3518 0180 20       		.uleb128 0x20
 3519 0181 2E       		.uleb128 0x2e
 3520 0182 00       		.byte	0
 3521 0183 03       		.uleb128 0x3
 3522 0184 0E       		.uleb128 0xe
 3523 0185 3A       		.uleb128 0x3a
 3524 0186 0B       		.uleb128 0xb
 3525 0187 3B       		.uleb128 0x3b
 3526 0188 0B       		.uleb128 0xb
 3527 0189 27       		.uleb128 0x27
 3528 018a 19       		.uleb128 0x19
 3529 018b 11       		.uleb128 0x11
 3530 018c 01       		.uleb128 0x1
 3531 018d 12       		.uleb128 0x12
 3532 018e 06       		.uleb128 0x6
 3533 018f 40       		.uleb128 0x40
 3534 0190 18       		.uleb128 0x18
 3535 0191 9742     		.uleb128 0x2117
 3536 0193 19       		.uleb128 0x19
 3537 0194 00       		.byte	0
 3538 0195 00       		.byte	0
 3539 0196 21       		.uleb128 0x21
ARM GAS  /home/pauba/tmp/cc8kkThj.s 			page 65


 3540 0197 2E       		.uleb128 0x2e
 3541 0198 01       		.byte	0x1
 3542 0199 03       		.uleb128 0x3
 3543 019a 0E       		.uleb128 0xe
 3544 019b 3A       		.uleb128 0x3a
 3545 019c 0B       		.uleb128 0xb
 3546 019d 3B       		.uleb128 0x3b
 3547 019e 0B       		.uleb128 0xb
 3548 019f 27       		.uleb128 0x27
 3549 01a0 19       		.uleb128 0x19
 3550 01a1 11       		.uleb128 0x11
 3551 01a2 01       		.uleb128 0x1
 3552 01a3 12       		.uleb128 0x12
 3553 01a4 06       		.uleb128 0x6
 3554 01a5 40       		.uleb128 0x40
 3555 01a6 18       		.uleb128 0x18
 3556 01a7 9642     		.uleb128 0x2116
 3557 01a9 19       		.uleb128 0x19
 3558 01aa 01       		.uleb128 0x1
 3559 01ab 13       		.uleb128 0x13
 3560 01ac 00       		.byte	0
 3561 01ad 00       		.byte	0
 3562 01ae 22       		.uleb128 0x22
 3563 01af 0B       		.uleb128 0xb
 3564 01b0 01       		.byte	0x1
 3565 01b1 11       		.uleb128 0x11
 3566 01b2 01       		.uleb128 0x1
 3567 01b3 12       		.uleb128 0x12
 3568 01b4 06       		.uleb128 0x6
 3569 01b5 01       		.uleb128 0x1
 3570 01b6 13       		.uleb128 0x13
 3571 01b7 00       		.byte	0
 3572 01b8 00       		.byte	0
 3573 01b9 23       		.uleb128 0x23
 3574 01ba 0B       		.uleb128 0xb
 3575 01bb 01       		.byte	0x1
 3576 01bc 11       		.uleb128 0x11
 3577 01bd 01       		.uleb128 0x1
 3578 01be 12       		.uleb128 0x12
 3579 01bf 06       		.uleb128 0x6
 3580 01c0 00       		.byte	0
 3581 01c1 00       		.byte	0
 3582 01c2 24       		.uleb128 0x24
 3583 01c3 2E       		.uleb128 0x2e
 3584 01c4 01       		.byte	0x1
 3585 01c5 3F       		.uleb128 0x3f
 3586 01c6 19       		.uleb128 0x19
 3587 01c7 03       		.uleb128 0x3
 3588 01c8 0E       		.uleb128 0xe
 3589 01c9 3A       		.uleb128 0x3a
 3590 01ca 0B       		.uleb128 0xb
 3591 01cb 3B       		.uleb128 0x3b
 3592 01cc 0B       		.uleb128 0xb
 3593 01cd 27       		.uleb128 0x27
 3594 01ce 19       		.uleb128 0x19
 3595 01cf 49       		.uleb128 0x49
 3596 01d0 13       		.uleb128 0x13
ARM GAS  /home/pauba/tmp/cc8kkThj.s 			page 66


 3597 01d1 11       		.uleb128 0x11
 3598 01d2 01       		.uleb128 0x1
 3599 01d3 12       		.uleb128 0x12
 3600 01d4 06       		.uleb128 0x6
 3601 01d5 40       		.uleb128 0x40
 3602 01d6 18       		.uleb128 0x18
 3603 01d7 9742     		.uleb128 0x2117
 3604 01d9 19       		.uleb128 0x19
 3605 01da 01       		.uleb128 0x1
 3606 01db 13       		.uleb128 0x13
 3607 01dc 00       		.byte	0
 3608 01dd 00       		.byte	0
 3609 01de 25       		.uleb128 0x25
 3610 01df 2E       		.uleb128 0x2e
 3611 01e0 01       		.byte	0x1
 3612 01e1 3F       		.uleb128 0x3f
 3613 01e2 19       		.uleb128 0x19
 3614 01e3 03       		.uleb128 0x3
 3615 01e4 0E       		.uleb128 0xe
 3616 01e5 3A       		.uleb128 0x3a
 3617 01e6 0B       		.uleb128 0xb
 3618 01e7 3B       		.uleb128 0x3b
 3619 01e8 0B       		.uleb128 0xb
 3620 01e9 27       		.uleb128 0x27
 3621 01ea 19       		.uleb128 0x19
 3622 01eb 49       		.uleb128 0x49
 3623 01ec 13       		.uleb128 0x13
 3624 01ed 11       		.uleb128 0x11
 3625 01ee 01       		.uleb128 0x1
 3626 01ef 12       		.uleb128 0x12
 3627 01f0 06       		.uleb128 0x6
 3628 01f1 40       		.uleb128 0x40
 3629 01f2 18       		.uleb128 0x18
 3630 01f3 9642     		.uleb128 0x2116
 3631 01f5 19       		.uleb128 0x19
 3632 01f6 01       		.uleb128 0x1
 3633 01f7 13       		.uleb128 0x13
 3634 01f8 00       		.byte	0
 3635 01f9 00       		.byte	0
 3636 01fa 26       		.uleb128 0x26
 3637 01fb 2E       		.uleb128 0x2e
 3638 01fc 01       		.byte	0x1
 3639 01fd 3F       		.uleb128 0x3f
 3640 01fe 19       		.uleb128 0x19
 3641 01ff 03       		.uleb128 0x3
 3642 0200 0E       		.uleb128 0xe
 3643 0201 3A       		.uleb128 0x3a
 3644 0202 0B       		.uleb128 0xb
 3645 0203 3B       		.uleb128 0x3b
 3646 0204 0B       		.uleb128 0xb
 3647 0205 27       		.uleb128 0x27
 3648 0206 19       		.uleb128 0x19
 3649 0207 11       		.uleb128 0x11
 3650 0208 01       		.uleb128 0x1
 3651 0209 12       		.uleb128 0x12
 3652 020a 06       		.uleb128 0x6
 3653 020b 40       		.uleb128 0x40
ARM GAS  /home/pauba/tmp/cc8kkThj.s 			page 67


 3654 020c 18       		.uleb128 0x18
 3655 020d 9742     		.uleb128 0x2117
 3656 020f 19       		.uleb128 0x19
 3657 0210 01       		.uleb128 0x1
 3658 0211 13       		.uleb128 0x13
 3659 0212 00       		.byte	0
 3660 0213 00       		.byte	0
 3661 0214 27       		.uleb128 0x27
 3662 0215 34       		.uleb128 0x34
 3663 0216 00       		.byte	0
 3664 0217 03       		.uleb128 0x3
 3665 0218 0E       		.uleb128 0xe
 3666 0219 3A       		.uleb128 0x3a
 3667 021a 0B       		.uleb128 0xb
 3668 021b 3B       		.uleb128 0x3b
 3669 021c 0B       		.uleb128 0xb
 3670 021d 49       		.uleb128 0x49
 3671 021e 13       		.uleb128 0x13
 3672 021f 02       		.uleb128 0x2
 3673 0220 18       		.uleb128 0x18
 3674 0221 00       		.byte	0
 3675 0222 00       		.byte	0
 3676 0223 28       		.uleb128 0x28
 3677 0224 2E       		.uleb128 0x2e
 3678 0225 00       		.byte	0
 3679 0226 3F       		.uleb128 0x3f
 3680 0227 19       		.uleb128 0x19
 3681 0228 03       		.uleb128 0x3
 3682 0229 0E       		.uleb128 0xe
 3683 022a 3A       		.uleb128 0x3a
 3684 022b 0B       		.uleb128 0xb
 3685 022c 3B       		.uleb128 0x3b
 3686 022d 0B       		.uleb128 0xb
 3687 022e 27       		.uleb128 0x27
 3688 022f 19       		.uleb128 0x19
 3689 0230 49       		.uleb128 0x49
 3690 0231 13       		.uleb128 0x13
 3691 0232 11       		.uleb128 0x11
 3692 0233 01       		.uleb128 0x1
 3693 0234 12       		.uleb128 0x12
 3694 0235 06       		.uleb128 0x6
 3695 0236 40       		.uleb128 0x40
 3696 0237 18       		.uleb128 0x18
 3697 0238 9642     		.uleb128 0x2116
 3698 023a 19       		.uleb128 0x19
 3699 023b 00       		.byte	0
 3700 023c 00       		.byte	0
 3701 023d 29       		.uleb128 0x29
 3702 023e 2E       		.uleb128 0x2e
 3703 023f 01       		.byte	0x1
 3704 0240 03       		.uleb128 0x3
 3705 0241 08       		.uleb128 0x8
 3706 0242 3A       		.uleb128 0x3a
 3707 0243 0B       		.uleb128 0xb
 3708 0244 3B       		.uleb128 0x3b
 3709 0245 05       		.uleb128 0x5
 3710 0246 27       		.uleb128 0x27
ARM GAS  /home/pauba/tmp/cc8kkThj.s 			page 68


 3711 0247 19       		.uleb128 0x19
 3712 0248 11       		.uleb128 0x11
 3713 0249 01       		.uleb128 0x1
 3714 024a 12       		.uleb128 0x12
 3715 024b 06       		.uleb128 0x6
 3716 024c 40       		.uleb128 0x40
 3717 024d 18       		.uleb128 0x18
 3718 024e 9742     		.uleb128 0x2117
 3719 0250 19       		.uleb128 0x19
 3720 0251 01       		.uleb128 0x1
 3721 0252 13       		.uleb128 0x13
 3722 0253 00       		.byte	0
 3723 0254 00       		.byte	0
 3724 0255 2A       		.uleb128 0x2a
 3725 0256 05       		.uleb128 0x5
 3726 0257 00       		.byte	0
 3727 0258 03       		.uleb128 0x3
 3728 0259 08       		.uleb128 0x8
 3729 025a 3A       		.uleb128 0x3a
 3730 025b 0B       		.uleb128 0xb
 3731 025c 3B       		.uleb128 0x3b
 3732 025d 05       		.uleb128 0x5
 3733 025e 49       		.uleb128 0x49
 3734 025f 13       		.uleb128 0x13
 3735 0260 02       		.uleb128 0x2
 3736 0261 18       		.uleb128 0x18
 3737 0262 00       		.byte	0
 3738 0263 00       		.byte	0
 3739 0264 2B       		.uleb128 0x2b
 3740 0265 2E       		.uleb128 0x2e
 3741 0266 01       		.byte	0x1
 3742 0267 3F       		.uleb128 0x3f
 3743 0268 19       		.uleb128 0x19
 3744 0269 03       		.uleb128 0x3
 3745 026a 0E       		.uleb128 0xe
 3746 026b 3A       		.uleb128 0x3a
 3747 026c 0B       		.uleb128 0xb
 3748 026d 3B       		.uleb128 0x3b
 3749 026e 05       		.uleb128 0x5
 3750 026f 27       		.uleb128 0x27
 3751 0270 19       		.uleb128 0x19
 3752 0271 11       		.uleb128 0x11
 3753 0272 01       		.uleb128 0x1
 3754 0273 12       		.uleb128 0x12
 3755 0274 06       		.uleb128 0x6
 3756 0275 40       		.uleb128 0x40
 3757 0276 18       		.uleb128 0x18
 3758 0277 9642     		.uleb128 0x2116
 3759 0279 19       		.uleb128 0x19
 3760 027a 01       		.uleb128 0x1
 3761 027b 13       		.uleb128 0x13
 3762 027c 00       		.byte	0
 3763 027d 00       		.byte	0
 3764 027e 2C       		.uleb128 0x2c
 3765 027f 34       		.uleb128 0x34
 3766 0280 00       		.byte	0
 3767 0281 03       		.uleb128 0x3
ARM GAS  /home/pauba/tmp/cc8kkThj.s 			page 69


 3768 0282 0E       		.uleb128 0xe
 3769 0283 3A       		.uleb128 0x3a
 3770 0284 0B       		.uleb128 0xb
 3771 0285 3B       		.uleb128 0x3b
 3772 0286 05       		.uleb128 0x5
 3773 0287 49       		.uleb128 0x49
 3774 0288 13       		.uleb128 0x13
 3775 0289 02       		.uleb128 0x2
 3776 028a 18       		.uleb128 0x18
 3777 028b 00       		.byte	0
 3778 028c 00       		.byte	0
 3779 028d 2D       		.uleb128 0x2d
 3780 028e 34       		.uleb128 0x34
 3781 028f 00       		.byte	0
 3782 0290 03       		.uleb128 0x3
 3783 0291 08       		.uleb128 0x8
 3784 0292 3A       		.uleb128 0x3a
 3785 0293 0B       		.uleb128 0xb
 3786 0294 3B       		.uleb128 0x3b
 3787 0295 05       		.uleb128 0x5
 3788 0296 49       		.uleb128 0x49
 3789 0297 13       		.uleb128 0x13
 3790 0298 02       		.uleb128 0x2
 3791 0299 18       		.uleb128 0x18
 3792 029a 00       		.byte	0
 3793 029b 00       		.byte	0
 3794 029c 2E       		.uleb128 0x2e
 3795 029d 2E       		.uleb128 0x2e
 3796 029e 01       		.byte	0x1
 3797 029f 03       		.uleb128 0x3
 3798 02a0 0E       		.uleb128 0xe
 3799 02a1 3A       		.uleb128 0x3a
 3800 02a2 0B       		.uleb128 0xb
 3801 02a3 3B       		.uleb128 0x3b
 3802 02a4 05       		.uleb128 0x5
 3803 02a5 27       		.uleb128 0x27
 3804 02a6 19       		.uleb128 0x19
 3805 02a7 11       		.uleb128 0x11
 3806 02a8 01       		.uleb128 0x1
 3807 02a9 12       		.uleb128 0x12
 3808 02aa 06       		.uleb128 0x6
 3809 02ab 40       		.uleb128 0x40
 3810 02ac 18       		.uleb128 0x18
 3811 02ad 9642     		.uleb128 0x2116
 3812 02af 19       		.uleb128 0x19
 3813 02b0 01       		.uleb128 0x1
 3814 02b1 13       		.uleb128 0x13
 3815 02b2 00       		.byte	0
 3816 02b3 00       		.byte	0
 3817 02b4 2F       		.uleb128 0x2f
 3818 02b5 2E       		.uleb128 0x2e
 3819 02b6 01       		.byte	0x1
 3820 02b7 3F       		.uleb128 0x3f
 3821 02b8 19       		.uleb128 0x19
 3822 02b9 03       		.uleb128 0x3
 3823 02ba 0E       		.uleb128 0xe
 3824 02bb 3A       		.uleb128 0x3a
ARM GAS  /home/pauba/tmp/cc8kkThj.s 			page 70


 3825 02bc 0B       		.uleb128 0xb
 3826 02bd 3B       		.uleb128 0x3b
 3827 02be 05       		.uleb128 0x5
 3828 02bf 27       		.uleb128 0x27
 3829 02c0 19       		.uleb128 0x19
 3830 02c1 49       		.uleb128 0x49
 3831 02c2 13       		.uleb128 0x13
 3832 02c3 11       		.uleb128 0x11
 3833 02c4 01       		.uleb128 0x1
 3834 02c5 12       		.uleb128 0x12
 3835 02c6 06       		.uleb128 0x6
 3836 02c7 40       		.uleb128 0x40
 3837 02c8 18       		.uleb128 0x18
 3838 02c9 9642     		.uleb128 0x2116
 3839 02cb 19       		.uleb128 0x19
 3840 02cc 01       		.uleb128 0x1
 3841 02cd 13       		.uleb128 0x13
 3842 02ce 00       		.byte	0
 3843 02cf 00       		.byte	0
 3844 02d0 30       		.uleb128 0x30
 3845 02d1 34       		.uleb128 0x34
 3846 02d2 00       		.byte	0
 3847 02d3 03       		.uleb128 0x3
 3848 02d4 0E       		.uleb128 0xe
 3849 02d5 3A       		.uleb128 0x3a
 3850 02d6 0B       		.uleb128 0xb
 3851 02d7 3B       		.uleb128 0x3b
 3852 02d8 0B       		.uleb128 0xb
 3853 02d9 49       		.uleb128 0x49
 3854 02da 13       		.uleb128 0x13
 3855 02db 3F       		.uleb128 0x3f
 3856 02dc 19       		.uleb128 0x19
 3857 02dd 3C       		.uleb128 0x3c
 3858 02de 19       		.uleb128 0x19
 3859 02df 00       		.byte	0
 3860 02e0 00       		.byte	0
 3861 02e1 31       		.uleb128 0x31
 3862 02e2 34       		.uleb128 0x34
 3863 02e3 00       		.byte	0
 3864 02e4 03       		.uleb128 0x3
 3865 02e5 0E       		.uleb128 0xe
 3866 02e6 3A       		.uleb128 0x3a
 3867 02e7 0B       		.uleb128 0xb
 3868 02e8 3B       		.uleb128 0x3b
 3869 02e9 05       		.uleb128 0x5
 3870 02ea 49       		.uleb128 0x49
 3871 02eb 13       		.uleb128 0x13
 3872 02ec 3F       		.uleb128 0x3f
 3873 02ed 19       		.uleb128 0x19
 3874 02ee 3C       		.uleb128 0x3c
 3875 02ef 19       		.uleb128 0x19
 3876 02f0 00       		.byte	0
 3877 02f1 00       		.byte	0
 3878 02f2 32       		.uleb128 0x32
 3879 02f3 34       		.uleb128 0x34
 3880 02f4 00       		.byte	0
 3881 02f5 03       		.uleb128 0x3
ARM GAS  /home/pauba/tmp/cc8kkThj.s 			page 71


 3882 02f6 0E       		.uleb128 0xe
 3883 02f7 3A       		.uleb128 0x3a
 3884 02f8 0B       		.uleb128 0xb
 3885 02f9 3B       		.uleb128 0x3b
 3886 02fa 0B       		.uleb128 0xb
 3887 02fb 49       		.uleb128 0x49
 3888 02fc 13       		.uleb128 0x13
 3889 02fd 3F       		.uleb128 0x3f
 3890 02fe 19       		.uleb128 0x19
 3891 02ff 02       		.uleb128 0x2
 3892 0300 18       		.uleb128 0x18
 3893 0301 00       		.byte	0
 3894 0302 00       		.byte	0
 3895 0303 33       		.uleb128 0x33
 3896 0304 34       		.uleb128 0x34
 3897 0305 00       		.byte	0
 3898 0306 03       		.uleb128 0x3
 3899 0307 08       		.uleb128 0x8
 3900 0308 3A       		.uleb128 0x3a
 3901 0309 0B       		.uleb128 0xb
 3902 030a 3B       		.uleb128 0x3b
 3903 030b 0B       		.uleb128 0xb
 3904 030c 49       		.uleb128 0x49
 3905 030d 13       		.uleb128 0x13
 3906 030e 3F       		.uleb128 0x3f
 3907 030f 19       		.uleb128 0x19
 3908 0310 02       		.uleb128 0x2
 3909 0311 18       		.uleb128 0x18
 3910 0312 00       		.byte	0
 3911 0313 00       		.byte	0
 3912 0314 34       		.uleb128 0x34
 3913 0315 34       		.uleb128 0x34
 3914 0316 00       		.byte	0
 3915 0317 03       		.uleb128 0x3
 3916 0318 0E       		.uleb128 0xe
 3917 0319 3A       		.uleb128 0x3a
 3918 031a 0B       		.uleb128 0xb
 3919 031b 3B       		.uleb128 0x3b
 3920 031c 05       		.uleb128 0x5
 3921 031d 49       		.uleb128 0x49
 3922 031e 13       		.uleb128 0x13
 3923 031f 3F       		.uleb128 0x3f
 3924 0320 19       		.uleb128 0x19
 3925 0321 02       		.uleb128 0x2
 3926 0322 18       		.uleb128 0x18
 3927 0323 00       		.byte	0
 3928 0324 00       		.byte	0
 3929 0325 35       		.uleb128 0x35
 3930 0326 21       		.uleb128 0x21
 3931 0327 00       		.byte	0
 3932 0328 00       		.byte	0
 3933 0329 00       		.byte	0
 3934 032a 00       		.byte	0
 3935              		.section	.debug_aranges,"",%progbits
 3936 0000 AC000000 		.4byte	0xac
 3937 0004 0200     		.2byte	0x2
 3938 0006 00000000 		.4byte	.Ldebug_info0
ARM GAS  /home/pauba/tmp/cc8kkThj.s 			page 72


 3939 000a 04       		.byte	0x4
 3940 000b 00       		.byte	0
 3941 000c 0000     		.2byte	0
 3942 000e 0000     		.2byte	0
 3943 0010 00000000 		.4byte	.LFB63
 3944 0014 90000000 		.4byte	.LFE63-.LFB63
 3945 0018 00000000 		.4byte	.LFB64
 3946 001c 34000000 		.4byte	.LFE64-.LFB64
 3947 0020 00000000 		.4byte	.LFB65
 3948 0024 30000000 		.4byte	.LFE65-.LFB65
 3949 0028 00000000 		.4byte	.LFB66
 3950 002c 10000000 		.4byte	.LFE66-.LFB66
 3951 0030 00000000 		.4byte	.LFB67
 3952 0034 40000000 		.4byte	.LFE67-.LFB67
 3953 0038 00000000 		.4byte	.LFB68
 3954 003c 38000000 		.4byte	.LFE68-.LFB68
 3955 0040 00000000 		.4byte	.LFB69
 3956 0044 2C000000 		.4byte	.LFE69-.LFB69
 3957 0048 00000000 		.4byte	.LFB70
 3958 004c 2E000000 		.4byte	.LFE70-.LFB70
 3959 0050 00000000 		.4byte	.LFB71
 3960 0054 60000000 		.4byte	.LFE71-.LFB71
 3961 0058 00000000 		.4byte	.LFB72
 3962 005c 38000000 		.4byte	.LFE72-.LFB72
 3963 0060 00000000 		.4byte	.LFB73
 3964 0064 3C000000 		.4byte	.LFE73-.LFB73
 3965 0068 00000000 		.4byte	.LFB74
 3966 006c 44000000 		.4byte	.LFE74-.LFB74
 3967 0070 00000000 		.4byte	.LFB75
 3968 0074 84000000 		.4byte	.LFE75-.LFB75
 3969 0078 00000000 		.4byte	.LFB76
 3970 007c 14000000 		.4byte	.LFE76-.LFB76
 3971 0080 00000000 		.4byte	.LFB77
 3972 0084 14000000 		.4byte	.LFE77-.LFB77
 3973 0088 00000000 		.4byte	.LFB78
 3974 008c 5C000000 		.4byte	.LFE78-.LFB78
 3975 0090 00000000 		.4byte	.LFB79
 3976 0094 60000000 		.4byte	.LFE79-.LFB79
 3977 0098 00000000 		.4byte	.LFB80
 3978 009c 4C000000 		.4byte	.LFE80-.LFB80
 3979 00a0 00000000 		.4byte	.LFB81
 3980 00a4 14020000 		.4byte	.LFE81-.LFB81
 3981 00a8 00000000 		.4byte	0
 3982 00ac 00000000 		.4byte	0
 3983              		.section	.debug_ranges,"",%progbits
 3984              	.Ldebug_ranges0:
 3985 0000 00000000 		.4byte	.LFB63
 3986 0004 90000000 		.4byte	.LFE63
 3987 0008 00000000 		.4byte	.LFB64
 3988 000c 34000000 		.4byte	.LFE64
 3989 0010 00000000 		.4byte	.LFB65
 3990 0014 30000000 		.4byte	.LFE65
 3991 0018 00000000 		.4byte	.LFB66
 3992 001c 10000000 		.4byte	.LFE66
 3993 0020 00000000 		.4byte	.LFB67
 3994 0024 40000000 		.4byte	.LFE67
 3995 0028 00000000 		.4byte	.LFB68
ARM GAS  /home/pauba/tmp/cc8kkThj.s 			page 73


 3996 002c 38000000 		.4byte	.LFE68
 3997 0030 00000000 		.4byte	.LFB69
 3998 0034 2C000000 		.4byte	.LFE69
 3999 0038 00000000 		.4byte	.LFB70
 4000 003c 2E000000 		.4byte	.LFE70
 4001 0040 00000000 		.4byte	.LFB71
 4002 0044 60000000 		.4byte	.LFE71
 4003 0048 00000000 		.4byte	.LFB72
 4004 004c 38000000 		.4byte	.LFE72
 4005 0050 00000000 		.4byte	.LFB73
 4006 0054 3C000000 		.4byte	.LFE73
 4007 0058 00000000 		.4byte	.LFB74
 4008 005c 44000000 		.4byte	.LFE74
 4009 0060 00000000 		.4byte	.LFB75
 4010 0064 84000000 		.4byte	.LFE75
 4011 0068 00000000 		.4byte	.LFB76
 4012 006c 14000000 		.4byte	.LFE76
 4013 0070 00000000 		.4byte	.LFB77
 4014 0074 14000000 		.4byte	.LFE77
 4015 0078 00000000 		.4byte	.LFB78
 4016 007c 5C000000 		.4byte	.LFE78
 4017 0080 00000000 		.4byte	.LFB79
 4018 0084 60000000 		.4byte	.LFE79
 4019 0088 00000000 		.4byte	.LFB80
 4020 008c 4C000000 		.4byte	.LFE80
 4021 0090 00000000 		.4byte	.LFB81
 4022 0094 14020000 		.4byte	.LFE81
 4023 0098 00000000 		.4byte	0
 4024 009c 00000000 		.4byte	0
 4025              		.section	.debug_line,"",%progbits
 4026              	.Ldebug_line0:
 4027 0000 0E050000 		.section	.debug_str,"MS",%progbits,1
 4027      0200CA02 
 4027      00000201 
 4027      FB0E0D00 
 4027      01010101 
 4028              	.LASF107:
 4029 0000 74657374 		.ascii	"test_cpu_pulse\000"
 4029      5F637075 
 4029      5F70756C 
 4029      736500
 4030              	.LASF2:
 4031 000f 73697A65 		.ascii	"size_t\000"
 4031      5F7400
 4032              	.LASF76:
 4033 0016 7264796D 		.ascii	"rdymsg\000"
 4033      736700
 4034              	.LASF17:
 4035 001d 75696E74 		.ascii	"uint64_t\000"
 4035      36345F74 
 4035      00
 4036              	.LASF3:
 4037 0026 5F5F7569 		.ascii	"__uint8_t\000"
 4037      6E74385F 
 4037      7400
 4038              	.LASF120:
 4039 0030 76746C69 		.ascii	"vtlist\000"
ARM GAS  /home/pauba/tmp/cc8kkThj.s 			page 74


 4039      737400
 4040              	.LASF135:
 4041 0037 70617474 		.ascii	"patternqueues\000"
 4041      65726E71 
 4041      75657565 
 4041      7300
 4042              	.LASF133:
 4043 0045 70617474 		.ascii	"patternpools\000"
 4043      65726E70 
 4043      6F6F6C73 
 4043      00
 4044              	.LASF13:
 4045 0052 6C6F6E67 		.ascii	"long long unsigned int\000"
 4045      206C6F6E 
 4045      6720756E 
 4045      7369676E 
 4045      65642069 
 4046              	.LASF100:
 4047 0069 636F6E64 		.ascii	"condition\000"
 4047      6974696F 
 4047      6E00
 4048              	.LASF77:
 4049 0073 65786974 		.ascii	"exitcode\000"
 4049      636F6465 
 4049      00
 4050              	.LASF124:
 4051 007c 74657374 		.ascii	"test\000"
 4051      00
 4052              	.LASF122:
 4053 0081 49544D5F 		.ascii	"ITM_RxBuffer\000"
 4053      52784275 
 4053      66666572 
 4053      00
 4054              	.LASF31:
 4055 008e 705F7072 		.ascii	"p_prio\000"
 4055      696F00
 4056              	.LASF88:
 4057 0095 74656172 		.ascii	"teardown\000"
 4057      646F776E 
 4057      00
 4058              	.LASF132:
 4059 009e 70617474 		.ascii	"patternheap\000"
 4059      65726E68 
 4059      65617000 
 4060              	.LASF118:
 4061 00aa 746F6B65 		.ascii	"tokens_buffer\000"
 4061      6E735F62 
 4061      75666665 
 4061      7200
 4062              	.LASF11:
 4063 00b8 6C6F6E67 		.ascii	"long long int\000"
 4063      206C6F6E 
 4063      6720696E 
 4063      7400
 4064              	.LASF1:
 4065 00c6 7369676E 		.ascii	"signed char\000"
 4065      65642063 
ARM GAS  /home/pauba/tmp/cc8kkThj.s 			page 75


 4065      68617200 
 4066              	.LASF48:
 4067 00d2 705F6D70 		.ascii	"p_mpool\000"
 4067      6F6F6C00 
 4068              	.LASF18:
 4069 00da 626F6F6C 		.ascii	"bool_t\000"
 4069      5F7400
 4070              	.LASF73:
 4071 00e1 6D5F7175 		.ascii	"m_queue\000"
 4071      65756500 
 4072              	.LASF95:
 4073 00e9 74657374 		.ascii	"test_emit_token\000"
 4073      5F656D69 
 4073      745F746F 
 4073      6B656E00 
 4074              	.LASF94:
 4075 00f9 74657374 		.ascii	"test_println\000"
 4075      5F707269 
 4075      6E746C6E 
 4075      00
 4076              	.LASF23:
 4077 0106 74736C69 		.ascii	"tslices_t\000"
 4077      6365735F 
 4077      7400
 4078              	.LASF8:
 4079 0110 6C6F6E67 		.ascii	"long int\000"
 4079      20696E74 
 4079      00
 4080              	.LASF138:
 4081 0119 2F686F6D 		.ascii	"/home/pauba/ChibiOS-RT/test/test.c\000"
 4081      652F7061 
 4081      7562612F 
 4081      43686962 
 4081      694F532D 
 4082              	.LASF116:
 4083 013c 676C6F62 		.ascii	"global_fail\000"
 4083      616C5F66 
 4083      61696C00 
 4084              	.LASF21:
 4085 0148 74737461 		.ascii	"tstate_t\000"
 4085      74655F74 
 4085      00
 4086              	.LASF103:
 4087 0151 5F746573 		.ascii	"_test_assert_time_window\000"
 4087      745F6173 
 4087      73657274 
 4087      5F74696D 
 4087      655F7769 
 4088              	.LASF105:
 4089 016a 74657374 		.ascii	"test_terminate_threads\000"
 4089      5F746572 
 4089      6D696E61 
 4089      74655F74 
 4089      68726561 
 4090              	.LASF41:
 4091 0181 705F7469 		.ascii	"p_time\000"
 4091      6D6500
ARM GAS  /home/pauba/tmp/cc8kkThj.s 			page 76


 4092              	.LASF119:
 4093 0188 746F6B70 		.ascii	"tokp\000"
 4093      00
 4094              	.LASF90:
 4095 018d 62756666 		.ascii	"buffer\000"
 4095      657200
 4096              	.LASF33:
 4097 0194 705F6E65 		.ascii	"p_newer\000"
 4097      77657200 
 4098              	.LASF110:
 4099 019c 74657374 		.ascii	"test_start_timer\000"
 4099      5F737461 
 4099      72745F74 
 4099      696D6572 
 4099      00
 4100              	.LASF68:
 4101 01ad 725F6E65 		.ascii	"r_newer\000"
 4101      77657200 
 4102              	.LASF51:
 4103 01b5 72656761 		.ascii	"regarm_t\000"
 4103      726D5F74 
 4103      00
 4104              	.LASF59:
 4105 01be 76745F70 		.ascii	"vt_prev\000"
 4105      72657600 
 4106              	.LASF108:
 4107 01c6 64757261 		.ascii	"duration\000"
 4107      74696F6E 
 4107      00
 4108              	.LASF84:
 4109 01cf 42617365 		.ascii	"BaseSequentialStream\000"
 4109      53657175 
 4109      656E7469 
 4109      616C5374 
 4109      7265616D 
 4110              	.LASF109:
 4111 01e4 7072696E 		.ascii	"print_tokens\000"
 4111      745F746F 
 4111      6B656E73 
 4111      00
 4112              	.LASF36:
 4113 01f1 705F7374 		.ascii	"p_stklimit\000"
 4113      6B6C696D 
 4113      697400
 4114              	.LASF0:
 4115 01fc 756E7369 		.ascii	"unsigned int\000"
 4115      676E6564 
 4115      20696E74 
 4115      00
 4116              	.LASF58:
 4117 0209 76745F6E 		.ascii	"vt_next\000"
 4117      65787400 
 4118              	.LASF97:
 4119 0211 706F696E 		.ascii	"point\000"
 4119      7400
 4120              	.LASF43:
 4121 0217 705F6D73 		.ascii	"p_msgqueue\000"
ARM GAS  /home/pauba/tmp/cc8kkThj.s 			page 77


 4121      67717565 
 4121      756500
 4122              	.LASF102:
 4123 0222 65787065 		.ascii	"expected\000"
 4123      63746564 
 4123      00
 4124              	.LASF131:
 4125 022b 70617474 		.ascii	"patternevt\000"
 4125      65726E65 
 4125      767400
 4126              	.LASF86:
 4127 0236 6E616D65 		.ascii	"name\000"
 4127      00
 4128              	.LASF57:
 4129 023b 56697274 		.ascii	"VirtualTimer\000"
 4129      75616C54 
 4129      696D6572 
 4129      00
 4130              	.LASF6:
 4131 0248 73686F72 		.ascii	"short unsigned int\000"
 4131      7420756E 
 4131      7369676E 
 4131      65642069 
 4131      6E7400
 4132              	.LASF25:
 4133 025b 6D73675F 		.ascii	"msg_t\000"
 4133      7400
 4134              	.LASF98:
 4135 0261 5F746573 		.ascii	"_test_fail\000"
 4135      745F6661 
 4135      696C00
 4136              	.LASF20:
 4137 026c 746D6F64 		.ascii	"tmode_t\000"
 4137      655F7400 
 4138              	.LASF50:
 4139 0274 54687265 		.ascii	"ThreadsList\000"
 4139      6164734C 
 4139      69737400 
 4140              	.LASF46:
 4141 0280 705F6D74 		.ascii	"p_mtxlist\000"
 4141      786C6973 
 4141      7400
 4142              	.LASF26:
 4143 028a 6576656E 		.ascii	"eventmask_t\000"
 4143      746D6173 
 4143      6B5F7400 
 4144              	.LASF7:
 4145 0296 5F5F696E 		.ascii	"__int32_t\000"
 4145      7433325F 
 4145      7400
 4146              	.LASF93:
 4147 02a0 6D736770 		.ascii	"msgp\000"
 4147      00
 4148              	.LASF52:
 4149 02a5 73746B61 		.ascii	"stkalign_t\000"
 4149      6C69676E 
 4149      5F7400
ARM GAS  /home/pauba/tmp/cc8kkThj.s 			page 78


 4150              	.LASF92:
 4151 02b0 74657374 		.ascii	"test_print\000"
 4151      5F707269 
 4151      6E7400
 4152              	.LASF82:
 4153 02bb 77726974 		.ascii	"write\000"
 4153      6500
 4154              	.LASF66:
 4155 02c1 725F7072 		.ascii	"r_prio\000"
 4155      696F00
 4156              	.LASF60:
 4157 02c8 76745F74 		.ascii	"vt_time\000"
 4157      696D6500 
 4158              	.LASF42:
 4159 02d0 705F7761 		.ascii	"p_waiting\000"
 4159      6974696E 
 4159      6700
 4160              	.LASF129:
 4161 02da 70617474 		.ascii	"patternmsg\000"
 4161      65726E6D 
 4161      736700
 4162              	.LASF55:
 4163 02e5 73697A65 		.ascii	"sizetype\000"
 4163      74797065 
 4163      00
 4164              	.LASF61:
 4165 02ee 76745F66 		.ascii	"vt_func\000"
 4165      756E6300 
 4166              	.LASF72:
 4167 02f6 4D757465 		.ascii	"Mutex\000"
 4167      7800
 4168              	.LASF112:
 4169 02fc 7072696E 		.ascii	"print_line\000"
 4169      745F6C69 
 4169      6E6500
 4170              	.LASF106:
 4171 0307 74657374 		.ascii	"test_wait_threads\000"
 4171      5F776169 
 4171      745F7468 
 4171      72656164 
 4171      7300
 4172              	.LASF67:
 4173 0319 725F6374 		.ascii	"r_ctx\000"
 4173      7800
 4174              	.LASF49:
 4175 031f 54687265 		.ascii	"ThreadsQueue\000"
 4175      61647351 
 4175      75657565 
 4175      00
 4176              	.LASF32:
 4177 032c 705F6374 		.ascii	"p_ctx\000"
 4177      7800
 4178              	.LASF87:
 4179 0332 73657475 		.ascii	"setup\000"
 4179      7000
 4180              	.LASF101:
 4181 0338 5F746573 		.ascii	"_test_assert_sequence\000"
ARM GAS  /home/pauba/tmp/cc8kkThj.s 			page 79


 4181      745F6173 
 4181      73657274 
 4181      5F736571 
 4181      75656E63 
 4182              	.LASF70:
 4183 034e 725F6375 		.ascii	"r_current\000"
 4183      7272656E 
 4183      7400
 4184              	.LASF69:
 4185 0358 725F6F6C 		.ascii	"r_older\000"
 4185      64657200 
 4186              	.LASF127:
 4187 0360 70617474 		.ascii	"patternsem\000"
 4187      65726E73 
 4187      656D00
 4188              	.LASF115:
 4189 036b 6C6F6361 		.ascii	"local_fail\000"
 4189      6C5F6661 
 4189      696C00
 4190              	.LASF12:
 4191 0376 5F5F7569 		.ascii	"__uint64_t\000"
 4191      6E743634 
 4191      5F7400
 4192              	.LASF83:
 4193 0381 72656164 		.ascii	"read\000"
 4193      00
 4194              	.LASF96:
 4195 0386 746F6B65 		.ascii	"token\000"
 4195      6E00
 4196              	.LASF22:
 4197 038c 74726566 		.ascii	"trefs_t\000"
 4197      735F7400 
 4198              	.LASF30:
 4199 0394 705F7072 		.ascii	"p_prev\000"
 4199      657600
 4200              	.LASF89:
 4201 039b 65786563 		.ascii	"execute\000"
 4201      75746500 
 4202              	.LASF24:
 4203 03a3 74707269 		.ascii	"tprio_t\000"
 4203      6F5F7400 
 4204              	.LASF19:
 4205 03ab 5F426F6F 		.ascii	"_Bool\000"
 4205      6C00
 4206              	.LASF15:
 4207 03b1 696E7433 		.ascii	"int32_t\000"
 4207      325F7400 
 4208              	.LASF4:
 4209 03b9 756E7369 		.ascii	"unsigned char\000"
 4209      676E6564 
 4209      20636861 
 4209      7200
 4210              	.LASF113:
 4211 03c7 54657374 		.ascii	"TestThread\000"
 4211      54687265 
 4211      616400
 4212              	.LASF141:
ARM GAS  /home/pauba/tmp/cc8kkThj.s 			page 80


 4213 03d2 74657374 		.ascii	"test_wait_tick\000"
 4213      5F776169 
 4213      745F7469 
 4213      636B00
 4214              	.LASF128:
 4215 03e1 70617474 		.ascii	"patternmtx\000"
 4215      65726E6D 
 4215      747800
 4216              	.LASF5:
 4217 03ec 73686F72 		.ascii	"short int\000"
 4217      7420696E 
 4217      7400
 4218              	.LASF37:
 4219 03f6 705F7374 		.ascii	"p_state\000"
 4219      61746500 
 4220              	.LASF40:
 4221 03fe 705F7072 		.ascii	"p_preempt\000"
 4221      65656D70 
 4221      7400
 4222              	.LASF123:
 4223 0408 74687265 		.ascii	"threads\000"
 4223      61647300 
 4224              	.LASF34:
 4225 0410 705F6F6C 		.ascii	"p_older\000"
 4225      64657200 
 4226              	.LASF125:
 4227 0418 74657374 		.ascii	"test_timer_done\000"
 4227      5F74696D 
 4227      65725F64 
 4227      6F6E6500 
 4228              	.LASF79:
 4229 0428 65776D61 		.ascii	"ewmask\000"
 4229      736B00
 4230              	.LASF29:
 4231 042f 705F6E65 		.ascii	"p_next\000"
 4231      787400
 4232              	.LASF81:
 4233 0436 42617365 		.ascii	"BaseSequentialStreamVMT\000"
 4233      53657175 
 4233      656E7469 
 4233      616C5374 
 4233      7265616D 
 4234              	.LASF38:
 4235 044e 705F666C 		.ascii	"p_flags\000"
 4235      61677300 
 4236              	.LASF136:
 4237 0456 70617474 		.ascii	"patternbmk\000"
 4237      65726E62 
 4237      6D6B00
 4238              	.LASF28:
 4239 0461 54687265 		.ascii	"Thread\000"
 4239      616400
 4240              	.LASF85:
 4241 0468 74657374 		.ascii	"testcase\000"
 4241      63617365 
 4241      00
 4242              	.LASF45:
ARM GAS  /home/pauba/tmp/cc8kkThj.s 			page 81


 4243 0471 705F6570 		.ascii	"p_epending\000"
 4243      656E6469 
 4243      6E6700
 4244              	.LASF16:
 4245 047c 75696E74 		.ascii	"uint32_t\000"
 4245      33325F74 
 4245      00
 4246              	.LASF65:
 4247 0485 725F7175 		.ascii	"r_queue\000"
 4247      65756500 
 4248              	.LASF91:
 4249 048d 74657374 		.ascii	"test_printn\000"
 4249      5F707269 
 4249      6E746E00 
 4250              	.LASF137:
 4251 0499 474E5520 		.ascii	"GNU C 4.8.3 20140228 (release) [ARM/embedded-4_8-br"
 4251      4320342E 
 4251      382E3320 
 4251      32303134 
 4251      30323238 
 4252 04cc 616E6368 		.ascii	"anch revision 208322] -mcpu=cortex-m4 -mno-thumb-in"
 4252      20726576 
 4252      6973696F 
 4252      6E203230 
 4252      38333232 
 4253 04ff 74657277 		.ascii	"terwork -mthumb -ggdb -fomit-frame-pointer -falign-"
 4253      6F726B20 
 4253      2D6D7468 
 4253      756D6220 
 4253      2D676764 
 4254 0532 66756E63 		.ascii	"functions=16 -ffunction-sections -fdata-sections -f"
 4254      74696F6E 
 4254      733D3136 
 4254      202D6666 
 4254      756E6374 
 4255 0565 6E6F2D63 		.ascii	"no-common\000"
 4255      6F6D6D6F 
 4255      6E00
 4256              	.LASF10:
 4257 056f 6C6F6E67 		.ascii	"long unsigned int\000"
 4257      20756E73 
 4257      69676E65 
 4257      6420696E 
 4257      7400
 4258              	.LASF80:
 4259 0581 63686172 		.ascii	"char\000"
 4259      00
 4260              	.LASF114:
 4261 0586 70617474 		.ascii	"patterns\000"
 4261      65726E73 
 4261      00
 4262              	.LASF126:
 4263 058f 70617474 		.ascii	"patternthd\000"
 4263      65726E74 
 4263      686400
 4264              	.LASF75:
 4265 059a 6D5F6E65 		.ascii	"m_next\000"
ARM GAS  /home/pauba/tmp/cc8kkThj.s 			page 82


 4265      787400
 4266              	.LASF27:
 4267 05a1 73797374 		.ascii	"systime_t\000"
 4267      696D655F 
 4267      7400
 4268              	.LASF47:
 4269 05ab 705F7265 		.ascii	"p_realprio\000"
 4269      616C7072 
 4269      696F00
 4270              	.LASF56:
 4271 05b6 76746675 		.ascii	"vtfunc_t\000"
 4271      6E635F74 
 4271      00
 4272              	.LASF9:
 4273 05bf 5F5F7569 		.ascii	"__uint32_t\000"
 4273      6E743332 
 4273      5F7400
 4274              	.LASF134:
 4275 05ca 70617474 		.ascii	"patterndyn\000"
 4275      65726E64 
 4275      796E00
 4276              	.LASF54:
 4277 05d5 636F6E74 		.ascii	"context\000"
 4277      65787400 
 4278              	.LASF53:
 4279 05dd 696E7463 		.ascii	"intctx\000"
 4279      747800
 4280              	.LASF62:
 4281 05e4 76745F70 		.ascii	"vt_par\000"
 4281      617200
 4282              	.LASF139:
 4283 05eb 74657374 		.ascii	"test_buffers\000"
 4283      5F627566 
 4283      66657273 
 4283      00
 4284              	.LASF35:
 4285 05f8 705F6E61 		.ascii	"p_name\000"
 4285      6D6500
 4286              	.LASF39:
 4287 05ff 705F7265 		.ascii	"p_refs\000"
 4287      667300
 4288              	.LASF71:
 4289 0606 52656164 		.ascii	"ReadyList\000"
 4289      794C6973 
 4289      7400
 4290              	.LASF111:
 4291 0610 65786563 		.ascii	"execute_test\000"
 4291      7574655F 
 4291      74657374 
 4291      00
 4292              	.LASF121:
 4293 061d 726C6973 		.ascii	"rlist\000"
 4293      7400
 4294              	.LASF14:
 4295 0623 75696E74 		.ascii	"uint8_t\000"
 4295      385F7400 
 4296              	.LASF117:
ARM GAS  /home/pauba/tmp/cc8kkThj.s 			page 83


 4297 062b 6661696C 		.ascii	"failpoint\000"
 4297      706F696E 
 4297      7400
 4298              	.LASF140:
 4299 0635 636C6561 		.ascii	"clear_tokens\000"
 4299      725F746F 
 4299      6B656E73 
 4299      00
 4300              	.LASF78:
 4301 0642 77746F62 		.ascii	"wtobjp\000"
 4301      6A7000
 4302              	.LASF99:
 4303 0649 5F746573 		.ascii	"_test_assert\000"
 4303      745F6173 
 4303      73657274 
 4303      00
 4304              	.LASF63:
 4305 0656 76745F73 		.ascii	"vt_systime\000"
 4305      79737469 
 4305      6D6500
 4306              	.LASF44:
 4307 0661 705F6D73 		.ascii	"p_msg\000"
 4307      6700
 4308              	.LASF104:
 4309 0667 73746172 		.ascii	"start\000"
 4309      7400
 4310              	.LASF64:
 4311 066d 56544C69 		.ascii	"VTList\000"
 4311      737400
 4312              	.LASF74:
 4313 0674 6D5F6F77 		.ascii	"m_owner\000"
 4313      6E657200 
 4314              	.LASF130:
 4315 067c 70617474 		.ascii	"patternmbox\000"
 4315      65726E6D 
 4315      626F7800 
 4316              		.ident	"GCC: (GNU Tools for ARM Embedded Processors) 4.8.3 20140228 (release) [ARM/embedded-4_8-br
ARM GAS  /home/pauba/tmp/cc8kkThj.s 			page 84


DEFINED SYMBOLS
                            *ABS*:00000000 test.c
/home/pauba/tmp/cc8kkThj.s:19     .data.patterns:00000000 $d
/home/pauba/tmp/cc8kkThj.s:22     .data.patterns:00000000 patterns
/home/pauba/tmp/cc8kkThj.s:38     .bss.local_fail:00000000 local_fail
/home/pauba/tmp/cc8kkThj.s:39     .bss.local_fail:00000000 $d
/home/pauba/tmp/cc8kkThj.s:43     .bss.global_fail:00000000 global_fail
/home/pauba/tmp/cc8kkThj.s:44     .bss.global_fail:00000000 $d
/home/pauba/tmp/cc8kkThj.s:46     .bss.failpoint:00000000 $d
/home/pauba/tmp/cc8kkThj.s:49     .bss.failpoint:00000000 failpoint
/home/pauba/tmp/cc8kkThj.s:52     .bss.tokens_buffer:00000000 $d
/home/pauba/tmp/cc8kkThj.s:55     .bss.tokens_buffer:00000000 tokens_buffer
/home/pauba/tmp/cc8kkThj.s:58     .bss.tokp:00000000 $d
/home/pauba/tmp/cc8kkThj.s:61     .bss.tokp:00000000 tokp
/home/pauba/tmp/cc8kkThj.s:68     .bss.test:00000000 test
/home/pauba/tmp/cc8kkThj.s:65     .bss.test:00000000 $d
/home/pauba/tmp/cc8kkThj.s:75     .bss.threads:00000000 threads
/home/pauba/tmp/cc8kkThj.s:72     .bss.threads:00000000 $d
/home/pauba/tmp/cc8kkThj.s:82     .rodata.wa:00000000 wa
/home/pauba/tmp/cc8kkThj.s:79     .rodata.wa:00000000 $d
/home/pauba/tmp/cc8kkThj.s:89     .bss.chp:00000000 $d
/home/pauba/tmp/cc8kkThj.s:92     .bss.chp:00000000 chp
/home/pauba/tmp/cc8kkThj.s:95     .text.test_printn:00000000 $t
/home/pauba/tmp/cc8kkThj.s:101    .text.test_printn:00000000 test_printn
/home/pauba/tmp/cc8kkThj.s:195    .text.test_printn:00000088 $d
/home/pauba/tmp/cc8kkThj.s:201    .text.test_print:00000000 $t
/home/pauba/tmp/cc8kkThj.s:207    .text.test_print:00000000 test_print
/home/pauba/tmp/cc8kkThj.s:249    .text.test_print:00000030 $d
/home/pauba/tmp/cc8kkThj.s:254    .rodata:00000000 $d
/home/pauba/tmp/cc8kkThj.s:258    .text.test_println:00000000 $t
/home/pauba/tmp/cc8kkThj.s:264    .text.test_println:00000000 test_println
/home/pauba/tmp/cc8kkThj.s:297    .text.test_println:00000028 $d
/home/pauba/tmp/cc8kkThj.s:303    .text.clear_tokens:00000000 $t
/home/pauba/tmp/cc8kkThj.s:308    .text.clear_tokens:00000000 clear_tokens
/home/pauba/tmp/cc8kkThj.s:324    .text.clear_tokens:00000008 $d
/home/pauba/tmp/cc8kkThj.s:330    .text.print_tokens:00000000 $t
/home/pauba/tmp/cc8kkThj.s:335    .text.print_tokens:00000000 print_tokens
/home/pauba/tmp/cc8kkThj.s:380    .text.print_tokens:00000034 $d
/home/pauba/tmp/cc8kkThj.s:387    .text.test_emit_token:00000000 $t
/home/pauba/tmp/cc8kkThj.s:393    .text.test_emit_token:00000000 test_emit_token
/home/pauba/tmp/cc8kkThj.s:439    .text.test_emit_token:00000034 $d
/home/pauba/tmp/cc8kkThj.s:444    .text._test_fail:00000000 $t
/home/pauba/tmp/cc8kkThj.s:450    .text._test_fail:00000000 _test_fail
/home/pauba/tmp/cc8kkThj.s:482    .text._test_fail:00000020 $d
/home/pauba/tmp/cc8kkThj.s:489    .text._test_assert:00000000 $t
/home/pauba/tmp/cc8kkThj.s:495    .text._test_assert:00000000 _test_assert
/home/pauba/tmp/cc8kkThj.s:533    .text._test_assert_sequence:00000000 $t
/home/pauba/tmp/cc8kkThj.s:539    .text._test_assert_sequence:00000000 _test_assert_sequence
/home/pauba/tmp/cc8kkThj.s:605    .text._test_assert_sequence:00000058 $d
/home/pauba/tmp/cc8kkThj.s:611    .text._test_assert_time_window:00000000 $t
/home/pauba/tmp/cc8kkThj.s:617    .text._test_assert_time_window:00000000 _test_assert_time_window
/home/pauba/tmp/cc8kkThj.s:656    .text._test_assert_time_window:00000034 $d
/home/pauba/tmp/cc8kkThj.s:661    .text.test_terminate_threads:00000000 $t
/home/pauba/tmp/cc8kkThj.s:667    .text.test_terminate_threads:00000000 test_terminate_threads
/home/pauba/tmp/cc8kkThj.s:712    .text.test_terminate_threads:00000038 $d
/home/pauba/tmp/cc8kkThj.s:717    .text.test_wait_threads:00000000 $t
/home/pauba/tmp/cc8kkThj.s:723    .text.test_wait_threads:00000000 test_wait_threads
ARM GAS  /home/pauba/tmp/cc8kkThj.s 			page 85


/home/pauba/tmp/cc8kkThj.s:773    .text.test_wait_threads:00000040 $d
/home/pauba/tmp/cc8kkThj.s:778    .text.test_cpu_pulse:00000000 $t
/home/pauba/tmp/cc8kkThj.s:784    .text.test_cpu_pulse:00000000 test_cpu_pulse
/home/pauba/tmp/cc8kkThj.s:875    .text.test_cpu_pulse:0000007c $d
/home/pauba/tmp/cc8kkThj.s:881    .text.test_wait_tick:00000000 $t
/home/pauba/tmp/cc8kkThj.s:887    .text.test_wait_tick:00000000 test_wait_tick
/home/pauba/tmp/cc8kkThj.s:909    .text.test_wait_tick:00000010 $d
/home/pauba/tmp/cc8kkThj.s:917    .bss.test_timer_done:00000000 test_timer_done
/home/pauba/tmp/cc8kkThj.s:918    .bss.test_timer_done:00000000 $d
/home/pauba/tmp/cc8kkThj.s:920    .bss.vt:00000000 $d
/home/pauba/tmp/cc8kkThj.s:923    .bss.vt:00000000 vt
/home/pauba/tmp/cc8kkThj.s:926    .text.tmr:00000000 $t
/home/pauba/tmp/cc8kkThj.s:931    .text.tmr:00000000 tmr
/home/pauba/tmp/cc8kkThj.s:952    .text.tmr:00000010 $d
/home/pauba/tmp/cc8kkThj.s:957    .text.test_start_timer:00000000 $t
/home/pauba/tmp/cc8kkThj.s:963    .text.test_start_timer:00000000 test_start_timer
/home/pauba/tmp/cc8kkThj.s:1018   .text.test_start_timer:0000004c $d
/home/pauba/tmp/cc8kkThj.s:1026   .text.execute_test:00000000 $t
/home/pauba/tmp/cc8kkThj.s:1031   .text.execute_test:00000000 execute_test
/home/pauba/tmp/cc8kkThj.s:1101   .text.execute_test:00000058 $d
/home/pauba/tmp/cc8kkThj.s:1107   .text.print_line:00000000 $t
/home/pauba/tmp/cc8kkThj.s:1112   .text.print_line:00000000 print_line
/home/pauba/tmp/cc8kkThj.s:1165   .text.print_line:00000044 $d
/home/pauba/tmp/cc8kkThj.s:1263   .text.TestThread:00000000 $t
/home/pauba/tmp/cc8kkThj.s:1269   .text.TestThread:00000000 TestThread
/home/pauba/tmp/cc8kkThj.s:1495   .text.TestThread:00000188 $d
                     .debug_frame:00000010 $d
/home/pauba/tmp/cc8kkThj.s:253    .text.test_print:00000034 $t
/home/pauba/tmp/cc8kkThj.s:443    .text.test_emit_token:00000038 $t
/home/pauba/tmp/cc8kkThj.s:488    .text._test_fail:0000002c $t
/home/pauba/tmp/cc8kkThj.s:660    .text._test_assert_time_window:00000038 $t
/home/pauba/tmp/cc8kkThj.s:716    .text.test_terminate_threads:0000003c $t
/home/pauba/tmp/cc8kkThj.s:777    .text.test_wait_threads:00000044 $t
/home/pauba/tmp/cc8kkThj.s:880    .text.test_cpu_pulse:00000084 $t
/home/pauba/tmp/cc8kkThj.s:914    .text.test_wait_tick:00000014 $t
/home/pauba/tmp/cc8kkThj.s:956    .text.tmr:00000014 $t
/home/pauba/tmp/cc8kkThj.s:1025   .text.test_start_timer:0000005c $t
/home/pauba/tmp/cc8kkThj.s:4316   .text.print_line:0000004c $t
/home/pauba/tmp/cc8kkThj.s:1533   .text.TestThread:00000214 $t

UNDEFINED SYMBOLS
patternthd
patternsem
patternmtx
patternmsg
patternmbox
patternevt
patternheap
patternpools
patterndyn
patternqueues
patternbmk
dbg_check_lock
dbg_check_unlock
vtlist
chThdTerminate
chThdWait
ARM GAS  /home/pauba/tmp/cc8kkThj.s 			page 86


rlist
chThdSleep
chVTSetI
