ARM GAS  /home/pauba/tmp/cczXe0di.s 			page 1


   1              		.syntax unified
   2              		.cpu cortex-m4
   3              		.fpu softvfp
   4              		.eabi_attribute 20, 1
   5              		.eabi_attribute 21, 1
   6              		.eabi_attribute 23, 3
   7              		.eabi_attribute 24, 1
   8              		.eabi_attribute 25, 1
   9              		.eabi_attribute 26, 1
  10              		.eabi_attribute 30, 6
  11              		.eabi_attribute 34, 1
  12              		.eabi_attribute 18, 4
  13              		.thumb
  14              		.file	"testevt.c"
  15              		.text
  16              	.Ltext0:
  17              		.cfi_sections	.debug_frame
  18              		.section	.data.es1,"aw",%progbits
  19              		.align	2
  20              		.type	es1, %object
  21              		.size	es1, 4
  22              	es1:
  23 0000 00000000 		.word	es1
  24              		.section	.data.es2,"aw",%progbits
  25              		.align	2
  26              		.type	es2, %object
  27              		.size	es2, 4
  28              	es2:
  29 0000 00000000 		.word	es2
  30              		.section	.text.evt1_setup,"ax",%progbits
  31              		.align	2
  32              		.p2align 4,,15
  33              		.thumb
  34              		.thumb_func
  35              		.type	evt1_setup, %function
  36              	evt1_setup:
  37              	.LFB7:
  38              		.file 1 "/home/pauba/ChibiOS-RT/test/testevt.c"
  39              		.loc 1 75 0
  40              		.cfi_startproc
  41              		@ args = 0, pretend = 0, frame = 0
  42              		@ frame_needed = 0, uses_anonymous_args = 0
  43 0000 08B5     		push	{r3, lr}
  44              		.cfi_def_cfa_offset 8
  45              		.cfi_offset 3, -8
  46              		.cfi_offset 14, -4
  47              		.loc 1 77 0
  48 0002 4FF0FF30 		mov	r0, #-1
  49 0006 FFF7FEFF 		bl	chEvtGetAndClearEvents
  50              		.loc 1 78 0
  51 000a 08BD     		pop	{r3, pc}
  52              		.cfi_endproc
  53              	.LFE7:
  54              		.size	evt1_setup, .-evt1_setup
  55 000c AFF30080 		.section	.text.h1,"ax",%progbits
  56              		.align	2
  57              		.p2align 4,,15
ARM GAS  /home/pauba/tmp/cczXe0di.s 			page 2


  58              		.thumb
  59              		.thumb_func
  60              		.type	h1, %function
  61              	h1:
  62              	.LFB8:
  63              		.loc 1 80 0
  64              		.cfi_startproc
  65              		@ args = 0, pretend = 0, frame = 8
  66              		@ frame_needed = 0, uses_anonymous_args = 0
  67 0000 00B5     		push	{lr}
  68              		.cfi_def_cfa_offset 4
  69              		.cfi_offset 14, -4
  70 0002 83B0     		sub	sp, sp, #12
  71              		.cfi_def_cfa_offset 16
  72 0004 0190     		str	r0, [sp, #4]
  73              		.loc 1 80 0
  74 0006 4120     		movs	r0, #65
  75 0008 FFF7FEFF 		bl	test_emit_token
  76 000c 03B0     		add	sp, sp, #12
  77              		@ sp needed
  78 000e 5DF804FB 		ldr	pc, [sp], #4
  79              		.cfi_endproc
  80              	.LFE8:
  81              		.size	h1, .-h1
  82 0012 00BFAFF3 		.section	.text.h2,"ax",%progbits
  82      0080AFF3 
  82      0080AFF3 
  82      0080
  83              		.align	2
  84              		.p2align 4,,15
  85              		.thumb
  86              		.thumb_func
  87              		.type	h2, %function
  88              	h2:
  89              	.LFB9:
  90              		.loc 1 81 0
  91              		.cfi_startproc
  92              		@ args = 0, pretend = 0, frame = 8
  93              		@ frame_needed = 0, uses_anonymous_args = 0
  94 0000 00B5     		push	{lr}
  95              		.cfi_def_cfa_offset 4
  96              		.cfi_offset 14, -4
  97 0002 83B0     		sub	sp, sp, #12
  98              		.cfi_def_cfa_offset 16
  99 0004 0190     		str	r0, [sp, #4]
 100              		.loc 1 81 0
 101 0006 4220     		movs	r0, #66
 102 0008 FFF7FEFF 		bl	test_emit_token
 103 000c 03B0     		add	sp, sp, #12
 104              		@ sp needed
 105 000e 5DF804FB 		ldr	pc, [sp], #4
 106              		.cfi_endproc
 107              	.LFE9:
 108              		.size	h2, .-h2
 109 0012 00BFAFF3 		.section	.text.h3,"ax",%progbits
 109      0080AFF3 
 109      0080AFF3 
ARM GAS  /home/pauba/tmp/cczXe0di.s 			page 3


 109      0080
 110              		.align	2
 111              		.p2align 4,,15
 112              		.thumb
 113              		.thumb_func
 114              		.type	h3, %function
 115              	h3:
 116              	.LFB10:
 117              		.loc 1 82 0
 118              		.cfi_startproc
 119              		@ args = 0, pretend = 0, frame = 8
 120              		@ frame_needed = 0, uses_anonymous_args = 0
 121 0000 00B5     		push	{lr}
 122              		.cfi_def_cfa_offset 4
 123              		.cfi_offset 14, -4
 124 0002 83B0     		sub	sp, sp, #12
 125              		.cfi_def_cfa_offset 16
 126 0004 0190     		str	r0, [sp, #4]
 127              		.loc 1 82 0
 128 0006 4320     		movs	r0, #67
 129 0008 FFF7FEFF 		bl	test_emit_token
 130 000c 03B0     		add	sp, sp, #12
 131              		@ sp needed
 132 000e 5DF804FB 		ldr	pc, [sp], #4
 133              		.cfi_endproc
 134              	.LFE10:
 135              		.size	h3, .-h3
 136 0012 00BFAFF3 		.section	.rodata.evhndl,"a",%progbits
 136      0080AFF3 
 136      0080AFF3 
 136      0080
 137              		.align	2
 138              		.type	evhndl, %object
 139              		.size	evhndl, 12
 140              	evhndl:
 141 0000 00000000 		.word	h1
 142 0004 00000000 		.word	h2
 143 0008 00000000 		.word	h3
 144              		.section	.rodata
 145              		.align	2
 146              	.LC0:
 147 0000 41424300 		.ascii	"ABC\000"
 148              		.section	.text.evt1_execute,"ax",%progbits
 149              		.align	2
 150              		.p2align 4,,15
 151              		.thumb
 152              		.thumb_func
 153              		.type	evt1_execute, %function
 154              	evt1_execute:
 155              	.LFB11:
 156              		.loc 1 85 0
 157              		.cfi_startproc
 158              		@ args = 0, pretend = 0, frame = 32
 159              		@ frame_needed = 0, uses_anonymous_args = 0
 160 0000 00B5     		push	{lr}
 161              		.cfi_def_cfa_offset 4
 162              		.cfi_offset 14, -4
ARM GAS  /home/pauba/tmp/cczXe0di.s 			page 4


 163 0002 89B0     		sub	sp, sp, #36
 164              		.cfi_def_cfa_offset 40
 165              		.loc 1 91 0
 166 0004 2B4B     		ldr	r3, .L12
 167 0006 2B4A     		ldr	r2, .L12
 168 0008 1A60     		str	r2, [r3]
 169              		.loc 1 92 0
 170 000a 04AB     		add	r3, sp, #16
 171 000c 2948     		ldr	r0, .L12
 172 000e 1946     		mov	r1, r3
 173 0010 0122     		movs	r2, #1
 174 0012 FFF7FEFF 		bl	chEvtRegisterMask
 175              		.loc 1 93 0
 176 0016 6B46     		mov	r3, sp
 177 0018 2648     		ldr	r0, .L12
 178 001a 1946     		mov	r1, r3
 179 001c 0222     		movs	r2, #2
 180 001e FFF7FEFF 		bl	chEvtRegisterMask
 181              		.loc 1 94 0
 182 0022 244B     		ldr	r3, .L12
 183 0024 1A68     		ldr	r2, [r3]
 184 0026 234B     		ldr	r3, .L12
 185 0028 9A42     		cmp	r2, r3
 186 002a 0CBF     		ite	eq
 187 002c 0023     		moveq	r3, #0
 188 002e 0123     		movne	r3, #1
 189 0030 DBB2     		uxtb	r3, r3
 190 0032 0120     		movs	r0, #1
 191 0034 1946     		mov	r1, r3
 192 0036 FFF7FEFF 		bl	_test_assert
 193 003a 0346     		mov	r3, r0
 194 003c 002B     		cmp	r3, #0
 195 003e 00D0     		beq	.L6
 196              		.loc 1 94 0 is_stmt 0 discriminator 1
 197 0040 35E0     		b	.L5
 198              	.L6:
 199              		.loc 1 95 0 is_stmt 1
 200 0042 04AB     		add	r3, sp, #16
 201 0044 1B48     		ldr	r0, .L12
 202 0046 1946     		mov	r1, r3
 203 0048 FFF7FEFF 		bl	chEvtUnregister
 204              		.loc 1 96 0
 205 004c 194B     		ldr	r3, .L12
 206 004e 1A68     		ldr	r2, [r3]
 207 0050 184B     		ldr	r3, .L12
 208 0052 9A42     		cmp	r2, r3
 209 0054 0CBF     		ite	eq
 210 0056 0023     		moveq	r3, #0
 211 0058 0123     		movne	r3, #1
 212 005a DBB2     		uxtb	r3, r3
 213 005c 0220     		movs	r0, #2
 214 005e 1946     		mov	r1, r3
 215 0060 FFF7FEFF 		bl	_test_assert
 216 0064 0346     		mov	r3, r0
 217 0066 002B     		cmp	r3, #0
 218 0068 00D0     		beq	.L8
 219              		.loc 1 96 0 is_stmt 0 discriminator 1
ARM GAS  /home/pauba/tmp/cczXe0di.s 			page 5


 220 006a 20E0     		b	.L5
 221              	.L8:
 222              		.loc 1 97 0 is_stmt 1
 223 006c 6B46     		mov	r3, sp
 224 006e 1148     		ldr	r0, .L12
 225 0070 1946     		mov	r1, r3
 226 0072 FFF7FEFF 		bl	chEvtUnregister
 227              		.loc 1 98 0
 228 0076 0F4B     		ldr	r3, .L12
 229 0078 1A68     		ldr	r2, [r3]
 230 007a 0E4B     		ldr	r3, .L12
 231 007c 9A42     		cmp	r2, r3
 232 007e 14BF     		ite	ne
 233 0080 0023     		movne	r3, #0
 234 0082 0123     		moveq	r3, #1
 235 0084 DBB2     		uxtb	r3, r3
 236 0086 0320     		movs	r0, #3
 237 0088 1946     		mov	r1, r3
 238 008a FFF7FEFF 		bl	_test_assert
 239 008e 0346     		mov	r3, r0
 240 0090 002B     		cmp	r3, #0
 241 0092 00D0     		beq	.L9
 242              		.loc 1 98 0 is_stmt 0 discriminator 1
 243 0094 0BE0     		b	.L5
 244              	.L9:
 245              		.loc 1 103 0 is_stmt 1
 246 0096 0848     		ldr	r0, .L12+4
 247 0098 0721     		movs	r1, #7
 248 009a FFF7FEFF 		bl	chEvtDispatch
 249              		.loc 1 104 0
 250 009e 0420     		movs	r0, #4
 251 00a0 0649     		ldr	r1, .L12+8
 252 00a2 FFF7FEFF 		bl	_test_assert_sequence
 253 00a6 0346     		mov	r3, r0
 254 00a8 002B     		cmp	r3, #0
 255 00aa 00D0     		beq	.L5
 256 00ac 00BF     		nop
 257              	.L5:
 258              		.loc 1 105 0
 259 00ae 09B0     		add	sp, sp, #36
 260              		@ sp needed
 261 00b0 5DF804FB 		ldr	pc, [sp], #4
 262              	.L13:
 263              		.align	2
 264              	.L12:
 265 00b4 00000000 		.word	es1
 266 00b8 00000000 		.word	evhndl
 267 00bc 00000000 		.word	.LC0
 268              		.cfi_endproc
 269              	.LFE11:
 270              		.size	evt1_execute, .-evt1_execute
 271              		.global	testevt1
 272              		.section	.rodata
 273              		.align	2
 274              	.LC1:
 275 0004 4576656E 		.ascii	"Events, registration and dispatch\000"
 275      74732C20 
ARM GAS  /home/pauba/tmp/cczXe0di.s 			page 6


 275      72656769 
 275      73747261 
 275      74696F6E 
 276              		.section	.rodata.testevt1,"a",%progbits
 277              		.align	2
 278              		.type	testevt1, %object
 279              		.size	testevt1, 16
 280              	testevt1:
 281 0000 04000000 		.word	.LC1
 282 0004 00000000 		.word	evt1_setup
 283 0008 00000000 		.word	0
 284 000c 00000000 		.word	evt1_execute
 285              		.section	.text.evt2_setup,"ax",%progbits
 286              		.align	2
 287              		.p2align 4,,15
 288              		.thumb
 289              		.thumb_func
 290              		.type	evt2_setup, %function
 291              	evt2_setup:
 292              	.LFB12:
 293              		.loc 1 128 0
 294              		.cfi_startproc
 295              		@ args = 0, pretend = 0, frame = 0
 296              		@ frame_needed = 0, uses_anonymous_args = 0
 297 0000 08B5     		push	{r3, lr}
 298              		.cfi_def_cfa_offset 8
 299              		.cfi_offset 3, -8
 300              		.cfi_offset 14, -4
 301              		.loc 1 130 0
 302 0002 4FF0FF30 		mov	r0, #-1
 303 0006 FFF7FEFF 		bl	chEvtGetAndClearEvents
 304              		.loc 1 131 0
 305 000a 08BD     		pop	{r3, pc}
 306              		.cfi_endproc
 307              	.LFE12:
 308              		.size	evt2_setup, .-evt2_setup
 309              		.section	.text.thread1,"ax",%progbits
 310              		.align	2
 311              		.p2align 4,,15
 312              		.thumb
 313              		.thumb_func
 314              		.type	thread1, %function
 315              	thread1:
 316              	.LFB13:
 317              		.loc 1 133 0
 318              		.cfi_startproc
 319              		@ args = 0, pretend = 0, frame = 8
 320              		@ frame_needed = 0, uses_anonymous_args = 0
 321 0000 00B5     		push	{lr}
 322              		.cfi_def_cfa_offset 4
 323              		.cfi_offset 14, -4
 324 0002 83B0     		sub	sp, sp, #12
 325              		.cfi_def_cfa_offset 16
 326 0004 0190     		str	r0, [sp, #4]
 327              		.loc 1 135 0
 328 0006 3220     		movs	r0, #50
 329 0008 FFF7FEFF 		bl	chThdSleep
ARM GAS  /home/pauba/tmp/cczXe0di.s 			page 7


 330              		.loc 1 136 0
 331 000c 0198     		ldr	r0, [sp, #4]
 332 000e 0121     		movs	r1, #1
 333 0010 FFF7FEFF 		bl	chEvtSignal
 334              		.loc 1 137 0
 335 0014 0023     		movs	r3, #0
 336              		.loc 1 138 0
 337 0016 1846     		mov	r0, r3
 338 0018 03B0     		add	sp, sp, #12
 339              		@ sp needed
 340 001a 5DF804FB 		ldr	pc, [sp], #4
 341              		.cfi_endproc
 342              	.LFE13:
 343              		.size	thread1, .-thread1
 344 001e 00BF     		.section	.text.thread2,"ax",%progbits
 345              		.align	2
 346              		.p2align 4,,15
 347              		.thumb
 348              		.thumb_func
 349              		.type	thread2, %function
 350              	thread2:
 351              	.LFB14:
 352              		.loc 1 140 0
 353              		.cfi_startproc
 354              		@ args = 0, pretend = 0, frame = 8
 355              		@ frame_needed = 0, uses_anonymous_args = 0
 356 0000 00B5     		push	{lr}
 357              		.cfi_def_cfa_offset 4
 358              		.cfi_offset 14, -4
 359 0002 83B0     		sub	sp, sp, #12
 360              		.cfi_def_cfa_offset 16
 361 0004 0190     		str	r0, [sp, #4]
 362              		.loc 1 143 0
 363 0006 0848     		ldr	r0, .L19
 364 0008 0021     		movs	r1, #0
 365 000a FFF7FEFF 		bl	chEvtBroadcastFlags
 366              		.loc 1 144 0
 367 000e 3220     		movs	r0, #50
 368 0010 FFF7FEFF 		bl	chThdSleep
 369              		.loc 1 145 0
 370 0014 0548     		ldr	r0, .L19+4
 371 0016 0021     		movs	r1, #0
 372 0018 FFF7FEFF 		bl	chEvtBroadcastFlags
 373              		.loc 1 146 0
 374 001c 0023     		movs	r3, #0
 375              		.loc 1 147 0
 376 001e 1846     		mov	r0, r3
 377 0020 03B0     		add	sp, sp, #12
 378              		@ sp needed
 379 0022 5DF804FB 		ldr	pc, [sp], #4
 380              	.L20:
 381 0026 00BF     		.align	2
 382              	.L19:
 383 0028 00000000 		.word	es1
 384 002c 00000000 		.word	es2
 385              		.cfi_endproc
 386              	.LFE14:
ARM GAS  /home/pauba/tmp/cczXe0di.s 			page 8


 387              		.size	thread2, .-thread2
 388              		.section	.rodata
 389 0026 0000     		.align	2
 390              	.LC2:
 391 0028 4100     		.ascii	"A\000"
 392              		.section	.text.evt2_execute,"ax",%progbits
 393              		.align	2
 394              		.p2align 4,,15
 395              		.thumb
 396              		.thumb_func
 397              		.type	evt2_execute, %function
 398              	evt2_execute:
 399              	.LFB15:
 400              		.loc 1 149 0
 401              		.cfi_startproc
 402              		@ args = 0, pretend = 0, frame = 40
 403              		@ frame_needed = 0, uses_anonymous_args = 0
 404 0000 00B5     		push	{lr}
 405              		.cfi_def_cfa_offset 4
 406              		.cfi_offset 14, -4
 407 0002 8DB0     		sub	sp, sp, #52
 408              		.cfi_def_cfa_offset 56
 409              		.loc 1 157 0
 410 0004 0520     		movs	r0, #5
 411 0006 FFF7FEFF 		bl	chEvtAddEvents
 412              		.loc 1 158 0
 413 000a 4FF0FF30 		mov	r0, #-1
 414 000e FFF7FEFF 		bl	chEvtWaitOne
 415 0012 0B90     		str	r0, [sp, #44]
 416              		.loc 1 159 0
 417 0014 0B9B     		ldr	r3, [sp, #44]
 418 0016 012B     		cmp	r3, #1
 419 0018 14BF     		ite	ne
 420 001a 0023     		movne	r3, #0
 421 001c 0123     		moveq	r3, #1
 422 001e DBB2     		uxtb	r3, r3
 423 0020 0120     		movs	r0, #1
 424 0022 1946     		mov	r1, r3
 425 0024 FFF7FEFF 		bl	_test_assert
 426 0028 0346     		mov	r3, r0
 427 002a 002B     		cmp	r3, #0
 428 002c 00D0     		beq	.L22
 429              		.loc 1 159 0 is_stmt 0 discriminator 1
 430 002e 5EE1     		b	.L21
 431              	.L22:
 432              		.loc 1 160 0 is_stmt 1
 433 0030 4FF0FF30 		mov	r0, #-1
 434 0034 FFF7FEFF 		bl	chEvtWaitOne
 435 0038 0B90     		str	r0, [sp, #44]
 436              		.loc 1 161 0
 437 003a 0B9B     		ldr	r3, [sp, #44]
 438 003c 042B     		cmp	r3, #4
 439 003e 14BF     		ite	ne
 440 0040 0023     		movne	r3, #0
 441 0042 0123     		moveq	r3, #1
 442 0044 DBB2     		uxtb	r3, r3
 443 0046 0220     		movs	r0, #2
ARM GAS  /home/pauba/tmp/cczXe0di.s 			page 9


 444 0048 1946     		mov	r1, r3
 445 004a FFF7FEFF 		bl	_test_assert
 446 004e 0346     		mov	r3, r0
 447 0050 002B     		cmp	r3, #0
 448 0052 00D0     		beq	.L24
 449              		.loc 1 161 0 is_stmt 0 discriminator 1
 450 0054 4BE1     		b	.L21
 451              	.L24:
 452              		.loc 1 162 0 is_stmt 1
 453 0056 4FF0FF30 		mov	r0, #-1
 454 005a FFF7FEFF 		bl	chEvtGetAndClearEvents
 455 005e 0B90     		str	r0, [sp, #44]
 456              		.loc 1 163 0
 457 0060 0B9B     		ldr	r3, [sp, #44]
 458 0062 002B     		cmp	r3, #0
 459 0064 14BF     		ite	ne
 460 0066 0023     		movne	r3, #0
 461 0068 0123     		moveq	r3, #1
 462 006a DBB2     		uxtb	r3, r3
 463 006c 0320     		movs	r0, #3
 464 006e 1946     		mov	r1, r3
 465 0070 FFF7FEFF 		bl	_test_assert
 466 0074 0346     		mov	r3, r0
 467 0076 002B     		cmp	r3, #0
 468 0078 00D0     		beq	.L25
 469              		.loc 1 163 0 is_stmt 0 discriminator 1
 470 007a 38E1     		b	.L21
 471              	.L25:
 472              		.loc 1 168 0 is_stmt 1
 473 007c FFF7FEFF 		bl	test_wait_tick
 474              		.loc 1 169 0
 475 0080 9C4B     		ldr	r3, .L39
 476 0082 DB68     		ldr	r3, [r3, #12]
 477 0084 3233     		adds	r3, r3, #50
 478 0086 0A93     		str	r3, [sp, #40]
 479              		.loc 1 170 0
 480 0088 9B4B     		ldr	r3, .L39+4
 481 008a 1A68     		ldr	r2, [r3]
 482 008c 9B4B     		ldr	r3, .L39+8
 483 008e 9B69     		ldr	r3, [r3, #24]
 484 0090 9B68     		ldr	r3, [r3, #8]
 485 0092 013B     		subs	r3, r3, #1
 486              		.loc 1 171 0
 487 0094 9949     		ldr	r1, .L39+8
 488 0096 8969     		ldr	r1, [r1, #24]
 489              		.loc 1 170 0
 490 0098 0091     		str	r1, [sp]
 491 009a 1046     		mov	r0, r2
 492 009c 4FF4A871 		mov	r1, #336
 493 00a0 1A46     		mov	r2, r3
 494 00a2 974B     		ldr	r3, .L39+12
 495 00a4 FFF7FEFF 		bl	chThdCreateStatic
 496 00a8 0246     		mov	r2, r0
 497 00aa 964B     		ldr	r3, .L39+16
 498 00ac 1A60     		str	r2, [r3]
 499              		.loc 1 172 0
 500 00ae 4FF0FF30 		mov	r0, #-1
ARM GAS  /home/pauba/tmp/cczXe0di.s 			page 10


 501 00b2 FFF7FEFF 		bl	chEvtWaitOne
 502 00b6 0B90     		str	r0, [sp, #44]
 503              		.loc 1 173 0
 504 00b8 0A9B     		ldr	r3, [sp, #40]
 505 00ba 0533     		adds	r3, r3, #5
 506 00bc 0420     		movs	r0, #4
 507 00be 0A99     		ldr	r1, [sp, #40]
 508 00c0 1A46     		mov	r2, r3
 509 00c2 FFF7FEFF 		bl	_test_assert_time_window
 510 00c6 0346     		mov	r3, r0
 511 00c8 002B     		cmp	r3, #0
 512 00ca 00D0     		beq	.L26
 513              		.loc 1 173 0 is_stmt 0 discriminator 1
 514 00cc 0FE1     		b	.L21
 515              	.L26:
 516              		.loc 1 174 0 is_stmt 1
 517 00ce 0B9B     		ldr	r3, [sp, #44]
 518 00d0 012B     		cmp	r3, #1
 519 00d2 14BF     		ite	ne
 520 00d4 0023     		movne	r3, #0
 521 00d6 0123     		moveq	r3, #1
 522 00d8 DBB2     		uxtb	r3, r3
 523 00da 0520     		movs	r0, #5
 524 00dc 1946     		mov	r1, r3
 525 00de FFF7FEFF 		bl	_test_assert
 526 00e2 0346     		mov	r3, r0
 527 00e4 002B     		cmp	r3, #0
 528 00e6 00D0     		beq	.L27
 529              		.loc 1 174 0 is_stmt 0 discriminator 1
 530 00e8 01E1     		b	.L21
 531              	.L27:
 532              		.loc 1 175 0 is_stmt 1
 533 00ea 4FF0FF30 		mov	r0, #-1
 534 00ee FFF7FEFF 		bl	chEvtGetAndClearEvents
 535 00f2 0B90     		str	r0, [sp, #44]
 536              		.loc 1 176 0
 537 00f4 0B9B     		ldr	r3, [sp, #44]
 538 00f6 002B     		cmp	r3, #0
 539 00f8 14BF     		ite	ne
 540 00fa 0023     		movne	r3, #0
 541 00fc 0123     		moveq	r3, #1
 542 00fe DBB2     		uxtb	r3, r3
 543 0100 0620     		movs	r0, #6
 544 0102 1946     		mov	r1, r3
 545 0104 FFF7FEFF 		bl	_test_assert
 546 0108 0346     		mov	r3, r0
 547 010a 002B     		cmp	r3, #0
 548 010c 00D0     		beq	.L28
 549              		.loc 1 176 0 is_stmt 0 discriminator 1
 550 010e EEE0     		b	.L21
 551              	.L28:
 552              		.loc 1 177 0 is_stmt 1
 553 0110 FFF7FEFF 		bl	test_wait_threads
 554              		.loc 1 182 0
 555 0114 0520     		movs	r0, #5
 556 0116 FFF7FEFF 		bl	chEvtAddEvents
 557              		.loc 1 183 0
ARM GAS  /home/pauba/tmp/cczXe0di.s 			page 11


 558 011a 4FF0FF30 		mov	r0, #-1
 559 011e FFF7FEFF 		bl	chEvtWaitAny
 560 0122 0B90     		str	r0, [sp, #44]
 561              		.loc 1 184 0
 562 0124 0B9B     		ldr	r3, [sp, #44]
 563 0126 052B     		cmp	r3, #5
 564 0128 14BF     		ite	ne
 565 012a 0023     		movne	r3, #0
 566 012c 0123     		moveq	r3, #1
 567 012e DBB2     		uxtb	r3, r3
 568 0130 0720     		movs	r0, #7
 569 0132 1946     		mov	r1, r3
 570 0134 FFF7FEFF 		bl	_test_assert
 571 0138 0346     		mov	r3, r0
 572 013a 002B     		cmp	r3, #0
 573 013c 00D0     		beq	.L29
 574              		.loc 1 184 0 is_stmt 0 discriminator 1
 575 013e D6E0     		b	.L21
 576              	.L29:
 577              		.loc 1 185 0 is_stmt 1
 578 0140 4FF0FF30 		mov	r0, #-1
 579 0144 FFF7FEFF 		bl	chEvtGetAndClearEvents
 580 0148 0B90     		str	r0, [sp, #44]
 581              		.loc 1 186 0
 582 014a 0B9B     		ldr	r3, [sp, #44]
 583 014c 002B     		cmp	r3, #0
 584 014e 14BF     		ite	ne
 585 0150 0023     		movne	r3, #0
 586 0152 0123     		moveq	r3, #1
 587 0154 DBB2     		uxtb	r3, r3
 588 0156 0820     		movs	r0, #8
 589 0158 1946     		mov	r1, r3
 590 015a FFF7FEFF 		bl	_test_assert
 591 015e 0346     		mov	r3, r0
 592 0160 002B     		cmp	r3, #0
 593 0162 00D0     		beq	.L30
 594              		.loc 1 186 0 is_stmt 0 discriminator 1
 595 0164 C3E0     		b	.L21
 596              	.L30:
 597              		.loc 1 191 0 is_stmt 1
 598 0166 FFF7FEFF 		bl	test_wait_tick
 599              		.loc 1 192 0
 600 016a 624B     		ldr	r3, .L39
 601 016c DB68     		ldr	r3, [r3, #12]
 602 016e 3233     		adds	r3, r3, #50
 603 0170 0A93     		str	r3, [sp, #40]
 604              		.loc 1 193 0
 605 0172 614B     		ldr	r3, .L39+4
 606 0174 1A68     		ldr	r2, [r3]
 607 0176 614B     		ldr	r3, .L39+8
 608 0178 9B69     		ldr	r3, [r3, #24]
 609 017a 9B68     		ldr	r3, [r3, #8]
 610 017c 013B     		subs	r3, r3, #1
 611              		.loc 1 194 0
 612 017e 5F49     		ldr	r1, .L39+8
 613 0180 8969     		ldr	r1, [r1, #24]
 614              		.loc 1 193 0
ARM GAS  /home/pauba/tmp/cczXe0di.s 			page 12


 615 0182 0091     		str	r1, [sp]
 616 0184 1046     		mov	r0, r2
 617 0186 4FF4A871 		mov	r1, #336
 618 018a 1A46     		mov	r2, r3
 619 018c 5C4B     		ldr	r3, .L39+12
 620 018e FFF7FEFF 		bl	chThdCreateStatic
 621 0192 0246     		mov	r2, r0
 622 0194 5B4B     		ldr	r3, .L39+16
 623 0196 1A60     		str	r2, [r3]
 624              		.loc 1 195 0
 625 0198 4FF0FF30 		mov	r0, #-1
 626 019c FFF7FEFF 		bl	chEvtWaitAny
 627 01a0 0B90     		str	r0, [sp, #44]
 628              		.loc 1 196 0
 629 01a2 0A9B     		ldr	r3, [sp, #40]
 630 01a4 0533     		adds	r3, r3, #5
 631 01a6 0920     		movs	r0, #9
 632 01a8 0A99     		ldr	r1, [sp, #40]
 633 01aa 1A46     		mov	r2, r3
 634 01ac FFF7FEFF 		bl	_test_assert_time_window
 635 01b0 0346     		mov	r3, r0
 636 01b2 002B     		cmp	r3, #0
 637 01b4 00D0     		beq	.L31
 638              		.loc 1 196 0 is_stmt 0 discriminator 1
 639 01b6 9AE0     		b	.L21
 640              	.L31:
 641              		.loc 1 197 0 is_stmt 1
 642 01b8 0B9B     		ldr	r3, [sp, #44]
 643 01ba 012B     		cmp	r3, #1
 644 01bc 14BF     		ite	ne
 645 01be 0023     		movne	r3, #0
 646 01c0 0123     		moveq	r3, #1
 647 01c2 DBB2     		uxtb	r3, r3
 648 01c4 0A20     		movs	r0, #10
 649 01c6 1946     		mov	r1, r3
 650 01c8 FFF7FEFF 		bl	_test_assert
 651 01cc 0346     		mov	r3, r0
 652 01ce 002B     		cmp	r3, #0
 653 01d0 00D0     		beq	.L32
 654              		.loc 1 197 0 is_stmt 0 discriminator 1
 655 01d2 8CE0     		b	.L21
 656              	.L32:
 657              		.loc 1 198 0 is_stmt 1
 658 01d4 4FF0FF30 		mov	r0, #-1
 659 01d8 FFF7FEFF 		bl	chEvtGetAndClearEvents
 660 01dc 0B90     		str	r0, [sp, #44]
 661              		.loc 1 199 0
 662 01de 0B9B     		ldr	r3, [sp, #44]
 663 01e0 002B     		cmp	r3, #0
 664 01e2 14BF     		ite	ne
 665 01e4 0023     		movne	r3, #0
 666 01e6 0123     		moveq	r3, #1
 667 01e8 DBB2     		uxtb	r3, r3
 668 01ea 0B20     		movs	r0, #11
 669 01ec 1946     		mov	r1, r3
 670 01ee FFF7FEFF 		bl	_test_assert
 671 01f2 0346     		mov	r3, r0
ARM GAS  /home/pauba/tmp/cczXe0di.s 			page 13


 672 01f4 002B     		cmp	r3, #0
 673 01f6 00D0     		beq	.L33
 674              		.loc 1 199 0 is_stmt 0 discriminator 1
 675 01f8 79E0     		b	.L21
 676              	.L33:
 677              		.loc 1 200 0 is_stmt 1
 678 01fa FFF7FEFF 		bl	test_wait_threads
 679              		.loc 1 205 0
 680 01fe 424B     		ldr	r3, .L39+20
 681 0200 414A     		ldr	r2, .L39+20
 682 0202 1A60     		str	r2, [r3]
 683              		.loc 1 206 0
 684 0204 414B     		ldr	r3, .L39+24
 685 0206 414A     		ldr	r2, .L39+24
 686 0208 1A60     		str	r2, [r3]
 687              		.loc 1 207 0
 688 020a 06AB     		add	r3, sp, #24
 689 020c 3E48     		ldr	r0, .L39+20
 690 020e 1946     		mov	r1, r3
 691 0210 0122     		movs	r2, #1
 692 0212 FFF7FEFF 		bl	chEvtRegisterMask
 693              		.loc 1 208 0
 694 0216 02AB     		add	r3, sp, #8
 695 0218 3C48     		ldr	r0, .L39+24
 696 021a 1946     		mov	r1, r3
 697 021c 0422     		movs	r2, #4
 698 021e FFF7FEFF 		bl	chEvtRegisterMask
 699              		.loc 1 209 0
 700 0222 FFF7FEFF 		bl	test_wait_tick
 701              		.loc 1 210 0
 702 0226 334B     		ldr	r3, .L39
 703 0228 DB68     		ldr	r3, [r3, #12]
 704 022a 3233     		adds	r3, r3, #50
 705 022c 0A93     		str	r3, [sp, #40]
 706              		.loc 1 211 0
 707 022e 324B     		ldr	r3, .L39+4
 708 0230 1A68     		ldr	r2, [r3]
 709 0232 324B     		ldr	r3, .L39+8
 710 0234 9B69     		ldr	r3, [r3, #24]
 711 0236 9B68     		ldr	r3, [r3, #8]
 712 0238 013B     		subs	r3, r3, #1
 713 023a 3549     		ldr	r1, .L39+28
 714 023c 0091     		str	r1, [sp]
 715 023e 1046     		mov	r0, r2
 716 0240 4FF4A871 		mov	r1, #336
 717 0244 1A46     		mov	r2, r3
 718 0246 334B     		ldr	r3, .L39+32
 719 0248 FFF7FEFF 		bl	chThdCreateStatic
 720 024c 0246     		mov	r2, r0
 721 024e 2D4B     		ldr	r3, .L39+16
 722 0250 1A60     		str	r2, [r3]
 723              		.loc 1 213 0
 724 0252 0520     		movs	r0, #5
 725 0254 FFF7FEFF 		bl	chEvtWaitAll
 726 0258 0B90     		str	r0, [sp, #44]
 727              		.loc 1 214 0
 728 025a 0A9B     		ldr	r3, [sp, #40]
ARM GAS  /home/pauba/tmp/cczXe0di.s 			page 14


 729 025c 0533     		adds	r3, r3, #5
 730 025e 0C20     		movs	r0, #12
 731 0260 0A99     		ldr	r1, [sp, #40]
 732 0262 1A46     		mov	r2, r3
 733 0264 FFF7FEFF 		bl	_test_assert_time_window
 734 0268 0346     		mov	r3, r0
 735 026a 002B     		cmp	r3, #0
 736 026c 00D0     		beq	.L34
 737              		.loc 1 214 0 is_stmt 0 discriminator 1
 738 026e 3EE0     		b	.L21
 739              	.L34:
 740              		.loc 1 215 0 is_stmt 1
 741 0270 4FF0FF30 		mov	r0, #-1
 742 0274 FFF7FEFF 		bl	chEvtGetAndClearEvents
 743 0278 0B90     		str	r0, [sp, #44]
 744              		.loc 1 216 0
 745 027a 0B9B     		ldr	r3, [sp, #44]
 746 027c 002B     		cmp	r3, #0
 747 027e 14BF     		ite	ne
 748 0280 0023     		movne	r3, #0
 749 0282 0123     		moveq	r3, #1
 750 0284 DBB2     		uxtb	r3, r3
 751 0286 0D20     		movs	r0, #13
 752 0288 1946     		mov	r1, r3
 753 028a FFF7FEFF 		bl	_test_assert
 754 028e 0346     		mov	r3, r0
 755 0290 002B     		cmp	r3, #0
 756 0292 00D0     		beq	.L35
 757              		.loc 1 216 0 is_stmt 0 discriminator 1
 758 0294 2BE0     		b	.L21
 759              	.L35:
 760              		.loc 1 217 0 is_stmt 1
 761 0296 FFF7FEFF 		bl	test_wait_threads
 762              		.loc 1 218 0
 763 029a 06AB     		add	r3, sp, #24
 764 029c 1A48     		ldr	r0, .L39+20
 765 029e 1946     		mov	r1, r3
 766 02a0 FFF7FEFF 		bl	chEvtUnregister
 767              		.loc 1 219 0
 768 02a4 02AB     		add	r3, sp, #8
 769 02a6 1948     		ldr	r0, .L39+24
 770 02a8 1946     		mov	r1, r3
 771 02aa FFF7FEFF 		bl	chEvtUnregister
 772              		.loc 1 220 0
 773 02ae 164B     		ldr	r3, .L39+20
 774 02b0 1A68     		ldr	r2, [r3]
 775 02b2 154B     		ldr	r3, .L39+20
 776 02b4 9A42     		cmp	r2, r3
 777 02b6 14BF     		ite	ne
 778 02b8 0023     		movne	r3, #0
 779 02ba 0123     		moveq	r3, #1
 780 02bc DBB2     		uxtb	r3, r3
 781 02be 0E20     		movs	r0, #14
 782 02c0 1946     		mov	r1, r3
 783 02c2 FFF7FEFF 		bl	_test_assert
 784 02c6 0346     		mov	r3, r0
 785 02c8 002B     		cmp	r3, #0
ARM GAS  /home/pauba/tmp/cczXe0di.s 			page 15


 786 02ca 00D0     		beq	.L36
 787              		.loc 1 220 0 is_stmt 0 discriminator 1
 788 02cc 0FE0     		b	.L21
 789              	.L36:
 790              		.loc 1 221 0 is_stmt 1
 791 02ce 0F4B     		ldr	r3, .L39+24
 792 02d0 1A68     		ldr	r2, [r3]
 793 02d2 0E4B     		ldr	r3, .L39+24
 794 02d4 9A42     		cmp	r2, r3
 795 02d6 14BF     		ite	ne
 796 02d8 0023     		movne	r3, #0
 797 02da 0123     		moveq	r3, #1
 798 02dc DBB2     		uxtb	r3, r3
 799 02de 0F20     		movs	r0, #15
 800 02e0 1946     		mov	r1, r3
 801 02e2 FFF7FEFF 		bl	_test_assert
 802 02e6 0346     		mov	r3, r0
 803 02e8 002B     		cmp	r3, #0
 804 02ea 00D0     		beq	.L21
 805 02ec 00BF     		nop
 806              	.L21:
 807              		.loc 1 222 0
 808 02ee 0DB0     		add	sp, sp, #52
 809              		@ sp needed
 810 02f0 5DF804FB 		ldr	pc, [sp], #4
 811              	.L40:
 812              		.align	2
 813              	.L39:
 814 02f4 00000000 		.word	vtlist
 815 02f8 00000000 		.word	wa
 816 02fc 00000000 		.word	rlist
 817 0300 00000000 		.word	thread1
 818 0304 00000000 		.word	threads
 819 0308 00000000 		.word	es1
 820 030c 00000000 		.word	es2
 821 0310 28000000 		.word	.LC2
 822 0314 00000000 		.word	thread2
 823              		.cfi_endproc
 824              	.LFE15:
 825              		.size	evt2_execute, .-evt2_execute
 826              		.global	testevt2
 827 0318 AFF30080 		.section	.rodata
 827      AFF30080 
 828 002a 0000     		.align	2
 829              	.LC3:
 830 002c 4576656E 		.ascii	"Events, wait and broadcast\000"
 830      74732C20 
 830      77616974 
 830      20616E64 
 830      2062726F 
 831              		.section	.rodata.testevt2,"a",%progbits
 832              		.align	2
 833              		.type	testevt2, %object
 834              		.size	testevt2, 16
 835              	testevt2:
 836 0000 2C000000 		.word	.LC3
 837 0004 00000000 		.word	evt2_setup
ARM GAS  /home/pauba/tmp/cczXe0di.s 			page 16


 838 0008 00000000 		.word	0
 839 000c 00000000 		.word	evt2_execute
 840              		.section	.text.evt3_setup,"ax",%progbits
 841              		.align	2
 842              		.p2align 4,,15
 843              		.thumb
 844              		.thumb_func
 845              		.type	evt3_setup, %function
 846              	evt3_setup:
 847              	.LFB16:
 848              		.loc 1 247 0
 849              		.cfi_startproc
 850              		@ args = 0, pretend = 0, frame = 0
 851              		@ frame_needed = 0, uses_anonymous_args = 0
 852 0000 08B5     		push	{r3, lr}
 853              		.cfi_def_cfa_offset 8
 854              		.cfi_offset 3, -8
 855              		.cfi_offset 14, -4
 856              		.loc 1 249 0
 857 0002 4FF0FF30 		mov	r0, #-1
 858 0006 FFF7FEFF 		bl	chEvtGetAndClearEvents
 859              		.loc 1 250 0
 860 000a 08BD     		pop	{r3, pc}
 861              		.cfi_endproc
 862              	.LFE16:
 863              		.size	evt3_setup, .-evt3_setup
 864              		.section	.text.evt3_execute,"ax",%progbits
 865              		.align	2
 866              		.p2align 4,,15
 867              		.thumb
 868              		.thumb_func
 869              		.type	evt3_execute, %function
 870              	evt3_execute:
 871              	.LFB17:
 872              		.loc 1 252 0
 873              		.cfi_startproc
 874              		@ args = 0, pretend = 0, frame = 8
 875              		@ frame_needed = 0, uses_anonymous_args = 0
 876 0000 00B5     		push	{lr}
 877              		.cfi_def_cfa_offset 4
 878              		.cfi_offset 14, -4
 879 0002 83B0     		sub	sp, sp, #12
 880              		.cfi_def_cfa_offset 16
 881              		.loc 1 258 0
 882 0004 4FF0FF30 		mov	r0, #-1
 883 0008 0021     		movs	r1, #0
 884 000a FFF7FEFF 		bl	chEvtWaitOneTimeout
 885 000e 0190     		str	r0, [sp, #4]
 886              		.loc 1 259 0
 887 0010 019B     		ldr	r3, [sp, #4]
 888 0012 002B     		cmp	r3, #0
 889 0014 14BF     		ite	ne
 890 0016 0023     		movne	r3, #0
 891 0018 0123     		moveq	r3, #1
 892 001a DBB2     		uxtb	r3, r3
 893 001c 0120     		movs	r0, #1
 894 001e 1946     		mov	r1, r3
ARM GAS  /home/pauba/tmp/cczXe0di.s 			page 17


 895 0020 FFF7FEFF 		bl	_test_assert
 896 0024 0346     		mov	r3, r0
 897 0026 002B     		cmp	r3, #0
 898 0028 00D0     		beq	.L43
 899              		.loc 1 259 0 is_stmt 0 discriminator 1
 900 002a 63E0     		b	.L42
 901              	.L43:
 902              		.loc 1 260 0 is_stmt 1
 903 002c 4FF0FF30 		mov	r0, #-1
 904 0030 0021     		movs	r1, #0
 905 0032 FFF7FEFF 		bl	chEvtWaitAnyTimeout
 906 0036 0190     		str	r0, [sp, #4]
 907              		.loc 1 261 0
 908 0038 019B     		ldr	r3, [sp, #4]
 909 003a 002B     		cmp	r3, #0
 910 003c 14BF     		ite	ne
 911 003e 0023     		movne	r3, #0
 912 0040 0123     		moveq	r3, #1
 913 0042 DBB2     		uxtb	r3, r3
 914 0044 0220     		movs	r0, #2
 915 0046 1946     		mov	r1, r3
 916 0048 FFF7FEFF 		bl	_test_assert
 917 004c 0346     		mov	r3, r0
 918 004e 002B     		cmp	r3, #0
 919 0050 00D0     		beq	.L45
 920              		.loc 1 261 0 is_stmt 0 discriminator 1
 921 0052 4FE0     		b	.L42
 922              	.L45:
 923              		.loc 1 262 0 is_stmt 1
 924 0054 4FF0FF30 		mov	r0, #-1
 925 0058 0021     		movs	r1, #0
 926 005a FFF7FEFF 		bl	chEvtWaitAllTimeout
 927 005e 0190     		str	r0, [sp, #4]
 928              		.loc 1 263 0
 929 0060 019B     		ldr	r3, [sp, #4]
 930 0062 002B     		cmp	r3, #0
 931 0064 14BF     		ite	ne
 932 0066 0023     		movne	r3, #0
 933 0068 0123     		moveq	r3, #1
 934 006a DBB2     		uxtb	r3, r3
 935 006c 0320     		movs	r0, #3
 936 006e 1946     		mov	r1, r3
 937 0070 FFF7FEFF 		bl	_test_assert
 938 0074 0346     		mov	r3, r0
 939 0076 002B     		cmp	r3, #0
 940 0078 00D0     		beq	.L46
 941              		.loc 1 263 0 is_stmt 0 discriminator 1
 942 007a 3BE0     		b	.L42
 943              	.L46:
 944              		.loc 1 264 0 is_stmt 1
 945 007c 4FF0FF30 		mov	r0, #-1
 946 0080 0A21     		movs	r1, #10
 947 0082 FFF7FEFF 		bl	chEvtWaitOneTimeout
 948 0086 0190     		str	r0, [sp, #4]
 949              		.loc 1 265 0
 950 0088 019B     		ldr	r3, [sp, #4]
 951 008a 002B     		cmp	r3, #0
ARM GAS  /home/pauba/tmp/cczXe0di.s 			page 18


 952 008c 14BF     		ite	ne
 953 008e 0023     		movne	r3, #0
 954 0090 0123     		moveq	r3, #1
 955 0092 DBB2     		uxtb	r3, r3
 956 0094 0420     		movs	r0, #4
 957 0096 1946     		mov	r1, r3
 958 0098 FFF7FEFF 		bl	_test_assert
 959 009c 0346     		mov	r3, r0
 960 009e 002B     		cmp	r3, #0
 961 00a0 00D0     		beq	.L47
 962              		.loc 1 265 0 is_stmt 0 discriminator 1
 963 00a2 27E0     		b	.L42
 964              	.L47:
 965              		.loc 1 266 0 is_stmt 1
 966 00a4 4FF0FF30 		mov	r0, #-1
 967 00a8 0A21     		movs	r1, #10
 968 00aa FFF7FEFF 		bl	chEvtWaitAnyTimeout
 969 00ae 0190     		str	r0, [sp, #4]
 970              		.loc 1 267 0
 971 00b0 019B     		ldr	r3, [sp, #4]
 972 00b2 002B     		cmp	r3, #0
 973 00b4 14BF     		ite	ne
 974 00b6 0023     		movne	r3, #0
 975 00b8 0123     		moveq	r3, #1
 976 00ba DBB2     		uxtb	r3, r3
 977 00bc 0520     		movs	r0, #5
 978 00be 1946     		mov	r1, r3
 979 00c0 FFF7FEFF 		bl	_test_assert
 980 00c4 0346     		mov	r3, r0
 981 00c6 002B     		cmp	r3, #0
 982 00c8 00D0     		beq	.L48
 983              		.loc 1 267 0 is_stmt 0 discriminator 1
 984 00ca 13E0     		b	.L42
 985              	.L48:
 986              		.loc 1 268 0 is_stmt 1
 987 00cc 4FF0FF30 		mov	r0, #-1
 988 00d0 0A21     		movs	r1, #10
 989 00d2 FFF7FEFF 		bl	chEvtWaitAllTimeout
 990 00d6 0190     		str	r0, [sp, #4]
 991              		.loc 1 269 0
 992 00d8 019B     		ldr	r3, [sp, #4]
 993 00da 002B     		cmp	r3, #0
 994 00dc 14BF     		ite	ne
 995 00de 0023     		movne	r3, #0
 996 00e0 0123     		moveq	r3, #1
 997 00e2 DBB2     		uxtb	r3, r3
 998 00e4 0620     		movs	r0, #6
 999 00e6 1946     		mov	r1, r3
 1000 00e8 FFF7FEFF 		bl	_test_assert
 1001 00ec 0346     		mov	r3, r0
 1002 00ee 002B     		cmp	r3, #0
 1003 00f0 00D0     		beq	.L42
 1004              		.loc 1 269 0 is_stmt 0 discriminator 1
 1005 00f2 00BF     		nop
 1006              	.L42:
 1007              		.loc 1 270 0 is_stmt 1
 1008 00f4 03B0     		add	sp, sp, #12
ARM GAS  /home/pauba/tmp/cczXe0di.s 			page 19


 1009              		@ sp needed
 1010 00f6 5DF804FB 		ldr	pc, [sp], #4
 1011              		.cfi_endproc
 1012              	.LFE17:
 1013              		.size	evt3_execute, .-evt3_execute
 1014              		.global	testevt3
 1015 00fa 00BFAFF3 		.section	.rodata
 1015      0080
 1016 0047 00       		.align	2
 1017              	.LC4:
 1018 0048 4576656E 		.ascii	"Events, timeouts\000"
 1018      74732C20 
 1018      74696D65 
 1018      6F757473 
 1018      00
 1019 0059 000000   		.section	.rodata.testevt3,"a",%progbits
 1020              		.align	2
 1021              		.type	testevt3, %object
 1022              		.size	testevt3, 16
 1023              	testevt3:
 1024 0000 48000000 		.word	.LC4
 1025 0004 00000000 		.word	evt3_setup
 1026 0008 00000000 		.word	0
 1027 000c 00000000 		.word	evt3_execute
 1028              		.global	patternevt
 1029              		.section	.rodata.patternevt,"a",%progbits
 1030              		.align	2
 1031              		.type	patternevt, %object
 1032              		.size	patternevt, 16
 1033              	patternevt:
 1034 0000 00000000 		.word	testevt1
 1035 0004 00000000 		.word	testevt2
 1036 0008 00000000 		.word	testevt3
 1037 000c 00000000 		.word	0
 1038              		.text
 1039              	.Letext0:
 1040              		.file 2 "/opt/gcc-arm-none-eabi-4_8-2014q1/arm-none-eabi/include/machine/_default_types.h"
 1041              		.file 3 "/opt/gcc-arm-none-eabi-4_8-2014q1/arm-none-eabi/include/stdint.h"
 1042              		.file 4 "/home/pauba/ChibiOS-RT/os/ports/GCC/ARMCMx/chtypes.h"
 1043              		.file 5 "/home/pauba/ChibiOS-RT/os/kernel/include/chlists.h"
 1044              		.file 6 "/home/pauba/ChibiOS-RT/os/kernel/include/chthreads.h"
 1045              		.file 7 "/home/pauba/ChibiOS-RT/os/ports/GCC/ARMCMx/chcore_v7m.h"
 1046              		.file 8 "/home/pauba/ChibiOS-RT/os/kernel/include/chvt.h"
 1047              		.file 9 "/home/pauba/ChibiOS-RT/os/kernel/include/chschd.h"
 1048              		.file 10 "/home/pauba/ChibiOS-RT/os/kernel/include/chmtx.h"
 1049              		.file 11 "/home/pauba/ChibiOS-RT/os/kernel/include/chevents.h"
 1050              		.file 12 "/home/pauba/ChibiOS-RT/test/test.h"
 1051              		.section	.debug_info,"",%progbits
 1052              	.Ldebug_info0:
 1053 0000 53080000 		.4byte	0x853
 1054 0004 0400     		.2byte	0x4
 1055 0006 00000000 		.4byte	.Ldebug_abbrev0
 1056 000a 04       		.byte	0x4
 1057 000b 01       		.uleb128 0x1
 1058 000c 62030000 		.4byte	.LASF111
 1059 0010 01       		.byte	0x1
 1060 0011 F3020000 		.4byte	.LASF112
ARM GAS  /home/pauba/tmp/cczXe0di.s 			page 20


 1061 0015 00000000 		.4byte	.Ldebug_ranges0+0
 1062 0019 00000000 		.4byte	0
 1063 001d 00000000 		.4byte	.Ldebug_line0
 1064 0021 02       		.uleb128 0x2
 1065 0022 04       		.byte	0x4
 1066 0023 05       		.byte	0x5
 1067 0024 696E7400 		.ascii	"int\000"
 1068 0028 03       		.uleb128 0x3
 1069 0029 04       		.byte	0x4
 1070 002a 07       		.byte	0x7
 1071 002b 1B010000 		.4byte	.LASF0
 1072 002f 03       		.uleb128 0x3
 1073 0030 01       		.byte	0x1
 1074 0031 06       		.byte	0x6
 1075 0032 74000000 		.4byte	.LASF1
 1076 0036 04       		.uleb128 0x4
 1077 0037 21000000 		.4byte	.LASF5
 1078 003b 02       		.byte	0x2
 1079 003c 1C       		.byte	0x1c
 1080 003d 41000000 		.4byte	0x41
 1081 0041 03       		.uleb128 0x3
 1082 0042 01       		.byte	0x1
 1083 0043 08       		.byte	0x8
 1084 0044 78020000 		.4byte	.LASF2
 1085 0048 03       		.uleb128 0x3
 1086 0049 02       		.byte	0x2
 1087 004a 05       		.byte	0x5
 1088 004b B2020000 		.4byte	.LASF3
 1089 004f 03       		.uleb128 0x3
 1090 0050 02       		.byte	0x2
 1091 0051 07       		.byte	0x7
 1092 0052 6C010000 		.4byte	.LASF4
 1093 0056 04       		.uleb128 0x4
 1094 0057 59040000 		.4byte	.LASF6
 1095 005b 02       		.byte	0x2
 1096 005c 37       		.byte	0x37
 1097 005d 61000000 		.4byte	0x61
 1098 0061 03       		.uleb128 0x3
 1099 0062 04       		.byte	0x4
 1100 0063 05       		.byte	0x5
 1101 0064 9A000000 		.4byte	.LASF7
 1102 0068 04       		.uleb128 0x4
 1103 0069 D2000000 		.4byte	.LASF8
 1104 006d 02       		.byte	0x2
 1105 006e 38       		.byte	0x38
 1106 006f 73000000 		.4byte	0x73
 1107 0073 03       		.uleb128 0x3
 1108 0074 04       		.byte	0x4
 1109 0075 07       		.byte	0x7
 1110 0076 30010000 		.4byte	.LASF9
 1111 007a 03       		.uleb128 0x3
 1112 007b 08       		.byte	0x8
 1113 007c 05       		.byte	0x5
 1114 007d 66000000 		.4byte	.LASF10
 1115 0081 04       		.uleb128 0x4
 1116 0082 40020000 		.4byte	.LASF11
 1117 0086 02       		.byte	0x2
ARM GAS  /home/pauba/tmp/cczXe0di.s 			page 21


 1118 0087 4E       		.byte	0x4e
 1119 0088 8C000000 		.4byte	0x8c
 1120 008c 03       		.uleb128 0x3
 1121 008d 08       		.byte	0x8
 1122 008e 07       		.byte	0x7
 1123 008f 32000000 		.4byte	.LASF12
 1124 0093 04       		.uleb128 0x4
 1125 0094 A6040000 		.4byte	.LASF13
 1126 0098 03       		.byte	0x3
 1127 0099 2A       		.byte	0x2a
 1128 009a 36000000 		.4byte	0x36
 1129 009e 04       		.uleb128 0x4
 1130 009f 70020000 		.4byte	.LASF14
 1131 00a3 03       		.byte	0x3
 1132 00a4 41       		.byte	0x41
 1133 00a5 56000000 		.4byte	0x56
 1134 00a9 04       		.uleb128 0x4
 1135 00aa 44030000 		.4byte	.LASF15
 1136 00ae 03       		.byte	0x3
 1137 00af 42       		.byte	0x42
 1138 00b0 68000000 		.4byte	0x68
 1139 00b4 04       		.uleb128 0x4
 1140 00b5 18000000 		.4byte	.LASF16
 1141 00b9 03       		.byte	0x3
 1142 00ba 4E       		.byte	0x4e
 1143 00bb 81000000 		.4byte	0x81
 1144 00bf 03       		.uleb128 0x3
 1145 00c0 01       		.byte	0x1
 1146 00c1 02       		.byte	0x2
 1147 00c2 6A020000 		.4byte	.LASF17
 1148 00c6 04       		.uleb128 0x4
 1149 00c7 95010000 		.4byte	.LASF18
 1150 00cb 04       		.byte	0x4
 1151 00cc 2C       		.byte	0x2c
 1152 00cd 93000000 		.4byte	0x93
 1153 00d1 04       		.uleb128 0x4
 1154 00d2 AF000000 		.4byte	.LASF19
 1155 00d6 04       		.byte	0x4
 1156 00d7 2D       		.byte	0x2d
 1157 00d8 93000000 		.4byte	0x93
 1158 00dc 04       		.uleb128 0x4
 1159 00dd 4B020000 		.4byte	.LASF20
 1160 00e1 04       		.byte	0x4
 1161 00e2 2E       		.byte	0x2e
 1162 00e3 93000000 		.4byte	0x93
 1163 00e7 04       		.uleb128 0x4
 1164 00e8 90000000 		.4byte	.LASF21
 1165 00ec 04       		.byte	0x4
 1166 00ed 2F       		.byte	0x2f
 1167 00ee 93000000 		.4byte	0x93
 1168 00f2 04       		.uleb128 0x4
 1169 00f3 62020000 		.4byte	.LASF22
 1170 00f7 04       		.byte	0x4
 1171 00f8 30       		.byte	0x30
 1172 00f9 A9000000 		.4byte	0xa9
 1173 00fd 04       		.uleb128 0x4
 1174 00fe 7F010000 		.4byte	.LASF23
ARM GAS  /home/pauba/tmp/cczXe0di.s 			page 22


 1175 0102 04       		.byte	0x4
 1176 0103 31       		.byte	0x31
 1177 0104 9E000000 		.4byte	0x9e
 1178 0108 04       		.uleb128 0x4
 1179 0109 EE000000 		.4byte	.LASF24
 1180 010d 04       		.byte	0x4
 1181 010e 32       		.byte	0x32
 1182 010f 9E000000 		.4byte	0x9e
 1183 0113 04       		.uleb128 0x4
 1184 0114 A9010000 		.4byte	.LASF25
 1185 0118 04       		.byte	0x4
 1186 0119 33       		.byte	0x33
 1187 011a A9000000 		.4byte	0xa9
 1188 011e 04       		.uleb128 0x4
 1189 011f 83040000 		.4byte	.LASF26
 1190 0123 04       		.byte	0x4
 1191 0124 34       		.byte	0x34
 1192 0125 A9000000 		.4byte	0xa9
 1193 0129 04       		.uleb128 0x4
 1194 012a 44040000 		.4byte	.LASF27
 1195 012e 04       		.byte	0x4
 1196 012f 35       		.byte	0x35
 1197 0130 A9000000 		.4byte	0xa9
 1198 0134 04       		.uleb128 0x4
 1199 0135 19030000 		.4byte	.LASF28
 1200 0139 05       		.byte	0x5
 1201 013a 2A       		.byte	0x2a
 1202 013b 3F010000 		.4byte	0x13f
 1203 013f 05       		.uleb128 0x5
 1204 0140 19030000 		.4byte	.LASF28
 1205 0144 4C       		.byte	0x4c
 1206 0145 06       		.byte	0x6
 1207 0146 5E       		.byte	0x5e
 1208 0147 48020000 		.4byte	0x248
 1209 014b 06       		.uleb128 0x6
 1210 014c E4020000 		.4byte	.LASF29
 1211 0150 06       		.byte	0x6
 1212 0151 5F       		.byte	0x5f
 1213 0152 69020000 		.4byte	0x269
 1214 0156 00       		.byte	0
 1215 0157 06       		.uleb128 0x6
 1216 0158 53020000 		.4byte	.LASF30
 1217 015c 06       		.byte	0x6
 1218 015d 61       		.byte	0x61
 1219 015e 69020000 		.4byte	0x269
 1220 0162 04       		.byte	0x4
 1221 0163 06       		.uleb128 0x6
 1222 0164 52000000 		.4byte	.LASF31
 1223 0168 06       		.byte	0x6
 1224 0169 63       		.byte	0x63
 1225 016a F2000000 		.4byte	0xf2
 1226 016e 08       		.byte	0x8
 1227 016f 06       		.uleb128 0x6
 1228 0170 F9040000 		.4byte	.LASF32
 1229 0174 06       		.byte	0x6
 1230 0175 64       		.byte	0x64
 1231 0176 2E030000 		.4byte	0x32e
ARM GAS  /home/pauba/tmp/cczXe0di.s 			page 23


 1232 017a 0C       		.byte	0xc
 1233 017b 06       		.uleb128 0x6
 1234 017c CA000000 		.4byte	.LASF33
 1235 0180 06       		.byte	0x6
 1236 0181 66       		.byte	0x66
 1237 0182 69020000 		.4byte	0x269
 1238 0186 10       		.byte	0x10
 1239 0187 06       		.uleb128 0x6
 1240 0188 F5010000 		.4byte	.LASF34
 1241 018c 06       		.byte	0x6
 1242 018d 67       		.byte	0x67
 1243 018e 69020000 		.4byte	0x269
 1244 0192 14       		.byte	0x14
 1245 0193 06       		.uleb128 0x6
 1246 0194 C3040000 		.4byte	.LASF35
 1247 0198 06       		.byte	0x6
 1248 0199 6E       		.byte	0x6e
 1249 019a 76050000 		.4byte	0x576
 1250 019e 18       		.byte	0x18
 1251 019f 06       		.uleb128 0x6
 1252 01a0 10010000 		.4byte	.LASF36
 1253 01a4 06       		.byte	0x6
 1254 01a5 74       		.byte	0x74
 1255 01a6 88050000 		.4byte	0x588
 1256 01aa 1C       		.byte	0x1c
 1257 01ab 06       		.uleb128 0x6
 1258 01ac BC020000 		.4byte	.LASF37
 1259 01b0 06       		.byte	0x6
 1260 01b1 79       		.byte	0x79
 1261 01b2 D1000000 		.4byte	0xd1
 1262 01b6 20       		.byte	0x20
 1263 01b7 06       		.uleb128 0x6
 1264 01b8 EB020000 		.4byte	.LASF38
 1265 01bc 06       		.byte	0x6
 1266 01bd 7D       		.byte	0x7d
 1267 01be C6000000 		.4byte	0xc6
 1268 01c2 21       		.byte	0x21
 1269 01c3 06       		.uleb128 0x6
 1270 01c4 8F040000 		.4byte	.LASF39
 1271 01c8 06       		.byte	0x6
 1272 01c9 82       		.byte	0x82
 1273 01ca DC000000 		.4byte	0xdc
 1274 01ce 22       		.byte	0x22
 1275 01cf 06       		.uleb128 0x6
 1276 01d0 C4020000 		.4byte	.LASF40
 1277 01d4 06       		.byte	0x6
 1278 01d5 88       		.byte	0x88
 1279 01d6 E7000000 		.4byte	0xe7
 1280 01da 23       		.byte	0x23
 1281 01db 06       		.uleb128 0x6
 1282 01dc 63040000 		.4byte	.LASF41
 1283 01e0 06       		.byte	0x6
 1284 01e1 8F       		.byte	0x8f
 1285 01e2 05040000 		.4byte	0x405
 1286 01e6 24       		.byte	0x24
 1287 01e7 07       		.uleb128 0x7
 1288 01e8 705F7500 		.ascii	"p_u\000"
ARM GAS  /home/pauba/tmp/cczXe0di.s 			page 24


 1289 01ec 06       		.byte	0x6
 1290 01ed B4       		.byte	0xb4
 1291 01ee 41050000 		.4byte	0x541
 1292 01f2 28       		.byte	0x28
 1293 01f3 06       		.uleb128 0x6
 1294 01f4 FF040000 		.4byte	.LASF42
 1295 01f8 06       		.byte	0x6
 1296 01f9 B9       		.byte	0xb9
 1297 01fa 8F020000 		.4byte	0x28f
 1298 01fe 2C       		.byte	0x2c
 1299 01ff 06       		.uleb128 0x6
 1300 0200 71040000 		.4byte	.LASF43
 1301 0204 06       		.byte	0x6
 1302 0205 BF       		.byte	0xbf
 1303 0206 6F020000 		.4byte	0x26f
 1304 020a 30       		.byte	0x30
 1305 020b 06       		.uleb128 0x6
 1306 020c 0B000000 		.4byte	.LASF44
 1307 0210 06       		.byte	0x6
 1308 0211 C3       		.byte	0xc3
 1309 0212 FD000000 		.4byte	0xfd
 1310 0216 38       		.byte	0x38
 1311 0217 06       		.uleb128 0x6
 1312 0218 29030000 		.4byte	.LASF45
 1313 021c 06       		.byte	0x6
 1314 021d C9       		.byte	0xc9
 1315 021e 13010000 		.4byte	0x113
 1316 0222 3C       		.byte	0x3c
 1317 0223 06       		.uleb128 0x6
 1318 0224 A8020000 		.4byte	.LASF46
 1319 0228 06       		.byte	0x6
 1320 0229 D0       		.byte	0xd0
 1321 022a 8E050000 		.4byte	0x58e
 1322 022e 40       		.byte	0x40
 1323 022f 06       		.uleb128 0x6
 1324 0230 4E040000 		.4byte	.LASF47
 1325 0234 06       		.byte	0x6
 1326 0235 D4       		.byte	0xd4
 1327 0236 F2000000 		.4byte	0xf2
 1328 023a 44       		.byte	0x44
 1329 023b 06       		.uleb128 0x6
 1330 023c 80000000 		.4byte	.LASF48
 1331 0240 06       		.byte	0x6
 1332 0241 DA       		.byte	0xda
 1333 0242 A5020000 		.4byte	0x2a5
 1334 0246 48       		.byte	0x48
 1335 0247 00       		.byte	0
 1336 0248 08       		.uleb128 0x8
 1337 0249 08       		.byte	0x8
 1338 024a 05       		.byte	0x5
 1339 024b 61       		.byte	0x61
 1340 024c 69020000 		.4byte	0x269
 1341 0250 06       		.uleb128 0x6
 1342 0251 E4020000 		.4byte	.LASF29
 1343 0255 05       		.byte	0x5
 1344 0256 62       		.byte	0x62
 1345 0257 69020000 		.4byte	0x269
ARM GAS  /home/pauba/tmp/cczXe0di.s 			page 25


 1346 025b 00       		.byte	0
 1347 025c 06       		.uleb128 0x6
 1348 025d 53020000 		.4byte	.LASF30
 1349 0261 05       		.byte	0x5
 1350 0262 64       		.byte	0x64
 1351 0263 69020000 		.4byte	0x269
 1352 0267 04       		.byte	0x4
 1353 0268 00       		.byte	0
 1354 0269 09       		.uleb128 0x9
 1355 026a 04       		.byte	0x4
 1356 026b 34010000 		.4byte	0x134
 1357 026f 04       		.uleb128 0x4
 1358 0270 13020000 		.4byte	.LASF49
 1359 0274 05       		.byte	0x5
 1360 0275 66       		.byte	0x66
 1361 0276 48020000 		.4byte	0x248
 1362 027a 08       		.uleb128 0x8
 1363 027b 04       		.byte	0x4
 1364 027c 05       		.byte	0x5
 1365 027d 6B       		.byte	0x6b
 1366 027e 8F020000 		.4byte	0x28f
 1367 0282 06       		.uleb128 0x6
 1368 0283 E4020000 		.4byte	.LASF29
 1369 0287 05       		.byte	0x5
 1370 0288 6D       		.byte	0x6d
 1371 0289 69020000 		.4byte	0x269
 1372 028d 00       		.byte	0
 1373 028e 00       		.byte	0
 1374 028f 04       		.uleb128 0x4
 1375 0290 9D010000 		.4byte	.LASF50
 1376 0294 05       		.byte	0x5
 1377 0295 70       		.byte	0x70
 1378 0296 7A020000 		.4byte	0x27a
 1379 029a 04       		.uleb128 0x4
 1380 029b DD000000 		.4byte	.LASF51
 1381 029f 07       		.byte	0x7
 1382 02a0 E5       		.byte	0xe5
 1383 02a1 A5020000 		.4byte	0x2a5
 1384 02a5 0A       		.uleb128 0xa
 1385 02a6 04       		.byte	0x4
 1386 02a7 04       		.uleb128 0x4
 1387 02a8 BB010000 		.4byte	.LASF52
 1388 02ac 07       		.byte	0x7
 1389 02ad EB       		.byte	0xeb
 1390 02ae B4000000 		.4byte	0xb4
 1391 02b2 0B       		.uleb128 0xb
 1392 02b3 6A040000 		.4byte	.LASF53
 1393 02b7 24       		.byte	0x24
 1394 02b8 07       		.byte	0x7
 1395 02b9 0C01     		.2byte	0x10c
 1396 02bb 2E030000 		.4byte	0x32e
 1397 02bf 0C       		.uleb128 0xc
 1398 02c0 723400   		.ascii	"r4\000"
 1399 02c3 07       		.byte	0x7
 1400 02c4 1F01     		.2byte	0x11f
 1401 02c6 9A020000 		.4byte	0x29a
 1402 02ca 00       		.byte	0
ARM GAS  /home/pauba/tmp/cczXe0di.s 			page 26


 1403 02cb 0C       		.uleb128 0xc
 1404 02cc 723500   		.ascii	"r5\000"
 1405 02cf 07       		.byte	0x7
 1406 02d0 2001     		.2byte	0x120
 1407 02d2 9A020000 		.4byte	0x29a
 1408 02d6 04       		.byte	0x4
 1409 02d7 0C       		.uleb128 0xc
 1410 02d8 723600   		.ascii	"r6\000"
 1411 02db 07       		.byte	0x7
 1412 02dc 2101     		.2byte	0x121
 1413 02de 9A020000 		.4byte	0x29a
 1414 02e2 08       		.byte	0x8
 1415 02e3 0C       		.uleb128 0xc
 1416 02e4 723700   		.ascii	"r7\000"
 1417 02e7 07       		.byte	0x7
 1418 02e8 2201     		.2byte	0x122
 1419 02ea 9A020000 		.4byte	0x29a
 1420 02ee 0C       		.byte	0xc
 1421 02ef 0C       		.uleb128 0xc
 1422 02f0 723800   		.ascii	"r8\000"
 1423 02f3 07       		.byte	0x7
 1424 02f4 2301     		.2byte	0x123
 1425 02f6 9A020000 		.4byte	0x29a
 1426 02fa 10       		.byte	0x10
 1427 02fb 0C       		.uleb128 0xc
 1428 02fc 723900   		.ascii	"r9\000"
 1429 02ff 07       		.byte	0x7
 1430 0300 2401     		.2byte	0x124
 1431 0302 9A020000 		.4byte	0x29a
 1432 0306 14       		.byte	0x14
 1433 0307 0C       		.uleb128 0xc
 1434 0308 72313000 		.ascii	"r10\000"
 1435 030c 07       		.byte	0x7
 1436 030d 2501     		.2byte	0x125
 1437 030f 9A020000 		.4byte	0x29a
 1438 0313 18       		.byte	0x18
 1439 0314 0C       		.uleb128 0xc
 1440 0315 72313100 		.ascii	"r11\000"
 1441 0319 07       		.byte	0x7
 1442 031a 2601     		.2byte	0x126
 1443 031c 9A020000 		.4byte	0x29a
 1444 0320 1C       		.byte	0x1c
 1445 0321 0C       		.uleb128 0xc
 1446 0322 6C7200   		.ascii	"lr\000"
 1447 0325 07       		.byte	0x7
 1448 0326 2701     		.2byte	0x127
 1449 0328 9A020000 		.4byte	0x29a
 1450 032c 20       		.byte	0x20
 1451 032d 00       		.byte	0
 1452 032e 0B       		.uleb128 0xb
 1453 032f 64010000 		.4byte	.LASF54
 1454 0333 04       		.byte	0x4
 1455 0334 07       		.byte	0x7
 1456 0335 3101     		.2byte	0x131
 1457 0337 49030000 		.4byte	0x349
 1458 033b 0C       		.uleb128 0xc
 1459 033c 72313300 		.ascii	"r13\000"
ARM GAS  /home/pauba/tmp/cczXe0di.s 			page 27


 1460 0340 07       		.byte	0x7
 1461 0341 3201     		.2byte	0x132
 1462 0343 49030000 		.4byte	0x349
 1463 0347 00       		.byte	0
 1464 0348 00       		.byte	0
 1465 0349 09       		.uleb128 0x9
 1466 034a 04       		.byte	0x4
 1467 034b B2020000 		.4byte	0x2b2
 1468 034f 03       		.uleb128 0x3
 1469 0350 04       		.byte	0x4
 1470 0351 07       		.byte	0x7
 1471 0352 D9010000 		.4byte	.LASF55
 1472 0356 04       		.uleb128 0x4
 1473 0357 56010000 		.4byte	.LASF56
 1474 035b 08       		.byte	0x8
 1475 035c 58       		.byte	0x58
 1476 035d 61030000 		.4byte	0x361
 1477 0361 09       		.uleb128 0x9
 1478 0362 04       		.byte	0x4
 1479 0363 67030000 		.4byte	0x367
 1480 0367 0D       		.uleb128 0xd
 1481 0368 72030000 		.4byte	0x372
 1482 036c 0E       		.uleb128 0xe
 1483 036d A5020000 		.4byte	0x2a5
 1484 0371 00       		.byte	0
 1485 0372 04       		.uleb128 0x4
 1486 0373 55030000 		.4byte	.LASF57
 1487 0377 08       		.byte	0x8
 1488 0378 5D       		.byte	0x5d
 1489 0379 7D030000 		.4byte	0x37d
 1490 037d 05       		.uleb128 0x5
 1491 037e 55030000 		.4byte	.LASF57
 1492 0382 14       		.byte	0x14
 1493 0383 08       		.byte	0x8
 1494 0384 64       		.byte	0x64
 1495 0385 C6030000 		.4byte	0x3c6
 1496 0389 06       		.uleb128 0x6
 1497 038a 28010000 		.4byte	.LASF58
 1498 038e 08       		.byte	0x8
 1499 038f 65       		.byte	0x65
 1500 0390 C6030000 		.4byte	0x3c6
 1501 0394 00       		.byte	0
 1502 0395 06       		.uleb128 0x6
 1503 0396 E6000000 		.4byte	.LASF59
 1504 039a 08       		.byte	0x8
 1505 039b 67       		.byte	0x67
 1506 039c C6030000 		.4byte	0x3c6
 1507 03a0 04       		.byte	0x4
 1508 03a1 06       		.uleb128 0x6
 1509 03a2 C6010000 		.4byte	.LASF60
 1510 03a6 08       		.byte	0x8
 1511 03a7 69       		.byte	0x69
 1512 03a8 29010000 		.4byte	0x129
 1513 03ac 08       		.byte	0x8
 1514 03ad 06       		.uleb128 0x6
 1515 03ae E2010000 		.4byte	.LASF61
 1516 03b2 08       		.byte	0x8
ARM GAS  /home/pauba/tmp/cczXe0di.s 			page 28


 1517 03b3 6A       		.byte	0x6a
 1518 03b4 56030000 		.4byte	0x356
 1519 03b8 0C       		.byte	0xc
 1520 03b9 06       		.uleb128 0x6
 1521 03ba 7C040000 		.4byte	.LASF62
 1522 03be 08       		.byte	0x8
 1523 03bf 6C       		.byte	0x6c
 1524 03c0 A5020000 		.4byte	0x2a5
 1525 03c4 10       		.byte	0x10
 1526 03c5 00       		.byte	0
 1527 03c6 09       		.uleb128 0x9
 1528 03c7 04       		.byte	0x4
 1529 03c8 72030000 		.4byte	0x372
 1530 03cc 08       		.uleb128 0x8
 1531 03cd 10       		.byte	0x10
 1532 03ce 08       		.byte	0x8
 1533 03cf 76       		.byte	0x76
 1534 03d0 05040000 		.4byte	0x405
 1535 03d4 06       		.uleb128 0x6
 1536 03d5 28010000 		.4byte	.LASF58
 1537 03d9 08       		.byte	0x8
 1538 03da 77       		.byte	0x77
 1539 03db C6030000 		.4byte	0x3c6
 1540 03df 00       		.byte	0
 1541 03e0 06       		.uleb128 0x6
 1542 03e1 E6000000 		.4byte	.LASF59
 1543 03e5 08       		.byte	0x8
 1544 03e6 79       		.byte	0x79
 1545 03e7 C6030000 		.4byte	0x3c6
 1546 03eb 04       		.byte	0x4
 1547 03ec 06       		.uleb128 0x6
 1548 03ed C6010000 		.4byte	.LASF60
 1549 03f1 08       		.byte	0x8
 1550 03f2 7B       		.byte	0x7b
 1551 03f3 29010000 		.4byte	0x129
 1552 03f7 08       		.byte	0x8
 1553 03f8 06       		.uleb128 0x6
 1554 03f9 CA040000 		.4byte	.LASF63
 1555 03fd 08       		.byte	0x8
 1556 03fe 7C       		.byte	0x7c
 1557 03ff 05040000 		.4byte	0x405
 1558 0403 0C       		.byte	0xc
 1559 0404 00       		.byte	0
 1560 0405 0F       		.uleb128 0xf
 1561 0406 29010000 		.4byte	0x129
 1562 040a 04       		.uleb128 0x4
 1563 040b DD040000 		.4byte	.LASF64
 1564 040f 08       		.byte	0x8
 1565 0410 7D       		.byte	0x7d
 1566 0411 CC030000 		.4byte	0x3cc
 1567 0415 08       		.uleb128 0x8
 1568 0416 1C       		.byte	0x1c
 1569 0417 09       		.byte	0x9
 1570 0418 5E       		.byte	0x5e
 1571 0419 66040000 		.4byte	0x466
 1572 041d 06       		.uleb128 0x6
 1573 041e 4D030000 		.4byte	.LASF65
ARM GAS  /home/pauba/tmp/cczXe0di.s 			page 29


 1574 0422 09       		.byte	0x9
 1575 0423 5F       		.byte	0x5f
 1576 0424 6F020000 		.4byte	0x26f
 1577 0428 00       		.byte	0
 1578 0429 06       		.uleb128 0x6
 1579 042a D6020000 		.4byte	.LASF66
 1580 042e 09       		.byte	0x9
 1581 042f 60       		.byte	0x60
 1582 0430 F2000000 		.4byte	0xf2
 1583 0434 08       		.byte	0x8
 1584 0435 06       		.uleb128 0x6
 1585 0436 0D020000 		.4byte	.LASF67
 1586 043a 09       		.byte	0x9
 1587 043b 62       		.byte	0x62
 1588 043c 2E030000 		.4byte	0x32e
 1589 0440 0C       		.byte	0xc
 1590 0441 06       		.uleb128 0x6
 1591 0442 85010000 		.4byte	.LASF68
 1592 0446 09       		.byte	0x9
 1593 0447 65       		.byte	0x65
 1594 0448 69020000 		.4byte	0x269
 1595 044c 10       		.byte	0x10
 1596 044d 06       		.uleb128 0x6
 1597 044e 30020000 		.4byte	.LASF69
 1598 0452 09       		.byte	0x9
 1599 0453 66       		.byte	0x66
 1600 0454 69020000 		.4byte	0x269
 1601 0458 14       		.byte	0x14
 1602 0459 06       		.uleb128 0x6
 1603 045a 26020000 		.4byte	.LASF70
 1604 045e 09       		.byte	0x9
 1605 045f 69       		.byte	0x69
 1606 0460 69020000 		.4byte	0x269
 1607 0464 18       		.byte	0x18
 1608 0465 00       		.byte	0
 1609 0466 04       		.uleb128 0x4
 1610 0467 96040000 		.4byte	.LASF71
 1611 046b 09       		.byte	0x9
 1612 046c 6B       		.byte	0x6b
 1613 046d 15040000 		.4byte	0x415
 1614 0471 05       		.uleb128 0x5
 1615 0472 B5010000 		.4byte	.LASF72
 1616 0476 10       		.byte	0x10
 1617 0477 0A       		.byte	0xa
 1618 0478 2C       		.byte	0x2c
 1619 0479 A2040000 		.4byte	0x4a2
 1620 047d 06       		.uleb128 0x6
 1621 047e 88000000 		.4byte	.LASF73
 1622 0482 0A       		.byte	0xa
 1623 0483 2D       		.byte	0x2d
 1624 0484 6F020000 		.4byte	0x26f
 1625 0488 00       		.byte	0
 1626 0489 06       		.uleb128 0x6
 1627 048a E4040000 		.4byte	.LASF74
 1628 048e 0A       		.byte	0xa
 1629 048f 2F       		.byte	0x2f
 1630 0490 69020000 		.4byte	0x269
ARM GAS  /home/pauba/tmp/cczXe0di.s 			page 30


 1631 0494 08       		.byte	0x8
 1632 0495 06       		.uleb128 0x6
 1633 0496 3D040000 		.4byte	.LASF75
 1634 049a 0A       		.byte	0xa
 1635 049b 31       		.byte	0x31
 1636 049c A2040000 		.4byte	0x4a2
 1637 04a0 0C       		.byte	0xc
 1638 04a1 00       		.byte	0
 1639 04a2 09       		.uleb128 0x9
 1640 04a3 04       		.byte	0x4
 1641 04a4 71040000 		.4byte	0x471
 1642 04a8 04       		.uleb128 0x4
 1643 04a9 B5010000 		.4byte	.LASF72
 1644 04ad 0A       		.byte	0xa
 1645 04ae 33       		.byte	0x33
 1646 04af 71040000 		.4byte	0x471
 1647 04b3 04       		.uleb128 0x4
 1648 04b4 AE040000 		.4byte	.LASF76
 1649 04b8 0B       		.byte	0xb
 1650 04b9 2C       		.byte	0x2c
 1651 04ba BE040000 		.4byte	0x4be
 1652 04be 05       		.uleb128 0x5
 1653 04bf AE040000 		.4byte	.LASF76
 1654 04c3 10       		.byte	0x10
 1655 04c4 0B       		.byte	0xb
 1656 04c5 31       		.byte	0x31
 1657 04c6 FB040000 		.4byte	0x4fb
 1658 04ca 06       		.uleb128 0x6
 1659 04cb 8D010000 		.4byte	.LASF77
 1660 04cf 0B       		.byte	0xb
 1661 04d0 32       		.byte	0x32
 1662 04d1 FB040000 		.4byte	0x4fb
 1663 04d5 00       		.byte	0
 1664 04d6 06       		.uleb128 0x6
 1665 04d7 86020000 		.4byte	.LASF78
 1666 04db 0B       		.byte	0xb
 1667 04dc 35       		.byte	0x35
 1668 04dd 69020000 		.4byte	0x269
 1669 04e1 04       		.byte	0x4
 1670 04e2 06       		.uleb128 0x6
 1671 04e3 38020000 		.4byte	.LASF79
 1672 04e7 0B       		.byte	0xb
 1673 04e8 37       		.byte	0x37
 1674 04e9 13010000 		.4byte	0x113
 1675 04ed 08       		.byte	0x8
 1676 04ee 06       		.uleb128 0x6
 1677 04ef 9F020000 		.4byte	.LASF80
 1678 04f3 0B       		.byte	0xb
 1679 04f4 3A       		.byte	0x3a
 1680 04f5 1E010000 		.4byte	0x11e
 1681 04f9 0C       		.byte	0xc
 1682 04fa 00       		.byte	0
 1683 04fb 09       		.uleb128 0x9
 1684 04fc 04       		.byte	0x4
 1685 04fd B3040000 		.4byte	0x4b3
 1686 0501 05       		.uleb128 0x5
 1687 0502 F8000000 		.4byte	.LASF81
ARM GAS  /home/pauba/tmp/cczXe0di.s 			page 31


 1688 0506 04       		.byte	0x4
 1689 0507 0B       		.byte	0xb
 1690 0508 41       		.byte	0x41
 1691 0509 1A050000 		.4byte	0x51a
 1692 050d 06       		.uleb128 0x6
 1693 050e D5040000 		.4byte	.LASF82
 1694 0512 0B       		.byte	0xb
 1695 0513 42       		.byte	0x42
 1696 0514 FB040000 		.4byte	0x4fb
 1697 0518 00       		.byte	0
 1698 0519 00       		.byte	0
 1699 051a 04       		.uleb128 0x4
 1700 051b F8000000 		.4byte	.LASF81
 1701 051f 0B       		.byte	0xb
 1702 0520 45       		.byte	0x45
 1703 0521 01050000 		.4byte	0x501
 1704 0525 04       		.uleb128 0x4
 1705 0526 04010000 		.4byte	.LASF83
 1706 052a 0B       		.byte	0xb
 1707 052b 4A       		.byte	0x4a
 1708 052c 30050000 		.4byte	0x530
 1709 0530 09       		.uleb128 0x9
 1710 0531 04       		.byte	0x4
 1711 0532 36050000 		.4byte	0x536
 1712 0536 0D       		.uleb128 0xd
 1713 0537 41050000 		.4byte	0x541
 1714 053b 0E       		.uleb128 0xe
 1715 053c 08010000 		.4byte	0x108
 1716 0540 00       		.byte	0
 1717 0541 10       		.uleb128 0x10
 1718 0542 04       		.byte	0x4
 1719 0543 06       		.byte	0x6
 1720 0544 96       		.byte	0x96
 1721 0545 76050000 		.4byte	0x576
 1722 0549 11       		.uleb128 0x11
 1723 054a 11000000 		.4byte	.LASF84
 1724 054e 06       		.byte	0x6
 1725 054f 9D       		.byte	0x9d
 1726 0550 FD000000 		.4byte	0xfd
 1727 0554 11       		.uleb128 0x11
 1728 0555 49000000 		.4byte	.LASF85
 1729 0559 06       		.byte	0x6
 1730 055a A4       		.byte	0xa4
 1731 055b FD000000 		.4byte	0xfd
 1732 055f 11       		.uleb128 0x11
 1733 0560 BC040000 		.4byte	.LASF86
 1734 0564 06       		.byte	0x6
 1735 0565 AB       		.byte	0xab
 1736 0566 A5020000 		.4byte	0x2a5
 1737 056a 11       		.uleb128 0x11
 1738 056b DD020000 		.4byte	.LASF87
 1739 056f 06       		.byte	0x6
 1740 0570 B2       		.byte	0xb2
 1741 0571 13010000 		.4byte	0x113
 1742 0575 00       		.byte	0
 1743 0576 09       		.uleb128 0x9
 1744 0577 04       		.byte	0x4
ARM GAS  /home/pauba/tmp/cczXe0di.s 			page 32


 1745 0578 7C050000 		.4byte	0x57c
 1746 057c 12       		.uleb128 0x12
 1747 057d 81050000 		.4byte	0x581
 1748 0581 03       		.uleb128 0x3
 1749 0582 01       		.byte	0x1
 1750 0583 08       		.byte	0x8
 1751 0584 38040000 		.4byte	.LASF88
 1752 0588 09       		.uleb128 0x9
 1753 0589 04       		.byte	0x4
 1754 058a A7020000 		.4byte	0x2a7
 1755 058e 09       		.uleb128 0x9
 1756 058f 04       		.byte	0x4
 1757 0590 A8040000 		.4byte	0x4a8
 1758 0594 05       		.uleb128 0x5
 1759 0595 20030000 		.4byte	.LASF89
 1760 0599 10       		.byte	0x10
 1761 059a 0C       		.byte	0xc
 1762 059b 3B       		.byte	0x3b
 1763 059c D1050000 		.4byte	0x5d1
 1764 05a0 06       		.uleb128 0x6
 1765 05a1 5F010000 		.4byte	.LASF90
 1766 05a5 0C       		.byte	0xc
 1767 05a6 3C       		.byte	0x3c
 1768 05a7 76050000 		.4byte	0x576
 1769 05ab 00       		.byte	0
 1770 05ac 06       		.uleb128 0x6
 1771 05ad 20020000 		.4byte	.LASF91
 1772 05b1 0C       		.byte	0xc
 1773 05b2 3D       		.byte	0x3d
 1774 05b3 D2050000 		.4byte	0x5d2
 1775 05b7 04       		.byte	0x4
 1776 05b8 06       		.uleb128 0x6
 1777 05b9 42010000 		.4byte	.LASF92
 1778 05bd 0C       		.byte	0xc
 1779 05be 3E       		.byte	0x3e
 1780 05bf D2050000 		.4byte	0x5d2
 1781 05c3 08       		.byte	0x8
 1782 05c4 06       		.uleb128 0x6
 1783 05c5 5A020000 		.4byte	.LASF93
 1784 05c9 0C       		.byte	0xc
 1785 05ca 3F       		.byte	0x3f
 1786 05cb D2050000 		.4byte	0x5d2
 1787 05cf 0C       		.byte	0xc
 1788 05d0 00       		.byte	0
 1789 05d1 13       		.uleb128 0x13
 1790 05d2 09       		.uleb128 0x9
 1791 05d3 04       		.byte	0x4
 1792 05d4 D1050000 		.4byte	0x5d1
 1793 05d8 14       		.uleb128 0x14
 1794 05d9 CE010000 		.4byte	.LASF95
 1795 05dd 01       		.byte	0x1
 1796 05de 4B       		.byte	0x4b
 1797 05df 00000000 		.4byte	.LFB7
 1798 05e3 0C000000 		.4byte	.LFE7-.LFB7
 1799 05e7 01       		.uleb128 0x1
 1800 05e8 9C       		.byte	0x9c
 1801 05e9 15       		.uleb128 0x15
ARM GAS  /home/pauba/tmp/cczXe0di.s 			page 33


 1802 05ea 683100   		.ascii	"h1\000"
 1803 05ed 01       		.byte	0x1
 1804 05ee 50       		.byte	0x50
 1805 05ef 00000000 		.4byte	.LFB8
 1806 05f3 12000000 		.4byte	.LFE8-.LFB8
 1807 05f7 01       		.uleb128 0x1
 1808 05f8 9C       		.byte	0x9c
 1809 05f9 0B060000 		.4byte	0x60b
 1810 05fd 16       		.uleb128 0x16
 1811 05fe 696400   		.ascii	"id\000"
 1812 0601 01       		.byte	0x1
 1813 0602 50       		.byte	0x50
 1814 0603 08010000 		.4byte	0x108
 1815 0607 02       		.uleb128 0x2
 1816 0608 91       		.byte	0x91
 1817 0609 74       		.sleb128 -12
 1818 060a 00       		.byte	0
 1819 060b 15       		.uleb128 0x15
 1820 060c 683200   		.ascii	"h2\000"
 1821 060f 01       		.byte	0x1
 1822 0610 51       		.byte	0x51
 1823 0611 00000000 		.4byte	.LFB9
 1824 0615 12000000 		.4byte	.LFE9-.LFB9
 1825 0619 01       		.uleb128 0x1
 1826 061a 9C       		.byte	0x9c
 1827 061b 2D060000 		.4byte	0x62d
 1828 061f 16       		.uleb128 0x16
 1829 0620 696400   		.ascii	"id\000"
 1830 0623 01       		.byte	0x1
 1831 0624 51       		.byte	0x51
 1832 0625 08010000 		.4byte	0x108
 1833 0629 02       		.uleb128 0x2
 1834 062a 91       		.byte	0x91
 1835 062b 74       		.sleb128 -12
 1836 062c 00       		.byte	0
 1837 062d 15       		.uleb128 0x15
 1838 062e 683300   		.ascii	"h3\000"
 1839 0631 01       		.byte	0x1
 1840 0632 52       		.byte	0x52
 1841 0633 00000000 		.4byte	.LFB10
 1842 0637 12000000 		.4byte	.LFE10-.LFB10
 1843 063b 01       		.uleb128 0x1
 1844 063c 9C       		.byte	0x9c
 1845 063d 4F060000 		.4byte	0x64f
 1846 0641 16       		.uleb128 0x16
 1847 0642 696400   		.ascii	"id\000"
 1848 0645 01       		.byte	0x1
 1849 0646 52       		.byte	0x52
 1850 0647 08010000 		.4byte	0x108
 1851 064b 02       		.uleb128 0x2
 1852 064c 91       		.byte	0x91
 1853 064d 74       		.sleb128 -12
 1854 064e 00       		.byte	0
 1855 064f 17       		.uleb128 0x17
 1856 0650 EC040000 		.4byte	.LASF94
 1857 0654 01       		.byte	0x1
 1858 0655 55       		.byte	0x55
ARM GAS  /home/pauba/tmp/cczXe0di.s 			page 34


 1859 0656 00000000 		.4byte	.LFB11
 1860 065a C0000000 		.4byte	.LFE11-.LFB11
 1861 065e 01       		.uleb128 0x1
 1862 065f 9C       		.byte	0x9c
 1863 0660 81060000 		.4byte	0x681
 1864 0664 18       		.uleb128 0x18
 1865 0665 656C3100 		.ascii	"el1\000"
 1866 0669 01       		.byte	0x1
 1867 066a 56       		.byte	0x56
 1868 066b B3040000 		.4byte	0x4b3
 1869 066f 02       		.uleb128 0x2
 1870 0670 91       		.byte	0x91
 1871 0671 68       		.sleb128 -24
 1872 0672 18       		.uleb128 0x18
 1873 0673 656C3200 		.ascii	"el2\000"
 1874 0677 01       		.byte	0x1
 1875 0678 56       		.byte	0x56
 1876 0679 B3040000 		.4byte	0x4b3
 1877 067d 02       		.uleb128 0x2
 1878 067e 91       		.byte	0x91
 1879 067f 58       		.sleb128 -40
 1880 0680 00       		.byte	0
 1881 0681 14       		.uleb128 0x14
 1882 0682 00000000 		.4byte	.LASF96
 1883 0686 01       		.byte	0x1
 1884 0687 80       		.byte	0x80
 1885 0688 00000000 		.4byte	.LFB12
 1886 068c 0C000000 		.4byte	.LFE12-.LFB12
 1887 0690 01       		.uleb128 0x1
 1888 0691 9C       		.byte	0x9c
 1889 0692 19       		.uleb128 0x19
 1890 0693 FD010000 		.4byte	.LASF97
 1891 0697 01       		.byte	0x1
 1892 0698 85       		.byte	0x85
 1893 0699 FD000000 		.4byte	0xfd
 1894 069d 00000000 		.4byte	.LFB13
 1895 06a1 1E000000 		.4byte	.LFE13-.LFB13
 1896 06a5 01       		.uleb128 0x1
 1897 06a6 9C       		.byte	0x9c
 1898 06a7 B8060000 		.4byte	0x6b8
 1899 06ab 16       		.uleb128 0x16
 1900 06ac 7000     		.ascii	"p\000"
 1901 06ae 01       		.byte	0x1
 1902 06af 85       		.byte	0x85
 1903 06b0 A5020000 		.4byte	0x2a5
 1904 06b4 02       		.uleb128 0x2
 1905 06b5 91       		.byte	0x91
 1906 06b6 74       		.sleb128 -12
 1907 06b7 00       		.byte	0
 1908 06b8 19       		.uleb128 0x19
 1909 06b9 05020000 		.4byte	.LASF98
 1910 06bd 01       		.byte	0x1
 1911 06be 8C       		.byte	0x8c
 1912 06bf FD000000 		.4byte	0xfd
 1913 06c3 00000000 		.4byte	.LFB14
 1914 06c7 30000000 		.4byte	.LFE14-.LFB14
 1915 06cb 01       		.uleb128 0x1
ARM GAS  /home/pauba/tmp/cczXe0di.s 			page 35


 1916 06cc 9C       		.byte	0x9c
 1917 06cd DE060000 		.4byte	0x6de
 1918 06d1 16       		.uleb128 0x16
 1919 06d2 7000     		.ascii	"p\000"
 1920 06d4 01       		.byte	0x1
 1921 06d5 8C       		.byte	0x8c
 1922 06d6 A5020000 		.4byte	0x2a5
 1923 06da 02       		.uleb128 0x2
 1924 06db 91       		.byte	0x91
 1925 06dc 74       		.sleb128 -12
 1926 06dd 00       		.byte	0
 1927 06de 17       		.uleb128 0x17
 1928 06df 59000000 		.4byte	.LASF99
 1929 06e3 01       		.byte	0x1
 1930 06e4 95       		.byte	0x95
 1931 06e5 00000000 		.4byte	.LFB15
 1932 06e9 18030000 		.4byte	.LFE15-.LFB15
 1933 06ed 01       		.uleb128 0x1
 1934 06ee 9C       		.byte	0x9c
 1935 06ef 2A070000 		.4byte	0x72a
 1936 06f3 18       		.uleb128 0x18
 1937 06f4 6D00     		.ascii	"m\000"
 1938 06f6 01       		.byte	0x1
 1939 06f7 96       		.byte	0x96
 1940 06f8 13010000 		.4byte	0x113
 1941 06fc 02       		.uleb128 0x2
 1942 06fd 91       		.byte	0x91
 1943 06fe 74       		.sleb128 -12
 1944 06ff 18       		.uleb128 0x18
 1945 0700 656C3100 		.ascii	"el1\000"
 1946 0704 01       		.byte	0x1
 1947 0705 97       		.byte	0x97
 1948 0706 B3040000 		.4byte	0x4b3
 1949 070a 02       		.uleb128 0x2
 1950 070b 91       		.byte	0x91
 1951 070c 60       		.sleb128 -32
 1952 070d 18       		.uleb128 0x18
 1953 070e 656C3200 		.ascii	"el2\000"
 1954 0712 01       		.byte	0x1
 1955 0713 97       		.byte	0x97
 1956 0714 B3040000 		.4byte	0x4b3
 1957 0718 02       		.uleb128 0x2
 1958 0719 91       		.byte	0x91
 1959 071a 50       		.sleb128 -48
 1960 071b 1A       		.uleb128 0x1a
 1961 071c A3000000 		.4byte	.LASF100
 1962 0720 01       		.byte	0x1
 1963 0721 98       		.byte	0x98
 1964 0722 29010000 		.4byte	0x129
 1965 0726 02       		.uleb128 0x2
 1966 0727 91       		.byte	0x91
 1967 0728 70       		.sleb128 -16
 1968 0729 00       		.byte	0
 1969 072a 14       		.uleb128 0x14
 1970 072b EA010000 		.4byte	.LASF101
 1971 072f 01       		.byte	0x1
 1972 0730 F7       		.byte	0xf7
ARM GAS  /home/pauba/tmp/cczXe0di.s 			page 36


 1973 0731 00000000 		.4byte	.LFB16
 1974 0735 0C000000 		.4byte	.LFE16-.LFB16
 1975 0739 01       		.uleb128 0x1
 1976 073a 9C       		.byte	0x9c
 1977 073b 17       		.uleb128 0x17
 1978 073c 92020000 		.4byte	.LASF102
 1979 0740 01       		.byte	0x1
 1980 0741 FC       		.byte	0xfc
 1981 0742 00000000 		.4byte	.LFB17
 1982 0746 FA000000 		.4byte	.LFE17-.LFB17
 1983 074a 01       		.uleb128 0x1
 1984 074b 9C       		.byte	0x9c
 1985 074c 5D070000 		.4byte	0x75d
 1986 0750 18       		.uleb128 0x18
 1987 0751 6D00     		.ascii	"m\000"
 1988 0753 01       		.byte	0x1
 1989 0754 FD       		.byte	0xfd
 1990 0755 13010000 		.4byte	0x113
 1991 0759 02       		.uleb128 0x2
 1992 075a 91       		.byte	0x91
 1993 075b 74       		.sleb128 -12
 1994 075c 00       		.byte	0
 1995 075d 18       		.uleb128 0x18
 1996 075e 65733100 		.ascii	"es1\000"
 1997 0762 01       		.byte	0x1
 1998 0763 3B       		.byte	0x3b
 1999 0764 1A050000 		.4byte	0x51a
 2000 0768 05       		.uleb128 0x5
 2001 0769 03       		.byte	0x3
 2002 076a 00000000 		.4byte	es1
 2003 076e 18       		.uleb128 0x18
 2004 076f 65733200 		.ascii	"es2\000"
 2005 0773 01       		.byte	0x1
 2006 0774 3C       		.byte	0x3c
 2007 0775 1A050000 		.4byte	0x51a
 2008 0779 05       		.uleb128 0x5
 2009 077a 03       		.byte	0x3
 2010 077b 00000000 		.4byte	es2
 2011 077f 1B       		.uleb128 0x1b
 2012 0780 25050000 		.4byte	0x525
 2013 0784 8F070000 		.4byte	0x78f
 2014 0788 1C       		.uleb128 0x1c
 2015 0789 4F030000 		.4byte	0x34f
 2016 078d 02       		.byte	0x2
 2017 078e 00       		.byte	0
 2018 078f 1A       		.uleb128 0x1a
 2019 0790 3D030000 		.4byte	.LASF103
 2020 0794 01       		.byte	0x1
 2021 0795 53       		.byte	0x53
 2022 0796 A0070000 		.4byte	0x7a0
 2023 079a 05       		.uleb128 0x5
 2024 079b 03       		.byte	0x3
 2025 079c 00000000 		.4byte	evhndl
 2026 07a0 12       		.uleb128 0x12
 2027 07a1 7F070000 		.4byte	0x77f
 2028 07a5 1D       		.uleb128 0x1d
 2029 07a6 2B000000 		.4byte	.LASF104
ARM GAS  /home/pauba/tmp/cczXe0di.s 			page 37


 2030 07aa 08       		.byte	0x8
 2031 07ab F5       		.byte	0xf5
 2032 07ac 0A040000 		.4byte	0x40a
 2033 07b0 1D       		.uleb128 0x1d
 2034 07b1 A0040000 		.4byte	.LASF105
 2035 07b5 09       		.byte	0x9
 2036 07b6 6F       		.byte	0x6f
 2037 07b7 66040000 		.4byte	0x466
 2038 07bb 1B       		.uleb128 0x1b
 2039 07bc 69020000 		.4byte	0x269
 2040 07c0 CB070000 		.4byte	0x7cb
 2041 07c4 1C       		.uleb128 0x1c
 2042 07c5 4F030000 		.4byte	0x34f
 2043 07c9 04       		.byte	0x4
 2044 07ca 00       		.byte	0
 2045 07cb 1D       		.uleb128 0x1d
 2046 07cc CE020000 		.4byte	.LASF106
 2047 07d0 0C       		.byte	0xc
 2048 07d1 A5       		.byte	0xa5
 2049 07d2 BB070000 		.4byte	0x7bb
 2050 07d6 1B       		.uleb128 0x1b
 2051 07d7 A5020000 		.4byte	0x2a5
 2052 07db E1070000 		.4byte	0x7e1
 2053 07df 1E       		.uleb128 0x1e
 2054 07e0 00       		.byte	0
 2055 07e1 1F       		.uleb128 0x1f
 2056 07e2 776100   		.ascii	"wa\000"
 2057 07e5 0C       		.byte	0xc
 2058 07e6 A7       		.byte	0xa7
 2059 07e7 EB070000 		.4byte	0x7eb
 2060 07eb 12       		.uleb128 0x12
 2061 07ec D6070000 		.4byte	0x7d6
 2062 07f0 20       		.uleb128 0x20
 2063 07f1 34030000 		.4byte	.LASF107
 2064 07f5 01       		.byte	0x1
 2065 07f6 6B       		.byte	0x6b
 2066 07f7 01080000 		.4byte	0x801
 2067 07fb 05       		.uleb128 0x5
 2068 07fc 03       		.byte	0x3
 2069 07fd 00000000 		.4byte	testevt1
 2070 0801 12       		.uleb128 0x12
 2071 0802 94050000 		.4byte	0x594
 2072 0806 20       		.uleb128 0x20
 2073 0807 B8000000 		.4byte	.LASF108
 2074 080b 01       		.byte	0x1
 2075 080c E0       		.byte	0xe0
 2076 080d 01080000 		.4byte	0x801
 2077 0811 05       		.uleb128 0x5
 2078 0812 03       		.byte	0x3
 2079 0813 00000000 		.4byte	testevt2
 2080 0817 21       		.uleb128 0x21
 2081 0818 C1000000 		.4byte	.LASF109
 2082 081c 01       		.byte	0x1
 2083 081d 1001     		.2byte	0x110
 2084 081f 01080000 		.4byte	0x801
 2085 0823 05       		.uleb128 0x5
 2086 0824 03       		.byte	0x3
ARM GAS  /home/pauba/tmp/cczXe0di.s 			page 38


 2087 0825 00000000 		.4byte	testevt3
 2088 0829 1B       		.uleb128 0x1b
 2089 082a 39080000 		.4byte	0x839
 2090 082e 39080000 		.4byte	0x839
 2091 0832 1C       		.uleb128 0x1c
 2092 0833 4F030000 		.4byte	0x34f
 2093 0837 03       		.byte	0x3
 2094 0838 00       		.byte	0
 2095 0839 09       		.uleb128 0x9
 2096 083a 04       		.byte	0x4
 2097 083b 01080000 		.4byte	0x801
 2098 083f 21       		.uleb128 0x21
 2099 0840 4B010000 		.4byte	.LASF110
 2100 0844 01       		.byte	0x1
 2101 0845 1B01     		.2byte	0x11b
 2102 0847 51080000 		.4byte	0x851
 2103 084b 05       		.uleb128 0x5
 2104 084c 03       		.byte	0x3
 2105 084d 00000000 		.4byte	patternevt
 2106 0851 12       		.uleb128 0x12
 2107 0852 29080000 		.4byte	0x829
 2108 0856 00       		.byte	0
 2109              		.section	.debug_abbrev,"",%progbits
 2110              	.Ldebug_abbrev0:
 2111 0000 01       		.uleb128 0x1
 2112 0001 11       		.uleb128 0x11
 2113 0002 01       		.byte	0x1
 2114 0003 25       		.uleb128 0x25
 2115 0004 0E       		.uleb128 0xe
 2116 0005 13       		.uleb128 0x13
 2117 0006 0B       		.uleb128 0xb
 2118 0007 03       		.uleb128 0x3
 2119 0008 0E       		.uleb128 0xe
 2120 0009 55       		.uleb128 0x55
 2121 000a 17       		.uleb128 0x17
 2122 000b 11       		.uleb128 0x11
 2123 000c 01       		.uleb128 0x1
 2124 000d 10       		.uleb128 0x10
 2125 000e 17       		.uleb128 0x17
 2126 000f 00       		.byte	0
 2127 0010 00       		.byte	0
 2128 0011 02       		.uleb128 0x2
 2129 0012 24       		.uleb128 0x24
 2130 0013 00       		.byte	0
 2131 0014 0B       		.uleb128 0xb
 2132 0015 0B       		.uleb128 0xb
 2133 0016 3E       		.uleb128 0x3e
 2134 0017 0B       		.uleb128 0xb
 2135 0018 03       		.uleb128 0x3
 2136 0019 08       		.uleb128 0x8
 2137 001a 00       		.byte	0
 2138 001b 00       		.byte	0
 2139 001c 03       		.uleb128 0x3
 2140 001d 24       		.uleb128 0x24
 2141 001e 00       		.byte	0
 2142 001f 0B       		.uleb128 0xb
 2143 0020 0B       		.uleb128 0xb
ARM GAS  /home/pauba/tmp/cczXe0di.s 			page 39


 2144 0021 3E       		.uleb128 0x3e
 2145 0022 0B       		.uleb128 0xb
 2146 0023 03       		.uleb128 0x3
 2147 0024 0E       		.uleb128 0xe
 2148 0025 00       		.byte	0
 2149 0026 00       		.byte	0
 2150 0027 04       		.uleb128 0x4
 2151 0028 16       		.uleb128 0x16
 2152 0029 00       		.byte	0
 2153 002a 03       		.uleb128 0x3
 2154 002b 0E       		.uleb128 0xe
 2155 002c 3A       		.uleb128 0x3a
 2156 002d 0B       		.uleb128 0xb
 2157 002e 3B       		.uleb128 0x3b
 2158 002f 0B       		.uleb128 0xb
 2159 0030 49       		.uleb128 0x49
 2160 0031 13       		.uleb128 0x13
 2161 0032 00       		.byte	0
 2162 0033 00       		.byte	0
 2163 0034 05       		.uleb128 0x5
 2164 0035 13       		.uleb128 0x13
 2165 0036 01       		.byte	0x1
 2166 0037 03       		.uleb128 0x3
 2167 0038 0E       		.uleb128 0xe
 2168 0039 0B       		.uleb128 0xb
 2169 003a 0B       		.uleb128 0xb
 2170 003b 3A       		.uleb128 0x3a
 2171 003c 0B       		.uleb128 0xb
 2172 003d 3B       		.uleb128 0x3b
 2173 003e 0B       		.uleb128 0xb
 2174 003f 01       		.uleb128 0x1
 2175 0040 13       		.uleb128 0x13
 2176 0041 00       		.byte	0
 2177 0042 00       		.byte	0
 2178 0043 06       		.uleb128 0x6
 2179 0044 0D       		.uleb128 0xd
 2180 0045 00       		.byte	0
 2181 0046 03       		.uleb128 0x3
 2182 0047 0E       		.uleb128 0xe
 2183 0048 3A       		.uleb128 0x3a
 2184 0049 0B       		.uleb128 0xb
 2185 004a 3B       		.uleb128 0x3b
 2186 004b 0B       		.uleb128 0xb
 2187 004c 49       		.uleb128 0x49
 2188 004d 13       		.uleb128 0x13
 2189 004e 38       		.uleb128 0x38
 2190 004f 0B       		.uleb128 0xb
 2191 0050 00       		.byte	0
 2192 0051 00       		.byte	0
 2193 0052 07       		.uleb128 0x7
 2194 0053 0D       		.uleb128 0xd
 2195 0054 00       		.byte	0
 2196 0055 03       		.uleb128 0x3
 2197 0056 08       		.uleb128 0x8
 2198 0057 3A       		.uleb128 0x3a
 2199 0058 0B       		.uleb128 0xb
 2200 0059 3B       		.uleb128 0x3b
ARM GAS  /home/pauba/tmp/cczXe0di.s 			page 40


 2201 005a 0B       		.uleb128 0xb
 2202 005b 49       		.uleb128 0x49
 2203 005c 13       		.uleb128 0x13
 2204 005d 38       		.uleb128 0x38
 2205 005e 0B       		.uleb128 0xb
 2206 005f 00       		.byte	0
 2207 0060 00       		.byte	0
 2208 0061 08       		.uleb128 0x8
 2209 0062 13       		.uleb128 0x13
 2210 0063 01       		.byte	0x1
 2211 0064 0B       		.uleb128 0xb
 2212 0065 0B       		.uleb128 0xb
 2213 0066 3A       		.uleb128 0x3a
 2214 0067 0B       		.uleb128 0xb
 2215 0068 3B       		.uleb128 0x3b
 2216 0069 0B       		.uleb128 0xb
 2217 006a 01       		.uleb128 0x1
 2218 006b 13       		.uleb128 0x13
 2219 006c 00       		.byte	0
 2220 006d 00       		.byte	0
 2221 006e 09       		.uleb128 0x9
 2222 006f 0F       		.uleb128 0xf
 2223 0070 00       		.byte	0
 2224 0071 0B       		.uleb128 0xb
 2225 0072 0B       		.uleb128 0xb
 2226 0073 49       		.uleb128 0x49
 2227 0074 13       		.uleb128 0x13
 2228 0075 00       		.byte	0
 2229 0076 00       		.byte	0
 2230 0077 0A       		.uleb128 0xa
 2231 0078 0F       		.uleb128 0xf
 2232 0079 00       		.byte	0
 2233 007a 0B       		.uleb128 0xb
 2234 007b 0B       		.uleb128 0xb
 2235 007c 00       		.byte	0
 2236 007d 00       		.byte	0
 2237 007e 0B       		.uleb128 0xb
 2238 007f 13       		.uleb128 0x13
 2239 0080 01       		.byte	0x1
 2240 0081 03       		.uleb128 0x3
 2241 0082 0E       		.uleb128 0xe
 2242 0083 0B       		.uleb128 0xb
 2243 0084 0B       		.uleb128 0xb
 2244 0085 3A       		.uleb128 0x3a
 2245 0086 0B       		.uleb128 0xb
 2246 0087 3B       		.uleb128 0x3b
 2247 0088 05       		.uleb128 0x5
 2248 0089 01       		.uleb128 0x1
 2249 008a 13       		.uleb128 0x13
 2250 008b 00       		.byte	0
 2251 008c 00       		.byte	0
 2252 008d 0C       		.uleb128 0xc
 2253 008e 0D       		.uleb128 0xd
 2254 008f 00       		.byte	0
 2255 0090 03       		.uleb128 0x3
 2256 0091 08       		.uleb128 0x8
 2257 0092 3A       		.uleb128 0x3a
ARM GAS  /home/pauba/tmp/cczXe0di.s 			page 41


 2258 0093 0B       		.uleb128 0xb
 2259 0094 3B       		.uleb128 0x3b
 2260 0095 05       		.uleb128 0x5
 2261 0096 49       		.uleb128 0x49
 2262 0097 13       		.uleb128 0x13
 2263 0098 38       		.uleb128 0x38
 2264 0099 0B       		.uleb128 0xb
 2265 009a 00       		.byte	0
 2266 009b 00       		.byte	0
 2267 009c 0D       		.uleb128 0xd
 2268 009d 15       		.uleb128 0x15
 2269 009e 01       		.byte	0x1
 2270 009f 27       		.uleb128 0x27
 2271 00a0 19       		.uleb128 0x19
 2272 00a1 01       		.uleb128 0x1
 2273 00a2 13       		.uleb128 0x13
 2274 00a3 00       		.byte	0
 2275 00a4 00       		.byte	0
 2276 00a5 0E       		.uleb128 0xe
 2277 00a6 05       		.uleb128 0x5
 2278 00a7 00       		.byte	0
 2279 00a8 49       		.uleb128 0x49
 2280 00a9 13       		.uleb128 0x13
 2281 00aa 00       		.byte	0
 2282 00ab 00       		.byte	0
 2283 00ac 0F       		.uleb128 0xf
 2284 00ad 35       		.uleb128 0x35
 2285 00ae 00       		.byte	0
 2286 00af 49       		.uleb128 0x49
 2287 00b0 13       		.uleb128 0x13
 2288 00b1 00       		.byte	0
 2289 00b2 00       		.byte	0
 2290 00b3 10       		.uleb128 0x10
 2291 00b4 17       		.uleb128 0x17
 2292 00b5 01       		.byte	0x1
 2293 00b6 0B       		.uleb128 0xb
 2294 00b7 0B       		.uleb128 0xb
 2295 00b8 3A       		.uleb128 0x3a
 2296 00b9 0B       		.uleb128 0xb
 2297 00ba 3B       		.uleb128 0x3b
 2298 00bb 0B       		.uleb128 0xb
 2299 00bc 01       		.uleb128 0x1
 2300 00bd 13       		.uleb128 0x13
 2301 00be 00       		.byte	0
 2302 00bf 00       		.byte	0
 2303 00c0 11       		.uleb128 0x11
 2304 00c1 0D       		.uleb128 0xd
 2305 00c2 00       		.byte	0
 2306 00c3 03       		.uleb128 0x3
 2307 00c4 0E       		.uleb128 0xe
 2308 00c5 3A       		.uleb128 0x3a
 2309 00c6 0B       		.uleb128 0xb
 2310 00c7 3B       		.uleb128 0x3b
 2311 00c8 0B       		.uleb128 0xb
 2312 00c9 49       		.uleb128 0x49
 2313 00ca 13       		.uleb128 0x13
 2314 00cb 00       		.byte	0
ARM GAS  /home/pauba/tmp/cczXe0di.s 			page 42


 2315 00cc 00       		.byte	0
 2316 00cd 12       		.uleb128 0x12
 2317 00ce 26       		.uleb128 0x26
 2318 00cf 00       		.byte	0
 2319 00d0 49       		.uleb128 0x49
 2320 00d1 13       		.uleb128 0x13
 2321 00d2 00       		.byte	0
 2322 00d3 00       		.byte	0
 2323 00d4 13       		.uleb128 0x13
 2324 00d5 15       		.uleb128 0x15
 2325 00d6 00       		.byte	0
 2326 00d7 27       		.uleb128 0x27
 2327 00d8 19       		.uleb128 0x19
 2328 00d9 00       		.byte	0
 2329 00da 00       		.byte	0
 2330 00db 14       		.uleb128 0x14
 2331 00dc 2E       		.uleb128 0x2e
 2332 00dd 00       		.byte	0
 2333 00de 03       		.uleb128 0x3
 2334 00df 0E       		.uleb128 0xe
 2335 00e0 3A       		.uleb128 0x3a
 2336 00e1 0B       		.uleb128 0xb
 2337 00e2 3B       		.uleb128 0x3b
 2338 00e3 0B       		.uleb128 0xb
 2339 00e4 27       		.uleb128 0x27
 2340 00e5 19       		.uleb128 0x19
 2341 00e6 11       		.uleb128 0x11
 2342 00e7 01       		.uleb128 0x1
 2343 00e8 12       		.uleb128 0x12
 2344 00e9 06       		.uleb128 0x6
 2345 00ea 40       		.uleb128 0x40
 2346 00eb 18       		.uleb128 0x18
 2347 00ec 9642     		.uleb128 0x2116
 2348 00ee 19       		.uleb128 0x19
 2349 00ef 00       		.byte	0
 2350 00f0 00       		.byte	0
 2351 00f1 15       		.uleb128 0x15
 2352 00f2 2E       		.uleb128 0x2e
 2353 00f3 01       		.byte	0x1
 2354 00f4 03       		.uleb128 0x3
 2355 00f5 08       		.uleb128 0x8
 2356 00f6 3A       		.uleb128 0x3a
 2357 00f7 0B       		.uleb128 0xb
 2358 00f8 3B       		.uleb128 0x3b
 2359 00f9 0B       		.uleb128 0xb
 2360 00fa 27       		.uleb128 0x27
 2361 00fb 19       		.uleb128 0x19
 2362 00fc 11       		.uleb128 0x11
 2363 00fd 01       		.uleb128 0x1
 2364 00fe 12       		.uleb128 0x12
 2365 00ff 06       		.uleb128 0x6
 2366 0100 40       		.uleb128 0x40
 2367 0101 18       		.uleb128 0x18
 2368 0102 9642     		.uleb128 0x2116
 2369 0104 19       		.uleb128 0x19
 2370 0105 01       		.uleb128 0x1
 2371 0106 13       		.uleb128 0x13
ARM GAS  /home/pauba/tmp/cczXe0di.s 			page 43


 2372 0107 00       		.byte	0
 2373 0108 00       		.byte	0
 2374 0109 16       		.uleb128 0x16
 2375 010a 05       		.uleb128 0x5
 2376 010b 00       		.byte	0
 2377 010c 03       		.uleb128 0x3
 2378 010d 08       		.uleb128 0x8
 2379 010e 3A       		.uleb128 0x3a
 2380 010f 0B       		.uleb128 0xb
 2381 0110 3B       		.uleb128 0x3b
 2382 0111 0B       		.uleb128 0xb
 2383 0112 49       		.uleb128 0x49
 2384 0113 13       		.uleb128 0x13
 2385 0114 02       		.uleb128 0x2
 2386 0115 18       		.uleb128 0x18
 2387 0116 00       		.byte	0
 2388 0117 00       		.byte	0
 2389 0118 17       		.uleb128 0x17
 2390 0119 2E       		.uleb128 0x2e
 2391 011a 01       		.byte	0x1
 2392 011b 03       		.uleb128 0x3
 2393 011c 0E       		.uleb128 0xe
 2394 011d 3A       		.uleb128 0x3a
 2395 011e 0B       		.uleb128 0xb
 2396 011f 3B       		.uleb128 0x3b
 2397 0120 0B       		.uleb128 0xb
 2398 0121 27       		.uleb128 0x27
 2399 0122 19       		.uleb128 0x19
 2400 0123 11       		.uleb128 0x11
 2401 0124 01       		.uleb128 0x1
 2402 0125 12       		.uleb128 0x12
 2403 0126 06       		.uleb128 0x6
 2404 0127 40       		.uleb128 0x40
 2405 0128 18       		.uleb128 0x18
 2406 0129 9642     		.uleb128 0x2116
 2407 012b 19       		.uleb128 0x19
 2408 012c 01       		.uleb128 0x1
 2409 012d 13       		.uleb128 0x13
 2410 012e 00       		.byte	0
 2411 012f 00       		.byte	0
 2412 0130 18       		.uleb128 0x18
 2413 0131 34       		.uleb128 0x34
 2414 0132 00       		.byte	0
 2415 0133 03       		.uleb128 0x3
 2416 0134 08       		.uleb128 0x8
 2417 0135 3A       		.uleb128 0x3a
 2418 0136 0B       		.uleb128 0xb
 2419 0137 3B       		.uleb128 0x3b
 2420 0138 0B       		.uleb128 0xb
 2421 0139 49       		.uleb128 0x49
 2422 013a 13       		.uleb128 0x13
 2423 013b 02       		.uleb128 0x2
 2424 013c 18       		.uleb128 0x18
 2425 013d 00       		.byte	0
 2426 013e 00       		.byte	0
 2427 013f 19       		.uleb128 0x19
 2428 0140 2E       		.uleb128 0x2e
ARM GAS  /home/pauba/tmp/cczXe0di.s 			page 44


 2429 0141 01       		.byte	0x1
 2430 0142 03       		.uleb128 0x3
 2431 0143 0E       		.uleb128 0xe
 2432 0144 3A       		.uleb128 0x3a
 2433 0145 0B       		.uleb128 0xb
 2434 0146 3B       		.uleb128 0x3b
 2435 0147 0B       		.uleb128 0xb
 2436 0148 27       		.uleb128 0x27
 2437 0149 19       		.uleb128 0x19
 2438 014a 49       		.uleb128 0x49
 2439 014b 13       		.uleb128 0x13
 2440 014c 11       		.uleb128 0x11
 2441 014d 01       		.uleb128 0x1
 2442 014e 12       		.uleb128 0x12
 2443 014f 06       		.uleb128 0x6
 2444 0150 40       		.uleb128 0x40
 2445 0151 18       		.uleb128 0x18
 2446 0152 9642     		.uleb128 0x2116
 2447 0154 19       		.uleb128 0x19
 2448 0155 01       		.uleb128 0x1
 2449 0156 13       		.uleb128 0x13
 2450 0157 00       		.byte	0
 2451 0158 00       		.byte	0
 2452 0159 1A       		.uleb128 0x1a
 2453 015a 34       		.uleb128 0x34
 2454 015b 00       		.byte	0
 2455 015c 03       		.uleb128 0x3
 2456 015d 0E       		.uleb128 0xe
 2457 015e 3A       		.uleb128 0x3a
 2458 015f 0B       		.uleb128 0xb
 2459 0160 3B       		.uleb128 0x3b
 2460 0161 0B       		.uleb128 0xb
 2461 0162 49       		.uleb128 0x49
 2462 0163 13       		.uleb128 0x13
 2463 0164 02       		.uleb128 0x2
 2464 0165 18       		.uleb128 0x18
 2465 0166 00       		.byte	0
 2466 0167 00       		.byte	0
 2467 0168 1B       		.uleb128 0x1b
 2468 0169 01       		.uleb128 0x1
 2469 016a 01       		.byte	0x1
 2470 016b 49       		.uleb128 0x49
 2471 016c 13       		.uleb128 0x13
 2472 016d 01       		.uleb128 0x1
 2473 016e 13       		.uleb128 0x13
 2474 016f 00       		.byte	0
 2475 0170 00       		.byte	0
 2476 0171 1C       		.uleb128 0x1c
 2477 0172 21       		.uleb128 0x21
 2478 0173 00       		.byte	0
 2479 0174 49       		.uleb128 0x49
 2480 0175 13       		.uleb128 0x13
 2481 0176 2F       		.uleb128 0x2f
 2482 0177 0B       		.uleb128 0xb
 2483 0178 00       		.byte	0
 2484 0179 00       		.byte	0
 2485 017a 1D       		.uleb128 0x1d
ARM GAS  /home/pauba/tmp/cczXe0di.s 			page 45


 2486 017b 34       		.uleb128 0x34
 2487 017c 00       		.byte	0
 2488 017d 03       		.uleb128 0x3
 2489 017e 0E       		.uleb128 0xe
 2490 017f 3A       		.uleb128 0x3a
 2491 0180 0B       		.uleb128 0xb
 2492 0181 3B       		.uleb128 0x3b
 2493 0182 0B       		.uleb128 0xb
 2494 0183 49       		.uleb128 0x49
 2495 0184 13       		.uleb128 0x13
 2496 0185 3F       		.uleb128 0x3f
 2497 0186 19       		.uleb128 0x19
 2498 0187 3C       		.uleb128 0x3c
 2499 0188 19       		.uleb128 0x19
 2500 0189 00       		.byte	0
 2501 018a 00       		.byte	0
 2502 018b 1E       		.uleb128 0x1e
 2503 018c 21       		.uleb128 0x21
 2504 018d 00       		.byte	0
 2505 018e 00       		.byte	0
 2506 018f 00       		.byte	0
 2507 0190 1F       		.uleb128 0x1f
 2508 0191 34       		.uleb128 0x34
 2509 0192 00       		.byte	0
 2510 0193 03       		.uleb128 0x3
 2511 0194 08       		.uleb128 0x8
 2512 0195 3A       		.uleb128 0x3a
 2513 0196 0B       		.uleb128 0xb
 2514 0197 3B       		.uleb128 0x3b
 2515 0198 0B       		.uleb128 0xb
 2516 0199 49       		.uleb128 0x49
 2517 019a 13       		.uleb128 0x13
 2518 019b 3F       		.uleb128 0x3f
 2519 019c 19       		.uleb128 0x19
 2520 019d 3C       		.uleb128 0x3c
 2521 019e 19       		.uleb128 0x19
 2522 019f 00       		.byte	0
 2523 01a0 00       		.byte	0
 2524 01a1 20       		.uleb128 0x20
 2525 01a2 34       		.uleb128 0x34
 2526 01a3 00       		.byte	0
 2527 01a4 03       		.uleb128 0x3
 2528 01a5 0E       		.uleb128 0xe
 2529 01a6 3A       		.uleb128 0x3a
 2530 01a7 0B       		.uleb128 0xb
 2531 01a8 3B       		.uleb128 0x3b
 2532 01a9 0B       		.uleb128 0xb
 2533 01aa 49       		.uleb128 0x49
 2534 01ab 13       		.uleb128 0x13
 2535 01ac 3F       		.uleb128 0x3f
 2536 01ad 19       		.uleb128 0x19
 2537 01ae 02       		.uleb128 0x2
 2538 01af 18       		.uleb128 0x18
 2539 01b0 00       		.byte	0
 2540 01b1 00       		.byte	0
 2541 01b2 21       		.uleb128 0x21
 2542 01b3 34       		.uleb128 0x34
ARM GAS  /home/pauba/tmp/cczXe0di.s 			page 46


 2543 01b4 00       		.byte	0
 2544 01b5 03       		.uleb128 0x3
 2545 01b6 0E       		.uleb128 0xe
 2546 01b7 3A       		.uleb128 0x3a
 2547 01b8 0B       		.uleb128 0xb
 2548 01b9 3B       		.uleb128 0x3b
 2549 01ba 05       		.uleb128 0x5
 2550 01bb 49       		.uleb128 0x49
 2551 01bc 13       		.uleb128 0x13
 2552 01bd 3F       		.uleb128 0x3f
 2553 01be 19       		.uleb128 0x19
 2554 01bf 02       		.uleb128 0x2
 2555 01c0 18       		.uleb128 0x18
 2556 01c1 00       		.byte	0
 2557 01c2 00       		.byte	0
 2558 01c3 00       		.byte	0
 2559              		.section	.debug_aranges,"",%progbits
 2560 0000 6C000000 		.4byte	0x6c
 2561 0004 0200     		.2byte	0x2
 2562 0006 00000000 		.4byte	.Ldebug_info0
 2563 000a 04       		.byte	0x4
 2564 000b 00       		.byte	0
 2565 000c 0000     		.2byte	0
 2566 000e 0000     		.2byte	0
 2567 0010 00000000 		.4byte	.LFB7
 2568 0014 0C000000 		.4byte	.LFE7-.LFB7
 2569 0018 00000000 		.4byte	.LFB8
 2570 001c 12000000 		.4byte	.LFE8-.LFB8
 2571 0020 00000000 		.4byte	.LFB9
 2572 0024 12000000 		.4byte	.LFE9-.LFB9
 2573 0028 00000000 		.4byte	.LFB10
 2574 002c 12000000 		.4byte	.LFE10-.LFB10
 2575 0030 00000000 		.4byte	.LFB11
 2576 0034 C0000000 		.4byte	.LFE11-.LFB11
 2577 0038 00000000 		.4byte	.LFB12
 2578 003c 0C000000 		.4byte	.LFE12-.LFB12
 2579 0040 00000000 		.4byte	.LFB13
 2580 0044 1E000000 		.4byte	.LFE13-.LFB13
 2581 0048 00000000 		.4byte	.LFB14
 2582 004c 30000000 		.4byte	.LFE14-.LFB14
 2583 0050 00000000 		.4byte	.LFB15
 2584 0054 18030000 		.4byte	.LFE15-.LFB15
 2585 0058 00000000 		.4byte	.LFB16
 2586 005c 0C000000 		.4byte	.LFE16-.LFB16
 2587 0060 00000000 		.4byte	.LFB17
 2588 0064 FA000000 		.4byte	.LFE17-.LFB17
 2589 0068 00000000 		.4byte	0
 2590 006c 00000000 		.4byte	0
 2591              		.section	.debug_ranges,"",%progbits
 2592              	.Ldebug_ranges0:
 2593 0000 00000000 		.4byte	.LFB7
 2594 0004 0C000000 		.4byte	.LFE7
 2595 0008 00000000 		.4byte	.LFB8
 2596 000c 12000000 		.4byte	.LFE8
 2597 0010 00000000 		.4byte	.LFB9
 2598 0014 12000000 		.4byte	.LFE9
 2599 0018 00000000 		.4byte	.LFB10
ARM GAS  /home/pauba/tmp/cczXe0di.s 			page 47


 2600 001c 12000000 		.4byte	.LFE10
 2601 0020 00000000 		.4byte	.LFB11
 2602 0024 C0000000 		.4byte	.LFE11
 2603 0028 00000000 		.4byte	.LFB12
 2604 002c 0C000000 		.4byte	.LFE12
 2605 0030 00000000 		.4byte	.LFB13
 2606 0034 1E000000 		.4byte	.LFE13
 2607 0038 00000000 		.4byte	.LFB14
 2608 003c 30000000 		.4byte	.LFE14
 2609 0040 00000000 		.4byte	.LFB15
 2610 0044 18030000 		.4byte	.LFE15
 2611 0048 00000000 		.4byte	.LFB16
 2612 004c 0C000000 		.4byte	.LFE16
 2613 0050 00000000 		.4byte	.LFB17
 2614 0054 FA000000 		.4byte	.LFE17
 2615 0058 00000000 		.4byte	0
 2616 005c 00000000 		.4byte	0
 2617              		.section	.debug_line,"",%progbits
 2618              	.Ldebug_line0:
 2619 0000 4F030000 		.section	.debug_str,"MS",%progbits,1
 2619      02009A01 
 2619      00000201 
 2619      FB0E0D00 
 2619      01010101 
 2620              	.LASF96:
 2621 0000 65767432 		.ascii	"evt2_setup\000"
 2621      5F736574 
 2621      757000
 2622              	.LASF44:
 2623 000b 705F6D73 		.ascii	"p_msg\000"
 2623      6700
 2624              	.LASF84:
 2625 0011 7264796D 		.ascii	"rdymsg\000"
 2625      736700
 2626              	.LASF16:
 2627 0018 75696E74 		.ascii	"uint64_t\000"
 2627      36345F74 
 2627      00
 2628              	.LASF5:
 2629 0021 5F5F7569 		.ascii	"__uint8_t\000"
 2629      6E74385F 
 2629      7400
 2630              	.LASF104:
 2631 002b 76746C69 		.ascii	"vtlist\000"
 2631      737400
 2632              	.LASF12:
 2633 0032 6C6F6E67 		.ascii	"long long unsigned int\000"
 2633      206C6F6E 
 2633      6720756E 
 2633      7369676E 
 2633      65642069 
 2634              	.LASF85:
 2635 0049 65786974 		.ascii	"exitcode\000"
 2635      636F6465 
 2635      00
 2636              	.LASF31:
 2637 0052 705F7072 		.ascii	"p_prio\000"
ARM GAS  /home/pauba/tmp/cczXe0di.s 			page 48


 2637      696F00
 2638              	.LASF99:
 2639 0059 65767432 		.ascii	"evt2_execute\000"
 2639      5F657865 
 2639      63757465 
 2639      00
 2640              	.LASF10:
 2641 0066 6C6F6E67 		.ascii	"long long int\000"
 2641      206C6F6E 
 2641      6720696E 
 2641      7400
 2642              	.LASF1:
 2643 0074 7369676E 		.ascii	"signed char\000"
 2643      65642063 
 2643      68617200 
 2644              	.LASF48:
 2645 0080 705F6D70 		.ascii	"p_mpool\000"
 2645      6F6F6C00 
 2646              	.LASF73:
 2647 0088 6D5F7175 		.ascii	"m_queue\000"
 2647      65756500 
 2648              	.LASF21:
 2649 0090 74736C69 		.ascii	"tslices_t\000"
 2649      6365735F 
 2649      7400
 2650              	.LASF7:
 2651 009a 6C6F6E67 		.ascii	"long int\000"
 2651      20696E74 
 2651      00
 2652              	.LASF100:
 2653 00a3 74617267 		.ascii	"target_time\000"
 2653      65745F74 
 2653      696D6500 
 2654              	.LASF19:
 2655 00af 74737461 		.ascii	"tstate_t\000"
 2655      74655F74 
 2655      00
 2656              	.LASF108:
 2657 00b8 74657374 		.ascii	"testevt2\000"
 2657      65767432 
 2657      00
 2658              	.LASF109:
 2659 00c1 74657374 		.ascii	"testevt3\000"
 2659      65767433 
 2659      00
 2660              	.LASF33:
 2661 00ca 705F6E65 		.ascii	"p_newer\000"
 2661      77657200 
 2662              	.LASF8:
 2663 00d2 5F5F7569 		.ascii	"__uint32_t\000"
 2663      6E743332 
 2663      5F7400
 2664              	.LASF51:
 2665 00dd 72656761 		.ascii	"regarm_t\000"
 2665      726D5F74 
 2665      00
 2666              	.LASF59:
ARM GAS  /home/pauba/tmp/cczXe0di.s 			page 49


 2667 00e6 76745F70 		.ascii	"vt_prev\000"
 2667      72657600 
 2668              	.LASF24:
 2669 00ee 6576656E 		.ascii	"eventid_t\000"
 2669      7469645F 
 2669      7400
 2670              	.LASF81:
 2671 00f8 4576656E 		.ascii	"EventSource\000"
 2671      74536F75 
 2671      72636500 
 2672              	.LASF83:
 2673 0104 65766861 		.ascii	"evhandler_t\000"
 2673      6E646C65 
 2673      725F7400 
 2674              	.LASF36:
 2675 0110 705F7374 		.ascii	"p_stklimit\000"
 2675      6B6C696D 
 2675      697400
 2676              	.LASF0:
 2677 011b 756E7369 		.ascii	"unsigned int\000"
 2677      676E6564 
 2677      20696E74 
 2677      00
 2678              	.LASF58:
 2679 0128 76745F6E 		.ascii	"vt_next\000"
 2679      65787400 
 2680              	.LASF9:
 2681 0130 6C6F6E67 		.ascii	"long unsigned int\000"
 2681      20756E73 
 2681      69676E65 
 2681      6420696E 
 2681      7400
 2682              	.LASF92:
 2683 0142 74656172 		.ascii	"teardown\000"
 2683      646F776E 
 2683      00
 2684              	.LASF110:
 2685 014b 70617474 		.ascii	"patternevt\000"
 2685      65726E65 
 2685      767400
 2686              	.LASF56:
 2687 0156 76746675 		.ascii	"vtfunc_t\000"
 2687      6E635F74 
 2687      00
 2688              	.LASF90:
 2689 015f 6E616D65 		.ascii	"name\000"
 2689      00
 2690              	.LASF54:
 2691 0164 636F6E74 		.ascii	"context\000"
 2691      65787400 
 2692              	.LASF4:
 2693 016c 73686F72 		.ascii	"short unsigned int\000"
 2693      7420756E 
 2693      7369676E 
 2693      65642069 
 2693      6E7400
 2694              	.LASF23:
ARM GAS  /home/pauba/tmp/cczXe0di.s 			page 50


 2695 017f 6D73675F 		.ascii	"msg_t\000"
 2695      7400
 2696              	.LASF68:
 2697 0185 725F6E65 		.ascii	"r_newer\000"
 2697      77657200 
 2698              	.LASF77:
 2699 018d 656C5F6E 		.ascii	"el_next\000"
 2699      65787400 
 2700              	.LASF18:
 2701 0195 746D6F64 		.ascii	"tmode_t\000"
 2701      655F7400 
 2702              	.LASF50:
 2703 019d 54687265 		.ascii	"ThreadsList\000"
 2703      6164734C 
 2703      69737400 
 2704              	.LASF25:
 2705 01a9 6576656E 		.ascii	"eventmask_t\000"
 2705      746D6173 
 2705      6B5F7400 
 2706              	.LASF72:
 2707 01b5 4D757465 		.ascii	"Mutex\000"
 2707      7800
 2708              	.LASF52:
 2709 01bb 73746B61 		.ascii	"stkalign_t\000"
 2709      6C69676E 
 2709      5F7400
 2710              	.LASF60:
 2711 01c6 76745F74 		.ascii	"vt_time\000"
 2711      696D6500 
 2712              	.LASF95:
 2713 01ce 65767431 		.ascii	"evt1_setup\000"
 2713      5F736574 
 2713      757000
 2714              	.LASF55:
 2715 01d9 73697A65 		.ascii	"sizetype\000"
 2715      74797065 
 2715      00
 2716              	.LASF61:
 2717 01e2 76745F66 		.ascii	"vt_func\000"
 2717      756E6300 
 2718              	.LASF101:
 2719 01ea 65767433 		.ascii	"evt3_setup\000"
 2719      5F736574 
 2719      757000
 2720              	.LASF34:
 2721 01f5 705F6F6C 		.ascii	"p_older\000"
 2721      64657200 
 2722              	.LASF97:
 2723 01fd 74687265 		.ascii	"thread1\000"
 2723      61643100 
 2724              	.LASF98:
 2725 0205 74687265 		.ascii	"thread2\000"
 2725      61643200 
 2726              	.LASF67:
 2727 020d 725F6374 		.ascii	"r_ctx\000"
 2727      7800
 2728              	.LASF49:
ARM GAS  /home/pauba/tmp/cczXe0di.s 			page 51


 2729 0213 54687265 		.ascii	"ThreadsQueue\000"
 2729      61647351 
 2729      75657565 
 2729      00
 2730              	.LASF91:
 2731 0220 73657475 		.ascii	"setup\000"
 2731      7000
 2732              	.LASF70:
 2733 0226 725F6375 		.ascii	"r_current\000"
 2733      7272656E 
 2733      7400
 2734              	.LASF69:
 2735 0230 725F6F6C 		.ascii	"r_older\000"
 2735      64657200 
 2736              	.LASF79:
 2737 0238 656C5F6D 		.ascii	"el_mask\000"
 2737      61736B00 
 2738              	.LASF11:
 2739 0240 5F5F7569 		.ascii	"__uint64_t\000"
 2739      6E743634 
 2739      5F7400
 2740              	.LASF20:
 2741 024b 74726566 		.ascii	"trefs_t\000"
 2741      735F7400 
 2742              	.LASF30:
 2743 0253 705F7072 		.ascii	"p_prev\000"
 2743      657600
 2744              	.LASF93:
 2745 025a 65786563 		.ascii	"execute\000"
 2745      75746500 
 2746              	.LASF22:
 2747 0262 74707269 		.ascii	"tprio_t\000"
 2747      6F5F7400 
 2748              	.LASF17:
 2749 026a 5F426F6F 		.ascii	"_Bool\000"
 2749      6C00
 2750              	.LASF14:
 2751 0270 696E7433 		.ascii	"int32_t\000"
 2751      325F7400 
 2752              	.LASF2:
 2753 0278 756E7369 		.ascii	"unsigned char\000"
 2753      676E6564 
 2753      20636861 
 2753      7200
 2754              	.LASF78:
 2755 0286 656C5F6C 		.ascii	"el_listener\000"
 2755      69737465 
 2755      6E657200 
 2756              	.LASF102:
 2757 0292 65767433 		.ascii	"evt3_execute\000"
 2757      5F657865 
 2757      63757465 
 2757      00
 2758              	.LASF80:
 2759 029f 656C5F66 		.ascii	"el_flags\000"
 2759      6C616773 
 2759      00
ARM GAS  /home/pauba/tmp/cczXe0di.s 			page 52


 2760              	.LASF46:
 2761 02a8 705F6D74 		.ascii	"p_mtxlist\000"
 2761      786C6973 
 2761      7400
 2762              	.LASF3:
 2763 02b2 73686F72 		.ascii	"short int\000"
 2763      7420696E 
 2763      7400
 2764              	.LASF37:
 2765 02bc 705F7374 		.ascii	"p_state\000"
 2765      61746500 
 2766              	.LASF40:
 2767 02c4 705F7072 		.ascii	"p_preempt\000"
 2767      65656D70 
 2767      7400
 2768              	.LASF106:
 2769 02ce 74687265 		.ascii	"threads\000"
 2769      61647300 
 2770              	.LASF66:
 2771 02d6 725F7072 		.ascii	"r_prio\000"
 2771      696F00
 2772              	.LASF87:
 2773 02dd 65776D61 		.ascii	"ewmask\000"
 2773      736B00
 2774              	.LASF29:
 2775 02e4 705F6E65 		.ascii	"p_next\000"
 2775      787400
 2776              	.LASF38:
 2777 02eb 705F666C 		.ascii	"p_flags\000"
 2777      61677300 
 2778              	.LASF112:
 2779 02f3 2F686F6D 		.ascii	"/home/pauba/ChibiOS-RT/test/testevt.c\000"
 2779      652F7061 
 2779      7562612F 
 2779      43686962 
 2779      694F532D 
 2780              	.LASF28:
 2781 0319 54687265 		.ascii	"Thread\000"
 2781      616400
 2782              	.LASF89:
 2783 0320 74657374 		.ascii	"testcase\000"
 2783      63617365 
 2783      00
 2784              	.LASF45:
 2785 0329 705F6570 		.ascii	"p_epending\000"
 2785      656E6469 
 2785      6E6700
 2786              	.LASF107:
 2787 0334 74657374 		.ascii	"testevt1\000"
 2787      65767431 
 2787      00
 2788              	.LASF103:
 2789 033d 6576686E 		.ascii	"evhndl\000"
 2789      646C00
 2790              	.LASF15:
 2791 0344 75696E74 		.ascii	"uint32_t\000"
 2791      33325F74 
ARM GAS  /home/pauba/tmp/cczXe0di.s 			page 53


 2791      00
 2792              	.LASF65:
 2793 034d 725F7175 		.ascii	"r_queue\000"
 2793      65756500 
 2794              	.LASF57:
 2795 0355 56697274 		.ascii	"VirtualTimer\000"
 2795      75616C54 
 2795      696D6572 
 2795      00
 2796              	.LASF111:
 2797 0362 474E5520 		.ascii	"GNU C 4.8.3 20140228 (release) [ARM/embedded-4_8-br"
 2797      4320342E 
 2797      382E3320 
 2797      32303134 
 2797      30323238 
 2798 0395 616E6368 		.ascii	"anch revision 208322] -mcpu=cortex-m4 -mno-thumb-in"
 2798      20726576 
 2798      6973696F 
 2798      6E203230 
 2798      38333232 
 2799 03c8 74657277 		.ascii	"terwork -mthumb -ggdb -fomit-frame-pointer -falign-"
 2799      6F726B20 
 2799      2D6D7468 
 2799      756D6220 
 2799      2D676764 
 2800 03fb 66756E63 		.ascii	"functions=16 -ffunction-sections -fdata-sections -f"
 2800      74696F6E 
 2800      733D3136 
 2800      202D6666 
 2800      756E6374 
 2801 042e 6E6F2D63 		.ascii	"no-common\000"
 2801      6F6D6D6F 
 2801      6E00
 2802              	.LASF88:
 2803 0438 63686172 		.ascii	"char\000"
 2803      00
 2804              	.LASF75:
 2805 043d 6D5F6E65 		.ascii	"m_next\000"
 2805      787400
 2806              	.LASF27:
 2807 0444 73797374 		.ascii	"systime_t\000"
 2807      696D655F 
 2807      7400
 2808              	.LASF47:
 2809 044e 705F7265 		.ascii	"p_realprio\000"
 2809      616C7072 
 2809      696F00
 2810              	.LASF6:
 2811 0459 5F5F696E 		.ascii	"__int32_t\000"
 2811      7433325F 
 2811      7400
 2812              	.LASF41:
 2813 0463 705F7469 		.ascii	"p_time\000"
 2813      6D6500
 2814              	.LASF53:
 2815 046a 696E7463 		.ascii	"intctx\000"
 2815      747800
ARM GAS  /home/pauba/tmp/cczXe0di.s 			page 54


 2816              	.LASF43:
 2817 0471 705F6D73 		.ascii	"p_msgqueue\000"
 2817      67717565 
 2817      756500
 2818              	.LASF62:
 2819 047c 76745F70 		.ascii	"vt_par\000"
 2819      617200
 2820              	.LASF26:
 2821 0483 666C6167 		.ascii	"flagsmask_t\000"
 2821      736D6173 
 2821      6B5F7400 
 2822              	.LASF39:
 2823 048f 705F7265 		.ascii	"p_refs\000"
 2823      667300
 2824              	.LASF71:
 2825 0496 52656164 		.ascii	"ReadyList\000"
 2825      794C6973 
 2825      7400
 2826              	.LASF105:
 2827 04a0 726C6973 		.ascii	"rlist\000"
 2827      7400
 2828              	.LASF13:
 2829 04a6 75696E74 		.ascii	"uint8_t\000"
 2829      385F7400 
 2830              	.LASF76:
 2831 04ae 4576656E 		.ascii	"EventListener\000"
 2831      744C6973 
 2831      74656E65 
 2831      7200
 2832              	.LASF86:
 2833 04bc 77746F62 		.ascii	"wtobjp\000"
 2833      6A7000
 2834              	.LASF35:
 2835 04c3 705F6E61 		.ascii	"p_name\000"
 2835      6D6500
 2836              	.LASF63:
 2837 04ca 76745F73 		.ascii	"vt_systime\000"
 2837      79737469 
 2837      6D6500
 2838              	.LASF82:
 2839 04d5 65735F6E 		.ascii	"es_next\000"
 2839      65787400 
 2840              	.LASF64:
 2841 04dd 56544C69 		.ascii	"VTList\000"
 2841      737400
 2842              	.LASF74:
 2843 04e4 6D5F6F77 		.ascii	"m_owner\000"
 2843      6E657200 
 2844              	.LASF94:
 2845 04ec 65767431 		.ascii	"evt1_execute\000"
 2845      5F657865 
 2845      63757465 
 2845      00
 2846              	.LASF32:
 2847 04f9 705F6374 		.ascii	"p_ctx\000"
 2847      7800
 2848              	.LASF42:
ARM GAS  /home/pauba/tmp/cczXe0di.s 			page 55


 2849 04ff 705F7761 		.ascii	"p_waiting\000"
 2849      6974696E 
 2849      6700
 2850              		.ident	"GCC: (GNU Tools for ARM Embedded Processors) 4.8.3 20140228 (release) [ARM/embedded-4_8-br
ARM GAS  /home/pauba/tmp/cczXe0di.s 			page 56


DEFINED SYMBOLS
                            *ABS*:00000000 testevt.c
/home/pauba/tmp/cczXe0di.s:19     .data.es1:00000000 $d
/home/pauba/tmp/cczXe0di.s:22     .data.es1:00000000 es1
/home/pauba/tmp/cczXe0di.s:25     .data.es2:00000000 $d
/home/pauba/tmp/cczXe0di.s:28     .data.es2:00000000 es2
/home/pauba/tmp/cczXe0di.s:31     .text.evt1_setup:00000000 $t
/home/pauba/tmp/cczXe0di.s:36     .text.evt1_setup:00000000 evt1_setup
/home/pauba/tmp/cczXe0di.s:56     .text.h1:00000000 $t
/home/pauba/tmp/cczXe0di.s:61     .text.h1:00000000 h1
/home/pauba/tmp/cczXe0di.s:83     .text.h2:00000000 $t
/home/pauba/tmp/cczXe0di.s:88     .text.h2:00000000 h2
/home/pauba/tmp/cczXe0di.s:110    .text.h3:00000000 $t
/home/pauba/tmp/cczXe0di.s:115    .text.h3:00000000 h3
/home/pauba/tmp/cczXe0di.s:137    .rodata.evhndl:00000000 $d
/home/pauba/tmp/cczXe0di.s:140    .rodata.evhndl:00000000 evhndl
/home/pauba/tmp/cczXe0di.s:145    .rodata:00000000 $d
/home/pauba/tmp/cczXe0di.s:149    .text.evt1_execute:00000000 $t
/home/pauba/tmp/cczXe0di.s:154    .text.evt1_execute:00000000 evt1_execute
/home/pauba/tmp/cczXe0di.s:265    .text.evt1_execute:000000b4 $d
/home/pauba/tmp/cczXe0di.s:280    .rodata.testevt1:00000000 testevt1
/home/pauba/tmp/cczXe0di.s:277    .rodata.testevt1:00000000 $d
/home/pauba/tmp/cczXe0di.s:286    .text.evt2_setup:00000000 $t
/home/pauba/tmp/cczXe0di.s:291    .text.evt2_setup:00000000 evt2_setup
/home/pauba/tmp/cczXe0di.s:310    .text.thread1:00000000 $t
/home/pauba/tmp/cczXe0di.s:315    .text.thread1:00000000 thread1
/home/pauba/tmp/cczXe0di.s:345    .text.thread2:00000000 $t
/home/pauba/tmp/cczXe0di.s:350    .text.thread2:00000000 thread2
/home/pauba/tmp/cczXe0di.s:383    .text.thread2:00000028 $d
/home/pauba/tmp/cczXe0di.s:393    .text.evt2_execute:00000000 $t
/home/pauba/tmp/cczXe0di.s:398    .text.evt2_execute:00000000 evt2_execute
/home/pauba/tmp/cczXe0di.s:814    .text.evt2_execute:000002f4 $d
/home/pauba/tmp/cczXe0di.s:835    .rodata.testevt2:00000000 testevt2
/home/pauba/tmp/cczXe0di.s:832    .rodata.testevt2:00000000 $d
/home/pauba/tmp/cczXe0di.s:841    .text.evt3_setup:00000000 $t
/home/pauba/tmp/cczXe0di.s:846    .text.evt3_setup:00000000 evt3_setup
/home/pauba/tmp/cczXe0di.s:865    .text.evt3_execute:00000000 $t
/home/pauba/tmp/cczXe0di.s:870    .text.evt3_execute:00000000 evt3_execute
/home/pauba/tmp/cczXe0di.s:1023   .rodata.testevt3:00000000 testevt3
/home/pauba/tmp/cczXe0di.s:1020   .rodata.testevt3:00000000 $d
/home/pauba/tmp/cczXe0di.s:1033   .rodata.patternevt:00000000 patternevt
/home/pauba/tmp/cczXe0di.s:1030   .rodata.patternevt:00000000 $d
                     .debug_frame:00000010 $d
/home/pauba/tmp/cczXe0di.s:827    .text.evt2_execute:00000318 $t

UNDEFINED SYMBOLS
chEvtGetAndClearEvents
test_emit_token
chEvtRegisterMask
_test_assert
chEvtUnregister
chEvtDispatch
_test_assert_sequence
chThdSleep
chEvtSignal
chEvtBroadcastFlags
chEvtAddEvents
ARM GAS  /home/pauba/tmp/cczXe0di.s 			page 57


chEvtWaitOne
test_wait_tick
chThdCreateStatic
_test_assert_time_window
test_wait_threads
chEvtWaitAny
chEvtWaitAll
vtlist
wa
rlist
threads
chEvtWaitOneTimeout
chEvtWaitAnyTimeout
chEvtWaitAllTimeout
