ARM GAS  /home/pauba/tmp/ccwskT5q.s 			page 1


   1              		.syntax unified
   2              		.cpu cortex-m4
   3              		.fpu softvfp
   4              		.eabi_attribute 20, 1
   5              		.eabi_attribute 21, 1
   6              		.eabi_attribute 23, 3
   7              		.eabi_attribute 24, 1
   8              		.eabi_attribute 25, 1
   9              		.eabi_attribute 26, 1
  10              		.eabi_attribute 30, 6
  11              		.eabi_attribute 34, 1
  12              		.eabi_attribute 18, 4
  13              		.thumb
  14              		.file	"testdyn.c"
  15              		.text
  16              	.Ltext0:
  17              		.cfi_sections	.debug_frame
  18              		.section	.bss.heap1,"aw",%nobits
  19              		.align	3
  20              		.type	heap1, %object
  21              		.size	heap1, 32
  22              	heap1:
  23 0000 00000000 		.space	32
  23      00000000 
  23      00000000 
  23      00000000 
  23      00000000 
  24              		.section	.bss.mp1,"aw",%nobits
  25              		.align	2
  26              		.type	mp1, %object
  27              		.size	mp1, 12
  28              	mp1:
  29 0000 00000000 		.space	12
  29      00000000 
  29      00000000 
  30              		.section	.text.thread,"ax",%progbits
  31              		.align	2
  32              		.p2align 4,,15
  33              		.thumb
  34              		.thumb_func
  35              		.type	thread, %function
  36              	thread:
  37              	.LFB7:
  38              		.file 1 "/home/pauba/ChibiOS-RT/test/testdyn.c"
  39              		.loc 1 71 0
  40              		.cfi_startproc
  41              		@ args = 0, pretend = 0, frame = 8
  42              		@ frame_needed = 0, uses_anonymous_args = 0
  43 0000 00B5     		push	{lr}
  44              		.cfi_def_cfa_offset 4
  45              		.cfi_offset 14, -4
  46 0002 83B0     		sub	sp, sp, #12
  47              		.cfi_def_cfa_offset 16
  48 0004 0190     		str	r0, [sp, #4]
  49              		.loc 1 73 0
  50 0006 019B     		ldr	r3, [sp, #4]
  51 0008 1B78     		ldrb	r3, [r3]	@ zero_extendqisi2
ARM GAS  /home/pauba/tmp/ccwskT5q.s 			page 2


  52 000a 1846     		mov	r0, r3
  53 000c FFF7FEFF 		bl	test_emit_token
  54              		.loc 1 74 0
  55 0010 0023     		movs	r3, #0
  56              		.loc 1 75 0
  57 0012 1846     		mov	r0, r3
  58 0014 03B0     		add	sp, sp, #12
  59              		@ sp needed
  60 0016 5DF804FB 		ldr	pc, [sp], #4
  61              		.cfi_endproc
  62              	.LFE7:
  63              		.size	thread, .-thread
  64 001a 00BFAFF3 		.section	.text.dyn1_setup,"ax",%progbits
  64      0080
  65              		.align	2
  66              		.p2align 4,,15
  67              		.thumb
  68              		.thumb_func
  69              		.type	dyn1_setup, %function
  70              	dyn1_setup:
  71              	.LFB8:
  72              		.loc 1 78 0
  73              		.cfi_startproc
  74              		@ args = 0, pretend = 0, frame = 0
  75              		@ frame_needed = 0, uses_anonymous_args = 0
  76 0000 08B5     		push	{r3, lr}
  77              		.cfi_def_cfa_offset 8
  78              		.cfi_offset 3, -8
  79              		.cfi_offset 14, -4
  80              		.loc 1 80 0
  81 0002 0348     		ldr	r0, .L4
  82 0004 0349     		ldr	r1, .L4+4
  83 0006 4FF4D262 		mov	r2, #1680
  84 000a FFF7FEFF 		bl	chHeapInit
  85              		.loc 1 81 0
  86 000e 08BD     		pop	{r3, pc}
  87              	.L5:
  88              		.align	2
  89              	.L4:
  90 0010 00000000 		.word	heap1
  91 0014 00000000 		.word	test
  92              		.cfi_endproc
  93              	.LFE8:
  94              		.size	dyn1_setup, .-dyn1_setup
  95 0018 AFF30080 		.section	.rodata
  95      AFF30080 
  96              		.align	2
  97              	.LC0:
  98 0000 4100     		.ascii	"A\000"
  99 0002 0000     		.align	2
 100              	.LC1:
 101 0004 4200     		.ascii	"B\000"
 102 0006 0000     		.align	2
 103              	.LC2:
 104 0008 4300     		.ascii	"C\000"
 105 000a 0000     		.align	2
 106              	.LC3:
ARM GAS  /home/pauba/tmp/ccwskT5q.s 			page 3


 107 000c 414200   		.ascii	"AB\000"
 108              		.section	.text.dyn1_execute,"ax",%progbits
 109              		.align	2
 110              		.p2align 4,,15
 111              		.thumb
 112              		.thumb_func
 113              		.type	dyn1_execute, %function
 114              	dyn1_execute:
 115              	.LFB9:
 116              		.loc 1 83 0
 117              		.cfi_startproc
 118              		@ args = 0, pretend = 0, frame = 16
 119              		@ frame_needed = 0, uses_anonymous_args = 0
 120 0000 00B5     		push	{lr}
 121              		.cfi_def_cfa_offset 4
 122              		.cfi_offset 14, -4
 123 0002 87B0     		sub	sp, sp, #28
 124              		.cfi_def_cfa_offset 32
 125              		.loc 1 86 0
 126 0004 484B     		ldr	r3, .L15
 127 0006 9B69     		ldr	r3, [r3, #24]
 128 0008 9B68     		ldr	r3, [r3, #8]
 129 000a 0593     		str	r3, [sp, #20]
 130              		.loc 1 88 0
 131 000c 02AB     		add	r3, sp, #8
 132 000e 4748     		ldr	r0, .L15+4
 133 0010 1946     		mov	r1, r3
 134 0012 FFF7FEFF 		bl	chHeapStatus
 135              		.loc 1 90 0
 136 0016 059B     		ldr	r3, [sp, #20]
 137 0018 013B     		subs	r3, r3, #1
 138 001a 454A     		ldr	r2, .L15+8
 139 001c 0092     		str	r2, [sp]
 140 001e 4348     		ldr	r0, .L15+4
 141 0020 4FF4A871 		mov	r1, #336
 142 0024 1A46     		mov	r2, r3
 143 0026 434B     		ldr	r3, .L15+12
 144 0028 FFF7FEFF 		bl	chThdCreateFromHeap
 145 002c 0246     		mov	r2, r0
 146 002e 424B     		ldr	r3, .L15+16
 147 0030 1A60     		str	r2, [r3]
 148              		.loc 1 92 0
 149 0032 059B     		ldr	r3, [sp, #20]
 150 0034 023B     		subs	r3, r3, #2
 151 0036 414A     		ldr	r2, .L15+20
 152 0038 0092     		str	r2, [sp]
 153 003a 3C48     		ldr	r0, .L15+4
 154 003c 4FF4A871 		mov	r1, #336
 155 0040 1A46     		mov	r2, r3
 156 0042 3C4B     		ldr	r3, .L15+12
 157 0044 FFF7FEFF 		bl	chThdCreateFromHeap
 158 0048 0246     		mov	r2, r0
 159 004a 3B4B     		ldr	r3, .L15+16
 160 004c 5A60     		str	r2, [r3, #4]
 161              		.loc 1 95 0
 162 004e 03AB     		add	r3, sp, #12
 163 0050 3648     		ldr	r0, .L15+4
ARM GAS  /home/pauba/tmp/ccwskT5q.s 			page 4


 164 0052 1946     		mov	r1, r3
 165 0054 FFF7FEFF 		bl	chHeapStatus
 166              		.loc 1 96 0
 167 0058 039B     		ldr	r3, [sp, #12]
 168 005a 3448     		ldr	r0, .L15+4
 169 005c 1946     		mov	r1, r3
 170 005e FFF7FEFF 		bl	chHeapAlloc
 171 0062 0490     		str	r0, [sp, #16]
 172              		.loc 1 97 0
 173 0064 059B     		ldr	r3, [sp, #20]
 174 0066 033B     		subs	r3, r3, #3
 175 0068 354A     		ldr	r2, .L15+24
 176 006a 0092     		str	r2, [sp]
 177 006c 2F48     		ldr	r0, .L15+4
 178 006e 4FF4A871 		mov	r1, #336
 179 0072 1A46     		mov	r2, r3
 180 0074 2F4B     		ldr	r3, .L15+12
 181 0076 FFF7FEFF 		bl	chThdCreateFromHeap
 182 007a 0246     		mov	r2, r0
 183 007c 2E4B     		ldr	r3, .L15+16
 184 007e 9A60     		str	r2, [r3, #8]
 185              		.loc 1 99 0
 186 0080 0498     		ldr	r0, [sp, #16]
 187 0082 FFF7FEFF 		bl	chHeapFree
 188              		.loc 1 101 0
 189 0086 2C4B     		ldr	r3, .L15+16
 190 0088 1B68     		ldr	r3, [r3]
 191 008a 002B     		cmp	r3, #0
 192 008c 11D0     		beq	.L7
 193              		.loc 1 101 0 is_stmt 0 discriminator 1
 194 008e 2A4B     		ldr	r3, .L15+16
 195 0090 5B68     		ldr	r3, [r3, #4]
 196 0092 002B     		cmp	r3, #0
 197 0094 0DD0     		beq	.L7
 198 0096 284B     		ldr	r3, .L15+16
 199 0098 9B68     		ldr	r3, [r3, #8]
 200 009a 002B     		cmp	r3, #0
 201 009c 09D1     		bne	.L7
 202 009e 264B     		ldr	r3, .L15+16
 203 00a0 DB68     		ldr	r3, [r3, #12]
 204 00a2 002B     		cmp	r3, #0
 205 00a4 05D1     		bne	.L7
 206 00a6 244B     		ldr	r3, .L15+16
 207 00a8 1B69     		ldr	r3, [r3, #16]
 208 00aa 002B     		cmp	r3, #0
 209 00ac 01D1     		bne	.L7
 210              		.loc 1 101 0 discriminator 3
 211 00ae 0123     		movs	r3, #1
 212 00b0 00E0     		b	.L8
 213              	.L7:
 214              		.loc 1 101 0 discriminator 2
 215 00b2 0023     		movs	r3, #0
 216              	.L8:
 217              		.loc 1 101 0 discriminator 4
 218 00b4 03F00103 		and	r3, r3, #1
 219 00b8 DBB2     		uxtb	r3, r3
 220 00ba 0120     		movs	r0, #1
ARM GAS  /home/pauba/tmp/ccwskT5q.s 			page 5


 221 00bc 1946     		mov	r1, r3
 222 00be FFF7FEFF 		bl	_test_assert
 223 00c2 0346     		mov	r3, r0
 224 00c4 002B     		cmp	r3, #0
 225 00c6 00D0     		beq	.L9
 226              		.loc 1 101 0 discriminator 1
 227 00c8 2BE0     		b	.L6
 228              	.L9:
 229              		.loc 1 109 0 is_stmt 1
 230 00ca FFF7FEFF 		bl	test_wait_threads
 231              		.loc 1 110 0
 232 00ce 0220     		movs	r0, #2
 233 00d0 1C49     		ldr	r1, .L15+28
 234 00d2 FFF7FEFF 		bl	_test_assert_sequence
 235 00d6 0346     		mov	r3, r0
 236 00d8 002B     		cmp	r3, #0
 237 00da 00D0     		beq	.L11
 238              		.loc 1 110 0 is_stmt 0 discriminator 1
 239 00dc 21E0     		b	.L6
 240              	.L11:
 241              		.loc 1 113 0 is_stmt 1
 242 00de 03AB     		add	r3, sp, #12
 243 00e0 1248     		ldr	r0, .L15+4
 244 00e2 1946     		mov	r1, r3
 245 00e4 FFF7FEFF 		bl	chHeapStatus
 246 00e8 0346     		mov	r3, r0
 247 00ea 012B     		cmp	r3, #1
 248 00ec 14BF     		ite	ne
 249 00ee 0023     		movne	r3, #0
 250 00f0 0123     		moveq	r3, #1
 251 00f2 DBB2     		uxtb	r3, r3
 252 00f4 0320     		movs	r0, #3
 253 00f6 1946     		mov	r1, r3
 254 00f8 FFF7FEFF 		bl	_test_assert
 255 00fc 0346     		mov	r3, r0
 256 00fe 002B     		cmp	r3, #0
 257 0100 00D0     		beq	.L12
 258              		.loc 1 113 0 is_stmt 0 discriminator 1
 259 0102 0EE0     		b	.L6
 260              	.L12:
 261              		.loc 1 114 0 is_stmt 1
 262 0104 039A     		ldr	r2, [sp, #12]
 263 0106 029B     		ldr	r3, [sp, #8]
 264 0108 9A42     		cmp	r2, r3
 265 010a 14BF     		ite	ne
 266 010c 0023     		movne	r3, #0
 267 010e 0123     		moveq	r3, #1
 268 0110 DBB2     		uxtb	r3, r3
 269 0112 0420     		movs	r0, #4
 270 0114 1946     		mov	r1, r3
 271 0116 FFF7FEFF 		bl	_test_assert
 272 011a 0346     		mov	r3, r0
 273 011c 002B     		cmp	r3, #0
 274 011e 00D0     		beq	.L6
 275 0120 00BF     		nop
 276              	.L6:
 277              		.loc 1 115 0
ARM GAS  /home/pauba/tmp/ccwskT5q.s 			page 6


 278 0122 07B0     		add	sp, sp, #28
 279              		@ sp needed
 280 0124 5DF804FB 		ldr	pc, [sp], #4
 281              	.L16:
 282              		.align	2
 283              	.L15:
 284 0128 00000000 		.word	rlist
 285 012c 00000000 		.word	heap1
 286 0130 00000000 		.word	.LC0
 287 0134 00000000 		.word	thread
 288 0138 00000000 		.word	threads
 289 013c 04000000 		.word	.LC1
 290 0140 08000000 		.word	.LC2
 291 0144 0C000000 		.word	.LC3
 292              		.cfi_endproc
 293              	.LFE9:
 294              		.size	dyn1_execute, .-dyn1_execute
 295              		.global	testdyn1
 296 0148 AFF30080 		.section	.rodata
 296      AFF30080 
 297 000f 00       		.align	2
 298              	.LC4:
 299 0010 44796E61 		.ascii	"Dynamic APIs, threads creation from heap\000"
 299      6D696320 
 299      41504973 
 299      2C207468 
 299      72656164 
 300              		.section	.rodata.testdyn1,"a",%progbits
 301              		.align	2
 302              		.type	testdyn1, %object
 303              		.size	testdyn1, 16
 304              	testdyn1:
 305 0000 10000000 		.word	.LC4
 306 0004 00000000 		.word	dyn1_setup
 307 0008 00000000 		.word	0
 308 000c 00000000 		.word	dyn1_execute
 309              		.section	.text.dyn2_setup,"ax",%progbits
 310              		.align	2
 311              		.p2align 4,,15
 312              		.thumb
 313              		.thumb_func
 314              		.type	dyn2_setup, %function
 315              	dyn2_setup:
 316              	.LFB10:
 317              		.loc 1 136 0
 318              		.cfi_startproc
 319              		@ args = 0, pretend = 0, frame = 0
 320              		@ frame_needed = 0, uses_anonymous_args = 0
 321 0000 08B5     		push	{r3, lr}
 322              		.cfi_def_cfa_offset 8
 323              		.cfi_offset 3, -8
 324              		.cfi_offset 14, -4
 325              		.loc 1 138 0
 326 0002 0348     		ldr	r0, .L18
 327 0004 4FF4A871 		mov	r1, #336
 328 0008 0022     		movs	r2, #0
 329 000a FFF7FEFF 		bl	chPoolInit
ARM GAS  /home/pauba/tmp/ccwskT5q.s 			page 7


 330              		.loc 1 139 0
 331 000e 08BD     		pop	{r3, pc}
 332              	.L19:
 333              		.align	2
 334              	.L18:
 335 0010 00000000 		.word	mp1
 336              		.cfi_endproc
 337              	.LFE10:
 338              		.size	dyn2_setup, .-dyn2_setup
 339 0014 AFF30080 		.section	.rodata
 339      AFF30080 
 339      AFF30080 
 340 0039 000000   		.align	2
 341              	.LC5:
 342 003c 4400     		.ascii	"D\000"
 343 003e 0000     		.align	2
 344              	.LC6:
 345 0040 4500     		.ascii	"E\000"
 346 0042 0000     		.align	2
 347              	.LC7:
 348 0044 41424344 		.ascii	"ABCD\000"
 348      00
 349              		.section	.text.dyn2_execute,"ax",%progbits
 350              		.align	2
 351              		.p2align 4,,15
 352              		.thumb
 353              		.thumb_func
 354              		.type	dyn2_execute, %function
 355              	dyn2_execute:
 356              	.LFB11:
 357              		.loc 1 141 0
 358              		.cfi_startproc
 359              		@ args = 0, pretend = 0, frame = 8
 360              		@ frame_needed = 0, uses_anonymous_args = 0
 361 0000 00B5     		push	{lr}
 362              		.cfi_def_cfa_offset 4
 363              		.cfi_offset 14, -4
 364 0002 83B0     		sub	sp, sp, #12
 365              		.cfi_def_cfa_offset 16
 366              		.loc 1 143 0
 367 0004 524B     		ldr	r3, .L31
 368 0006 9B69     		ldr	r3, [r3, #24]
 369 0008 9B68     		ldr	r3, [r3, #8]
 370 000a 0093     		str	r3, [sp]
 371              		.loc 1 146 0
 372 000c 0023     		movs	r3, #0
 373 000e 0193     		str	r3, [sp, #4]
 374 0010 0AE0     		b	.L21
 375              	.L22:
 376              		.loc 1 147 0 discriminator 2
 377 0012 504B     		ldr	r3, .L31+4
 378 0014 019A     		ldr	r2, [sp, #4]
 379 0016 53F82230 		ldr	r3, [r3, r2, lsl #2]
 380 001a 4F48     		ldr	r0, .L31+8
 381 001c 1946     		mov	r1, r3
 382 001e FFF7FEFF 		bl	chPoolFree
 383              		.loc 1 146 0 discriminator 2
ARM GAS  /home/pauba/tmp/ccwskT5q.s 			page 8


 384 0022 019B     		ldr	r3, [sp, #4]
 385 0024 0133     		adds	r3, r3, #1
 386 0026 0193     		str	r3, [sp, #4]
 387              	.L21:
 388              		.loc 1 146 0 is_stmt 0 discriminator 1
 389 0028 019B     		ldr	r3, [sp, #4]
 390 002a 032B     		cmp	r3, #3
 391 002c F1DD     		ble	.L22
 392              		.loc 1 150 0 is_stmt 1
 393 002e 009B     		ldr	r3, [sp]
 394 0030 013B     		subs	r3, r3, #1
 395 0032 4948     		ldr	r0, .L31+8
 396 0034 1946     		mov	r1, r3
 397 0036 494A     		ldr	r2, .L31+12
 398 0038 494B     		ldr	r3, .L31+16
 399 003a FFF7FEFF 		bl	chThdCreateFromMemoryPool
 400 003e 0246     		mov	r2, r0
 401 0040 484B     		ldr	r3, .L31+20
 402 0042 1A60     		str	r2, [r3]
 403              		.loc 1 151 0
 404 0044 009B     		ldr	r3, [sp]
 405 0046 023B     		subs	r3, r3, #2
 406 0048 4348     		ldr	r0, .L31+8
 407 004a 1946     		mov	r1, r3
 408 004c 434A     		ldr	r2, .L31+12
 409 004e 464B     		ldr	r3, .L31+24
 410 0050 FFF7FEFF 		bl	chThdCreateFromMemoryPool
 411 0054 0246     		mov	r2, r0
 412 0056 434B     		ldr	r3, .L31+20
 413 0058 5A60     		str	r2, [r3, #4]
 414              		.loc 1 152 0
 415 005a 009B     		ldr	r3, [sp]
 416 005c 033B     		subs	r3, r3, #3
 417 005e 3E48     		ldr	r0, .L31+8
 418 0060 1946     		mov	r1, r3
 419 0062 3E4A     		ldr	r2, .L31+12
 420 0064 414B     		ldr	r3, .L31+28
 421 0066 FFF7FEFF 		bl	chThdCreateFromMemoryPool
 422 006a 0246     		mov	r2, r0
 423 006c 3D4B     		ldr	r3, .L31+20
 424 006e 9A60     		str	r2, [r3, #8]
 425              		.loc 1 153 0
 426 0070 009B     		ldr	r3, [sp]
 427 0072 043B     		subs	r3, r3, #4
 428 0074 3848     		ldr	r0, .L31+8
 429 0076 1946     		mov	r1, r3
 430 0078 384A     		ldr	r2, .L31+12
 431 007a 3D4B     		ldr	r3, .L31+32
 432 007c FFF7FEFF 		bl	chThdCreateFromMemoryPool
 433 0080 0246     		mov	r2, r0
 434 0082 384B     		ldr	r3, .L31+20
 435 0084 DA60     		str	r2, [r3, #12]
 436              		.loc 1 154 0
 437 0086 009B     		ldr	r3, [sp]
 438 0088 053B     		subs	r3, r3, #5
 439 008a 3348     		ldr	r0, .L31+8
 440 008c 1946     		mov	r1, r3
ARM GAS  /home/pauba/tmp/ccwskT5q.s 			page 9


 441 008e 334A     		ldr	r2, .L31+12
 442 0090 384B     		ldr	r3, .L31+36
 443 0092 FFF7FEFF 		bl	chThdCreateFromMemoryPool
 444 0096 0246     		mov	r2, r0
 445 0098 324B     		ldr	r3, .L31+20
 446 009a 1A61     		str	r2, [r3, #16]
 447              		.loc 1 156 0
 448 009c 314B     		ldr	r3, .L31+20
 449 009e 1B68     		ldr	r3, [r3]
 450 00a0 002B     		cmp	r3, #0
 451 00a2 11D0     		beq	.L23
 452              		.loc 1 156 0 is_stmt 0 discriminator 1
 453 00a4 2F4B     		ldr	r3, .L31+20
 454 00a6 5B68     		ldr	r3, [r3, #4]
 455 00a8 002B     		cmp	r3, #0
 456 00aa 0DD0     		beq	.L23
 457 00ac 2D4B     		ldr	r3, .L31+20
 458 00ae 9B68     		ldr	r3, [r3, #8]
 459 00b0 002B     		cmp	r3, #0
 460 00b2 09D0     		beq	.L23
 461 00b4 2B4B     		ldr	r3, .L31+20
 462 00b6 DB68     		ldr	r3, [r3, #12]
 463 00b8 002B     		cmp	r3, #0
 464 00ba 05D0     		beq	.L23
 465 00bc 294B     		ldr	r3, .L31+20
 466 00be 1B69     		ldr	r3, [r3, #16]
 467 00c0 002B     		cmp	r3, #0
 468 00c2 01D1     		bne	.L23
 469              		.loc 1 156 0 discriminator 3
 470 00c4 0123     		movs	r3, #1
 471 00c6 00E0     		b	.L24
 472              	.L23:
 473              		.loc 1 156 0 discriminator 2
 474 00c8 0023     		movs	r3, #0
 475              	.L24:
 476              		.loc 1 156 0 discriminator 4
 477 00ca 03F00103 		and	r3, r3, #1
 478 00ce DBB2     		uxtb	r3, r3
 479 00d0 0120     		movs	r0, #1
 480 00d2 1946     		mov	r1, r3
 481 00d4 FFF7FEFF 		bl	_test_assert
 482 00d8 0346     		mov	r3, r0
 483 00da 002B     		cmp	r3, #0
 484 00dc 00D0     		beq	.L25
 485              		.loc 1 156 0 discriminator 1
 486 00de 34E0     		b	.L20
 487              	.L25:
 488              		.loc 1 164 0 is_stmt 1
 489 00e0 FFF7FEFF 		bl	test_wait_threads
 490              		.loc 1 165 0
 491 00e4 0220     		movs	r0, #2
 492 00e6 2449     		ldr	r1, .L31+40
 493 00e8 FFF7FEFF 		bl	_test_assert_sequence
 494 00ec 0346     		mov	r3, r0
 495 00ee 002B     		cmp	r3, #0
 496 00f0 00D0     		beq	.L27
 497              		.loc 1 165 0 is_stmt 0 discriminator 1
ARM GAS  /home/pauba/tmp/ccwskT5q.s 			page 10


 498 00f2 2AE0     		b	.L20
 499              	.L27:
 500              		.loc 1 168 0 is_stmt 1
 501 00f4 0023     		movs	r3, #0
 502 00f6 0193     		str	r3, [sp, #4]
 503 00f8 13E0     		b	.L28
 504              	.L30:
 505              		.loc 1 169 0
 506 00fa 1748     		ldr	r0, .L31+8
 507 00fc FFF7FEFF 		bl	chPoolAlloc
 508 0100 0346     		mov	r3, r0
 509 0102 002B     		cmp	r3, #0
 510 0104 0CBF     		ite	eq
 511 0106 0023     		moveq	r3, #0
 512 0108 0123     		movne	r3, #1
 513 010a DBB2     		uxtb	r3, r3
 514 010c 0320     		movs	r0, #3
 515 010e 1946     		mov	r1, r3
 516 0110 FFF7FEFF 		bl	_test_assert
 517 0114 0346     		mov	r3, r0
 518 0116 002B     		cmp	r3, #0
 519 0118 00D0     		beq	.L29
 520              		.loc 1 169 0 is_stmt 0 discriminator 1
 521 011a 16E0     		b	.L20
 522              	.L29:
 523              		.loc 1 168 0 is_stmt 1
 524 011c 019B     		ldr	r3, [sp, #4]
 525 011e 0133     		adds	r3, r3, #1
 526 0120 0193     		str	r3, [sp, #4]
 527              	.L28:
 528              		.loc 1 168 0 is_stmt 0 discriminator 1
 529 0122 019B     		ldr	r3, [sp, #4]
 530 0124 032B     		cmp	r3, #3
 531 0126 E8DD     		ble	.L30
 532              		.loc 1 170 0 is_stmt 1
 533 0128 0B48     		ldr	r0, .L31+8
 534 012a FFF7FEFF 		bl	chPoolAlloc
 535 012e 0346     		mov	r3, r0
 536 0130 002B     		cmp	r3, #0
 537 0132 14BF     		ite	ne
 538 0134 0023     		movne	r3, #0
 539 0136 0123     		moveq	r3, #1
 540 0138 DBB2     		uxtb	r3, r3
 541 013a 0420     		movs	r0, #4
 542 013c 1946     		mov	r1, r3
 543 013e FFF7FEFF 		bl	_test_assert
 544 0142 0346     		mov	r3, r0
 545 0144 002B     		cmp	r3, #0
 546 0146 00D0     		beq	.L20
 547              		.loc 1 170 0 is_stmt 0 discriminator 1
 548 0148 00BF     		nop
 549              	.L20:
 550              		.loc 1 171 0 is_stmt 1
 551 014a 03B0     		add	sp, sp, #12
 552              		@ sp needed
 553 014c 5DF804FB 		ldr	pc, [sp], #4
 554              	.L32:
ARM GAS  /home/pauba/tmp/ccwskT5q.s 			page 11


 555              		.align	2
 556              	.L31:
 557 0150 00000000 		.word	rlist
 558 0154 00000000 		.word	wa
 559 0158 00000000 		.word	mp1
 560 015c 00000000 		.word	thread
 561 0160 00000000 		.word	.LC0
 562 0164 00000000 		.word	threads
 563 0168 04000000 		.word	.LC1
 564 016c 08000000 		.word	.LC2
 565 0170 3C000000 		.word	.LC5
 566 0174 40000000 		.word	.LC6
 567 0178 44000000 		.word	.LC7
 568              		.cfi_endproc
 569              	.LFE11:
 570              		.size	dyn2_execute, .-dyn2_execute
 571              		.global	testdyn2
 572 017c AFF30080 		.section	.rodata
 573 0049 000000   		.align	2
 574              	.LC8:
 575 004c 44796E61 		.ascii	"Dynamic APIs, threads creation from memory pool\000"
 575      6D696320 
 575      41504973 
 575      2C207468 
 575      72656164 
 576              		.section	.rodata.testdyn2,"a",%progbits
 577              		.align	2
 578              		.type	testdyn2, %object
 579              		.size	testdyn2, 16
 580              	testdyn2:
 581 0000 4C000000 		.word	.LC8
 582 0004 00000000 		.word	dyn2_setup
 583 0008 00000000 		.word	0
 584 000c 00000000 		.word	dyn2_execute
 585              		.section	.text.regfind,"ax",%progbits
 586              		.align	2
 587              		.p2align 4,,15
 588              		.thumb
 589              		.thumb_func
 590              		.type	regfind, %function
 591              	regfind:
 592              	.LFB12:
 593              		.loc 1 191 0
 594              		.cfi_startproc
 595              		@ args = 0, pretend = 0, frame = 16
 596              		@ frame_needed = 0, uses_anonymous_args = 0
 597 0000 00B5     		push	{lr}
 598              		.cfi_def_cfa_offset 4
 599              		.cfi_offset 14, -4
 600 0002 85B0     		sub	sp, sp, #20
 601              		.cfi_def_cfa_offset 24
 602 0004 0190     		str	r0, [sp, #4]
 603              		.loc 1 193 0
 604 0006 0023     		movs	r3, #0
 605 0008 8DF80B30 		strb	r3, [sp, #11]
 606              		.loc 1 195 0
 607 000c FFF7FEFF 		bl	chRegFirstThread
ARM GAS  /home/pauba/tmp/ccwskT5q.s 			page 12


 608 0010 0390     		str	r0, [sp, #12]
 609              	.L34:
 610              		.loc 1 197 0 discriminator 1
 611 0012 9DF80B20 		ldrb	r2, [sp, #11]	@ zero_extendqisi2
 612 0016 0399     		ldr	r1, [sp, #12]
 613 0018 019B     		ldr	r3, [sp, #4]
 614 001a 9942     		cmp	r1, r3
 615 001c 14BF     		ite	ne
 616 001e 0023     		movne	r3, #0
 617 0020 0123     		moveq	r3, #1
 618 0022 DBB2     		uxtb	r3, r3
 619 0024 1343     		orrs	r3, r3, r2
 620 0026 002B     		cmp	r3, #0
 621 0028 0CBF     		ite	eq
 622 002a 0023     		moveq	r3, #0
 623 002c 0123     		movne	r3, #1
 624 002e 8DF80B30 		strb	r3, [sp, #11]
 625              		.loc 1 198 0 discriminator 1
 626 0032 0398     		ldr	r0, [sp, #12]
 627 0034 FFF7FEFF 		bl	chRegNextThread
 628 0038 0390     		str	r0, [sp, #12]
 629              		.loc 1 199 0 discriminator 1
 630 003a 039B     		ldr	r3, [sp, #12]
 631 003c 002B     		cmp	r3, #0
 632 003e E8D1     		bne	.L34
 633              		.loc 1 200 0
 634 0040 9DF80B30 		ldrb	r3, [sp, #11]	@ zero_extendqisi2
 635              		.loc 1 201 0
 636 0044 1846     		mov	r0, r3
 637 0046 05B0     		add	sp, sp, #20
 638              		@ sp needed
 639 0048 5DF804FB 		ldr	pc, [sp], #4
 640              		.cfi_endproc
 641              	.LFE12:
 642              		.size	regfind, .-regfind
 643 004c AFF30080 		.section	.text.dyn3_setup,"ax",%progbits
 644              		.align	2
 645              		.p2align 4,,15
 646              		.thumb
 647              		.thumb_func
 648              		.type	dyn3_setup, %function
 649              	dyn3_setup:
 650              	.LFB13:
 651              		.loc 1 203 0
 652              		.cfi_startproc
 653              		@ args = 0, pretend = 0, frame = 0
 654              		@ frame_needed = 0, uses_anonymous_args = 0
 655 0000 08B5     		push	{r3, lr}
 656              		.cfi_def_cfa_offset 8
 657              		.cfi_offset 3, -8
 658              		.cfi_offset 14, -4
 659              		.loc 1 205 0
 660 0002 0348     		ldr	r0, .L37
 661 0004 0349     		ldr	r1, .L37+4
 662 0006 4FF4D262 		mov	r2, #1680
 663 000a FFF7FEFF 		bl	chHeapInit
 664              		.loc 1 206 0
ARM GAS  /home/pauba/tmp/ccwskT5q.s 			page 13


 665 000e 08BD     		pop	{r3, pc}
 666              	.L38:
 667              		.align	2
 668              	.L37:
 669 0010 00000000 		.word	heap1
 670 0014 00000000 		.word	test
 671              		.cfi_endproc
 672              	.LFE13:
 673              		.size	dyn3_setup, .-dyn3_setup
 674 0018 AFF30080 		.section	.text.dyn3_execute,"ax",%progbits
 674      AFF30080 
 675              		.align	2
 676              		.p2align 4,,15
 677              		.thumb
 678              		.thumb_func
 679              		.type	dyn3_execute, %function
 680              	dyn3_execute:
 681              	.LFB14:
 682              		.loc 1 208 0
 683              		.cfi_startproc
 684              		@ args = 0, pretend = 0, frame = 8
 685              		@ frame_needed = 0, uses_anonymous_args = 0
 686 0000 00B5     		push	{lr}
 687              		.cfi_def_cfa_offset 4
 688              		.cfi_offset 14, -4
 689 0002 85B0     		sub	sp, sp, #20
 690              		.cfi_def_cfa_offset 24
 691              		.loc 1 210 0
 692 0004 684B     		ldr	r3, .L52
 693 0006 9B69     		ldr	r3, [r3, #24]
 694 0008 9B68     		ldr	r3, [r3, #8]
 695 000a 0393     		str	r3, [sp, #12]
 696              		.loc 1 213 0
 697 000c 039B     		ldr	r3, [sp, #12]
 698 000e 013B     		subs	r3, r3, #1
 699 0010 664A     		ldr	r2, .L52+4
 700 0012 0092     		str	r2, [sp]
 701 0014 6648     		ldr	r0, .L52+8
 702 0016 4FF4A871 		mov	r1, #336
 703 001a 1A46     		mov	r2, r3
 704 001c 654B     		ldr	r3, .L52+12
 705 001e FFF7FEFF 		bl	chThdCreateFromHeap
 706 0022 0290     		str	r0, [sp, #8]
 707              		.loc 1 214 0
 708 0024 029B     		ldr	r3, [sp, #8]
 709 0026 93F82230 		ldrb	r3, [r3, #34]	@ zero_extendqisi2
 710 002a 012B     		cmp	r3, #1
 711 002c 14BF     		ite	ne
 712 002e 0023     		movne	r3, #0
 713 0030 0123     		moveq	r3, #1
 714 0032 DBB2     		uxtb	r3, r3
 715 0034 0120     		movs	r0, #1
 716 0036 1946     		mov	r1, r3
 717 0038 FFF7FEFF 		bl	_test_assert
 718 003c 0346     		mov	r3, r0
 719 003e 002B     		cmp	r3, #0
 720 0040 00D0     		beq	.L40
ARM GAS  /home/pauba/tmp/ccwskT5q.s 			page 14


 721              		.loc 1 214 0 is_stmt 0 discriminator 1
 722 0042 AEE0     		b	.L39
 723              	.L40:
 724              		.loc 1 215 0 is_stmt 1
 725 0044 0298     		ldr	r0, [sp, #8]
 726 0046 FFF7FEFF 		bl	chThdAddRef
 727              		.loc 1 216 0
 728 004a 029B     		ldr	r3, [sp, #8]
 729 004c 93F82230 		ldrb	r3, [r3, #34]	@ zero_extendqisi2
 730 0050 022B     		cmp	r3, #2
 731 0052 14BF     		ite	ne
 732 0054 0023     		movne	r3, #0
 733 0056 0123     		moveq	r3, #1
 734 0058 DBB2     		uxtb	r3, r3
 735 005a 0220     		movs	r0, #2
 736 005c 1946     		mov	r1, r3
 737 005e FFF7FEFF 		bl	_test_assert
 738 0062 0346     		mov	r3, r0
 739 0064 002B     		cmp	r3, #0
 740 0066 00D0     		beq	.L42
 741              		.loc 1 216 0 is_stmt 0 discriminator 1
 742 0068 9BE0     		b	.L39
 743              	.L42:
 744              		.loc 1 217 0 is_stmt 1
 745 006a 0298     		ldr	r0, [sp, #8]
 746 006c FFF7FEFF 		bl	chThdRelease
 747              		.loc 1 218 0
 748 0070 029B     		ldr	r3, [sp, #8]
 749 0072 93F82230 		ldrb	r3, [r3, #34]	@ zero_extendqisi2
 750 0076 012B     		cmp	r3, #1
 751 0078 14BF     		ite	ne
 752 007a 0023     		movne	r3, #0
 753 007c 0123     		moveq	r3, #1
 754 007e DBB2     		uxtb	r3, r3
 755 0080 0320     		movs	r0, #3
 756 0082 1946     		mov	r1, r3
 757 0084 FFF7FEFF 		bl	_test_assert
 758 0088 0346     		mov	r3, r0
 759 008a 002B     		cmp	r3, #0
 760 008c 00D0     		beq	.L43
 761              		.loc 1 218 0 is_stmt 0 discriminator 1
 762 008e 88E0     		b	.L39
 763              	.L43:
 764              		.loc 1 221 0 is_stmt 1
 765 0090 0298     		ldr	r0, [sp, #8]
 766 0092 FFF7FEFF 		bl	regfind
 767 0096 0346     		mov	r3, r0
 768 0098 0420     		movs	r0, #4
 769 009a 1946     		mov	r1, r3
 770 009c FFF7FEFF 		bl	_test_assert
 771 00a0 0346     		mov	r3, r0
 772 00a2 002B     		cmp	r3, #0
 773 00a4 00D0     		beq	.L44
 774              		.loc 1 221 0 is_stmt 0 discriminator 1
 775 00a6 7CE0     		b	.L39
 776              	.L44:
 777              		.loc 1 222 0 is_stmt 1
ARM GAS  /home/pauba/tmp/ccwskT5q.s 			page 15


 778 00a8 0298     		ldr	r0, [sp, #8]
 779 00aa FFF7FEFF 		bl	regfind
 780 00ae 0346     		mov	r3, r0
 781 00b0 0520     		movs	r0, #5
 782 00b2 1946     		mov	r1, r3
 783 00b4 FFF7FEFF 		bl	_test_assert
 784 00b8 0346     		mov	r3, r0
 785 00ba 002B     		cmp	r3, #0
 786 00bc 00D0     		beq	.L45
 787              		.loc 1 222 0 is_stmt 0 discriminator 1
 788 00be 70E0     		b	.L39
 789              	.L45:
 790              		.loc 1 225 0 is_stmt 1
 791 00c0 0298     		ldr	r0, [sp, #8]
 792 00c2 FFF7FEFF 		bl	chThdRelease
 793              		.loc 1 226 0
 794 00c6 029B     		ldr	r3, [sp, #8]
 795 00c8 93F82230 		ldrb	r3, [r3, #34]	@ zero_extendqisi2
 796 00cc 002B     		cmp	r3, #0
 797 00ce 14BF     		ite	ne
 798 00d0 0023     		movne	r3, #0
 799 00d2 0123     		moveq	r3, #1
 800 00d4 DBB2     		uxtb	r3, r3
 801 00d6 0620     		movs	r0, #6
 802 00d8 1946     		mov	r1, r3
 803 00da FFF7FEFF 		bl	_test_assert
 804 00de 0346     		mov	r3, r0
 805 00e0 002B     		cmp	r3, #0
 806 00e2 00D0     		beq	.L46
 807              		.loc 1 226 0 is_stmt 0 discriminator 1
 808 00e4 5DE0     		b	.L39
 809              	.L46:
 810              		.loc 1 227 0 is_stmt 1
 811 00e6 029B     		ldr	r3, [sp, #8]
 812 00e8 93F82030 		ldrb	r3, [r3, #32]	@ zero_extendqisi2
 813 00ec 002B     		cmp	r3, #0
 814 00ee 14BF     		ite	ne
 815 00f0 0023     		movne	r3, #0
 816 00f2 0123     		moveq	r3, #1
 817 00f4 DBB2     		uxtb	r3, r3
 818 00f6 0720     		movs	r0, #7
 819 00f8 1946     		mov	r1, r3
 820 00fa FFF7FEFF 		bl	_test_assert
 821 00fe 0346     		mov	r3, r0
 822 0100 002B     		cmp	r3, #0
 823 0102 00D0     		beq	.L47
 824              		.loc 1 227 0 is_stmt 0 discriminator 1
 825 0104 4DE0     		b	.L39
 826              	.L47:
 827              		.loc 1 228 0 is_stmt 1
 828 0106 0298     		ldr	r0, [sp, #8]
 829 0108 FFF7FEFF 		bl	regfind
 830 010c 0346     		mov	r3, r0
 831 010e 0820     		movs	r0, #8
 832 0110 1946     		mov	r1, r3
 833 0112 FFF7FEFF 		bl	_test_assert
 834 0116 0346     		mov	r3, r0
ARM GAS  /home/pauba/tmp/ccwskT5q.s 			page 16


 835 0118 002B     		cmp	r3, #0
 836 011a 00D0     		beq	.L48
 837              		.loc 1 228 0 is_stmt 0 discriminator 1
 838 011c 41E0     		b	.L39
 839              	.L48:
 840              		.loc 1 229 0 is_stmt 1
 841 011e 0298     		ldr	r0, [sp, #8]
 842 0120 FFF7FEFF 		bl	regfind
 843 0124 0346     		mov	r3, r0
 844 0126 0920     		movs	r0, #9
 845 0128 1946     		mov	r1, r3
 846 012a FFF7FEFF 		bl	_test_assert
 847 012e 0346     		mov	r3, r0
 848 0130 002B     		cmp	r3, #0
 849 0132 00D0     		beq	.L49
 850              		.loc 1 229 0 is_stmt 0 discriminator 1
 851 0134 35E0     		b	.L39
 852              	.L49:
 853              		.loc 1 230 0 is_stmt 1
 854 0136 3220     		movs	r0, #50
 855 0138 FFF7FEFF 		bl	chThdSleep
 856              		.loc 1 231 0
 857 013c 029B     		ldr	r3, [sp, #8]
 858 013e 93F82030 		ldrb	r3, [r3, #32]	@ zero_extendqisi2
 859 0142 0E2B     		cmp	r3, #14
 860 0144 14BF     		ite	ne
 861 0146 0023     		movne	r3, #0
 862 0148 0123     		moveq	r3, #1
 863 014a DBB2     		uxtb	r3, r3
 864 014c 0A20     		movs	r0, #10
 865 014e 1946     		mov	r1, r3
 866 0150 FFF7FEFF 		bl	_test_assert
 867 0154 0346     		mov	r3, r0
 868 0156 002B     		cmp	r3, #0
 869 0158 00D0     		beq	.L50
 870              		.loc 1 231 0 is_stmt 0 discriminator 1
 871 015a 22E0     		b	.L39
 872              	.L50:
 873              		.loc 1 234 0 is_stmt 1
 874 015c 0298     		ldr	r0, [sp, #8]
 875 015e FFF7FEFF 		bl	regfind
 876 0162 0346     		mov	r3, r0
 877 0164 0B20     		movs	r0, #11
 878 0166 1946     		mov	r1, r3
 879 0168 FFF7FEFF 		bl	_test_assert
 880 016c 0346     		mov	r3, r0
 881 016e 002B     		cmp	r3, #0
 882 0170 00D0     		beq	.L51
 883              		.loc 1 234 0 is_stmt 0 discriminator 1
 884 0172 16E0     		b	.L39
 885              	.L51:
 886              		.loc 1 235 0 is_stmt 1
 887 0174 0298     		ldr	r0, [sp, #8]
 888 0176 FFF7FEFF 		bl	regfind
 889 017a 0346     		mov	r3, r0
 890 017c 002B     		cmp	r3, #0
 891 017e 0CBF     		ite	eq
ARM GAS  /home/pauba/tmp/ccwskT5q.s 			page 17


 892 0180 0023     		moveq	r3, #0
 893 0182 0123     		movne	r3, #1
 894 0184 DBB2     		uxtb	r3, r3
 895 0186 83F00103 		eor	r3, r3, #1
 896 018a DBB2     		uxtb	r3, r3
 897 018c 03F00103 		and	r3, r3, #1
 898 0190 DBB2     		uxtb	r3, r3
 899 0192 0C20     		movs	r0, #12
 900 0194 1946     		mov	r1, r3
 901 0196 FFF7FEFF 		bl	_test_assert
 902 019a 0346     		mov	r3, r0
 903 019c 002B     		cmp	r3, #0
 904 019e 00D0     		beq	.L39
 905              		.loc 1 235 0 is_stmt 0 discriminator 1
 906 01a0 00BF     		nop
 907              	.L39:
 908              		.loc 1 236 0 is_stmt 1
 909 01a2 05B0     		add	sp, sp, #20
 910              		@ sp needed
 911 01a4 5DF804FB 		ldr	pc, [sp], #4
 912              	.L53:
 913              		.align	2
 914              	.L52:
 915 01a8 00000000 		.word	rlist
 916 01ac 00000000 		.word	.LC0
 917 01b0 00000000 		.word	heap1
 918 01b4 00000000 		.word	thread
 919              		.cfi_endproc
 920              	.LFE14:
 921              		.size	dyn3_execute, .-dyn3_execute
 922              		.global	testdyn3
 923 01b8 AFF30080 		.section	.rodata
 923      AFF30080 
 924              		.align	2
 925              	.LC9:
 926 007c 44796E61 		.ascii	"Dynamic APIs, registry and references\000"
 926      6D696320 
 926      41504973 
 926      2C207265 
 926      67697374 
 927 00a2 0000     		.section	.rodata.testdyn3,"a",%progbits
 928              		.align	2
 929              		.type	testdyn3, %object
 930              		.size	testdyn3, 16
 931              	testdyn3:
 932 0000 7C000000 		.word	.LC9
 933 0004 00000000 		.word	dyn3_setup
 934 0008 00000000 		.word	0
 935 000c 00000000 		.word	dyn3_execute
 936              		.global	patterndyn
 937              		.section	.rodata.patterndyn,"a",%progbits
 938              		.align	2
 939              		.type	patterndyn, %object
 940              		.size	patterndyn, 16
 941              	patterndyn:
 942 0000 00000000 		.word	testdyn1
 943 0004 00000000 		.word	testdyn2
ARM GAS  /home/pauba/tmp/ccwskT5q.s 			page 18


 944 0008 00000000 		.word	testdyn3
 945 000c 00000000 		.word	0
 946              		.text
 947              	.Letext0:
 948              		.file 2 "/opt/gcc-arm-none-eabi-4_8-2014q1/lib/gcc/arm-none-eabi/4.8.3/include/stddef.h"
 949              		.file 3 "/opt/gcc-arm-none-eabi-4_8-2014q1/arm-none-eabi/include/machine/_default_types.h"
 950              		.file 4 "/opt/gcc-arm-none-eabi-4_8-2014q1/arm-none-eabi/include/stdint.h"
 951              		.file 5 "/home/pauba/ChibiOS-RT/os/ports/GCC/ARMCMx/chtypes.h"
 952              		.file 6 "/home/pauba/ChibiOS-RT/os/kernel/include/chlists.h"
 953              		.file 7 "/home/pauba/ChibiOS-RT/os/kernel/include/chthreads.h"
 954              		.file 8 "/home/pauba/ChibiOS-RT/os/ports/GCC/ARMCMx/chcore_v7m.h"
 955              		.file 9 "/home/pauba/ChibiOS-RT/os/kernel/include/chschd.h"
 956              		.file 10 "/home/pauba/ChibiOS-RT/os/kernel/include/chmtx.h"
 957              		.file 11 "/home/pauba/ChibiOS-RT/os/kernel/include/chmemcore.h"
 958              		.file 12 "/home/pauba/ChibiOS-RT/os/kernel/include/chheap.h"
 959              		.file 13 "/home/pauba/ChibiOS-RT/os/kernel/include/chmempools.h"
 960              		.file 14 "/home/pauba/ChibiOS-RT/test/test.h"