ARM GAS  /home/pauba/tmp/cco0Mhmy.s 			page 1


   1              		.syntax unified
   2              		.cpu cortex-m4
   3              		.fpu softvfp
   4              		.eabi_attribute 20, 1
   5              		.eabi_attribute 21, 1
   6              		.eabi_attribute 23, 3
   7              		.eabi_attribute 24, 1
   8              		.eabi_attribute 25, 1
   9              		.eabi_attribute 26, 1
  10              		.eabi_attribute 30, 6
  11              		.eabi_attribute 34, 1
  12              		.eabi_attribute 18, 4
  13              		.thumb
  14              		.file	"testqueues.c"
  15              		.text
  16              	.Ltext0:
  17              		.cfi_sections	.debug_frame
  18              		.section	.text.notify,"ax",%progbits
  19              		.align	2
  20              		.p2align 4,,15
  21              		.thumb
  22              		.thumb_func
  23              		.type	notify, %function
  24              	notify:
  25              	.LFB7:
  26              		.file 1 "/home/pauba/ChibiOS-RT/test/testqueues.c"
  27              		.loc 1 57 0
  28              		.cfi_startproc
  29              		@ args = 0, pretend = 0, frame = 8
  30              		@ frame_needed = 0, uses_anonymous_args = 0
  31              		@ link register save eliminated.
  32 0000 82B0     		sub	sp, sp, #8
  33              		.cfi_def_cfa_offset 8
  34 0002 0190     		str	r0, [sp, #4]
  35              		.loc 1 59 0
  36 0004 02B0     		add	sp, sp, #8
  37              		@ sp needed
  38 0006 7047     		bx	lr
  39              		.cfi_endproc
  40              	.LFE7:
  41              		.size	notify, .-notify
  42 0008 AFF30080 		.section	.data.iq,"aw",%progbits
  42      AFF30080 
  43              		.align	2
  44              		.type	iq, %object
  45              		.size	iq, 36
  46              	iq:
  47 0000 00000000 		.word	iq
  48 0004 00000000 		.word	iq
  49 0008 00000000 		.word	0
  50 000c 00000000 		.word	test
  51 0010 04000000 		.word	test+4
  52 0014 00000000 		.word	test
  53 0018 00000000 		.word	test
  54 001c 00000000 		.word	notify
  55 0020 00000000 		.word	0
  56              		.section	.data.oq,"aw",%progbits
ARM GAS  /home/pauba/tmp/cco0Mhmy.s 			page 2


  57              		.align	2
  58              		.type	oq, %object
  59              		.size	oq, 36
  60              	oq:
  61 0000 00000000 		.word	oq
  62 0004 00000000 		.word	oq
  63 0008 04000000 		.word	4
  64 000c 50010000 		.word	test+336
  65 0010 54010000 		.word	test+340
  66 0014 50010000 		.word	test+336
  67 0018 50010000 		.word	test+336
  68 001c 00000000 		.word	notify
  69 0020 00000000 		.word	0
  70              		.section	.text.queues1_setup,"ax",%progbits
  71              		.align	2
  72              		.p2align 4,,15
  73              		.thumb
  74              		.thumb_func
  75              		.type	queues1_setup, %function
  76              	queues1_setup:
  77              	.LFB8:
  78              		.loc 1 78 0
  79              		.cfi_startproc
  80              		@ args = 0, pretend = 0, frame = 0
  81              		@ frame_needed = 0, uses_anonymous_args = 0
  82 0000 00B5     		push	{lr}
  83              		.cfi_def_cfa_offset 4
  84              		.cfi_offset 14, -4
  85 0002 83B0     		sub	sp, sp, #12
  86              		.cfi_def_cfa_offset 16
  87              		.loc 1 80 0
  88 0004 064B     		ldr	r3, .L3
  89 0006 1B68     		ldr	r3, [r3]
  90 0008 0022     		movs	r2, #0
  91 000a 0092     		str	r2, [sp]
  92 000c 0548     		ldr	r0, .L3+4
  93 000e 1946     		mov	r1, r3
  94 0010 0422     		movs	r2, #4
  95 0012 054B     		ldr	r3, .L3+8
  96 0014 FFF7FEFF 		bl	chIQInit
  97              		.loc 1 81 0
  98 0018 03B0     		add	sp, sp, #12
  99              		@ sp needed
 100 001a 5DF804FB 		ldr	pc, [sp], #4
 101              	.L4:
 102 001e 00BF     		.align	2
 103              	.L3:
 104 0020 00000000 		.word	wa
 105 0024 00000000 		.word	iq
 106 0028 00000000 		.word	notify
 107              		.cfi_endproc
 108              	.LFE8:
 109              		.size	queues1_setup, .-queues1_setup
 110 002c AFF30080 		.section	.text.thread1,"ax",%progbits
 111              		.align	2
 112              		.p2align 4,,15
 113              		.thumb
ARM GAS  /home/pauba/tmp/cco0Mhmy.s 			page 3


 114              		.thumb_func
 115              		.type	thread1, %function
 116              	thread1:
 117              	.LFB9:
 118              		.loc 1 83 0
 119              		.cfi_startproc
 120              		@ args = 0, pretend = 0, frame = 8
 121              		@ frame_needed = 0, uses_anonymous_args = 0
 122 0000 00B5     		push	{lr}
 123              		.cfi_def_cfa_offset 4
 124              		.cfi_offset 14, -4
 125 0002 83B0     		sub	sp, sp, #12
 126              		.cfi_def_cfa_offset 16
 127 0004 0190     		str	r0, [sp, #4]
 128              		.loc 1 86 0
 129 0006 0448     		ldr	r0, .L7
 130 0008 C821     		movs	r1, #200
 131 000a FFF7FEFF 		bl	chIQGetTimeout
 132              		.loc 1 87 0
 133 000e 0023     		movs	r3, #0
 134              		.loc 1 88 0
 135 0010 1846     		mov	r0, r3
 136 0012 03B0     		add	sp, sp, #12
 137              		@ sp needed
 138 0014 5DF804FB 		ldr	pc, [sp], #4
 139              	.L8:
 140              		.align	2
 141              	.L7:
 142 0018 00000000 		.word	iq
 143              		.cfi_endproc
 144              	.LFE9:
 145              		.size	thread1, .-thread1
 146 001c AFF30080 		.section	.rodata
 147              		.align	2
 148              	.LC0:
 149 0000 41424344 		.ascii	"ABCD\000"
 149      00
 150              		.section	.text.queues1_execute,"ax",%progbits
 151              		.align	2
 152              		.p2align 4,,15
 153              		.thumb
 154              		.thumb_func
 155              		.type	queues1_execute, %function
 156              	queues1_execute:
 157              	.LFB10:
 158              		.loc 1 90 0
 159              		.cfi_startproc
 160              		@ args = 0, pretend = 0, frame = 8
 161              		@ frame_needed = 0, uses_anonymous_args = 0
 162 0000 00B5     		push	{lr}
 163              		.cfi_def_cfa_offset 4
 164              		.cfi_offset 14, -4
 165 0002 85B0     		sub	sp, sp, #20
 166              		.cfi_def_cfa_offset 24
 167              	.LBB2:
 168              		.loc 1 95 0
 169 0004 2023     		movs	r3, #32
ARM GAS  /home/pauba/tmp/cco0Mhmy.s 			page 4


 170              	@ 95 "/home/pauba/ChibiOS-RT/test/testqueues.c" 1
 171 0006 83F31188 		msr     BASEPRI, r3
 172              	@ 0 "" 2
 173              		.thumb
 174              	.LBE2:
 175 000a FFF7FEFF 		bl	dbg_check_lock
 176 000e B44B     		ldr	r3, .L33
 177 0010 9B68     		ldr	r3, [r3, #8]
 178 0012 002B     		cmp	r3, #0
 179 0014 14BF     		ite	ne
 180 0016 0023     		movne	r3, #0
 181 0018 0123     		moveq	r3, #1
 182 001a DBB2     		uxtb	r3, r3
 183 001c 0120     		movs	r0, #1
 184 001e 1946     		mov	r1, r3
 185 0020 FFF7FEFF 		bl	_test_assert
 186 0024 0346     		mov	r3, r0
 187 0026 002B     		cmp	r3, #0
 188 0028 05D0     		beq	.L10
 189              		.loc 1 95 0 is_stmt 0 discriminator 1
 190 002a FFF7FEFF 		bl	dbg_check_unlock
 191              	.LBB3:
 192 002e 0023     		movs	r3, #0
 193              	@ 95 "/home/pauba/ChibiOS-RT/test/testqueues.c" 1
 194 0030 83F31188 		msr     BASEPRI, r3
 195              	@ 0 "" 2
 196              		.thumb
 197              	.LBE3:
 198 0034 D3E1     		b	.L9
 199              	.L10:
 200              		.loc 1 95 0 discriminator 2
 201 0036 FFF7FEFF 		bl	dbg_check_unlock
 202              	.LBB4:
 203 003a 0023     		movs	r3, #0
 204              	@ 95 "/home/pauba/ChibiOS-RT/test/testqueues.c" 1
 205 003c 83F31188 		msr     BASEPRI, r3
 206              	@ 0 "" 2
 207              		.thumb
 208              	.LBE4:
 209              	.LBB5:
 210              		.loc 1 98 0 is_stmt 1 discriminator 2
 211 0040 2023     		movs	r3, #32
 212              	@ 98 "/home/pauba/ChibiOS-RT/test/testqueues.c" 1
 213 0042 83F31188 		msr     BASEPRI, r3
 214              	@ 0 "" 2
 215              		.thumb
 216              	.LBE5:
 217 0046 FFF7FEFF 		bl	dbg_check_lock
 218              		.loc 1 99 0 discriminator 2
 219 004a 0023     		movs	r3, #0
 220 004c 0393     		str	r3, [sp, #12]
 221 004e 0AE0     		b	.L12
 222              	.L13:
 223              		.loc 1 100 0 discriminator 2
 224 0050 039B     		ldr	r3, [sp, #12]
 225 0052 DBB2     		uxtb	r3, r3
 226 0054 4133     		adds	r3, r3, #65
ARM GAS  /home/pauba/tmp/cco0Mhmy.s 			page 5


 227 0056 DBB2     		uxtb	r3, r3
 228 0058 A148     		ldr	r0, .L33
 229 005a 1946     		mov	r1, r3
 230 005c FFF7FEFF 		bl	chIQPutI
 231              		.loc 1 99 0 discriminator 2
 232 0060 039B     		ldr	r3, [sp, #12]
 233 0062 0133     		adds	r3, r3, #1
 234 0064 0393     		str	r3, [sp, #12]
 235              	.L12:
 236              		.loc 1 99 0 is_stmt 0 discriminator 1
 237 0066 039B     		ldr	r3, [sp, #12]
 238 0068 032B     		cmp	r3, #3
 239 006a F1D9     		bls	.L13
 240              		.loc 1 101 0 is_stmt 1
 241 006c FFF7FEFF 		bl	dbg_check_unlock
 242              	.LBB6:
 243 0070 0023     		movs	r3, #0
 244              	@ 101 "/home/pauba/ChibiOS-RT/test/testqueues.c" 1
 245 0072 83F31188 		msr     BASEPRI, r3
 246              	@ 0 "" 2
 247              		.thumb
 248              	.LBE6:
 249              	.LBB7:
 250              		.loc 1 102 0
 251 0076 2023     		movs	r3, #32
 252              	@ 102 "/home/pauba/ChibiOS-RT/test/testqueues.c" 1
 253 0078 83F31188 		msr     BASEPRI, r3
 254              	@ 0 "" 2
 255              		.thumb
 256              	.LBE7:
 257 007c FFF7FEFF 		bl	dbg_check_lock
 258 0080 974B     		ldr	r3, .L33
 259 0082 5A69     		ldr	r2, [r3, #20]
 260 0084 964B     		ldr	r3, .L33
 261 0086 9B69     		ldr	r3, [r3, #24]
 262 0088 9A42     		cmp	r2, r3
 263 008a 05D1     		bne	.L14
 264              		.loc 1 102 0 is_stmt 0 discriminator 1
 265 008c 944B     		ldr	r3, .L33
 266 008e 9B68     		ldr	r3, [r3, #8]
 267 0090 002B     		cmp	r3, #0
 268 0092 01D0     		beq	.L14
 269              		.loc 1 102 0 discriminator 3
 270 0094 0123     		movs	r3, #1
 271 0096 00E0     		b	.L15
 272              	.L14:
 273              		.loc 1 102 0 discriminator 2
 274 0098 0023     		movs	r3, #0
 275              	.L15:
 276              		.loc 1 102 0 discriminator 4
 277 009a 03F00103 		and	r3, r3, #1
 278 009e DBB2     		uxtb	r3, r3
 279 00a0 0220     		movs	r0, #2
 280 00a2 1946     		mov	r1, r3
 281 00a4 FFF7FEFF 		bl	_test_assert
 282 00a8 0346     		mov	r3, r0
 283 00aa 002B     		cmp	r3, #0
ARM GAS  /home/pauba/tmp/cco0Mhmy.s 			page 6


 284 00ac 05D0     		beq	.L16
 285              		.loc 1 102 0 discriminator 1
 286 00ae FFF7FEFF 		bl	dbg_check_unlock
 287              	.LBB8:
 288 00b2 0023     		movs	r3, #0
 289              	@ 102 "/home/pauba/ChibiOS-RT/test/testqueues.c" 1
 290 00b4 83F31188 		msr     BASEPRI, r3
 291              	@ 0 "" 2
 292              		.thumb
 293              	.LBE8:
 294 00b8 91E1     		b	.L9
 295              	.L16:
 296              		.loc 1 102 0 discriminator 2
 297 00ba FFF7FEFF 		bl	dbg_check_unlock
 298              	.LBB9:
 299 00be 0023     		movs	r3, #0
 300              	@ 102 "/home/pauba/ChibiOS-RT/test/testqueues.c" 1
 301 00c0 83F31188 		msr     BASEPRI, r3
 302              	@ 0 "" 2
 303              		.thumb
 304              	.LBE9:
 305              	.LBB10:
 306              		.loc 1 103 0 is_stmt 1 discriminator 2
 307 00c4 2023     		movs	r3, #32
 308              	@ 103 "/home/pauba/ChibiOS-RT/test/testqueues.c" 1
 309 00c6 83F31188 		msr     BASEPRI, r3
 310              	@ 0 "" 2
 311              		.thumb
 312              	.LBE10:
 313 00ca FFF7FEFF 		bl	dbg_check_lock
 314 00ce 8448     		ldr	r0, .L33
 315 00d0 0021     		movs	r1, #0
 316 00d2 FFF7FEFF 		bl	chIQPutI
 317 00d6 0346     		mov	r3, r0
 318 00d8 13F1040F 		cmn	r3, #4
 319 00dc 14BF     		ite	ne
 320 00de 0023     		movne	r3, #0
 321 00e0 0123     		moveq	r3, #1
 322 00e2 DBB2     		uxtb	r3, r3
 323 00e4 0320     		movs	r0, #3
 324 00e6 1946     		mov	r1, r3
 325 00e8 FFF7FEFF 		bl	_test_assert
 326 00ec 0346     		mov	r3, r0
 327 00ee 002B     		cmp	r3, #0
 328 00f0 05D0     		beq	.L17
 329              		.loc 1 103 0 is_stmt 0 discriminator 1
 330 00f2 FFF7FEFF 		bl	dbg_check_unlock
 331              	.LBB11:
 332 00f6 0023     		movs	r3, #0
 333              	@ 103 "/home/pauba/ChibiOS-RT/test/testqueues.c" 1
 334 00f8 83F31188 		msr     BASEPRI, r3
 335              	@ 0 "" 2
 336              		.thumb
 337              	.LBE11:
 338 00fc 6FE1     		b	.L9
 339              	.L17:
 340              		.loc 1 103 0 discriminator 2
ARM GAS  /home/pauba/tmp/cco0Mhmy.s 			page 7


 341 00fe FFF7FEFF 		bl	dbg_check_unlock
 342              	.LBB12:
 343 0102 0023     		movs	r3, #0
 344              	@ 103 "/home/pauba/ChibiOS-RT/test/testqueues.c" 1
 345 0104 83F31188 		msr     BASEPRI, r3
 346              	@ 0 "" 2
 347              		.thumb
 348              	.LBE12:
 349              		.loc 1 106 0 is_stmt 1 discriminator 2
 350 0108 0023     		movs	r3, #0
 351 010a 0393     		str	r3, [sp, #12]
 352 010c 0CE0     		b	.L18
 353              	.L19:
 354              		.loc 1 107 0 discriminator 2
 355 010e 7448     		ldr	r0, .L33
 356 0110 4FF0FF31 		mov	r1, #-1
 357 0114 FFF7FEFF 		bl	chIQGetTimeout
 358 0118 0346     		mov	r3, r0
 359 011a DBB2     		uxtb	r3, r3
 360 011c 1846     		mov	r0, r3
 361 011e FFF7FEFF 		bl	test_emit_token
 362              		.loc 1 106 0 discriminator 2
 363 0122 039B     		ldr	r3, [sp, #12]
 364 0124 0133     		adds	r3, r3, #1
 365 0126 0393     		str	r3, [sp, #12]
 366              	.L18:
 367              		.loc 1 106 0 is_stmt 0 discriminator 1
 368 0128 039B     		ldr	r3, [sp, #12]
 369 012a 032B     		cmp	r3, #3
 370 012c EFD9     		bls	.L19
 371              	.LBB13:
 372              		.loc 1 108 0 is_stmt 1
 373 012e 2023     		movs	r3, #32
 374              	@ 108 "/home/pauba/ChibiOS-RT/test/testqueues.c" 1
 375 0130 83F31188 		msr     BASEPRI, r3
 376              	@ 0 "" 2
 377              		.thumb
 378              	.LBE13:
 379 0134 FFF7FEFF 		bl	dbg_check_lock
 380 0138 694B     		ldr	r3, .L33
 381 013a 9B68     		ldr	r3, [r3, #8]
 382 013c 002B     		cmp	r3, #0
 383 013e 14BF     		ite	ne
 384 0140 0023     		movne	r3, #0
 385 0142 0123     		moveq	r3, #1
 386 0144 DBB2     		uxtb	r3, r3
 387 0146 0420     		movs	r0, #4
 388 0148 1946     		mov	r1, r3
 389 014a FFF7FEFF 		bl	_test_assert
 390 014e 0346     		mov	r3, r0
 391 0150 002B     		cmp	r3, #0
 392 0152 05D0     		beq	.L20
 393              		.loc 1 108 0 is_stmt 0 discriminator 1
 394 0154 FFF7FEFF 		bl	dbg_check_unlock
 395              	.LBB14:
 396 0158 0023     		movs	r3, #0
 397              	@ 108 "/home/pauba/ChibiOS-RT/test/testqueues.c" 1
ARM GAS  /home/pauba/tmp/cco0Mhmy.s 			page 8


 398 015a 83F31188 		msr     BASEPRI, r3
 399              	@ 0 "" 2
 400              		.thumb
 401              	.LBE14:
 402 015e 3EE1     		b	.L9
 403              	.L20:
 404              		.loc 1 108 0 discriminator 2
 405 0160 FFF7FEFF 		bl	dbg_check_unlock
 406              	.LBB15:
 407 0164 0023     		movs	r3, #0
 408              	@ 108 "/home/pauba/ChibiOS-RT/test/testqueues.c" 1
 409 0166 83F31188 		msr     BASEPRI, r3
 410              	@ 0 "" 2
 411              		.thumb
 412              	.LBE15:
 413              		.loc 1 109 0 is_stmt 1 discriminator 2
 414 016a 0520     		movs	r0, #5
 415 016c 5D49     		ldr	r1, .L33+4
 416 016e FFF7FEFF 		bl	_test_assert_sequence
 417 0172 0346     		mov	r3, r0
 418 0174 002B     		cmp	r3, #0
 419 0176 00D0     		beq	.L21
 420              		.loc 1 109 0 is_stmt 0 discriminator 1
 421 0178 31E1     		b	.L9
 422              	.L21:
 423              	.LBB16:
 424              		.loc 1 112 0 is_stmt 1
 425 017a 2023     		movs	r3, #32
 426              	@ 112 "/home/pauba/ChibiOS-RT/test/testqueues.c" 1
 427 017c 83F31188 		msr     BASEPRI, r3
 428              	@ 0 "" 2
 429              		.thumb
 430              	.LBE16:
 431 0180 FFF7FEFF 		bl	dbg_check_lock
 432              		.loc 1 113 0
 433 0184 0023     		movs	r3, #0
 434 0186 0393     		str	r3, [sp, #12]
 435 0188 0AE0     		b	.L22
 436              	.L23:
 437              		.loc 1 114 0 discriminator 2
 438 018a 039B     		ldr	r3, [sp, #12]
 439 018c DBB2     		uxtb	r3, r3
 440 018e 4133     		adds	r3, r3, #65
 441 0190 DBB2     		uxtb	r3, r3
 442 0192 5348     		ldr	r0, .L33
 443 0194 1946     		mov	r1, r3
 444 0196 FFF7FEFF 		bl	chIQPutI
 445              		.loc 1 113 0 discriminator 2
 446 019a 039B     		ldr	r3, [sp, #12]
 447 019c 0133     		adds	r3, r3, #1
 448 019e 0393     		str	r3, [sp, #12]
 449              	.L22:
 450              		.loc 1 113 0 is_stmt 0 discriminator 1
 451 01a0 039B     		ldr	r3, [sp, #12]
 452 01a2 032B     		cmp	r3, #3
 453 01a4 F1D9     		bls	.L23
 454              		.loc 1 115 0 is_stmt 1
ARM GAS  /home/pauba/tmp/cco0Mhmy.s 			page 9


 455 01a6 FFF7FEFF 		bl	dbg_check_unlock
 456              	.LBB17:
 457 01aa 0023     		movs	r3, #0
 458              	@ 115 "/home/pauba/ChibiOS-RT/test/testqueues.c" 1
 459 01ac 83F31188 		msr     BASEPRI, r3
 460              	@ 0 "" 2
 461              		.thumb
 462              	.LBE17:
 463              		.loc 1 118 0
 464 01b0 4D4B     		ldr	r3, .L33+8
 465 01b2 5B68     		ldr	r3, [r3, #4]
 466 01b4 4A48     		ldr	r0, .L33
 467 01b6 1946     		mov	r1, r3
 468 01b8 0822     		movs	r2, #8
 469 01ba 0023     		movs	r3, #0
 470 01bc FFF7FEFF 		bl	chIQReadTimeout
 471 01c0 0290     		str	r0, [sp, #8]
 472              		.loc 1 119 0
 473 01c2 029B     		ldr	r3, [sp, #8]
 474 01c4 042B     		cmp	r3, #4
 475 01c6 14BF     		ite	ne
 476 01c8 0023     		movne	r3, #0
 477 01ca 0123     		moveq	r3, #1
 478 01cc DBB2     		uxtb	r3, r3
 479 01ce 0620     		movs	r0, #6
 480 01d0 1946     		mov	r1, r3
 481 01d2 FFF7FEFF 		bl	_test_assert
 482 01d6 0346     		mov	r3, r0
 483 01d8 002B     		cmp	r3, #0
 484 01da 00D0     		beq	.L24
 485              		.loc 1 119 0 is_stmt 0 discriminator 1
 486 01dc FFE0     		b	.L9
 487              	.L24:
 488              	.LBB18:
 489              		.loc 1 120 0 is_stmt 1
 490 01de 2023     		movs	r3, #32
 491              	@ 120 "/home/pauba/ChibiOS-RT/test/testqueues.c" 1
 492 01e0 83F31188 		msr     BASEPRI, r3
 493              	@ 0 "" 2
 494              		.thumb
 495              	.LBE18:
 496 01e4 FFF7FEFF 		bl	dbg_check_lock
 497 01e8 3D4B     		ldr	r3, .L33
 498 01ea 9B68     		ldr	r3, [r3, #8]
 499 01ec 002B     		cmp	r3, #0
 500 01ee 14BF     		ite	ne
 501 01f0 0023     		movne	r3, #0
 502 01f2 0123     		moveq	r3, #1
 503 01f4 DBB2     		uxtb	r3, r3
 504 01f6 0720     		movs	r0, #7
 505 01f8 1946     		mov	r1, r3
 506 01fa FFF7FEFF 		bl	_test_assert
 507 01fe 0346     		mov	r3, r0
 508 0200 002B     		cmp	r3, #0
 509 0202 05D0     		beq	.L25
 510              		.loc 1 120 0 is_stmt 0 discriminator 1
 511 0204 FFF7FEFF 		bl	dbg_check_unlock
ARM GAS  /home/pauba/tmp/cco0Mhmy.s 			page 10


 512              	.LBB19:
 513 0208 0023     		movs	r3, #0
 514              	@ 120 "/home/pauba/ChibiOS-RT/test/testqueues.c" 1
 515 020a 83F31188 		msr     BASEPRI, r3
 516              	@ 0 "" 2
 517              		.thumb
 518              	.LBE19:
 519 020e E6E0     		b	.L9
 520              	.L25:
 521              		.loc 1 120 0 discriminator 2
 522 0210 FFF7FEFF 		bl	dbg_check_unlock
 523              	.LBB20:
 524 0214 0023     		movs	r3, #0
 525              	@ 120 "/home/pauba/ChibiOS-RT/test/testqueues.c" 1
 526 0216 83F31188 		msr     BASEPRI, r3
 527              	@ 0 "" 2
 528              		.thumb
 529              	.LBE20:
 530              	.LBB21:
 531              		.loc 1 123 0 is_stmt 1 discriminator 2
 532 021a 2023     		movs	r3, #32
 533              	@ 123 "/home/pauba/ChibiOS-RT/test/testqueues.c" 1
 534 021c 83F31188 		msr     BASEPRI, r3
 535              	@ 0 "" 2
 536              		.thumb
 537              	.LBE21:
 538 0220 FFF7FEFF 		bl	dbg_check_lock
 539              		.loc 1 124 0 discriminator 2
 540 0224 0023     		movs	r3, #0
 541 0226 0393     		str	r3, [sp, #12]
 542 0228 0AE0     		b	.L26
 543              	.L27:
 544              		.loc 1 125 0 discriminator 2
 545 022a 039B     		ldr	r3, [sp, #12]
 546 022c DBB2     		uxtb	r3, r3
 547 022e 4133     		adds	r3, r3, #65
 548 0230 DBB2     		uxtb	r3, r3
 549 0232 2B48     		ldr	r0, .L33
 550 0234 1946     		mov	r1, r3
 551 0236 FFF7FEFF 		bl	chIQPutI
 552              		.loc 1 124 0 discriminator 2
 553 023a 039B     		ldr	r3, [sp, #12]
 554 023c 0133     		adds	r3, r3, #1
 555 023e 0393     		str	r3, [sp, #12]
 556              	.L26:
 557              		.loc 1 124 0 is_stmt 0 discriminator 1
 558 0240 039B     		ldr	r3, [sp, #12]
 559 0242 032B     		cmp	r3, #3
 560 0244 F1D9     		bls	.L27
 561              		.loc 1 126 0 is_stmt 1
 562 0246 FFF7FEFF 		bl	dbg_check_unlock
 563              	.LBB22:
 564 024a 0023     		movs	r3, #0
 565              	@ 126 "/home/pauba/ChibiOS-RT/test/testqueues.c" 1
 566 024c 83F31188 		msr     BASEPRI, r3
 567              	@ 0 "" 2
 568              		.thumb
ARM GAS  /home/pauba/tmp/cco0Mhmy.s 			page 11


 569              	.LBE22:
 570              		.loc 1 129 0
 571 0250 254B     		ldr	r3, .L33+8
 572 0252 5B68     		ldr	r3, [r3, #4]
 573 0254 2248     		ldr	r0, .L33
 574 0256 1946     		mov	r1, r3
 575 0258 0222     		movs	r2, #2
 576 025a 0023     		movs	r3, #0
 577 025c FFF7FEFF 		bl	chIQReadTimeout
 578 0260 0290     		str	r0, [sp, #8]
 579              		.loc 1 130 0
 580 0262 029B     		ldr	r3, [sp, #8]
 581 0264 022B     		cmp	r3, #2
 582 0266 14BF     		ite	ne
 583 0268 0023     		movne	r3, #0
 584 026a 0123     		moveq	r3, #1
 585 026c DBB2     		uxtb	r3, r3
 586 026e 0820     		movs	r0, #8
 587 0270 1946     		mov	r1, r3
 588 0272 FFF7FEFF 		bl	_test_assert
 589 0276 0346     		mov	r3, r0
 590 0278 002B     		cmp	r3, #0
 591 027a 00D0     		beq	.L28
 592              		.loc 1 130 0 is_stmt 0 discriminator 1
 593 027c AFE0     		b	.L9
 594              	.L28:
 595              		.loc 1 131 0 is_stmt 1
 596 027e 1A4B     		ldr	r3, .L33+8
 597 0280 5B68     		ldr	r3, [r3, #4]
 598 0282 1748     		ldr	r0, .L33
 599 0284 1946     		mov	r1, r3
 600 0286 0222     		movs	r2, #2
 601 0288 0023     		movs	r3, #0
 602 028a FFF7FEFF 		bl	chIQReadTimeout
 603 028e 0290     		str	r0, [sp, #8]
 604              		.loc 1 132 0
 605 0290 029B     		ldr	r3, [sp, #8]
 606 0292 022B     		cmp	r3, #2
 607 0294 14BF     		ite	ne
 608 0296 0023     		movne	r3, #0
 609 0298 0123     		moveq	r3, #1
 610 029a DBB2     		uxtb	r3, r3
 611 029c 0920     		movs	r0, #9
 612 029e 1946     		mov	r1, r3
 613 02a0 FFF7FEFF 		bl	_test_assert
 614 02a4 0346     		mov	r3, r0
 615 02a6 002B     		cmp	r3, #0
 616 02a8 00D0     		beq	.L29
 617              		.loc 1 132 0 is_stmt 0 discriminator 1
 618 02aa 98E0     		b	.L9
 619              	.L29:
 620              	.LBB23:
 621              		.loc 1 133 0 is_stmt 1
 622 02ac 2023     		movs	r3, #32
 623              	@ 133 "/home/pauba/ChibiOS-RT/test/testqueues.c" 1
 624 02ae 83F31188 		msr     BASEPRI, r3
 625              	@ 0 "" 2
ARM GAS  /home/pauba/tmp/cco0Mhmy.s 			page 12


 626              		.thumb
 627              	.LBE23:
 628 02b2 FFF7FEFF 		bl	dbg_check_lock
 629 02b6 0A4B     		ldr	r3, .L33
 630 02b8 9B68     		ldr	r3, [r3, #8]
 631 02ba 002B     		cmp	r3, #0
 632 02bc 14BF     		ite	ne
 633 02be 0023     		movne	r3, #0
 634 02c0 0123     		moveq	r3, #1
 635 02c2 DBB2     		uxtb	r3, r3
 636 02c4 0A20     		movs	r0, #10
 637 02c6 1946     		mov	r1, r3
 638 02c8 FFF7FEFF 		bl	_test_assert
 639 02cc 0346     		mov	r3, r0
 640 02ce 002B     		cmp	r3, #0
 641 02d0 0CD0     		beq	.L30
 642              		.loc 1 133 0 is_stmt 0 discriminator 1
 643 02d2 FFF7FEFF 		bl	dbg_check_unlock
 644              	.LBB24:
 645 02d6 0023     		movs	r3, #0
 646              	@ 133 "/home/pauba/ChibiOS-RT/test/testqueues.c" 1
 647 02d8 83F31188 		msr     BASEPRI, r3
 648              	@ 0 "" 2
 649              		.thumb
 650              	.LBE24:
 651 02dc 7FE0     		b	.L9
 652              	.L34:
 653 02de 00BF     		.align	2
 654              	.L33:
 655 02e0 00000000 		.word	iq
 656 02e4 00000000 		.word	.LC0
 657 02e8 00000000 		.word	wa
 658              	.L30:
 659              		.loc 1 133 0 discriminator 2
 660 02ec FFF7FEFF 		bl	dbg_check_unlock
 661              	.LBB25:
 662 02f0 0023     		movs	r3, #0
 663              	@ 133 "/home/pauba/ChibiOS-RT/test/testqueues.c" 1
 664 02f2 83F31188 		msr     BASEPRI, r3
 665              	@ 0 "" 2
 666              		.thumb
 667              	.LBE25:
 668              	.LBB26:
 669              		.loc 1 136 0 is_stmt 1 discriminator 2
 670 02f6 2023     		movs	r3, #32
 671              	@ 136 "/home/pauba/ChibiOS-RT/test/testqueues.c" 1
 672 02f8 83F31188 		msr     BASEPRI, r3
 673              	@ 0 "" 2
 674              		.thumb
 675              	.LBE26:
 676 02fc FFF7FEFF 		bl	dbg_check_lock
 677              		.loc 1 137 0 discriminator 2
 678 0300 3848     		ldr	r0, .L35
 679 0302 0021     		movs	r1, #0
 680 0304 FFF7FEFF 		bl	chIQPutI
 681              		.loc 1 138 0 discriminator 2
 682 0308 3648     		ldr	r0, .L35
ARM GAS  /home/pauba/tmp/cco0Mhmy.s 			page 13


 683 030a FFF7FEFF 		bl	chIQResetI
 684              		.loc 1 139 0 discriminator 2
 685 030e FFF7FEFF 		bl	dbg_check_unlock
 686              	.LBB27:
 687 0312 0023     		movs	r3, #0
 688              	@ 139 "/home/pauba/ChibiOS-RT/test/testqueues.c" 1
 689 0314 83F31188 		msr     BASEPRI, r3
 690              	@ 0 "" 2
 691              		.thumb
 692              	.LBE27:
 693              	.LBB28:
 694              		.loc 1 140 0 discriminator 2
 695 0318 2023     		movs	r3, #32
 696              	@ 140 "/home/pauba/ChibiOS-RT/test/testqueues.c" 1
 697 031a 83F31188 		msr     BASEPRI, r3
 698              	@ 0 "" 2
 699              		.thumb
 700              	.LBE28:
 701 031e FFF7FEFF 		bl	dbg_check_lock
 702 0322 304B     		ldr	r3, .L35
 703 0324 9B68     		ldr	r3, [r3, #8]
 704 0326 002B     		cmp	r3, #0
 705 0328 14BF     		ite	ne
 706 032a 0023     		movne	r3, #0
 707 032c 0123     		moveq	r3, #1
 708 032e DBB2     		uxtb	r3, r3
 709 0330 0B20     		movs	r0, #11
 710 0332 1946     		mov	r1, r3
 711 0334 FFF7FEFF 		bl	_test_assert
 712 0338 0346     		mov	r3, r0
 713 033a 002B     		cmp	r3, #0
 714 033c 05D0     		beq	.L31
 715              		.loc 1 140 0 is_stmt 0 discriminator 1
 716 033e FFF7FEFF 		bl	dbg_check_unlock
 717              	.LBB29:
 718 0342 0023     		movs	r3, #0
 719              	@ 140 "/home/pauba/ChibiOS-RT/test/testqueues.c" 1
 720 0344 83F31188 		msr     BASEPRI, r3
 721              	@ 0 "" 2
 722              		.thumb
 723              	.LBE29:
 724 0348 49E0     		b	.L9
 725              	.L31:
 726              		.loc 1 140 0 discriminator 2
 727 034a FFF7FEFF 		bl	dbg_check_unlock
 728              	.LBB30:
 729 034e 0023     		movs	r3, #0
 730              	@ 140 "/home/pauba/ChibiOS-RT/test/testqueues.c" 1
 731 0350 83F31188 		msr     BASEPRI, r3
 732              	@ 0 "" 2
 733              		.thumb
 734              	.LBE30:
 735              		.loc 1 141 0 is_stmt 1 discriminator 2
 736 0354 244B     		ldr	r3, .L35+4
 737 0356 1A68     		ldr	r2, [r3]
 738 0358 244B     		ldr	r3, .L35+8
 739 035a 9B69     		ldr	r3, [r3, #24]
ARM GAS  /home/pauba/tmp/cco0Mhmy.s 			page 14


 740 035c 9B68     		ldr	r3, [r3, #8]
 741 035e 0133     		adds	r3, r3, #1
 742 0360 0021     		movs	r1, #0
 743 0362 0091     		str	r1, [sp]
 744 0364 1046     		mov	r0, r2
 745 0366 4FF4A871 		mov	r1, #336
 746 036a 1A46     		mov	r2, r3
 747 036c 204B     		ldr	r3, .L35+12
 748 036e FFF7FEFF 		bl	chThdCreateStatic
 749 0372 0246     		mov	r2, r0
 750 0374 1F4B     		ldr	r3, .L35+16
 751 0376 1A60     		str	r2, [r3]
 752              	.LBB31:
 753              		.loc 1 142 0 discriminator 2
 754 0378 2023     		movs	r3, #32
 755              	@ 142 "/home/pauba/ChibiOS-RT/test/testqueues.c" 1
 756 037a 83F31188 		msr     BASEPRI, r3
 757              	@ 0 "" 2
 758              		.thumb
 759              	.LBE31:
 760 037e FFF7FEFF 		bl	dbg_check_lock
 761 0382 184B     		ldr	r3, .L35
 762 0384 9B68     		ldr	r3, [r3, #8]
 763 0386 002B     		cmp	r3, #0
 764 0388 14BF     		ite	ne
 765 038a 0023     		movne	r3, #0
 766 038c 0123     		moveq	r3, #1
 767 038e DBB2     		uxtb	r3, r3
 768 0390 0C20     		movs	r0, #12
 769 0392 1946     		mov	r1, r3
 770 0394 FFF7FEFF 		bl	_test_assert
 771 0398 0346     		mov	r3, r0
 772 039a 002B     		cmp	r3, #0
 773 039c 05D0     		beq	.L32
 774              		.loc 1 142 0 is_stmt 0 discriminator 1
 775 039e FFF7FEFF 		bl	dbg_check_unlock
 776              	.LBB32:
 777 03a2 0023     		movs	r3, #0
 778              	@ 142 "/home/pauba/ChibiOS-RT/test/testqueues.c" 1
 779 03a4 83F31188 		msr     BASEPRI, r3
 780              	@ 0 "" 2
 781              		.thumb
 782              	.LBE32:
 783 03a8 19E0     		b	.L9
 784              	.L32:
 785              		.loc 1 142 0 discriminator 2
 786 03aa FFF7FEFF 		bl	dbg_check_unlock
 787              	.LBB33:
 788 03ae 0023     		movs	r3, #0
 789              	@ 142 "/home/pauba/ChibiOS-RT/test/testqueues.c" 1
 790 03b0 83F31188 		msr     BASEPRI, r3
 791              	@ 0 "" 2
 792              		.thumb
 793              	.LBE33:
 794              		.loc 1 143 0 is_stmt 1 discriminator 2
 795 03b4 FFF7FEFF 		bl	test_wait_threads
 796              		.loc 1 146 0 discriminator 2
ARM GAS  /home/pauba/tmp/cco0Mhmy.s 			page 15


 797 03b8 0A48     		ldr	r0, .L35
 798 03ba 0A21     		movs	r1, #10
 799 03bc FFF7FEFF 		bl	chIQGetTimeout
 800 03c0 0346     		mov	r3, r0
 801 03c2 B3F1FF3F 		cmp	r3, #-1
 802 03c6 14BF     		ite	ne
 803 03c8 0023     		movne	r3, #0
 804 03ca 0123     		moveq	r3, #1
 805 03cc DBB2     		uxtb	r3, r3
 806 03ce 0D20     		movs	r0, #13
 807 03d0 1946     		mov	r1, r3
 808 03d2 FFF7FEFF 		bl	_test_assert
 809 03d6 0346     		mov	r3, r0
 810 03d8 002B     		cmp	r3, #0
 811 03da 00D0     		beq	.L9
 812              		.loc 1 146 0 is_stmt 0 discriminator 1
 813 03dc 00BF     		nop
 814              	.L9:
 815              		.loc 1 147 0 is_stmt 1
 816 03de 05B0     		add	sp, sp, #20
 817              		@ sp needed
 818 03e0 5DF804FB 		ldr	pc, [sp], #4
 819              	.L36:
 820              		.align	2
 821              	.L35:
 822 03e4 00000000 		.word	iq
 823 03e8 00000000 		.word	wa
 824 03ec 00000000 		.word	rlist
 825 03f0 00000000 		.word	thread1
 826 03f4 00000000 		.word	threads
 827              		.cfi_endproc
 828              	.LFE10:
 829              		.size	queues1_execute, .-queues1_execute
 830              		.global	testqueues1
 831 03f8 AFF30080 		.section	.rodata
 831      AFF30080 
 832 0005 000000   		.align	2
 833              	.LC1:
 834 0008 51756575 		.ascii	"Queues, input queues\000"
 834      65732C20 
 834      696E7075 
 834      74207175 
 834      65756573 
 835              		.section	.rodata.testqueues1,"a",%progbits
 836              		.align	2
 837              		.type	testqueues1, %object
 838              		.size	testqueues1, 16
 839              	testqueues1:
 840 0000 08000000 		.word	.LC1
 841 0004 00000000 		.word	queues1_setup
 842 0008 00000000 		.word	0
 843 000c 00000000 		.word	queues1_execute
 844              		.section	.text.queues2_setup,"ax",%progbits
 845              		.align	2
 846              		.p2align 4,,15
 847              		.thumb
 848              		.thumb_func
ARM GAS  /home/pauba/tmp/cco0Mhmy.s 			page 16


 849              		.type	queues2_setup, %function
 850              	queues2_setup:
 851              	.LFB11:
 852              		.loc 1 165 0
 853              		.cfi_startproc
 854              		@ args = 0, pretend = 0, frame = 0
 855              		@ frame_needed = 0, uses_anonymous_args = 0
 856 0000 00B5     		push	{lr}
 857              		.cfi_def_cfa_offset 4
 858              		.cfi_offset 14, -4
 859 0002 83B0     		sub	sp, sp, #12
 860              		.cfi_def_cfa_offset 16
 861              		.loc 1 167 0
 862 0004 064B     		ldr	r3, .L38
 863 0006 1B68     		ldr	r3, [r3]
 864 0008 0022     		movs	r2, #0
 865 000a 0092     		str	r2, [sp]
 866 000c 0548     		ldr	r0, .L38+4
 867 000e 1946     		mov	r1, r3
 868 0010 0422     		movs	r2, #4
 869 0012 054B     		ldr	r3, .L38+8
 870 0014 FFF7FEFF 		bl	chOQInit
 871              		.loc 1 168 0
 872 0018 03B0     		add	sp, sp, #12
 873              		@ sp needed
 874 001a 5DF804FB 		ldr	pc, [sp], #4
 875              	.L39:
 876 001e 00BF     		.align	2
 877              	.L38:
 878 0020 00000000 		.word	wa
 879 0024 00000000 		.word	oq
 880 0028 00000000 		.word	notify
 881              		.cfi_endproc
 882              	.LFE11:
 883              		.size	queues2_setup, .-queues2_setup
 884 002c AFF30080 		.section	.text.thread2,"ax",%progbits
 885              		.align	2
 886              		.p2align 4,,15
 887              		.thumb
 888              		.thumb_func
 889              		.type	thread2, %function
 890              	thread2:
 891              	.LFB12:
 892              		.loc 1 170 0
 893              		.cfi_startproc
 894              		@ args = 0, pretend = 0, frame = 8
 895              		@ frame_needed = 0, uses_anonymous_args = 0
 896 0000 00B5     		push	{lr}
 897              		.cfi_def_cfa_offset 4
 898              		.cfi_offset 14, -4
 899 0002 83B0     		sub	sp, sp, #12
 900              		.cfi_def_cfa_offset 16
 901 0004 0190     		str	r0, [sp, #4]
 902              		.loc 1 173 0
 903 0006 0548     		ldr	r0, .L42
 904 0008 0021     		movs	r1, #0
 905 000a C822     		movs	r2, #200
ARM GAS  /home/pauba/tmp/cco0Mhmy.s 			page 17


 906 000c FFF7FEFF 		bl	chOQPutTimeout
 907              		.loc 1 174 0
 908 0010 0023     		movs	r3, #0
 909              		.loc 1 175 0
 910 0012 1846     		mov	r0, r3
 911 0014 03B0     		add	sp, sp, #12
 912              		@ sp needed
 913 0016 5DF804FB 		ldr	pc, [sp], #4
 914              	.L43:
 915 001a 00BF     		.align	2
 916              	.L42:
 917 001c 00000000 		.word	oq
 918              		.cfi_endproc
 919              	.LFE12:
 920              		.size	thread2, .-thread2
 921              		.section	.text.queues2_execute,"ax",%progbits
 922              		.align	2
 923              		.p2align 4,,15
 924              		.thumb
 925              		.thumb_func
 926              		.type	queues2_execute, %function
 927              	queues2_execute:
 928              	.LFB13:
 929              		.loc 1 177 0
 930              		.cfi_startproc
 931              		@ args = 0, pretend = 0, frame = 16
 932              		@ frame_needed = 0, uses_anonymous_args = 0
 933 0000 00B5     		push	{lr}
 934              		.cfi_def_cfa_offset 4
 935              		.cfi_offset 14, -4
 936 0002 87B0     		sub	sp, sp, #28
 937              		.cfi_def_cfa_offset 32
 938              	.LBB34:
 939              		.loc 1 182 0
 940 0004 2023     		movs	r3, #32
 941              	@ 182 "/home/pauba/ChibiOS-RT/test/testqueues.c" 1
 942 0006 83F31188 		msr     BASEPRI, r3
 943              	@ 0 "" 2
 944              		.thumb
 945              	.LBE34:
 946 000a FFF7FEFF 		bl	dbg_check_lock
 947 000e AE4B     		ldr	r3, .L66
 948 0010 5A69     		ldr	r2, [r3, #20]
 949 0012 AD4B     		ldr	r3, .L66
 950 0014 9B69     		ldr	r3, [r3, #24]
 951 0016 9A42     		cmp	r2, r3
 952 0018 05D1     		bne	.L45
 953              		.loc 1 182 0 is_stmt 0 discriminator 1
 954 001a AB4B     		ldr	r3, .L66
 955 001c 9B68     		ldr	r3, [r3, #8]
 956 001e 002B     		cmp	r3, #0
 957 0020 01D0     		beq	.L45
 958              		.loc 1 182 0 discriminator 3
 959 0022 0123     		movs	r3, #1
 960 0024 00E0     		b	.L46
 961              	.L45:
 962              		.loc 1 182 0 discriminator 2
ARM GAS  /home/pauba/tmp/cco0Mhmy.s 			page 18


 963 0026 0023     		movs	r3, #0
 964              	.L46:
 965              		.loc 1 182 0 discriminator 4
 966 0028 03F00103 		and	r3, r3, #1
 967 002c DBB2     		uxtb	r3, r3
 968 002e 0120     		movs	r0, #1
 969 0030 1946     		mov	r1, r3
 970 0032 FFF7FEFF 		bl	_test_assert
 971 0036 0346     		mov	r3, r0
 972 0038 002B     		cmp	r3, #0
 973 003a 05D0     		beq	.L47
 974              		.loc 1 182 0 discriminator 1
 975 003c FFF7FEFF 		bl	dbg_check_unlock
 976              	.LBB35:
 977 0040 0023     		movs	r3, #0
 978              	@ 182 "/home/pauba/ChibiOS-RT/test/testqueues.c" 1
 979 0042 83F31188 		msr     BASEPRI, r3
 980              	@ 0 "" 2
 981              		.thumb
 982              	.LBE35:
 983 0046 B0E1     		b	.L44
 984              	.L47:
 985              		.loc 1 182 0 discriminator 2
 986 0048 FFF7FEFF 		bl	dbg_check_unlock
 987              	.LBB36:
 988 004c 0023     		movs	r3, #0
 989              	@ 182 "/home/pauba/ChibiOS-RT/test/testqueues.c" 1
 990 004e 83F31188 		msr     BASEPRI, r3
 991              	@ 0 "" 2
 992              		.thumb
 993              	.LBE36:
 994              		.loc 1 185 0 is_stmt 1 discriminator 2
 995 0052 0023     		movs	r3, #0
 996 0054 0593     		str	r3, [sp, #20]
 997 0056 0CE0     		b	.L49
 998              	.L50:
 999              		.loc 1 186 0 discriminator 2
 1000 0058 059B     		ldr	r3, [sp, #20]
 1001 005a DBB2     		uxtb	r3, r3
 1002 005c 4133     		adds	r3, r3, #65
 1003 005e DBB2     		uxtb	r3, r3
 1004 0060 9948     		ldr	r0, .L66
 1005 0062 1946     		mov	r1, r3
 1006 0064 4FF0FF32 		mov	r2, #-1
 1007 0068 FFF7FEFF 		bl	chOQPutTimeout
 1008              		.loc 1 185 0 discriminator 2
 1009 006c 059B     		ldr	r3, [sp, #20]
 1010 006e 0133     		adds	r3, r3, #1
 1011 0070 0593     		str	r3, [sp, #20]
 1012              	.L49:
 1013              		.loc 1 185 0 is_stmt 0 discriminator 1
 1014 0072 059B     		ldr	r3, [sp, #20]
 1015 0074 032B     		cmp	r3, #3
 1016 0076 EFD9     		bls	.L50
 1017              	.LBB37:
 1018              		.loc 1 187 0 is_stmt 1
 1019 0078 2023     		movs	r3, #32
ARM GAS  /home/pauba/tmp/cco0Mhmy.s 			page 19


 1020              	@ 187 "/home/pauba/ChibiOS-RT/test/testqueues.c" 1
 1021 007a 83F31188 		msr     BASEPRI, r3
 1022              	@ 0 "" 2
 1023              		.thumb
 1024              	.LBE37:
 1025 007e FFF7FEFF 		bl	dbg_check_lock
 1026 0082 914B     		ldr	r3, .L66
 1027 0084 9B68     		ldr	r3, [r3, #8]
 1028 0086 002B     		cmp	r3, #0
 1029 0088 14BF     		ite	ne
 1030 008a 0023     		movne	r3, #0
 1031 008c 0123     		moveq	r3, #1
 1032 008e DBB2     		uxtb	r3, r3
 1033 0090 0220     		movs	r0, #2
 1034 0092 1946     		mov	r1, r3
 1035 0094 FFF7FEFF 		bl	_test_assert
 1036 0098 0346     		mov	r3, r0
 1037 009a 002B     		cmp	r3, #0
 1038 009c 05D0     		beq	.L51
 1039              		.loc 1 187 0 is_stmt 0 discriminator 1
 1040 009e FFF7FEFF 		bl	dbg_check_unlock
 1041              	.LBB38:
 1042 00a2 0023     		movs	r3, #0
 1043              	@ 187 "/home/pauba/ChibiOS-RT/test/testqueues.c" 1
 1044 00a4 83F31188 		msr     BASEPRI, r3
 1045              	@ 0 "" 2
 1046              		.thumb
 1047              	.LBE38:
 1048 00a8 7FE1     		b	.L44
 1049              	.L51:
 1050              		.loc 1 187 0 discriminator 2
 1051 00aa FFF7FEFF 		bl	dbg_check_unlock
 1052              	.LBB39:
 1053 00ae 0023     		movs	r3, #0
 1054              	@ 187 "/home/pauba/ChibiOS-RT/test/testqueues.c" 1
 1055 00b0 83F31188 		msr     BASEPRI, r3
 1056              	@ 0 "" 2
 1057              		.thumb
 1058              	.LBE39:
 1059              		.loc 1 190 0 is_stmt 1 discriminator 2
 1060 00b4 0023     		movs	r3, #0
 1061 00b6 0593     		str	r3, [sp, #20]
 1062 00b8 17E0     		b	.L52
 1063              	.L53:
 1064              	.LBB40:
 1065              	.LBB41:
 1066              		.loc 1 193 0 discriminator 2
 1067 00ba 2023     		movs	r3, #32
 1068              	@ 193 "/home/pauba/ChibiOS-RT/test/testqueues.c" 1
 1069 00bc 83F31188 		msr     BASEPRI, r3
 1070              	@ 0 "" 2
 1071              		.thumb
 1072              	.LBE41:
 1073 00c0 FFF7FEFF 		bl	dbg_check_lock
 1074              		.loc 1 194 0 discriminator 2
 1075 00c4 8048     		ldr	r0, .L66
 1076 00c6 FFF7FEFF 		bl	chOQGetI
ARM GAS  /home/pauba/tmp/cco0Mhmy.s 			page 20


 1077 00ca 0346     		mov	r3, r0
 1078 00cc 8DF81330 		strb	r3, [sp, #19]
 1079              		.loc 1 195 0 discriminator 2
 1080 00d0 FFF7FEFF 		bl	dbg_check_unlock
 1081              	.LBB42:
 1082 00d4 0023     		movs	r3, #0
 1083              	@ 195 "/home/pauba/ChibiOS-RT/test/testqueues.c" 1
 1084 00d6 83F31188 		msr     BASEPRI, r3
 1085              	@ 0 "" 2
 1086              		.thumb
 1087              	.LBE42:
 1088              		.loc 1 196 0 discriminator 2
 1089 00da 9DF81330 		ldrb	r3, [sp, #19]	@ zero_extendqisi2
 1090 00de 1846     		mov	r0, r3
 1091 00e0 FFF7FEFF 		bl	test_emit_token
 1092              	.LBE40:
 1093              		.loc 1 190 0 discriminator 2
 1094 00e4 059B     		ldr	r3, [sp, #20]
 1095 00e6 0133     		adds	r3, r3, #1
 1096 00e8 0593     		str	r3, [sp, #20]
 1097              	.L52:
 1098              		.loc 1 190 0 is_stmt 0 discriminator 1
 1099 00ea 059B     		ldr	r3, [sp, #20]
 1100 00ec 032B     		cmp	r3, #3
 1101 00ee E4D9     		bls	.L53
 1102              	.LBB43:
 1103              		.loc 1 198 0 is_stmt 1
 1104 00f0 2023     		movs	r3, #32
 1105              	@ 198 "/home/pauba/ChibiOS-RT/test/testqueues.c" 1
 1106 00f2 83F31188 		msr     BASEPRI, r3
 1107              	@ 0 "" 2
 1108              		.thumb
 1109              	.LBE43:
 1110 00f6 FFF7FEFF 		bl	dbg_check_lock
 1111 00fa 734B     		ldr	r3, .L66
 1112 00fc 5A69     		ldr	r2, [r3, #20]
 1113 00fe 724B     		ldr	r3, .L66
 1114 0100 9B69     		ldr	r3, [r3, #24]
 1115 0102 9A42     		cmp	r2, r3
 1116 0104 05D1     		bne	.L54
 1117              		.loc 1 198 0 is_stmt 0 discriminator 1
 1118 0106 704B     		ldr	r3, .L66
 1119 0108 9B68     		ldr	r3, [r3, #8]
 1120 010a 002B     		cmp	r3, #0
 1121 010c 01D0     		beq	.L54
 1122              		.loc 1 198 0 discriminator 3
 1123 010e 0123     		movs	r3, #1
 1124 0110 00E0     		b	.L55
 1125              	.L54:
 1126              		.loc 1 198 0 discriminator 2
 1127 0112 0023     		movs	r3, #0
 1128              	.L55:
 1129              		.loc 1 198 0 discriminator 4
 1130 0114 03F00103 		and	r3, r3, #1
 1131 0118 DBB2     		uxtb	r3, r3
 1132 011a 0320     		movs	r0, #3
 1133 011c 1946     		mov	r1, r3
ARM GAS  /home/pauba/tmp/cco0Mhmy.s 			page 21


 1134 011e FFF7FEFF 		bl	_test_assert
 1135 0122 0346     		mov	r3, r0
 1136 0124 002B     		cmp	r3, #0
 1137 0126 05D0     		beq	.L56
 1138              		.loc 1 198 0 discriminator 1
 1139 0128 FFF7FEFF 		bl	dbg_check_unlock
 1140              	.LBB44:
 1141 012c 0023     		movs	r3, #0
 1142              	@ 198 "/home/pauba/ChibiOS-RT/test/testqueues.c" 1
 1143 012e 83F31188 		msr     BASEPRI, r3
 1144              	@ 0 "" 2
 1145              		.thumb
 1146              	.LBE44:
 1147 0132 3AE1     		b	.L44
 1148              	.L56:
 1149              		.loc 1 198 0 discriminator 2
 1150 0134 FFF7FEFF 		bl	dbg_check_unlock
 1151              	.LBB45:
 1152 0138 0023     		movs	r3, #0
 1153              	@ 198 "/home/pauba/ChibiOS-RT/test/testqueues.c" 1
 1154 013a 83F31188 		msr     BASEPRI, r3
 1155              	@ 0 "" 2
 1156              		.thumb
 1157              	.LBE45:
 1158              		.loc 1 199 0 is_stmt 1 discriminator 2
 1159 013e 0420     		movs	r0, #4
 1160 0140 6249     		ldr	r1, .L66+4
 1161 0142 FFF7FEFF 		bl	_test_assert_sequence
 1162 0146 0346     		mov	r3, r0
 1163 0148 002B     		cmp	r3, #0
 1164 014a 00D0     		beq	.L57
 1165              		.loc 1 199 0 is_stmt 0 discriminator 1
 1166 014c 2DE1     		b	.L44
 1167              	.L57:
 1168              	.LBB46:
 1169              		.loc 1 200 0 is_stmt 1
 1170 014e 2023     		movs	r3, #32
 1171              	@ 200 "/home/pauba/ChibiOS-RT/test/testqueues.c" 1
 1172 0150 83F31188 		msr     BASEPRI, r3
 1173              	@ 0 "" 2
 1174              		.thumb
 1175              	.LBE46:
 1176 0154 FFF7FEFF 		bl	dbg_check_lock
 1177 0158 5B48     		ldr	r0, .L66
 1178 015a FFF7FEFF 		bl	chOQGetI
 1179 015e 0346     		mov	r3, r0
 1180 0160 13F1030F 		cmn	r3, #3
 1181 0164 14BF     		ite	ne
 1182 0166 0023     		movne	r3, #0
 1183 0168 0123     		moveq	r3, #1
 1184 016a DBB2     		uxtb	r3, r3
 1185 016c 0520     		movs	r0, #5
 1186 016e 1946     		mov	r1, r3
 1187 0170 FFF7FEFF 		bl	_test_assert
 1188 0174 0346     		mov	r3, r0
 1189 0176 002B     		cmp	r3, #0
 1190 0178 05D0     		beq	.L58
ARM GAS  /home/pauba/tmp/cco0Mhmy.s 			page 22


 1191              		.loc 1 200 0 is_stmt 0 discriminator 1
 1192 017a FFF7FEFF 		bl	dbg_check_unlock
 1193              	.LBB47:
 1194 017e 0023     		movs	r3, #0
 1195              	@ 200 "/home/pauba/ChibiOS-RT/test/testqueues.c" 1
 1196 0180 83F31188 		msr     BASEPRI, r3
 1197              	@ 0 "" 2
 1198              		.thumb
 1199              	.LBE47:
 1200 0184 11E1     		b	.L44
 1201              	.L58:
 1202              		.loc 1 200 0 discriminator 2
 1203 0186 FFF7FEFF 		bl	dbg_check_unlock
 1204              	.LBB48:
 1205 018a 0023     		movs	r3, #0
 1206              	@ 200 "/home/pauba/ChibiOS-RT/test/testqueues.c" 1
 1207 018c 83F31188 		msr     BASEPRI, r3
 1208              	@ 0 "" 2
 1209              		.thumb
 1210              	.LBE48:
 1211              		.loc 1 203 0 is_stmt 1 discriminator 2
 1212 0190 4F4B     		ldr	r3, .L66+8
 1213 0192 5B68     		ldr	r3, [r3, #4]
 1214 0194 4C48     		ldr	r0, .L66
 1215 0196 1946     		mov	r1, r3
 1216 0198 0822     		movs	r2, #8
 1217 019a 0023     		movs	r3, #0
 1218 019c FFF7FEFF 		bl	chOQWriteTimeout
 1219 01a0 0390     		str	r0, [sp, #12]
 1220              		.loc 1 204 0 discriminator 2
 1221 01a2 039B     		ldr	r3, [sp, #12]
 1222 01a4 042B     		cmp	r3, #4
 1223 01a6 14BF     		ite	ne
 1224 01a8 0023     		movne	r3, #0
 1225 01aa 0123     		moveq	r3, #1
 1226 01ac DBB2     		uxtb	r3, r3
 1227 01ae 0620     		movs	r0, #6
 1228 01b0 1946     		mov	r1, r3
 1229 01b2 FFF7FEFF 		bl	_test_assert
 1230 01b6 0346     		mov	r3, r0
 1231 01b8 002B     		cmp	r3, #0
 1232 01ba 00D0     		beq	.L59
 1233              		.loc 1 204 0 is_stmt 0 discriminator 1
 1234 01bc F5E0     		b	.L44
 1235              	.L59:
 1236              	.LBB49:
 1237              		.loc 1 205 0 is_stmt 1
 1238 01be 2023     		movs	r3, #32
 1239              	@ 205 "/home/pauba/ChibiOS-RT/test/testqueues.c" 1
 1240 01c0 83F31188 		msr     BASEPRI, r3
 1241              	@ 0 "" 2
 1242              		.thumb
 1243              	.LBE49:
 1244 01c4 FFF7FEFF 		bl	dbg_check_lock
 1245 01c8 3F4B     		ldr	r3, .L66
 1246 01ca 9B68     		ldr	r3, [r3, #8]
 1247 01cc 002B     		cmp	r3, #0
ARM GAS  /home/pauba/tmp/cco0Mhmy.s 			page 23


 1248 01ce 14BF     		ite	ne
 1249 01d0 0023     		movne	r3, #0
 1250 01d2 0123     		moveq	r3, #1
 1251 01d4 DBB2     		uxtb	r3, r3
 1252 01d6 0720     		movs	r0, #7
 1253 01d8 1946     		mov	r1, r3
 1254 01da FFF7FEFF 		bl	_test_assert
 1255 01de 0346     		mov	r3, r0
 1256 01e0 002B     		cmp	r3, #0
 1257 01e2 05D0     		beq	.L60
 1258              		.loc 1 205 0 is_stmt 0 discriminator 1
 1259 01e4 FFF7FEFF 		bl	dbg_check_unlock
 1260              	.LBB50:
 1261 01e8 0023     		movs	r3, #0
 1262              	@ 205 "/home/pauba/ChibiOS-RT/test/testqueues.c" 1
 1263 01ea 83F31188 		msr     BASEPRI, r3
 1264              	@ 0 "" 2
 1265              		.thumb
 1266              	.LBE50:
 1267 01ee DCE0     		b	.L44
 1268              	.L60:
 1269              		.loc 1 205 0 discriminator 2
 1270 01f0 FFF7FEFF 		bl	dbg_check_unlock
 1271              	.LBB51:
 1272 01f4 0023     		movs	r3, #0
 1273              	@ 205 "/home/pauba/ChibiOS-RT/test/testqueues.c" 1
 1274 01f6 83F31188 		msr     BASEPRI, r3
 1275              	@ 0 "" 2
 1276              		.thumb
 1277              	.LBE51:
 1278              		.loc 1 206 0 is_stmt 1 discriminator 2
 1279 01fa 354B     		ldr	r3, .L66+8
 1280 01fc 1A68     		ldr	r2, [r3]
 1281 01fe 354B     		ldr	r3, .L66+12
 1282 0200 9B69     		ldr	r3, [r3, #24]
 1283 0202 9B68     		ldr	r3, [r3, #8]
 1284 0204 0133     		adds	r3, r3, #1
 1285 0206 0021     		movs	r1, #0
 1286 0208 0091     		str	r1, [sp]
 1287 020a 1046     		mov	r0, r2
 1288 020c 4FF4A871 		mov	r1, #336
 1289 0210 1A46     		mov	r2, r3
 1290 0212 314B     		ldr	r3, .L66+16
 1291 0214 FFF7FEFF 		bl	chThdCreateStatic
 1292 0218 0246     		mov	r2, r0
 1293 021a 304B     		ldr	r3, .L66+20
 1294 021c 1A60     		str	r2, [r3]
 1295              	.LBB52:
 1296              		.loc 1 207 0 discriminator 2
 1297 021e 2023     		movs	r3, #32
 1298              	@ 207 "/home/pauba/ChibiOS-RT/test/testqueues.c" 1
 1299 0220 83F31188 		msr     BASEPRI, r3
 1300              	@ 0 "" 2
 1301              		.thumb
 1302              	.LBE52:
 1303 0224 FFF7FEFF 		bl	dbg_check_lock
 1304 0228 274B     		ldr	r3, .L66
ARM GAS  /home/pauba/tmp/cco0Mhmy.s 			page 24


 1305 022a 1B69     		ldr	r3, [r3, #16]
 1306 022c 1A46     		mov	r2, r3
 1307 022e 264B     		ldr	r3, .L66
 1308 0230 DB68     		ldr	r3, [r3, #12]
 1309 0232 D31A     		subs	r3, r2, r3
 1310 0234 1A46     		mov	r2, r3
 1311 0236 244B     		ldr	r3, .L66
 1312 0238 9B68     		ldr	r3, [r3, #8]
 1313 023a D31A     		subs	r3, r2, r3
 1314 023c 042B     		cmp	r3, #4
 1315 023e 14BF     		ite	ne
 1316 0240 0023     		movne	r3, #0
 1317 0242 0123     		moveq	r3, #1
 1318 0244 DBB2     		uxtb	r3, r3
 1319 0246 0820     		movs	r0, #8
 1320 0248 1946     		mov	r1, r3
 1321 024a FFF7FEFF 		bl	_test_assert
 1322 024e 0346     		mov	r3, r0
 1323 0250 002B     		cmp	r3, #0
 1324 0252 05D0     		beq	.L61
 1325              		.loc 1 207 0 is_stmt 0 discriminator 1
 1326 0254 FFF7FEFF 		bl	dbg_check_unlock
 1327              	.LBB53:
 1328 0258 0023     		movs	r3, #0
 1329              	@ 207 "/home/pauba/ChibiOS-RT/test/testqueues.c" 1
 1330 025a 83F31188 		msr     BASEPRI, r3
 1331              	@ 0 "" 2
 1332              		.thumb
 1333              	.LBE53:
 1334 025e A4E0     		b	.L44
 1335              	.L61:
 1336              		.loc 1 207 0 discriminator 2
 1337 0260 FFF7FEFF 		bl	dbg_check_unlock
 1338              	.LBB54:
 1339 0264 0023     		movs	r3, #0
 1340              	@ 207 "/home/pauba/ChibiOS-RT/test/testqueues.c" 1
 1341 0266 83F31188 		msr     BASEPRI, r3
 1342              	@ 0 "" 2
 1343              		.thumb
 1344              	.LBE54:
 1345              		.loc 1 208 0 is_stmt 1 discriminator 2
 1346 026a FFF7FEFF 		bl	test_wait_threads
 1347              	.LBB55:
 1348              		.loc 1 211 0 discriminator 2
 1349 026e 2023     		movs	r3, #32
 1350              	@ 211 "/home/pauba/ChibiOS-RT/test/testqueues.c" 1
 1351 0270 83F31188 		msr     BASEPRI, r3
 1352              	@ 0 "" 2
 1353              		.thumb
 1354              	.LBE55:
 1355 0274 FFF7FEFF 		bl	dbg_check_lock
 1356              		.loc 1 212 0 discriminator 2
 1357 0278 1348     		ldr	r0, .L66
 1358 027a FFF7FEFF 		bl	chOQResetI
 1359              		.loc 1 213 0 discriminator 2
 1360 027e FFF7FEFF 		bl	dbg_check_unlock
 1361              	.LBB56:
ARM GAS  /home/pauba/tmp/cco0Mhmy.s 			page 25


 1362 0282 0023     		movs	r3, #0
 1363              	@ 213 "/home/pauba/ChibiOS-RT/test/testqueues.c" 1
 1364 0284 83F31188 		msr     BASEPRI, r3
 1365              	@ 0 "" 2
 1366              		.thumb
 1367              	.LBE56:
 1368              	.LBB57:
 1369              		.loc 1 214 0 discriminator 2
 1370 0288 2023     		movs	r3, #32
 1371              	@ 214 "/home/pauba/ChibiOS-RT/test/testqueues.c" 1
 1372 028a 83F31188 		msr     BASEPRI, r3
 1373              	@ 0 "" 2
 1374              		.thumb
 1375              	.LBE57:
 1376 028e FFF7FEFF 		bl	dbg_check_lock
 1377 0292 0D4B     		ldr	r3, .L66
 1378 0294 1B69     		ldr	r3, [r3, #16]
 1379 0296 1A46     		mov	r2, r3
 1380 0298 0B4B     		ldr	r3, .L66
 1381 029a DB68     		ldr	r3, [r3, #12]
 1382 029c D31A     		subs	r3, r2, r3
 1383 029e 1A46     		mov	r2, r3
 1384 02a0 094B     		ldr	r3, .L66
 1385 02a2 9B68     		ldr	r3, [r3, #8]
 1386 02a4 9A42     		cmp	r2, r3
 1387 02a6 14BF     		ite	ne
 1388 02a8 0023     		movne	r3, #0
 1389 02aa 0123     		moveq	r3, #1
 1390 02ac DBB2     		uxtb	r3, r3
 1391 02ae 0920     		movs	r0, #9
 1392 02b0 1946     		mov	r1, r3
 1393 02b2 FFF7FEFF 		bl	_test_assert
 1394 02b6 0346     		mov	r3, r0
 1395 02b8 002B     		cmp	r3, #0
 1396 02ba 11D0     		beq	.L62
 1397              		.loc 1 214 0 is_stmt 0 discriminator 1
 1398 02bc FFF7FEFF 		bl	dbg_check_unlock
 1399              	.LBB58:
 1400 02c0 0023     		movs	r3, #0
 1401              	@ 214 "/home/pauba/ChibiOS-RT/test/testqueues.c" 1
 1402 02c2 83F31188 		msr     BASEPRI, r3
 1403              	@ 0 "" 2
 1404              		.thumb
 1405              	.LBE58:
 1406 02c6 70E0     		b	.L44
 1407              	.L67:
 1408              		.align	2
 1409              	.L66:
 1410 02c8 00000000 		.word	oq
 1411 02cc 00000000 		.word	.LC0
 1412 02d0 00000000 		.word	wa
 1413 02d4 00000000 		.word	rlist
 1414 02d8 00000000 		.word	thread2
 1415 02dc 00000000 		.word	threads
 1416              	.L62:
 1417              		.loc 1 214 0 discriminator 2
 1418 02e0 FFF7FEFF 		bl	dbg_check_unlock
ARM GAS  /home/pauba/tmp/cco0Mhmy.s 			page 26


 1419              	.LBB59:
 1420 02e4 0023     		movs	r3, #0
 1421              	@ 214 "/home/pauba/ChibiOS-RT/test/testqueues.c" 1
 1422 02e6 83F31188 		msr     BASEPRI, r3
 1423              	@ 0 "" 2
 1424              		.thumb
 1425              	.LBE59:
 1426              		.loc 1 217 0 is_stmt 1 discriminator 2
 1427 02ea 314B     		ldr	r3, .L68
 1428 02ec 5B68     		ldr	r3, [r3, #4]
 1429 02ee 3148     		ldr	r0, .L68+4
 1430 02f0 1946     		mov	r1, r3
 1431 02f2 0222     		movs	r2, #2
 1432 02f4 0023     		movs	r3, #0
 1433 02f6 FFF7FEFF 		bl	chOQWriteTimeout
 1434 02fa 0390     		str	r0, [sp, #12]
 1435              		.loc 1 218 0 discriminator 2
 1436 02fc 039B     		ldr	r3, [sp, #12]
 1437 02fe 022B     		cmp	r3, #2
 1438 0300 14BF     		ite	ne
 1439 0302 0023     		movne	r3, #0
 1440 0304 0123     		moveq	r3, #1
 1441 0306 DBB2     		uxtb	r3, r3
 1442 0308 0A20     		movs	r0, #10
 1443 030a 1946     		mov	r1, r3
 1444 030c FFF7FEFF 		bl	_test_assert
 1445 0310 0346     		mov	r3, r0
 1446 0312 002B     		cmp	r3, #0
 1447 0314 00D0     		beq	.L63
 1448              		.loc 1 218 0 is_stmt 0 discriminator 1
 1449 0316 48E0     		b	.L44
 1450              	.L63:
 1451              		.loc 1 219 0 is_stmt 1
 1452 0318 254B     		ldr	r3, .L68
 1453 031a 5B68     		ldr	r3, [r3, #4]
 1454 031c 2548     		ldr	r0, .L68+4
 1455 031e 1946     		mov	r1, r3
 1456 0320 0222     		movs	r2, #2
 1457 0322 0023     		movs	r3, #0
 1458 0324 FFF7FEFF 		bl	chOQWriteTimeout
 1459 0328 0390     		str	r0, [sp, #12]
 1460              		.loc 1 220 0
 1461 032a 039B     		ldr	r3, [sp, #12]
 1462 032c 022B     		cmp	r3, #2
 1463 032e 14BF     		ite	ne
 1464 0330 0023     		movne	r3, #0
 1465 0332 0123     		moveq	r3, #1
 1466 0334 DBB2     		uxtb	r3, r3
 1467 0336 0B20     		movs	r0, #11
 1468 0338 1946     		mov	r1, r3
 1469 033a FFF7FEFF 		bl	_test_assert
 1470 033e 0346     		mov	r3, r0
 1471 0340 002B     		cmp	r3, #0
 1472 0342 00D0     		beq	.L64
 1473              		.loc 1 220 0 is_stmt 0 discriminator 1
 1474 0344 31E0     		b	.L44
 1475              	.L64:
ARM GAS  /home/pauba/tmp/cco0Mhmy.s 			page 27


 1476              	.LBB60:
 1477              		.loc 1 221 0 is_stmt 1
 1478 0346 2023     		movs	r3, #32
 1479              	@ 221 "/home/pauba/ChibiOS-RT/test/testqueues.c" 1
 1480 0348 83F31188 		msr     BASEPRI, r3
 1481              	@ 0 "" 2
 1482              		.thumb
 1483              	.LBE60:
 1484 034c FFF7FEFF 		bl	dbg_check_lock
 1485 0350 184B     		ldr	r3, .L68+4
 1486 0352 9B68     		ldr	r3, [r3, #8]
 1487 0354 002B     		cmp	r3, #0
 1488 0356 14BF     		ite	ne
 1489 0358 0023     		movne	r3, #0
 1490 035a 0123     		moveq	r3, #1
 1491 035c DBB2     		uxtb	r3, r3
 1492 035e 0C20     		movs	r0, #12
 1493 0360 1946     		mov	r1, r3
 1494 0362 FFF7FEFF 		bl	_test_assert
 1495 0366 0346     		mov	r3, r0
 1496 0368 002B     		cmp	r3, #0
 1497 036a 05D0     		beq	.L65
 1498              		.loc 1 221 0 is_stmt 0 discriminator 1
 1499 036c FFF7FEFF 		bl	dbg_check_unlock
 1500              	.LBB61:
 1501 0370 0023     		movs	r3, #0
 1502              	@ 221 "/home/pauba/ChibiOS-RT/test/testqueues.c" 1
 1503 0372 83F31188 		msr     BASEPRI, r3
 1504              	@ 0 "" 2
 1505              		.thumb
 1506              	.LBE61:
 1507 0376 18E0     		b	.L44
 1508              	.L65:
 1509              		.loc 1 221 0 discriminator 2
 1510 0378 FFF7FEFF 		bl	dbg_check_unlock
 1511              	.LBB62:
 1512 037c 0023     		movs	r3, #0
 1513              	@ 221 "/home/pauba/ChibiOS-RT/test/testqueues.c" 1
 1514 037e 83F31188 		msr     BASEPRI, r3
 1515              	@ 0 "" 2
 1516              		.thumb
 1517              	.LBE62:
 1518              		.loc 1 224 0 is_stmt 1 discriminator 2
 1519 0382 0C48     		ldr	r0, .L68+4
 1520 0384 0021     		movs	r1, #0
 1521 0386 0A22     		movs	r2, #10
 1522 0388 FFF7FEFF 		bl	chOQPutTimeout
 1523 038c 0346     		mov	r3, r0
 1524 038e B3F1FF3F 		cmp	r3, #-1
 1525 0392 14BF     		ite	ne
 1526 0394 0023     		movne	r3, #0
 1527 0396 0123     		moveq	r3, #1
 1528 0398 DBB2     		uxtb	r3, r3
 1529 039a 0D20     		movs	r0, #13
 1530 039c 1946     		mov	r1, r3
 1531 039e FFF7FEFF 		bl	_test_assert
 1532 03a2 0346     		mov	r3, r0
ARM GAS  /home/pauba/tmp/cco0Mhmy.s 			page 28


 1533 03a4 002B     		cmp	r3, #0
 1534 03a6 00D0     		beq	.L44
 1535              		.loc 1 224 0 is_stmt 0 discriminator 1
 1536 03a8 00BF     		nop
 1537              	.L44:
 1538              		.loc 1 225 0 is_stmt 1
 1539 03aa 07B0     		add	sp, sp, #28
 1540              		@ sp needed
 1541 03ac 5DF804FB 		ldr	pc, [sp], #4
 1542              	.L69:
 1543              		.align	2
 1544              	.L68:
 1545 03b0 00000000 		.word	wa
 1546 03b4 00000000 		.word	oq
 1547              		.cfi_endproc
 1548              	.LFE13:
 1549              		.size	queues2_execute, .-queues2_execute
 1550              		.global	testqueues2
 1551 03b8 AFF30080 		.section	.rodata
 1551      AFF30080 
 1552 001d 000000   		.align	2
 1553              	.LC2:
 1554 0020 51756575 		.ascii	"Queues, output queues\000"
 1554      65732C20 
 1554      6F757470 
 1554      75742071 
 1554      75657565 
 1555 0036 0000     		.section	.rodata.testqueues2,"a",%progbits
 1556              		.align	2
 1557              		.type	testqueues2, %object
 1558              		.size	testqueues2, 16
 1559              	testqueues2:
 1560 0000 20000000 		.word	.LC2
 1561 0004 00000000 		.word	queues2_setup
 1562 0008 00000000 		.word	0
 1563 000c 00000000 		.word	queues2_execute
 1564              		.global	patternqueues
 1565              		.section	.rodata.patternqueues,"a",%progbits
 1566              		.align	2
 1567              		.type	patternqueues, %object
 1568              		.size	patternqueues, 12
 1569              	patternqueues:
 1570 0000 00000000 		.word	testqueues1
 1571 0004 00000000 		.word	testqueues2
 1572 0008 00000000 		.word	0
 1573              		.text
 1574              	.Letext0:
 1575              		.file 2 "/opt/gcc-arm-none-eabi-4_8-2014q1/lib/gcc/arm-none-eabi/4.8.3/include/stddef.h"
 1576              		.file 3 "/opt/gcc-arm-none-eabi-4_8-2014q1/arm-none-eabi/include/machine/_default_types.h"
 1577              		.file 4 "/opt/gcc-arm-none-eabi-4_8-2014q1/arm-none-eabi/include/stdint.h"
 1578              		.file 5 "/home/pauba/ChibiOS-RT/os/ports/GCC/ARMCMx/chtypes.h"
 1579              		.file 6 "/home/pauba/ChibiOS-RT/os/kernel/include/chlists.h"
 1580              		.file 7 "/home/pauba/ChibiOS-RT/os/kernel/include/chthreads.h"
 1581              		.file 8 "/home/pauba/ChibiOS-RT/os/ports/GCC/ARMCMx/chcore_v7m.h"
 1582              		.file 9 "/home/pauba/ChibiOS-RT/os/kernel/include/chschd.h"
 1583              		.file 10 "/home/pauba/ChibiOS-RT/os/kernel/include/chmtx.h"
 1584              		.file 11 "/home/pauba/ChibiOS-RT/os/kernel/include/chqueues.h"
ARM GAS  /home/pauba/tmp/cco0Mhmy.s 			page 29


 1585              		.file 12 "/home/pauba/ChibiOS-RT/test/test.h"