ARM GAS  /home/pauba/tmp/ccciIW6g.s 			page 1


   1              		.syntax unified
   2              		.cpu cortex-m4
   3              		.fpu softvfp
   4              		.eabi_attribute 20, 1
   5              		.eabi_attribute 21, 1
   6              		.eabi_attribute 23, 3
   7              		.eabi_attribute 24, 1
   8              		.eabi_attribute 25, 1
   9              		.eabi_attribute 26, 1
  10              		.eabi_attribute 30, 6
  11              		.eabi_attribute 34, 1
  12              		.eabi_attribute 18, 4
  13              		.thumb
  14              		.file	"testheap.c"
  15              		.text
  16              	.Ltext0:
  17              		.cfi_sections	.debug_frame
  18              		.section	.bss.test_heap,"aw",%nobits
  19              		.align	3
  20              		.type	test_heap, %object
  21              		.size	test_heap, 32
  22              	test_heap:
  23 0000 00000000 		.space	32
  23      00000000 
  23      00000000 
  23      00000000 
  23      00000000 
  24              		.section	.text.heap1_setup,"ax",%progbits
  25              		.align	2
  26              		.p2align 4,,15
  27              		.thumb
  28              		.thumb_func
  29              		.type	heap1_setup, %function
  30              	heap1_setup:
  31              	.LFB7:
  32              		.file 1 "/home/pauba/ChibiOS-RT/test/testheap.c"
  33              		.loc 1 64 0
  34              		.cfi_startproc
  35              		@ args = 0, pretend = 0, frame = 0
  36              		@ frame_needed = 0, uses_anonymous_args = 0
  37 0000 08B5     		push	{r3, lr}
  38              		.cfi_def_cfa_offset 8
  39              		.cfi_offset 3, -8
  40              		.cfi_offset 14, -4
  41              		.loc 1 66 0
  42 0002 0348     		ldr	r0, .L2
  43 0004 0349     		ldr	r1, .L2+4
  44 0006 4FF4D262 		mov	r2, #1680
  45 000a FFF7FEFF 		bl	chHeapInit
  46              		.loc 1 67 0
  47 000e 08BD     		pop	{r3, pc}
  48              	.L3:
  49              		.align	2
  50              	.L2:
  51 0010 00000000 		.word	test_heap
  52 0014 00000000 		.word	test
  53              		.cfi_endproc
ARM GAS  /home/pauba/tmp/ccciIW6g.s 			page 2


  54              	.LFE7:
  55              		.size	heap1_setup, .-heap1_setup
  56 0018 AFF30080 		.section	.text.heap1_execute,"ax",%progbits
  56      AFF30080 
  57              		.align	2
  58              		.p2align 4,,15
  59              		.thumb
  60              		.thumb_func
  61              		.type	heap1_execute, %function
  62              	heap1_execute:
  63              	.LFB8:
  64              		.loc 1 69 0
  65              		.cfi_startproc
  66              		@ args = 0, pretend = 0, frame = 24
  67              		@ frame_needed = 0, uses_anonymous_args = 0
  68 0000 00B5     		push	{lr}
  69              		.cfi_def_cfa_offset 4
  70              		.cfi_offset 14, -4
  71 0002 87B0     		sub	sp, sp, #28
  72              		.cfi_def_cfa_offset 32
  73              		.loc 1 74 0
  74 0004 FFF7FEFF 		bl	chCoreStatus
  75              		.loc 1 80 0
  76 0008 01AB     		add	r3, sp, #4
  77 000a 0020     		movs	r0, #0
  78 000c 1946     		mov	r1, r3
  79 000e FFF7FEFF 		bl	chHeapStatus
  80              		.loc 1 81 0
  81 0012 0020     		movs	r0, #0
  82 0014 1021     		movs	r1, #16
  83 0016 FFF7FEFF 		bl	chHeapAlloc
  84 001a 0590     		str	r0, [sp, #20]
  85              		.loc 1 82 0
  86 001c 059B     		ldr	r3, [sp, #20]
  87 001e 002B     		cmp	r3, #0
  88 0020 0CBF     		ite	eq
  89 0022 0023     		moveq	r3, #0
  90 0024 0123     		movne	r3, #1
  91 0026 DBB2     		uxtb	r3, r3
  92 0028 0120     		movs	r0, #1
  93 002a 1946     		mov	r1, r3
  94 002c FFF7FEFF 		bl	_test_assert
  95 0030 0346     		mov	r3, r0
  96 0032 002B     		cmp	r3, #0
  97 0034 00D0     		beq	.L5
  98              		.loc 1 82 0 is_stmt 0 discriminator 1
  99 0036 4EE1     		b	.L4
 100              	.L5:
 101              		.loc 1 83 0 is_stmt 1
 102 0038 0598     		ldr	r0, [sp, #20]
 103 003a FFF7FEFF 		bl	chHeapFree
 104              		.loc 1 84 0
 105 003e 0020     		movs	r0, #0
 106 0040 6FF0FF01 		mvn	r1, #255
 107 0044 FFF7FEFF 		bl	chHeapAlloc
 108 0048 0590     		str	r0, [sp, #20]
 109              		.loc 1 85 0
ARM GAS  /home/pauba/tmp/ccciIW6g.s 			page 3


 110 004a 059B     		ldr	r3, [sp, #20]
 111 004c 002B     		cmp	r3, #0
 112 004e 14BF     		ite	ne
 113 0050 0023     		movne	r3, #0
 114 0052 0123     		moveq	r3, #1
 115 0054 DBB2     		uxtb	r3, r3
 116 0056 0220     		movs	r0, #2
 117 0058 1946     		mov	r1, r3
 118 005a FFF7FEFF 		bl	_test_assert
 119 005e 0346     		mov	r3, r0
 120 0060 002B     		cmp	r3, #0
 121 0062 00D0     		beq	.L7
 122              		.loc 1 85 0 is_stmt 0 discriminator 1
 123 0064 37E1     		b	.L4
 124              	.L7:
 125              		.loc 1 88 0 is_stmt 1
 126 0066 01AB     		add	r3, sp, #4
 127 0068 9C48     		ldr	r0, .L22
 128 006a 1946     		mov	r1, r3
 129 006c FFF7FEFF 		bl	chHeapStatus
 130              		.loc 1 91 0
 131 0070 9A48     		ldr	r0, .L22
 132 0072 1021     		movs	r1, #16
 133 0074 FFF7FEFF 		bl	chHeapAlloc
 134 0078 0590     		str	r0, [sp, #20]
 135              		.loc 1 92 0
 136 007a 9848     		ldr	r0, .L22
 137 007c 1021     		movs	r1, #16
 138 007e FFF7FEFF 		bl	chHeapAlloc
 139 0082 0490     		str	r0, [sp, #16]
 140              		.loc 1 93 0
 141 0084 9548     		ldr	r0, .L22
 142 0086 1021     		movs	r1, #16
 143 0088 FFF7FEFF 		bl	chHeapAlloc
 144 008c 0390     		str	r0, [sp, #12]
 145              		.loc 1 94 0
 146 008e 0598     		ldr	r0, [sp, #20]
 147 0090 FFF7FEFF 		bl	chHeapFree
 148              		.loc 1 95 0
 149 0094 0498     		ldr	r0, [sp, #16]
 150 0096 FFF7FEFF 		bl	chHeapFree
 151              		.loc 1 96 0
 152 009a 0398     		ldr	r0, [sp, #12]
 153 009c FFF7FEFF 		bl	chHeapFree
 154              		.loc 1 97 0
 155 00a0 02AB     		add	r3, sp, #8
 156 00a2 8E48     		ldr	r0, .L22
 157 00a4 1946     		mov	r1, r3
 158 00a6 FFF7FEFF 		bl	chHeapStatus
 159 00aa 0346     		mov	r3, r0
 160 00ac 012B     		cmp	r3, #1
 161 00ae 14BF     		ite	ne
 162 00b0 0023     		movne	r3, #0
 163 00b2 0123     		moveq	r3, #1
 164 00b4 DBB2     		uxtb	r3, r3
 165 00b6 0320     		movs	r0, #3
 166 00b8 1946     		mov	r1, r3
ARM GAS  /home/pauba/tmp/ccciIW6g.s 			page 4


 167 00ba FFF7FEFF 		bl	_test_assert
 168 00be 0346     		mov	r3, r0
 169 00c0 002B     		cmp	r3, #0
 170 00c2 00D0     		beq	.L8
 171              		.loc 1 97 0 is_stmt 0 discriminator 1
 172 00c4 07E1     		b	.L4
 173              	.L8:
 174              		.loc 1 100 0 is_stmt 1
 175 00c6 8548     		ldr	r0, .L22
 176 00c8 1021     		movs	r1, #16
 177 00ca FFF7FEFF 		bl	chHeapAlloc
 178 00ce 0590     		str	r0, [sp, #20]
 179              		.loc 1 101 0
 180 00d0 8248     		ldr	r0, .L22
 181 00d2 1021     		movs	r1, #16
 182 00d4 FFF7FEFF 		bl	chHeapAlloc
 183 00d8 0490     		str	r0, [sp, #16]
 184              		.loc 1 102 0
 185 00da 8048     		ldr	r0, .L22
 186 00dc 1021     		movs	r1, #16
 187 00de FFF7FEFF 		bl	chHeapAlloc
 188 00e2 0390     		str	r0, [sp, #12]
 189              		.loc 1 103 0
 190 00e4 0398     		ldr	r0, [sp, #12]
 191 00e6 FFF7FEFF 		bl	chHeapFree
 192              		.loc 1 104 0
 193 00ea 0498     		ldr	r0, [sp, #16]
 194 00ec FFF7FEFF 		bl	chHeapFree
 195              		.loc 1 105 0
 196 00f0 0598     		ldr	r0, [sp, #20]
 197 00f2 FFF7FEFF 		bl	chHeapFree
 198              		.loc 1 106 0
 199 00f6 02AB     		add	r3, sp, #8
 200 00f8 7848     		ldr	r0, .L22
 201 00fa 1946     		mov	r1, r3
 202 00fc FFF7FEFF 		bl	chHeapStatus
 203 0100 0346     		mov	r3, r0
 204 0102 012B     		cmp	r3, #1
 205 0104 14BF     		ite	ne
 206 0106 0023     		movne	r3, #0
 207 0108 0123     		moveq	r3, #1
 208 010a DBB2     		uxtb	r3, r3
 209 010c 0420     		movs	r0, #4
 210 010e 1946     		mov	r1, r3
 211 0110 FFF7FEFF 		bl	_test_assert
 212 0114 0346     		mov	r3, r0
 213 0116 002B     		cmp	r3, #0
 214 0118 00D0     		beq	.L9
 215              		.loc 1 106 0 is_stmt 0 discriminator 1
 216 011a DCE0     		b	.L4
 217              	.L9:
 218              		.loc 1 109 0 is_stmt 1
 219 011c 6F48     		ldr	r0, .L22
 220 011e 1121     		movs	r1, #17
 221 0120 FFF7FEFF 		bl	chHeapAlloc
 222 0124 0590     		str	r0, [sp, #20]
 223              		.loc 1 110 0
ARM GAS  /home/pauba/tmp/ccciIW6g.s 			page 5


 224 0126 6D48     		ldr	r0, .L22
 225 0128 1021     		movs	r1, #16
 226 012a FFF7FEFF 		bl	chHeapAlloc
 227 012e 0490     		str	r0, [sp, #16]
 228              		.loc 1 111 0
 229 0130 0598     		ldr	r0, [sp, #20]
 230 0132 FFF7FEFF 		bl	chHeapFree
 231              		.loc 1 112 0
 232 0136 02AB     		add	r3, sp, #8
 233 0138 6848     		ldr	r0, .L22
 234 013a 1946     		mov	r1, r3
 235 013c FFF7FEFF 		bl	chHeapStatus
 236 0140 0346     		mov	r3, r0
 237 0142 022B     		cmp	r3, #2
 238 0144 14BF     		ite	ne
 239 0146 0023     		movne	r3, #0
 240 0148 0123     		moveq	r3, #1
 241 014a DBB2     		uxtb	r3, r3
 242 014c 0520     		movs	r0, #5
 243 014e 1946     		mov	r1, r3
 244 0150 FFF7FEFF 		bl	_test_assert
 245 0154 0346     		mov	r3, r0
 246 0156 002B     		cmp	r3, #0
 247 0158 00D0     		beq	.L10
 248              		.loc 1 112 0 is_stmt 0 discriminator 1
 249 015a BCE0     		b	.L4
 250              	.L10:
 251              		.loc 1 113 0 is_stmt 1
 252 015c 5F48     		ldr	r0, .L22
 253 015e 1021     		movs	r1, #16
 254 0160 FFF7FEFF 		bl	chHeapAlloc
 255 0164 0590     		str	r0, [sp, #20]
 256              		.loc 1 116 0
 257 0166 02AB     		add	r3, sp, #8
 258 0168 5C48     		ldr	r0, .L22
 259 016a 1946     		mov	r1, r3
 260 016c FFF7FEFF 		bl	chHeapStatus
 261 0170 0346     		mov	r3, r0
 262 0172 012B     		cmp	r3, #1
 263 0174 07D0     		beq	.L11
 264              		.loc 1 116 0 is_stmt 0 discriminator 2
 265 0176 02AB     		add	r3, sp, #8
 266 0178 5848     		ldr	r0, .L22
 267 017a 1946     		mov	r1, r3
 268 017c FFF7FEFF 		bl	chHeapStatus
 269 0180 0346     		mov	r3, r0
 270 0182 022B     		cmp	r3, #2
 271 0184 01D1     		bne	.L12
 272              	.L11:
 273              		.loc 1 116 0 discriminator 1
 274 0186 0123     		movs	r3, #1
 275 0188 00E0     		b	.L13
 276              	.L12:
 277              		.loc 1 116 0 discriminator 3
 278 018a 0023     		movs	r3, #0
 279              	.L13:
 280              		.loc 1 116 0 discriminator 4
ARM GAS  /home/pauba/tmp/ccciIW6g.s 			page 6


 281 018c 03F00103 		and	r3, r3, #1
 282 0190 DBB2     		uxtb	r3, r3
 283 0192 0620     		movs	r0, #6
 284 0194 1946     		mov	r1, r3
 285 0196 FFF7FEFF 		bl	_test_assert
 286 019a 0346     		mov	r3, r0
 287 019c 002B     		cmp	r3, #0
 288 019e 00D0     		beq	.L14
 289              		.loc 1 116 0 discriminator 1
 290 01a0 99E0     		b	.L4
 291              	.L14:
 292              		.loc 1 118 0 is_stmt 1
 293 01a2 0498     		ldr	r0, [sp, #16]
 294 01a4 FFF7FEFF 		bl	chHeapFree
 295              		.loc 1 119 0
 296 01a8 0598     		ldr	r0, [sp, #20]
 297 01aa FFF7FEFF 		bl	chHeapFree
 298              		.loc 1 120 0
 299 01ae 02AB     		add	r3, sp, #8
 300 01b0 4A48     		ldr	r0, .L22
 301 01b2 1946     		mov	r1, r3
 302 01b4 FFF7FEFF 		bl	chHeapStatus
 303 01b8 0346     		mov	r3, r0
 304 01ba 012B     		cmp	r3, #1
 305 01bc 14BF     		ite	ne
 306 01be 0023     		movne	r3, #0
 307 01c0 0123     		moveq	r3, #1
 308 01c2 DBB2     		uxtb	r3, r3
 309 01c4 0720     		movs	r0, #7
 310 01c6 1946     		mov	r1, r3
 311 01c8 FFF7FEFF 		bl	_test_assert
 312 01cc 0346     		mov	r3, r0
 313 01ce 002B     		cmp	r3, #0
 314 01d0 00D0     		beq	.L15
 315              		.loc 1 120 0 is_stmt 0 discriminator 1
 316 01d2 80E0     		b	.L4
 317              	.L15:
 318              		.loc 1 123 0 is_stmt 1
 319 01d4 4148     		ldr	r0, .L22
 320 01d6 1021     		movs	r1, #16
 321 01d8 FFF7FEFF 		bl	chHeapAlloc
 322 01dc 0590     		str	r0, [sp, #20]
 323              		.loc 1 124 0
 324 01de 3F48     		ldr	r0, .L22
 325 01e0 1021     		movs	r1, #16
 326 01e2 FFF7FEFF 		bl	chHeapAlloc
 327 01e6 0490     		str	r0, [sp, #16]
 328              		.loc 1 125 0
 329 01e8 0598     		ldr	r0, [sp, #20]
 330 01ea FFF7FEFF 		bl	chHeapFree
 331              		.loc 1 126 0
 332 01ee 02AB     		add	r3, sp, #8
 333 01f0 3A48     		ldr	r0, .L22
 334 01f2 1946     		mov	r1, r3
 335 01f4 FFF7FEFF 		bl	chHeapStatus
 336 01f8 0346     		mov	r3, r0
 337 01fa 022B     		cmp	r3, #2
ARM GAS  /home/pauba/tmp/ccciIW6g.s 			page 7


 338 01fc 14BF     		ite	ne
 339 01fe 0023     		movne	r3, #0
 340 0200 0123     		moveq	r3, #1
 341 0202 DBB2     		uxtb	r3, r3
 342 0204 0820     		movs	r0, #8
 343 0206 1946     		mov	r1, r3
 344 0208 FFF7FEFF 		bl	_test_assert
 345 020c 0346     		mov	r3, r0
 346 020e 002B     		cmp	r3, #0
 347 0210 00D0     		beq	.L16
 348              		.loc 1 126 0 is_stmt 0 discriminator 1
 349 0212 60E0     		b	.L4
 350              	.L16:
 351              		.loc 1 127 0 is_stmt 1
 352 0214 3148     		ldr	r0, .L22
 353 0216 2021     		movs	r1, #32
 354 0218 FFF7FEFF 		bl	chHeapAlloc
 355 021c 0590     		str	r0, [sp, #20]
 356              		.loc 1 128 0
 357 021e 0598     		ldr	r0, [sp, #20]
 358 0220 FFF7FEFF 		bl	chHeapFree
 359              		.loc 1 129 0
 360 0224 0498     		ldr	r0, [sp, #16]
 361 0226 FFF7FEFF 		bl	chHeapFree
 362              		.loc 1 130 0
 363 022a 02AB     		add	r3, sp, #8
 364 022c 2B48     		ldr	r0, .L22
 365 022e 1946     		mov	r1, r3
 366 0230 FFF7FEFF 		bl	chHeapStatus
 367 0234 0346     		mov	r3, r0
 368 0236 012B     		cmp	r3, #1
 369 0238 14BF     		ite	ne
 370 023a 0023     		movne	r3, #0
 371 023c 0123     		moveq	r3, #1
 372 023e DBB2     		uxtb	r3, r3
 373 0240 0920     		movs	r0, #9
 374 0242 1946     		mov	r1, r3
 375 0244 FFF7FEFF 		bl	_test_assert
 376 0248 0346     		mov	r3, r0
 377 024a 002B     		cmp	r3, #0
 378 024c 00D0     		beq	.L17
 379              		.loc 1 130 0 is_stmt 0 discriminator 1
 380 024e 42E0     		b	.L4
 381              	.L17:
 382              		.loc 1 133 0 is_stmt 1
 383 0250 02AB     		add	r3, sp, #8
 384 0252 2248     		ldr	r0, .L22
 385 0254 1946     		mov	r1, r3
 386 0256 FFF7FEFF 		bl	chHeapStatus
 387              		.loc 1 134 0
 388 025a 029B     		ldr	r3, [sp, #8]
 389 025c 1F48     		ldr	r0, .L22
 390 025e 1946     		mov	r1, r3
 391 0260 FFF7FEFF 		bl	chHeapAlloc
 392 0264 0590     		str	r0, [sp, #20]
 393              		.loc 1 135 0
 394 0266 02AB     		add	r3, sp, #8
ARM GAS  /home/pauba/tmp/ccciIW6g.s 			page 8


 395 0268 1C48     		ldr	r0, .L22
 396 026a 1946     		mov	r1, r3
 397 026c FFF7FEFF 		bl	chHeapStatus
 398 0270 0346     		mov	r3, r0
 399 0272 002B     		cmp	r3, #0
 400 0274 14BF     		ite	ne
 401 0276 0023     		movne	r3, #0
 402 0278 0123     		moveq	r3, #1
 403 027a DBB2     		uxtb	r3, r3
 404 027c 0A20     		movs	r0, #10
 405 027e 1946     		mov	r1, r3
 406 0280 FFF7FEFF 		bl	_test_assert
 407 0284 0346     		mov	r3, r0
 408 0286 002B     		cmp	r3, #0
 409 0288 00D0     		beq	.L18
 410              		.loc 1 135 0 is_stmt 0 discriminator 1
 411 028a 24E0     		b	.L4
 412              	.L18:
 413              		.loc 1 136 0 is_stmt 1
 414 028c 0598     		ldr	r0, [sp, #20]
 415 028e FFF7FEFF 		bl	chHeapFree
 416              		.loc 1 138 0
 417 0292 02AB     		add	r3, sp, #8
 418 0294 1148     		ldr	r0, .L22
 419 0296 1946     		mov	r1, r3
 420 0298 FFF7FEFF 		bl	chHeapStatus
 421 029c 0346     		mov	r3, r0
 422 029e 012B     		cmp	r3, #1
 423 02a0 14BF     		ite	ne
 424 02a2 0023     		movne	r3, #0
 425 02a4 0123     		moveq	r3, #1
 426 02a6 DBB2     		uxtb	r3, r3
 427 02a8 0B20     		movs	r0, #11
 428 02aa 1946     		mov	r1, r3
 429 02ac FFF7FEFF 		bl	_test_assert
 430 02b0 0346     		mov	r3, r0
 431 02b2 002B     		cmp	r3, #0
 432 02b4 00D0     		beq	.L19
 433              		.loc 1 138 0 is_stmt 0 discriminator 1
 434 02b6 0EE0     		b	.L4
 435              	.L19:
 436              		.loc 1 139 0 is_stmt 1
 437 02b8 029A     		ldr	r2, [sp, #8]
 438 02ba 019B     		ldr	r3, [sp, #4]
 439 02bc 9A42     		cmp	r2, r3
 440 02be 14BF     		ite	ne
 441 02c0 0023     		movne	r3, #0
 442 02c2 0123     		moveq	r3, #1
 443 02c4 DBB2     		uxtb	r3, r3
 444 02c6 0C20     		movs	r0, #12
 445 02c8 1946     		mov	r1, r3
 446 02ca FFF7FEFF 		bl	_test_assert
 447 02ce 0346     		mov	r3, r0
 448 02d0 002B     		cmp	r3, #0
 449 02d2 00D0     		beq	.L4
 450 02d4 00BF     		nop
 451              	.L4:
ARM GAS  /home/pauba/tmp/ccciIW6g.s 			page 9


 452              		.loc 1 140 0
 453 02d6 07B0     		add	sp, sp, #28
 454              		@ sp needed
 455 02d8 5DF804FB 		ldr	pc, [sp], #4
 456              	.L23:
 457              		.align	2
 458              	.L22:
 459 02dc 00000000 		.word	test_heap
 460              		.cfi_endproc
 461              	.LFE8:
 462              		.size	heap1_execute, .-heap1_execute
 463              		.global	testheap1
 464              		.section	.rodata
 465              		.align	2
 466              	.LC0:
 467 0000 48656170 		.ascii	"Heap, allocation and fragmentation test\000"
 467      2C20616C 
 467      6C6F6361 
 467      74696F6E 
 467      20616E64 
 468              		.section	.rodata.testheap1,"a",%progbits
 469              		.align	2
 470              		.type	testheap1, %object
 471              		.size	testheap1, 16
 472              	testheap1:
 473 0000 00000000 		.word	.LC0
 474 0004 00000000 		.word	heap1_setup
 475 0008 00000000 		.word	0
 476 000c 00000000 		.word	heap1_execute
 477              		.global	patternheap
 478              		.section	.rodata.patternheap,"a",%progbits
 479              		.align	2
 480              		.type	patternheap, %object
 481              		.size	patternheap, 8
 482              	patternheap:
 483 0000 00000000 		.word	testheap1
 484 0004 00000000 		.word	0
 485              		.text
 486              	.Letext0:
 487              		.file 2 "/opt/gcc-arm-none-eabi-4_8-2014q1/lib/gcc/arm-none-eabi/4.8.3/include/stddef.h"
 488              		.file 3 "/opt/gcc-arm-none-eabi-4_8-2014q1/arm-none-eabi/include/machine/_default_types.h"
 489              		.file 4 "/opt/gcc-arm-none-eabi-4_8-2014q1/arm-none-eabi/include/stdint.h"
 490              		.file 5 "/home/pauba/ChibiOS-RT/os/ports/GCC/ARMCMx/chtypes.h"
 491              		.file 6 "/home/pauba/ChibiOS-RT/os/kernel/include/chlists.h"
 492              		.file 7 "/home/pauba/ChibiOS-RT/os/kernel/include/chthreads.h"
 493              		.file 8 "/home/pauba/ChibiOS-RT/os/ports/GCC/ARMCMx/chcore_v7m.h"
 494              		.file 9 "/home/pauba/ChibiOS-RT/os/kernel/include/chmtx.h"
 495              		.file 10 "/home/pauba/ChibiOS-RT/os/kernel/include/chmemcore.h"
 496              		.file 11 "/home/pauba/ChibiOS-RT/os/kernel/include/chheap.h"
 497              		.file 12 "/home/pauba/ChibiOS-RT/test/test.h"