ARM GAS  /home/pauba/tmp/cczXe0di.s 			page 1


   1              		.syntax unified
   2              		.cpu cortex-m4
   3              		.fpu softvfp
   4              		.eabi_attribute 20, 1
   5              		.eabi_attribute 21, 1
   6              		.eabi_attribute 23, 3
   7              		.eabi_attribute 24, 1
   8              		.eabi_attribute 25, 1
   9              		.eabi_attribute 26, 1
  10              		.eabi_attribute 30, 6
  11              		.eabi_attribute 34, 1
  12              		.eabi_attribute 18, 4
  13              		.thumb
  14              		.file	"testevt.c"
  15              		.text
  16              	.Ltext0:
  17              		.cfi_sections	.debug_frame
  18              		.section	.data.es1,"aw",%progbits
  19              		.align	2
  20              		.type	es1, %object
  21              		.size	es1, 4
  22              	es1:
  23 0000 00000000 		.word	es1
  24              		.section	.data.es2,"aw",%progbits
  25              		.align	2
  26              		.type	es2, %object
  27              		.size	es2, 4
  28              	es2:
  29 0000 00000000 		.word	es2
  30              		.section	.text.evt1_setup,"ax",%progbits
  31              		.align	2
  32              		.p2align 4,,15
  33              		.thumb
  34              		.thumb_func
  35              		.type	evt1_setup, %function
  36              	evt1_setup:
  37              	.LFB7:
  38              		.file 1 "/home/pauba/ChibiOS-RT/test/testevt.c"
  39              		.loc 1 75 0
  40              		.cfi_startproc
  41              		@ args = 0, pretend = 0, frame = 0
  42              		@ frame_needed = 0, uses_anonymous_args = 0
  43 0000 08B5     		push	{r3, lr}
  44              		.cfi_def_cfa_offset 8
  45              		.cfi_offset 3, -8
  46              		.cfi_offset 14, -4
  47              		.loc 1 77 0
  48 0002 4FF0FF30 		mov	r0, #-1
  49 0006 FFF7FEFF 		bl	chEvtGetAndClearEvents
  50              		.loc 1 78 0
  51 000a 08BD     		pop	{r3, pc}
  52              		.cfi_endproc
  53              	.LFE7:
  54              		.size	evt1_setup, .-evt1_setup
  55 000c AFF30080 		.section	.text.h1,"ax",%progbits
  56              		.align	2
  57              		.p2align 4,,15
ARM GAS  /home/pauba/tmp/cczXe0di.s 			page 2


  58              		.thumb
  59              		.thumb_func
  60              		.type	h1, %function
  61              	h1:
  62              	.LFB8:
  63              		.loc 1 80 0
  64              		.cfi_startproc
  65              		@ args = 0, pretend = 0, frame = 8
  66              		@ frame_needed = 0, uses_anonymous_args = 0
  67 0000 00B5     		push	{lr}
  68              		.cfi_def_cfa_offset 4
  69              		.cfi_offset 14, -4
  70 0002 83B0     		sub	sp, sp, #12
  71              		.cfi_def_cfa_offset 16
  72 0004 0190     		str	r0, [sp, #4]
  73              		.loc 1 80 0
  74 0006 4120     		movs	r0, #65
  75 0008 FFF7FEFF 		bl	test_emit_token
  76 000c 03B0     		add	sp, sp, #12
  77              		@ sp needed
  78 000e 5DF804FB 		ldr	pc, [sp], #4
  79              		.cfi_endproc
  80              	.LFE8:
  81              		.size	h1, .-h1
  82 0012 00BFAFF3 		.section	.text.h2,"ax",%progbits
  82      0080AFF3 
  82      0080AFF3 
  82      0080
  83              		.align	2
  84              		.p2align 4,,15
  85              		.thumb
  86              		.thumb_func
  87              		.type	h2, %function
  88              	h2:
  89              	.LFB9:
  90              		.loc 1 81 0
  91              		.cfi_startproc
  92              		@ args = 0, pretend = 0, frame = 8
  93              		@ frame_needed = 0, uses_anonymous_args = 0
  94 0000 00B5     		push	{lr}
  95              		.cfi_def_cfa_offset 4
  96              		.cfi_offset 14, -4
  97 0002 83B0     		sub	sp, sp, #12
  98              		.cfi_def_cfa_offset 16
  99 0004 0190     		str	r0, [sp, #4]
 100              		.loc 1 81 0
 101 0006 4220     		movs	r0, #66
 102 0008 FFF7FEFF 		bl	test_emit_token
 103 000c 03B0     		add	sp, sp, #12
 104              		@ sp needed
 105 000e 5DF804FB 		ldr	pc, [sp], #4
 106              		.cfi_endproc
 107              	.LFE9:
 108              		.size	h2, .-h2
 109 0012 00BFAFF3 		.section	.text.h3,"ax",%progbits
 109      0080AFF3 
 109      0080AFF3 
ARM GAS  /home/pauba/tmp/cczXe0di.s 			page 3


 109      0080
 110              		.align	2
 111              		.p2align 4,,15
 112              		.thumb
 113              		.thumb_func
 114              		.type	h3, %function
 115              	h3:
 116              	.LFB10:
 117              		.loc 1 82 0
 118              		.cfi_startproc
 119              		@ args = 0, pretend = 0, frame = 8
 120              		@ frame_needed = 0, uses_anonymous_args = 0
 121 0000 00B5     		push	{lr}
 122              		.cfi_def_cfa_offset 4
 123              		.cfi_offset 14, -4
 124 0002 83B0     		sub	sp, sp, #12
 125              		.cfi_def_cfa_offset 16
 126 0004 0190     		str	r0, [sp, #4]
 127              		.loc 1 82 0
 128 0006 4320     		movs	r0, #67
 129 0008 FFF7FEFF 		bl	test_emit_token
 130 000c 03B0     		add	sp, sp, #12
 131              		@ sp needed
 132 000e 5DF804FB 		ldr	pc, [sp], #4
 133              		.cfi_endproc
 134              	.LFE10:
 135              		.size	h3, .-h3
 136 0012 00BFAFF3 		.section	.rodata.evhndl,"a",%progbits
 136      0080AFF3 
 136      0080AFF3 
 136      0080
 137              		.align	2
 138              		.type	evhndl, %object
 139              		.size	evhndl, 12
 140              	evhndl:
 141 0000 00000000 		.word	h1
 142 0004 00000000 		.word	h2
 143 0008 00000000 		.word	h3
 144              		.section	.rodata
 145              		.align	2
 146              	.LC0:
 147 0000 41424300 		.ascii	"ABC\000"
 148              		.section	.text.evt1_execute,"ax",%progbits
 149              		.align	2
 150              		.p2align 4,,15
 151              		.thumb
 152              		.thumb_func
 153              		.type	evt1_execute, %function
 154              	evt1_execute:
 155              	.LFB11:
 156              		.loc 1 85 0
 157              		.cfi_startproc
 158              		@ args = 0, pretend = 0, frame = 32
 159              		@ frame_needed = 0, uses_anonymous_args = 0
 160 0000 00B5     		push	{lr}
 161              		.cfi_def_cfa_offset 4
 162              		.cfi_offset 14, -4
ARM GAS  /home/pauba/tmp/cczXe0di.s 			page 4


 163 0002 89B0     		sub	sp, sp, #36
 164              		.cfi_def_cfa_offset 40
 165              		.loc 1 91 0
 166 0004 2B4B     		ldr	r3, .L12
 167 0006 2B4A     		ldr	r2, .L12
 168 0008 1A60     		str	r2, [r3]
 169              		.loc 1 92 0
 170 000a 04AB     		add	r3, sp, #16
 171 000c 2948     		ldr	r0, .L12
 172 000e 1946     		mov	r1, r3
 173 0010 0122     		movs	r2, #1
 174 0012 FFF7FEFF 		bl	chEvtRegisterMask
 175              		.loc 1 93 0
 176 0016 6B46     		mov	r3, sp
 177 0018 2648     		ldr	r0, .L12
 178 001a 1946     		mov	r1, r3
 179 001c 0222     		movs	r2, #2
 180 001e FFF7FEFF 		bl	chEvtRegisterMask
 181              		.loc 1 94 0
 182 0022 244B     		ldr	r3, .L12
 183 0024 1A68     		ldr	r2, [r3]
 184 0026 234B     		ldr	r3, .L12
 185 0028 9A42     		cmp	r2, r3
 186 002a 0CBF     		ite	eq
 187 002c 0023     		moveq	r3, #0
 188 002e 0123     		movne	r3, #1
 189 0030 DBB2     		uxtb	r3, r3
 190 0032 0120     		movs	r0, #1
 191 0034 1946     		mov	r1, r3
 192 0036 FFF7FEFF 		bl	_test_assert
 193 003a 0346     		mov	r3, r0
 194 003c 002B     		cmp	r3, #0
 195 003e 00D0     		beq	.L6
 196              		.loc 1 94 0 is_stmt 0 discriminator 1
 197 0040 35E0     		b	.L5
 198              	.L6:
 199              		.loc 1 95 0 is_stmt 1
 200 0042 04AB     		add	r3, sp, #16
 201 0044 1B48     		ldr	r0, .L12
 202 0046 1946     		mov	r1, r3
 203 0048 FFF7FEFF 		bl	chEvtUnregister
 204              		.loc 1 96 0
 205 004c 194B     		ldr	r3, .L12
 206 004e 1A68     		ldr	r2, [r3]
 207 0050 184B     		ldr	r3, .L12
 208 0052 9A42     		cmp	r2, r3
 209 0054 0CBF     		ite	eq
 210 0056 0023     		moveq	r3, #0
 211 0058 0123     		movne	r3, #1
 212 005a DBB2     		uxtb	r3, r3
 213 005c 0220     		movs	r0, #2
 214 005e 1946     		mov	r1, r3
 215 0060 FFF7FEFF 		bl	_test_assert
 216 0064 0346     		mov	r3, r0
 217 0066 002B     		cmp	r3, #0
 218 0068 00D0     		beq	.L8
 219              		.loc 1 96 0 is_stmt 0 discriminator 1
ARM GAS  /home/pauba/tmp/cczXe0di.s 			page 5


 220 006a 20E0     		b	.L5
 221              	.L8:
 222              		.loc 1 97 0 is_stmt 1
 223 006c 6B46     		mov	r3, sp
 224 006e 1148     		ldr	r0, .L12
 225 0070 1946     		mov	r1, r3
 226 0072 FFF7FEFF 		bl	chEvtUnregister
 227              		.loc 1 98 0
 228 0076 0F4B     		ldr	r3, .L12
 229 0078 1A68     		ldr	r2, [r3]
 230 007a 0E4B     		ldr	r3, .L12
 231 007c 9A42     		cmp	r2, r3
 232 007e 14BF     		ite	ne
 233 0080 0023     		movne	r3, #0
 234 0082 0123     		moveq	r3, #1
 235 0084 DBB2     		uxtb	r3, r3
 236 0086 0320     		movs	r0, #3
 237 0088 1946     		mov	r1, r3
 238 008a FFF7FEFF 		bl	_test_assert
 239 008e 0346     		mov	r3, r0
 240 0090 002B     		cmp	r3, #0
 241 0092 00D0     		beq	.L9
 242              		.loc 1 98 0 is_stmt 0 discriminator 1
 243 0094 0BE0     		b	.L5
 244              	.L9:
 245              		.loc 1 103 0 is_stmt 1
 246 0096 0848     		ldr	r0, .L12+4
 247 0098 0721     		movs	r1, #7
 248 009a FFF7FEFF 		bl	chEvtDispatch
 249              		.loc 1 104 0
 250 009e 0420     		movs	r0, #4
 251 00a0 0649     		ldr	r1, .L12+8
 252 00a2 FFF7FEFF 		bl	_test_assert_sequence
 253 00a6 0346     		mov	r3, r0
 254 00a8 002B     		cmp	r3, #0
 255 00aa 00D0     		beq	.L5
 256 00ac 00BF     		nop
 257              	.L5:
 258              		.loc 1 105 0
 259 00ae 09B0     		add	sp, sp, #36
 260              		@ sp needed
 261 00b0 5DF804FB 		ldr	pc, [sp], #4
 262              	.L13:
 263              		.align	2
 264              	.L12:
 265 00b4 00000000 		.word	es1
 266 00b8 00000000 		.word	evhndl
 267 00bc 00000000 		.word	.LC0
 268              		.cfi_endproc
 269              	.LFE11:
 270              		.size	evt1_execute, .-evt1_execute
 271              		.global	testevt1
 272              		.section	.rodata
 273              		.align	2
 274              	.LC1:
 275 0004 4576656E 		.ascii	"Events, registration and dispatch\000"
 275      74732C20 
ARM GAS  /home/pauba/tmp/cczXe0di.s 			page 6


 275      72656769 
 275      73747261 
 275      74696F6E 
 276              		.section	.rodata.testevt1,"a",%progbits
 277              		.align	2
 278              		.type	testevt1, %object
 279              		.size	testevt1, 16
 280              	testevt1:
 281 0000 04000000 		.word	.LC1
 282 0004 00000000 		.word	evt1_setup
 283 0008 00000000 		.word	0
 284 000c 00000000 		.word	evt1_execute
 285              		.section	.text.evt2_setup,"ax",%progbits
 286              		.align	2
 287              		.p2align 4,,15
 288              		.thumb
 289              		.thumb_func
 290              		.type	evt2_setup, %function
 291              	evt2_setup:
 292              	.LFB12:
 293              		.loc 1 128 0
 294              		.cfi_startproc
 295              		@ args = 0, pretend = 0, frame = 0
 296              		@ frame_needed = 0, uses_anonymous_args = 0
 297 0000 08B5     		push	{r3, lr}
 298              		.cfi_def_cfa_offset 8
 299              		.cfi_offset 3, -8
 300              		.cfi_offset 14, -4
 301              		.loc 1 130 0
 302 0002 4FF0FF30 		mov	r0, #-1
 303 0006 FFF7FEFF 		bl	chEvtGetAndClearEvents
 304              		.loc 1 131 0
 305 000a 08BD     		pop	{r3, pc}
 306              		.cfi_endproc
 307              	.LFE12:
 308              		.size	evt2_setup, .-evt2_setup
 309              		.section	.text.thread1,"ax",%progbits
 310              		.align	2
 311              		.p2align 4,,15
 312              		.thumb
 313              		.thumb_func
 314              		.type	thread1, %function
 315              	thread1:
 316              	.LFB13:
 317              		.loc 1 133 0
 318              		.cfi_startproc
 319              		@ args = 0, pretend = 0, frame = 8
 320              		@ frame_needed = 0, uses_anonymous_args = 0
 321 0000 00B5     		push	{lr}
 322              		.cfi_def_cfa_offset 4
 323              		.cfi_offset 14, -4
 324 0002 83B0     		sub	sp, sp, #12
 325              		.cfi_def_cfa_offset 16
 326 0004 0190     		str	r0, [sp, #4]
 327              		.loc 1 135 0
 328 0006 3220     		movs	r0, #50
 329 0008 FFF7FEFF 		bl	chThdSleep
ARM GAS  /home/pauba/tmp/cczXe0di.s 			page 7


 330              		.loc 1 136 0
 331 000c 0198     		ldr	r0, [sp, #4]
 332 000e 0121     		movs	r1, #1
 333 0010 FFF7FEFF 		bl	chEvtSignal
 334              		.loc 1 137 0
 335 0014 0023     		movs	r3, #0
 336              		.loc 1 138 0
 337 0016 1846     		mov	r0, r3
 338 0018 03B0     		add	sp, sp, #12
 339              		@ sp needed
 340 001a 5DF804FB 		ldr	pc, [sp], #4
 341              		.cfi_endproc
 342              	.LFE13:
 343              		.size	thread1, .-thread1
 344 001e 00BF     		.section	.text.thread2,"ax",%progbits
 345              		.align	2
 346              		.p2align 4,,15
 347              		.thumb
 348              		.thumb_func
 349              		.type	thread2, %function
 350              	thread2:
 351              	.LFB14:
 352              		.loc 1 140 0
 353              		.cfi_startproc
 354              		@ args = 0, pretend = 0, frame = 8
 355              		@ frame_needed = 0, uses_anonymous_args = 0
 356 0000 00B5     		push	{lr}
 357              		.cfi_def_cfa_offset 4
 358              		.cfi_offset 14, -4
 359 0002 83B0     		sub	sp, sp, #12
 360              		.cfi_def_cfa_offset 16
 361 0004 0190     		str	r0, [sp, #4]
 362              		.loc 1 143 0
 363 0006 0848     		ldr	r0, .L19
 364 0008 0021     		movs	r1, #0
 365 000a FFF7FEFF 		bl	chEvtBroadcastFlags
 366              		.loc 1 144 0
 367 000e 3220     		movs	r0, #50
 368 0010 FFF7FEFF 		bl	chThdSleep
 369              		.loc 1 145 0
 370 0014 0548     		ldr	r0, .L19+4
 371 0016 0021     		movs	r1, #0
 372 0018 FFF7FEFF 		bl	chEvtBroadcastFlags
 373              		.loc 1 146 0
 374 001c 0023     		movs	r3, #0
 375              		.loc 1 147 0
 376 001e 1846     		mov	r0, r3
 377 0020 03B0     		add	sp, sp, #12
 378              		@ sp needed
 379 0022 5DF804FB 		ldr	pc, [sp], #4
 380              	.L20:
 381 0026 00BF     		.align	2
 382              	.L19:
 383 0028 00000000 		.word	es1
 384 002c 00000000 		.word	es2
 385              		.cfi_endproc
 386              	.LFE14:
ARM GAS  /home/pauba/tmp/cczXe0di.s 			page 8


 387              		.size	thread2, .-thread2
 388              		.section	.rodata
 389 0026 0000     		.align	2
 390              	.LC2:
 391 0028 4100     		.ascii	"A\000"
 392              		.section	.text.evt2_execute,"ax",%progbits
 393              		.align	2
 394              		.p2align 4,,15
 395              		.thumb
 396              		.thumb_func
 397              		.type	evt2_execute, %function
 398              	evt2_execute:
 399              	.LFB15:
 400              		.loc 1 149 0
 401              		.cfi_startproc
 402              		@ args = 0, pretend = 0, frame = 40
 403              		@ frame_needed = 0, uses_anonymous_args = 0
 404 0000 00B5     		push	{lr}
 405              		.cfi_def_cfa_offset 4
 406              		.cfi_offset 14, -4
 407 0002 8DB0     		sub	sp, sp, #52
 408              		.cfi_def_cfa_offset 56
 409              		.loc 1 157 0
 410 0004 0520     		movs	r0, #5
 411 0006 FFF7FEFF 		bl	chEvtAddEvents
 412              		.loc 1 158 0
 413 000a 4FF0FF30 		mov	r0, #-1
 414 000e FFF7FEFF 		bl	chEvtWaitOne
 415 0012 0B90     		str	r0, [sp, #44]
 416              		.loc 1 159 0
 417 0014 0B9B     		ldr	r3, [sp, #44]
 418 0016 012B     		cmp	r3, #1
 419 0018 14BF     		ite	ne
 420 001a 0023     		movne	r3, #0
 421 001c 0123     		moveq	r3, #1
 422 001e DBB2     		uxtb	r3, r3
 423 0020 0120     		movs	r0, #1
 424 0022 1946     		mov	r1, r3
 425 0024 FFF7FEFF 		bl	_test_assert
 426 0028 0346     		mov	r3, r0
 427 002a 002B     		cmp	r3, #0
 428 002c 00D0     		beq	.L22
 429              		.loc 1 159 0 is_stmt 0 discriminator 1
 430 002e 5EE1     		b	.L21
 431              	.L22:
 432              		.loc 1 160 0 is_stmt 1
 433 0030 4FF0FF30 		mov	r0, #-1
 434 0034 FFF7FEFF 		bl	chEvtWaitOne
 435 0038 0B90     		str	r0, [sp, #44]
 436              		.loc 1 161 0
 437 003a 0B9B     		ldr	r3, [sp, #44]
 438 003c 042B     		cmp	r3, #4
 439 003e 14BF     		ite	ne
 440 0040 0023     		movne	r3, #0
 441 0042 0123     		moveq	r3, #1
 442 0044 DBB2     		uxtb	r3, r3
 443 0046 0220     		movs	r0, #2
ARM GAS  /home/pauba/tmp/cczXe0di.s 			page 9


 444 0048 1946     		mov	r1, r3
 445 004a FFF7FEFF 		bl	_test_assert
 446 004e 0346     		mov	r3, r0
 447 0050 002B     		cmp	r3, #0
 448 0052 00D0     		beq	.L24
 449              		.loc 1 161 0 is_stmt 0 discriminator 1
 450 0054 4BE1     		b	.L21
 451              	.L24:
 452              		.loc 1 162 0 is_stmt 1
 453 0056 4FF0FF30 		mov	r0, #-1
 454 005a FFF7FEFF 		bl	chEvtGetAndClearEvents
 455 005e 0B90     		str	r0, [sp, #44]
 456              		.loc 1 163 0
 457 0060 0B9B     		ldr	r3, [sp, #44]
 458 0062 002B     		cmp	r3, #0
 459 0064 14BF     		ite	ne
 460 0066 0023     		movne	r3, #0
 461 0068 0123     		moveq	r3, #1
 462 006a DBB2     		uxtb	r3, r3
 463 006c 0320     		movs	r0, #3
 464 006e 1946     		mov	r1, r3
 465 0070 FFF7FEFF 		bl	_test_assert
 466 0074 0346     		mov	r3, r0
 467 0076 002B     		cmp	r3, #0
 468 0078 00D0     		beq	.L25
 469              		.loc 1 163 0 is_stmt 0 discriminator 1
 470 007a 38E1     		b	.L21
 471              	.L25:
 472              		.loc 1 168 0 is_stmt 1
 473 007c FFF7FEFF 		bl	test_wait_tick
 474              		.loc 1 169 0
 475 0080 9C4B     		ldr	r3, .L39
 476 0082 DB68     		ldr	r3, [r3, #12]
 477 0084 3233     		adds	r3, r3, #50
 478 0086 0A93     		str	r3, [sp, #40]
 479              		.loc 1 170 0
 480 0088 9B4B     		ldr	r3, .L39+4
 481 008a 1A68     		ldr	r2, [r3]
 482 008c 9B4B     		ldr	r3, .L39+8
 483 008e 9B69     		ldr	r3, [r3, #24]
 484 0090 9B68     		ldr	r3, [r3, #8]
 485 0092 013B     		subs	r3, r3, #1
 486              		.loc 1 171 0
 487 0094 9949     		ldr	r1, .L39+8
 488 0096 8969     		ldr	r1, [r1, #24]
 489              		.loc 1 170 0
 490 0098 0091     		str	r1, [sp]
 491 009a 1046     		mov	r0, r2
 492 009c 4FF4A871 		mov	r1, #336
 493 00a0 1A46     		mov	r2, r3
 494 00a2 974B     		ldr	r3, .L39+12
 495 00a4 FFF7FEFF 		bl	chThdCreateStatic
 496 00a8 0246     		mov	r2, r0
 497 00aa 964B     		ldr	r3, .L39+16
 498 00ac 1A60     		str	r2, [r3]
 499              		.loc 1 172 0
 500 00ae 4FF0FF30 		mov	r0, #-1
ARM GAS  /home/pauba/tmp/cczXe0di.s 			page 10


 501 00b2 FFF7FEFF 		bl	chEvtWaitOne
 502 00b6 0B90     		str	r0, [sp, #44]
 503              		.loc 1 173 0
 504 00b8 0A9B     		ldr	r3, [sp, #40]
 505 00ba 0533     		adds	r3, r3, #5
 506 00bc 0420     		movs	r0, #4
 507 00be 0A99     		ldr	r1, [sp, #40]
 508 00c0 1A46     		mov	r2, r3
 509 00c2 FFF7FEFF 		bl	_test_assert_time_window
 510 00c6 0346     		mov	r3, r0
 511 00c8 002B     		cmp	r3, #0
 512 00ca 00D0     		beq	.L26
 513              		.loc 1 173 0 is_stmt 0 discriminator 1
 514 00cc 0FE1     		b	.L21
 515              	.L26:
 516              		.loc 1 174 0 is_stmt 1
 517 00ce 0B9B     		ldr	r3, [sp, #44]
 518 00d0 012B     		cmp	r3, #1
 519 00d2 14BF     		ite	ne
 520 00d4 0023     		movne	r3, #0
 521 00d6 0123     		moveq	r3, #1
 522 00d8 DBB2     		uxtb	r3, r3
 523 00da 0520     		movs	r0, #5
 524 00dc 1946     		mov	r1, r3
 525 00de FFF7FEFF 		bl	_test_assert
 526 00e2 0346     		mov	r3, r0
 527 00e4 002B     		cmp	r3, #0
 528 00e6 00D0     		beq	.L27
 529              		.loc 1 174 0 is_stmt 0 discriminator 1
 530 00e8 01E1     		b	.L21
 531              	.L27:
 532              		.loc 1 175 0 is_stmt 1
 533 00ea 4FF0FF30 		mov	r0, #-1
 534 00ee FFF7FEFF 		bl	chEvtGetAndClearEvents
 535 00f2 0B90     		str	r0, [sp, #44]
 536              		.loc 1 176 0
 537 00f4 0B9B     		ldr	r3, [sp, #44]
 538 00f6 002B     		cmp	r3, #0
 539 00f8 14BF     		ite	ne
 540 00fa 0023     		movne	r3, #0
 541 00fc 0123     		moveq	r3, #1
 542 00fe DBB2     		uxtb	r3, r3
 543 0100 0620     		movs	r0, #6
 544 0102 1946     		mov	r1, r3
 545 0104 FFF7FEFF 		bl	_test_assert
 546 0108 0346     		mov	r3, r0
 547 010a 002B     		cmp	r3, #0
 548 010c 00D0     		beq	.L28
 549              		.loc 1 176 0 is_stmt 0 discriminator 1
 550 010e EEE0     		b	.L21
 551              	.L28:
 552              		.loc 1 177 0 is_stmt 1
 553 0110 FFF7FEFF 		bl	test_wait_threads
 554              		.loc 1 182 0
 555 0114 0520     		movs	r0, #5
 556 0116 FFF7FEFF 		bl	chEvtAddEvents
 557              		.loc 1 183 0
ARM GAS  /home/pauba/tmp/cczXe0di.s 			page 11


 558 011a 4FF0FF30 		mov	r0, #-1
 559 011e FFF7FEFF 		bl	chEvtWaitAny
 560 0122 0B90     		str	r0, [sp, #44]
 561              		.loc 1 184 0
 562 0124 0B9B     		ldr	r3, [sp, #44]
 563 0126 052B     		cmp	r3, #5
 564 0128 14BF     		ite	ne
 565 012a 0023     		movne	r3, #0
 566 012c 0123     		moveq	r3, #1
 567 012e DBB2     		uxtb	r3, r3
 568 0130 0720     		movs	r0, #7
 569 0132 1946     		mov	r1, r3
 570 0134 FFF7FEFF 		bl	_test_assert
 571 0138 0346     		mov	r3, r0
 572 013a 002B     		cmp	r3, #0
 573 013c 00D0     		beq	.L29
 574              		.loc 1 184 0 is_stmt 0 discriminator 1
 575 013e D6E0     		b	.L21
 576              	.L29:
 577              		.loc 1 185 0 is_stmt 1
 578 0140 4FF0FF30 		mov	r0, #-1
 579 0144 FFF7FEFF 		bl	chEvtGetAndClearEvents
 580 0148 0B90     		str	r0, [sp, #44]
 581              		.loc 1 186 0
 582 014a 0B9B     		ldr	r3, [sp, #44]
 583 014c 002B     		cmp	r3, #0
 584 014e 14BF     		ite	ne
 585 0150 0023     		movne	r3, #0
 586 0152 0123     		moveq	r3, #1
 587 0154 DBB2     		uxtb	r3, r3
 588 0156 0820     		movs	r0, #8
 589 0158 1946     		mov	r1, r3
 590 015a FFF7FEFF 		bl	_test_assert
 591 015e 0346     		mov	r3, r0
 592 0160 002B     		cmp	r3, #0
 593 0162 00D0     		beq	.L30
 594              		.loc 1 186 0 is_stmt 0 discriminator 1
 595 0164 C3E0     		b	.L21
 596              	.L30:
 597              		.loc 1 191 0 is_stmt 1
 598 0166 FFF7FEFF 		bl	test_wait_tick
 599              		.loc 1 192 0
 600 016a 624B     		ldr	r3, .L39
 601 016c DB68     		ldr	r3, [r3, #12]
 602 016e 3233     		adds	r3, r3, #50
 603 0170 0A93     		str	r3, [sp, #40]
 604              		.loc 1 193 0
 605 0172 614B     		ldr	r3, .L39+4
 606 0174 1A68     		ldr	r2, [r3]
 607 0176 614B     		ldr	r3, .L39+8
 608 0178 9B69     		ldr	r3, [r3, #24]
 609 017a 9B68     		ldr	r3, [r3, #8]
 610 017c 013B     		subs	r3, r3, #1
 611              		.loc 1 194 0
 612 017e 5F49     		ldr	r1, .L39+8
 613 0180 8969     		ldr	r1, [r1, #24]
 614              		.loc 1 193 0
ARM GAS  /home/pauba/tmp/cczXe0di.s 			page 12


 615 0182 0091     		str	r1, [sp]
 616 0184 1046     		mov	r0, r2
 617 0186 4FF4A871 		mov	r1, #336
 618 018a 1A46     		mov	r2, r3
 619 018c 5C4B     		ldr	r3, .L39+12
 620 018e FFF7FEFF 		bl	chThdCreateStatic
 621 0192 0246     		mov	r2, r0
 622 0194 5B4B     		ldr	r3, .L39+16
 623 0196 1A60     		str	r2, [r3]
 624              		.loc 1 195 0
 625 0198 4FF0FF30 		mov	r0, #-1
 626 019c FFF7FEFF 		bl	chEvtWaitAny
 627 01a0 0B90     		str	r0, [sp, #44]
 628              		.loc 1 196 0
 629 01a2 0A9B     		ldr	r3, [sp, #40]
 630 01a4 0533     		adds	r3, r3, #5
 631 01a6 0920     		movs	r0, #9
 632 01a8 0A99     		ldr	r1, [sp, #40]
 633 01aa 1A46     		mov	r2, r3
 634 01ac FFF7FEFF 		bl	_test_assert_time_window
 635 01b0 0346     		mov	r3, r0
 636 01b2 002B     		cmp	r3, #0
 637 01b4 00D0     		beq	.L31
 638              		.loc 1 196 0 is_stmt 0 discriminator 1
 639 01b6 9AE0     		b	.L21
 640              	.L31:
 641              		.loc 1 197 0 is_stmt 1
 642 01b8 0B9B     		ldr	r3, [sp, #44]
 643 01ba 012B     		cmp	r3, #1
 644 01bc 14BF     		ite	ne
 645 01be 0023     		movne	r3, #0
 646 01c0 0123     		moveq	r3, #1
 647 01c2 DBB2     		uxtb	r3, r3
 648 01c4 0A20     		movs	r0, #10
 649 01c6 1946     		mov	r1, r3
 650 01c8 FFF7FEFF 		bl	_test_assert
 651 01cc 0346     		mov	r3, r0
 652 01ce 002B     		cmp	r3, #0
 653 01d0 00D0     		beq	.L32
 654              		.loc 1 197 0 is_stmt 0 discriminator 1
 655 01d2 8CE0     		b	.L21
 656              	.L32:
 657              		.loc 1 198 0 is_stmt 1
 658 01d4 4FF0FF30 		mov	r0, #-1
 659 01d8 FFF7FEFF 		bl	chEvtGetAndClearEvents
 660 01dc 0B90     		str	r0, [sp, #44]
 661              		.loc 1 199 0
 662 01de 0B9B     		ldr	r3, [sp, #44]
 663 01e0 002B     		cmp	r3, #0
 664 01e2 14BF     		ite	ne
 665 01e4 0023     		movne	r3, #0
 666 01e6 0123     		moveq	r3, #1
 667 01e8 DBB2     		uxtb	r3, r3
 668 01ea 0B20     		movs	r0, #11
 669 01ec 1946     		mov	r1, r3
 670 01ee FFF7FEFF 		bl	_test_assert
 671 01f2 0346     		mov	r3, r0
ARM GAS  /home/pauba/tmp/cczXe0di.s 			page 13


 672 01f4 002B     		cmp	r3, #0
 673 01f6 00D0     		beq	.L33
 674              		.loc 1 199 0 is_stmt 0 discriminator 1
 675 01f8 79E0     		b	.L21
 676              	.L33:
 677              		.loc 1 200 0 is_stmt 1
 678 01fa FFF7FEFF 		bl	test_wait_threads
 679              		.loc 1 205 0
 680 01fe 424B     		ldr	r3, .L39+20
 681 0200 414A     		ldr	r2, .L39+20
 682 0202 1A60     		str	r2, [r3]
 683              		.loc 1 206 0
 684 0204 414B     		ldr	r3, .L39+24
 685 0206 414A     		ldr	r2, .L39+24
 686 0208 1A60     		str	r2, [r3]
 687              		.loc 1 207 0
 688 020a 06AB     		add	r3, sp, #24
 689 020c 3E48     		ldr	r0, .L39+20
 690 020e 1946     		mov	r1, r3
 691 0210 0122     		movs	r2, #1
 692 0212 FFF7FEFF 		bl	chEvtRegisterMask
 693              		.loc 1 208 0
 694 0216 02AB     		add	r3, sp, #8
 695 0218 3C48     		ldr	r0, .L39+24
 696 021a 1946     		mov	r1, r3
 697 021c 0422     		movs	r2, #4
 698 021e FFF7FEFF 		bl	chEvtRegisterMask
 699              		.loc 1 209 0
 700 0222 FFF7FEFF 		bl	test_wait_tick
 701              		.loc 1 210 0
 702 0226 334B     		ldr	r3, .L39
 703 0228 DB68     		ldr	r3, [r3, #12]
 704 022a 3233     		adds	r3, r3, #50
 705 022c 0A93     		str	r3, [sp, #40]
 706              		.loc 1 211 0
 707 022e 324B     		ldr	r3, .L39+4
 708 0230 1A68     		ldr	r2, [r3]
 709 0232 324B     		ldr	r3, .L39+8
 710 0234 9B69     		ldr	r3, [r3, #24]
 711 0236 9B68     		ldr	r3, [r3, #8]
 712 0238 013B     		subs	r3, r3, #1
 713 023a 3549     		ldr	r1, .L39+28
 714 023c 0091     		str	r1, [sp]
 715 023e 1046     		mov	r0, r2
 716 0240 4FF4A871 		mov	r1, #336
 717 0244 1A46     		mov	r2, r3
 718 0246 334B     		ldr	r3, .L39+32
 719 0248 FFF7FEFF 		bl	chThdCreateStatic
 720 024c 0246     		mov	r2, r0
 721 024e 2D4B     		ldr	r3, .L39+16
 722 0250 1A60     		str	r2, [r3]
 723              		.loc 1 213 0
 724 0252 0520     		movs	r0, #5
 725 0254 FFF7FEFF 		bl	chEvtWaitAll
 726 0258 0B90     		str	r0, [sp, #44]
 727              		.loc 1 214 0
 728 025a 0A9B     		ldr	r3, [sp, #40]
ARM GAS  /home/pauba/tmp/cczXe0di.s 			page 14


 729 025c 0533     		adds	r3, r3, #5
 730 025e 0C20     		movs	r0, #12
 731 0260 0A99     		ldr	r1, [sp, #40]
 732 0262 1A46     		mov	r2, r3
 733 0264 FFF7FEFF 		bl	_test_assert_time_window
 734 0268 0346     		mov	r3, r0
 735 026a 002B     		cmp	r3, #0
 736 026c 00D0     		beq	.L34
 737              		.loc 1 214 0 is_stmt 0 discriminator 1
 738 026e 3EE0     		b	.L21
 739              	.L34:
 740              		.loc 1 215 0 is_stmt 1
 741 0270 4FF0FF30 		mov	r0, #-1
 742 0274 FFF7FEFF 		bl	chEvtGetAndClearEvents
 743 0278 0B90     		str	r0, [sp, #44]
 744              		.loc 1 216 0
 745 027a 0B9B     		ldr	r3, [sp, #44]
 746 027c 002B     		cmp	r3, #0
 747 027e 14BF     		ite	ne
 748 0280 0023     		movne	r3, #0
 749 0282 0123     		moveq	r3, #1
 750 0284 DBB2     		uxtb	r3, r3
 751 0286 0D20     		movs	r0, #13
 752 0288 1946     		mov	r1, r3
 753 028a FFF7FEFF 		bl	_test_assert
 754 028e 0346     		mov	r3, r0
 755 0290 002B     		cmp	r3, #0
 756 0292 00D0     		beq	.L35
 757              		.loc 1 216 0 is_stmt 0 discriminator 1
 758 0294 2BE0     		b	.L21
 759              	.L35:
 760              		.loc 1 217 0 is_stmt 1
 761 0296 FFF7FEFF 		bl	test_wait_threads
 762              		.loc 1 218 0
 763 029a 06AB     		add	r3, sp, #24
 764 029c 1A48     		ldr	r0, .L39+20
 765 029e 1946     		mov	r1, r3
 766 02a0 FFF7FEFF 		bl	chEvtUnregister
 767              		.loc 1 219 0
 768 02a4 02AB     		add	r3, sp, #8
 769 02a6 1948     		ldr	r0, .L39+24
 770 02a8 1946     		mov	r1, r3
 771 02aa FFF7FEFF 		bl	chEvtUnregister
 772              		.loc 1 220 0
 773 02ae 164B     		ldr	r3, .L39+20
 774 02b0 1A68     		ldr	r2, [r3]
 775 02b2 154B     		ldr	r3, .L39+20
 776 02b4 9A42     		cmp	r2, r3
 777 02b6 14BF     		ite	ne
 778 02b8 0023     		movne	r3, #0
 779 02ba 0123     		moveq	r3, #1
 780 02bc DBB2     		uxtb	r3, r3
 781 02be 0E20     		movs	r0, #14
 782 02c0 1946     		mov	r1, r3
 783 02c2 FFF7FEFF 		bl	_test_assert
 784 02c6 0346     		mov	r3, r0
 785 02c8 002B     		cmp	r3, #0
ARM GAS  /home/pauba/tmp/cczXe0di.s 			page 15


 786 02ca 00D0     		beq	.L36
 787              		.loc 1 220 0 is_stmt 0 discriminator 1
 788 02cc 0FE0     		b	.L21
 789              	.L36:
 790              		.loc 1 221 0 is_stmt 1
 791 02ce 0F4B     		ldr	r3, .L39+24
 792 02d0 1A68     		ldr	r2, [r3]
 793 02d2 0E4B     		ldr	r3, .L39+24
 794 02d4 9A42     		cmp	r2, r3
 795 02d6 14BF     		ite	ne
 796 02d8 0023     		movne	r3, #0
 797 02da 0123     		moveq	r3, #1
 798 02dc DBB2     		uxtb	r3, r3
 799 02de 0F20     		movs	r0, #15
 800 02e0 1946     		mov	r1, r3
 801 02e2 FFF7FEFF 		bl	_test_assert
 802 02e6 0346     		mov	r3, r0
 803 02e8 002B     		cmp	r3, #0
 804 02ea 00D0     		beq	.L21
 805 02ec 00BF     		nop
 806              	.L21:
 807              		.loc 1 222 0
 808 02ee 0DB0     		add	sp, sp, #52
 809              		@ sp needed
 810 02f0 5DF804FB 		ldr	pc, [sp], #4
 811              	.L40:
 812              		.align	2
 813              	.L39:
 814 02f4 00000000 		.word	vtlist
 815 02f8 00000000 		.word	wa
 816 02fc 00000000 		.word	rlist
 817 0300 00000000 		.word	thread1
 818 0304 00000000 		.word	threads
 819 0308 00000000 		.word	es1
 820 030c 00000000 		.word	es2
 821 0310 28000000 		.word	.LC2
 822 0314 00000000 		.word	thread2
 823              		.cfi_endproc
 824              	.LFE15:
 825              		.size	evt2_execute, .-evt2_execute
 826              		.global	testevt2
 827 0318 AFF30080 		.section	.rodata
 827      AFF30080 
 828 002a 0000     		.align	2
 829              	.LC3:
 830 002c 4576656E 		.ascii	"Events, wait and broadcast\000"
 830      74732C20 
 830      77616974 
 830      20616E64 
 830      2062726F 
 831              		.section	.rodata.testevt2,"a",%progbits
 832              		.align	2
 833              		.type	testevt2, %object
 834              		.size	testevt2, 16
 835              	testevt2:
 836 0000 2C000000 		.word	.LC3
 837 0004 00000000 		.word	evt2_setup
ARM GAS  /home/pauba/tmp/cczXe0di.s 			page 16


 838 0008 00000000 		.word	0
 839 000c 00000000 		.word	evt2_execute
 840              		.section	.text.evt3_setup,"ax",%progbits
 841              		.align	2
 842              		.p2align 4,,15
 843              		.thumb
 844              		.thumb_func
 845              		.type	evt3_setup, %function
 846              	evt3_setup:
 847              	.LFB16:
 848              		.loc 1 247 0
 849              		.cfi_startproc
 850              		@ args = 0, pretend = 0, frame = 0
 851              		@ frame_needed = 0, uses_anonymous_args = 0
 852 0000 08B5     		push	{r3, lr}
 853              		.cfi_def_cfa_offset 8
 854              		.cfi_offset 3, -8
 855              		.cfi_offset 14, -4
 856              		.loc 1 249 0
 857 0002 4FF0FF30 		mov	r0, #-1
 858 0006 FFF7FEFF 		bl	chEvtGetAndClearEvents
 859              		.loc 1 250 0
 860 000a 08BD     		pop	{r3, pc}
 861              		.cfi_endproc
 862              	.LFE16:
 863              		.size	evt3_setup, .-evt3_setup
 864              		.section	.text.evt3_execute,"ax",%progbits
 865              		.align	2
 866              		.p2align 4,,15
 867              		.thumb
 868              		.thumb_func
 869              		.type	evt3_execute, %function
 870              	evt3_execute:
 871              	.LFB17:
 872              		.loc 1 252 0
 873              		.cfi_startproc
 874              		@ args = 0, pretend = 0, frame = 8
 875              		@ frame_needed = 0, uses_anonymous_args = 0
 876 0000 00B5     		push	{lr}
 877              		.cfi_def_cfa_offset 4
 878              		.cfi_offset 14, -4
 879 0002 83B0     		sub	sp, sp, #12
 880              		.cfi_def_cfa_offset 16
 881              		.loc 1 258 0
 882 0004 4FF0FF30 		mov	r0, #-1
 883 0008 0021     		movs	r1, #0
 884 000a FFF7FEFF 		bl	chEvtWaitOneTimeout
 885 000e 0190     		str	r0, [sp, #4]
 886              		.loc 1 259 0
 887 0010 019B     		ldr	r3, [sp, #4]
 888 0012 002B     		cmp	r3, #0
 889 0014 14BF     		ite	ne
 890 0016 0023     		movne	r3, #0
 891 0018 0123     		moveq	r3, #1
 892 001a DBB2     		uxtb	r3, r3
 893 001c 0120     		movs	r0, #1
 894 001e 1946     		mov	r1, r3
ARM GAS  /home/pauba/tmp/cczXe0di.s 			page 17


 895 0020 FFF7FEFF 		bl	_test_assert
 896 0024 0346     		mov	r3, r0
 897 0026 002B     		cmp	r3, #0
 898 0028 00D0     		beq	.L43
 899              		.loc 1 259 0 is_stmt 0 discriminator 1
 900 002a 63E0     		b	.L42
 901              	.L43:
 902              		.loc 1 260 0 is_stmt 1
 903 002c 4FF0FF30 		mov	r0, #-1
 904 0030 0021     		movs	r1, #0
 905 0032 FFF7FEFF 		bl	chEvtWaitAnyTimeout
 906 0036 0190     		str	r0, [sp, #4]
 907              		.loc 1 261 0
 908 0038 019B     		ldr	r3, [sp, #4]
 909 003a 002B     		cmp	r3, #0
 910 003c 14BF     		ite	ne
 911 003e 0023     		movne	r3, #0
 912 0040 0123     		moveq	r3, #1
 913 0042 DBB2     		uxtb	r3, r3
 914 0044 0220     		movs	r0, #2
 915 0046 1946     		mov	r1, r3
 916 0048 FFF7FEFF 		bl	_test_assert
 917 004c 0346     		mov	r3, r0
 918 004e 002B     		cmp	r3, #0
 919 0050 00D0     		beq	.L45
 920              		.loc 1 261 0 is_stmt 0 discriminator 1
 921 0052 4FE0     		b	.L42
 922              	.L45:
 923              		.loc 1 262 0 is_stmt 1
 924 0054 4FF0FF30 		mov	r0, #-1
 925 0058 0021     		movs	r1, #0
 926 005a FFF7FEFF 		bl	chEvtWaitAllTimeout
 927 005e 0190     		str	r0, [sp, #4]
 928              		.loc 1 263 0
 929 0060 019B     		ldr	r3, [sp, #4]
 930 0062 002B     		cmp	r3, #0
 931 0064 14BF     		ite	ne
 932 0066 0023     		movne	r3, #0
 933 0068 0123     		moveq	r3, #1
 934 006a DBB2     		uxtb	r3, r3
 935 006c 0320     		movs	r0, #3
 936 006e 1946     		mov	r1, r3
 937 0070 FFF7FEFF 		bl	_test_assert
 938 0074 0346     		mov	r3, r0
 939 0076 002B     		cmp	r3, #0
 940 0078 00D0     		beq	.L46
 941              		.loc 1 263 0 is_stmt 0 discriminator 1
 942 007a 3BE0     		b	.L42
 943              	.L46:
 944              		.loc 1 264 0 is_stmt 1
 945 007c 4FF0FF30 		mov	r0, #-1
 946 0080 0A21     		movs	r1, #10
 947 0082 FFF7FEFF 		bl	chEvtWaitOneTimeout
 948 0086 0190     		str	r0, [sp, #4]
 949              		.loc 1 265 0
 950 0088 019B     		ldr	r3, [sp, #4]
 951 008a 002B     		cmp	r3, #0
ARM GAS  /home/pauba/tmp/cczXe0di.s 			page 18


 952 008c 14BF     		ite	ne
 953 008e 0023     		movne	r3, #0
 954 0090 0123     		moveq	r3, #1
 955 0092 DBB2     		uxtb	r3, r3
 956 0094 0420     		movs	r0, #4
 957 0096 1946     		mov	r1, r3
 958 0098 FFF7FEFF 		bl	_test_assert
 959 009c 0346     		mov	r3, r0
 960 009e 002B     		cmp	r3, #0
 961 00a0 00D0     		beq	.L47
 962              		.loc 1 265 0 is_stmt 0 discriminator 1
 963 00a2 27E0     		b	.L42
 964              	.L47:
 965              		.loc 1 266 0 is_stmt 1
 966 00a4 4FF0FF30 		mov	r0, #-1
 967 00a8 0A21     		movs	r1, #10
 968 00aa FFF7FEFF 		bl	chEvtWaitAnyTimeout
 969 00ae 0190     		str	r0, [sp, #4]
 970              		.loc 1 267 0
 971 00b0 019B     		ldr	r3, [sp, #4]
 972 00b2 002B     		cmp	r3, #0
 973 00b4 14BF     		ite	ne
 974 00b6 0023     		movne	r3, #0
 975 00b8 0123     		moveq	r3, #1
 976 00ba DBB2     		uxtb	r3, r3
 977 00bc 0520     		movs	r0, #5
 978 00be 1946     		mov	r1, r3
 979 00c0 FFF7FEFF 		bl	_test_assert
 980 00c4 0346     		mov	r3, r0
 981 00c6 002B     		cmp	r3, #0
 982 00c8 00D0     		beq	.L48
 983              		.loc 1 267 0 is_stmt 0 discriminator 1
 984 00ca 13E0     		b	.L42
 985              	.L48:
 986              		.loc 1 268 0 is_stmt 1
 987 00cc 4FF0FF30 		mov	r0, #-1
 988 00d0 0A21     		movs	r1, #10
 989 00d2 FFF7FEFF 		bl	chEvtWaitAllTimeout
 990 00d6 0190     		str	r0, [sp, #4]
 991              		.loc 1 269 0
 992 00d8 019B     		ldr	r3, [sp, #4]
 993 00da 002B     		cmp	r3, #0
 994 00dc 14BF     		ite	ne
 995 00de 0023     		movne	r3, #0
 996 00e0 0123     		moveq	r3, #1
 997 00e2 DBB2     		uxtb	r3, r3
 998 00e4 0620     		movs	r0, #6
 999 00e6 1946     		mov	r1, r3
 1000 00e8 FFF7FEFF 		bl	_test_assert
 1001 00ec 0346     		mov	r3, r0
 1002 00ee 002B     		cmp	r3, #0
 1003 00f0 00D0     		beq	.L42
 1004              		.loc 1 269 0 is_stmt 0 discriminator 1
 1005 00f2 00BF     		nop
 1006              	.L42:
 1007              		.loc 1 270 0 is_stmt 1
 1008 00f4 03B0     		add	sp, sp, #12
ARM GAS  /home/pauba/tmp/cczXe0di.s 			page 19


 1009              		@ sp needed
 1010 00f6 5DF804FB 		ldr	pc, [sp], #4
 1011              		.cfi_endproc
 1012              	.LFE17:
 1013              		.size	evt3_execute, .-evt3_execute
 1014              		.global	testevt3
 1015 00fa 00BFAFF3 		.section	.rodata
 1015      0080
 1016 0047 00       		.align	2
 1017              	.LC4:
 1018 0048 4576656E 		.ascii	"Events, timeouts\000"
 1018      74732C20 
 1018      74696D65 
 1018      6F757473 
 1018      00
 1019 0059 000000   		.section	.rodata.testevt3,"a",%progbits
 1020              		.align	2
 1021              		.type	testevt3, %object
 1022              		.size	testevt3, 16
 1023              	testevt3:
 1024 0000 48000000 		.word	.LC4
 1025 0004 00000000 		.word	evt3_setup
 1026 0008 00000000 		.word	0
 1027 000c 00000000 		.word	evt3_execute
 1028              		.global	patternevt
 1029              		.section	.rodata.patternevt,"a",%progbits
 1030              		.align	2
 1031              		.type	patternevt, %object
 1032              		.size	patternevt, 16
 1033              	patternevt:
 1034 0000 00000000 		.word	testevt1
 1035 0004 00000000 		.word	testevt2
 1036 0008 00000000 		.word	testevt3
 1037 000c 00000000 		.word	0
 1038              		.text
 1039              	.Letext0:
 1040              		.file 2 "/opt/gcc-arm-none-eabi-4_8-2014q1/arm-none-eabi/include/machine/_default_types.h"
 1041              		.file 3 "/opt/gcc-arm-none-eabi-4_8-2014q1/arm-none-eabi/include/stdint.h"
 1042              		.file 4 "/home/pauba/ChibiOS-RT/os/ports/GCC/ARMCMx/chtypes.h"
 1043              		.file 5 "/home/pauba/ChibiOS-RT/os/kernel/include/chlists.h"
 1044              		.file 6 "/home/pauba/ChibiOS-RT/os/kernel/include/chthreads.h"
 1045              		.file 7 "/home/pauba/ChibiOS-RT/os/ports/GCC/ARMCMx/chcore_v7m.h"
 1046              		.file 8 "/home/pauba/ChibiOS-RT/os/kernel/include/chvt.h"
 1047              		.file 9 "/home/pauba/ChibiOS-RT/os/kernel/include/chschd.h"
 1048              		.file 10 "/home/pauba/ChibiOS-RT/os/kernel/include/chmtx.h"
 1049              		.file 11 "/home/pauba/ChibiOS-RT/os/kernel/include/chevents.h"
 1050              		.file 12 "/home/pauba/ChibiOS-RT/test/test.h"